
03-Car_led_display.elf:     file format elf32-littleriscv
03-Car_led_display.elf
architecture: riscv:rv32, flags 0x00000112:
EXEC_P, HAS_SYMS, D_PAGED
start address 0x00000000

Program Header:
    LOAD off    0x00001000 vaddr 0x00000000 paddr 0x00000000 align 2**12
         filesz 0x000032e8 memsz 0x000032e8 flags r-x
    LOAD off    0x00005000 vaddr 0x20000000 paddr 0x000032e8 align 2**12
         filesz 0x00000018 memsz 0x0000002c flags rw-
    LOAD off    0x00005800 vaddr 0x20004800 paddr 0x20004800 align 2**12
         filesz 0x00000000 memsz 0x00000800 flags rw-

Sections:
Idx Name           Size      VMA       LMA       File off  Algn  Flags
  0 .init          00000038  00000000  00000000  00001000  2**1  CONTENTS, ALLOC, LOAD, READONLY, CODE
  1 .vector        00000108  00000038  00000038  00001038  2**1  CONTENTS, ALLOC, LOAD, READONLY, CODE
  2 .text          000031a8  00000140  00000140  00001140  2**2  CONTENTS, ALLOC, LOAD, READONLY, CODE
  3 .fini          00000000  000032e8  000032e8  00005018  2**0  CONTENTS, ALLOC, LOAD, CODE
  4 .dalign        00000000  20000000  20000000  00005018  2**0  CONTENTS
  5 .dlalign       00000000  000032e8  000032e8  00005018  2**0  CONTENTS
  6 .data          00000018  20000000  000032e8  00005000  2**2  CONTENTS, ALLOC, LOAD, DATA
  7 .bss           00000014  20000018  00003300  00005018  2**2  ALLOC
  8 .stack         00000800  20004800  20004800  00005800  2**0  ALLOC
  9 .debug_info    000156f1  00000000  00000000  00005018  2**0  CONTENTS, READONLY, DEBUGGING
 10 .debug_abbrev  00003aef  00000000  00000000  0001a709  2**0  CONTENTS, READONLY, DEBUGGING
 11 .debug_aranges 00000be8  00000000  00000000  0001e1f8  2**3  CONTENTS, READONLY, DEBUGGING
 12 .debug_ranges  00000a28  00000000  00000000  0001ede0  2**3  CONTENTS, READONLY, DEBUGGING
 13 .debug_line    0000c29f  00000000  00000000  0001f808  2**0  CONTENTS, READONLY, DEBUGGING
 14 .debug_str     00003c0d  00000000  00000000  0002baa7  2**0  CONTENTS, READONLY, DEBUGGING
 15 .comment       00000033  00000000  00000000  0002f6b4  2**0  CONTENTS, READONLY
 16 .debug_frame   000027ac  00000000  00000000  0002f6e8  2**2  CONTENTS, READONLY, DEBUGGING
 17 .stabstr       00000183  00000000  00000000  00031e94  2**0  CONTENTS, READONLY, DEBUGGING
SYMBOL TABLE:
00000000 l    d  .init	00000000 .init
00000038 l    d  .vector	00000000 .vector
00000140 l    d  .text	00000000 .text
000032e8 l    d  .fini	00000000 .fini
20000000 l    d  .dalign	00000000 .dalign
000032e8 l    d  .dlalign	00000000 .dlalign
20000000 l    d  .data	00000000 .data
20000018 l    d  .bss	00000000 .bss
20004800 l    d  .stack	00000000 .stack
00000000 l    d  .debug_info	00000000 .debug_info
00000000 l    d  .debug_abbrev	00000000 .debug_abbrev
00000000 l    d  .debug_aranges	00000000 .debug_aranges
00000000 l    d  .debug_ranges	00000000 .debug_ranges
00000000 l    d  .debug_line	00000000 .debug_line
00000000 l    d  .debug_str	00000000 .debug_str
00000000 l    d  .comment	00000000 .comment
00000000 l    d  .debug_frame	00000000 .debug_frame
00000000 l    d  .stabstr	00000000 .stabstr
00000000 l    df *ABS*	00000000 ./CH32V10x/CH32V10x_p/Startup/startup_ch32v10x.o
00000038 l       .vector	00000000 _vector_base
00000000 l    df *ABS*	00000000 isr.c
00000000 l    df *ABS*	00000000 main.c
00000000 l    df *ABS*	00000000 HF_L9110S_2.c
00000000 l    df *ABS*	00000000 HF_TM1637.c
000032a4 l     O .text	00000012 leddata
00000000 l    df *ABS*	00000000 HF_WS2812b.c
00000000 l    df *ABS*	00000000 board.c
00000000 l    df *ABS*	00000000 clock_config.c
000007ca l     F .text	00000140 SetSysClock
00000000 l    df *ABS*	00000000 delay.c
2000001c l     O .bss	00000001 p_us
2000001e l     O .bss	00000002 p_ms
00000000 l    df *ABS*	00000000 hf_adc.c
00000000 l    df *ABS*	00000000 hf_gpio.c
00000000 l    df *ABS*	00000000 hf_nvic.c
00000000 l    df *ABS*	00000000 hf_pwm.c
00000000 l    df *ABS*	00000000 hf_tim.c
00000000 l    df *ABS*	00000000 hf_uart.c
00000000 l    df *ABS*	00000000 board_led.c
00000000 l    df *ABS*	00000000 car_4keys.c
00000000 l    df *ABS*	00000000 car_adc.c
00000000 l    df *ABS*	00000000 car_buzzer.c
00000000 l    df *ABS*	00000000 car_init.c
00000000 l    df *ABS*	00000000 car_reed_switch.c
00000000 l    df *ABS*	00000000 ch32v10x_adc.c
00000000 l    df *ABS*	00000000 ch32v10x_exti.c
00000000 l    df *ABS*	00000000 ch32v10x_gpio.c
00000000 l    df *ABS*	00000000 ch32v10x_rcc.c
20000000 l     O .data	00000010 APBAHBPrescTable
20000010 l     O .data	00000004 ADCPrescTable
00000000 l    df *ABS*	00000000 ch32v10x_tim.c
00000000 l    df *ABS*	00000000 ch32v10x_usart.c
00000000 l    df *ABS*	00000000 common.c
00000000 l    df *ABS*	00000000 close.c
00000188 g     F .text	00000010 EXTI2_IRQHandler
20000810 g       .data	00000000 __global_pointer$
00000150 g     F .text	00000008 HardFault_Handler
000019fe g     F .text	00000080 key_init
00002be8 g     F .text	0000004c TIM_OC1PreloadConfig
00001dba g     F .text	00000022 ADC_StartCalibration
20000018 g     O .bss	00000004 sys_clk
00000140 g     F .text	00000010 NMI_Handler
00001760 g     F .text	000000ac timbase_init
00000198 g     F .text	00000010 EXTI3_IRQHandler
00001a9c g     F .text	0000001e buzzer_init
000032c8 g     O .text	00000010 TIMERN
20000018 g       .bss	00000000 _sbss
00000800 g       *ABS*	00000000 __stack_size
000005a2 g     F .text	00000026 tm1637_command
00002b88 g     F .text	00000060 TIM_CtrlPWMOutputs
00001d2a g     F .text	0000003e ADC_Cmd
00000e8a g     F .text	0000007e gpio_bit_output
00000158 g     F .text	00000020 EXTI0_IRQHandler
00002b30 g     F .text	00000058 TIM_Cmd
00002cda g     F .text	0000005a TIM_OC4PreloadConfig
00002df4 g     F .text	0000002e TIM_ClearFlag
000019b2 g     F .text	0000004c board_led_init
00000038 g       .init	00000000 _einit
00000f9e g     F .text	00000030 sys_recover_irq
00002e92 g     F .text	0000002e TIM_ClearITPendingBit
00002344 g     F .text	00000046 RCC_APB2PeriphClockCmd
000001d8 g     F .text	00000010 ADC1_2_IRQHandler
00001e82 g     F .text	0000022a GPIO_Init
000020e4 g     F .text	00000046 RCC_ADCCLKConfig
00001d68 g     F .text	00000022 ADC_ResetCalibration
000030f4 g     F .text	00000060 USART_Cmd
00000b66 g     F .text	00000180 adc_gpio_init
00002836 g     F .text	000001b0 TIM_OC3Init
00003256 g     F .text	0000004e USART_ClearITPendingBit
00001a7e g     F .text	0000001e adc_channel_init
0000238a g     F .text	00000046 RCC_APB1PeriphClockCmd
000009cc g     F .text	00000066 Delay_Us
00002dae g     F .text	00000046 TIM_GetFlagStatus
00001ada g     F .text	0000007e car_init
00000308 g     F .text	00000034 USART3_IRQHandler
00001e62 g     F .text	00000020 EXTI_ClearITPendingBit
00001ddc g     F .text	00000030 ADC_GetCalibrationStatus
2000002c g       .bss	00000000 _ebss
00003154 g     F .text	00000102 USART_GetITStatus
000004e0 g     F .text	0000003a tm1637_stop
00002510 g     F .text	00000170 TIM_OC1Init
00002c8e g     F .text	0000004c TIM_OC3PreloadConfig
00001d8a g     F .text	00000030 ADC_GetResetCalibrationStatus
00000986 g     F .text	00000046 Delay_Init
000032d8 g     O .text	00000010 UARTN
00000fce g     F .text	000002a6 pwm_init
00000270 g     F .text	00000030 TIM4_IRQHandler
000020ac g     F .text	00000038 GPIO_WriteBit
2000002c g       .bss	00000000 end
00002e22 g     F .text	00000070 TIM_GetITStatus
0000212a g     F .text	0000021a RCC_GetClocksFreq
0000180c g     F .text	000000ba uart_init
00002ec0 g     F .text	00000234 USART_Init
00000240 g     F .text	00000030 TIM3_IRQHandler
00000f50 g     F .text	0000002c EnableGlobalIRQ
000018c6 g     F .text	000000ec uart_gpio_init
0000044e g     F .text	0000004a tm1637_start
00000000 g       .init	00000000 _start
00002c34 g     F .text	0000005a TIM_OC2PreloadConfig
00000f7c g     F .text	00000022 close_all_irq
000001c8 g     F .text	00000010 EXTI15_10_IRQHandler
000032b8 g     O .text	00000010 GPION
00002680 g     F .text	000001b6 TIM_OC2Init
20000000 g       .dalign	00000000 _data_vma
00001b66 g     F .text	00000022 reed_init
0000063a g     F .text	00000052 ws2812b_init
000029e6 g     F .text	0000014a TIM_OC4Init
000001b8 g     F .text	00000010 EXTI9_5_IRQHandler
0000077e g     F .text	0000004c board_init
00001e0c g     F .text	00000056 EXTI_GetITStatus
00000498 g     F .text	00000048 tm1637_wait_ack
0000033c g     F .text	00000070 main
0000068c g     F .text	000000f2 ws2812b_write
00002d8a g     F .text	00000024 TIM_SetCounter
000001a8 g     F .text	00000010 EXTI4_IRQHandler
00000a32 g     F .text	00000066 Delay_Ms
00000f08 g     F .text	00000048 DisableGlobalIRQ
0000090a g     F .text	0000007c SystemInit
00000000 g       .init	00000000 _sinit
20000020 g     O .bss	0000000c irq_status
000001e8 g     F .text	00000030 TIM1_UP_IRQHandler
00001b58 g     F .text	0000000e int_init
00000a98 g     F .text	000000ce adc_init
00001366 g     F .text	00000096 pwm_freq
00000218 g     F .text	00000028 TIM2_IRQHandler
20005000 g       .stack	00000000 _eusrstack
00001274 g     F .text	000000f2 pwm_duty
00001c02 g     F .text	00000036 ADC_DeInit
00001c38 g     F .text	000000f2 ADC_Init
00000178 g     F .text	00000010 EXTI1_IRQHandler
20000018 g       .data	00000000 _edata
00001aba g     F .text	00000020 buzzer_freq
0000051a g     F .text	00000088 tm1637_write_byte
00002416 g     F .text	000000fa TIM_TimeBaseInit
000032e8 g       .dlalign	00000000 _data_lma
000002d4 g     F .text	00000034 USART2_IRQHandler
00001b88  w      .text	00000000 handle_reset
000013fc g     F .text	00000364 pwm_gpio_init
000003ac g     F .text	00000068 l9110s_init
000002a0 g     F .text	00000034 USART1_IRQHandler
000023d0 g     F .text	00000046 RCC_APB2PeriphResetCmd
00000414 g     F .text	0000003a tm1637_init
000005c8 g     F .text	00000072 tm1637_leddisplay
00000ce6 g     F .text	000001a4 gpio_init
00002d34 g     F .text	00000056 TIM_OC2PolarityConfig



Disassembly of section .init:

00000000 <_sinit>:
_start():
D:/Desktop/智能车基地/CH32V103_SmartCar_V1.0/4.Demo/Libraries/Device/CH32V10x_p/Startup/startup_ch32v10x.S:13

	.section	.init,"ax",@progbits
	.global	_start
	.align	1
_start:
	j	handle_reset
   0:	3890106f          	j	1b88 <handle_reset>
   4:	00000013          	nop
   8:	00000013          	nop
   c:	00000013          	nop
  10:	00000013          	nop
  14:	00000013          	nop
  18:	00000013          	nop
  1c:	00000013          	nop
  20:	00000013          	nop
  24:	00000013          	nop
  28:	00000013          	nop
  2c:	00000013          	nop
  30:	00000013          	nop
  34:	00100073          	ebreak

Disassembly of section .vector:

00000038 <_vector_base>:
_vector_base():
D:/Desktop/智能车基地/CH32V103_SmartCar_V1.0/4.Demo/Libraries/Device/CH32V10x_p/Startup/startup_ch32v10x.S:31
	.word 0x00100073
    .section    .vector,"ax",@progbits
    .align  1
_vector_base:
    .option norvc;
        j   _start
  38:	fc9ff06f          	j	0 <_sinit>
  3c:	0000                	unimp
  3e:	0000                	unimp
D:/Desktop/智能车基地/CH32V103_SmartCar_V1.0/4.Demo/Libraries/Device/CH32V10x_p/Startup/startup_ch32v10x.S:33
    .word   0
        j   NMI_Handler                 /* NMI Handler */
  40:	1000006f          	j	140 <NMI_Handler>
D:/Desktop/智能车基地/CH32V103_SmartCar_V1.0/4.Demo/Libraries/Device/CH32V10x_p/Startup/startup_ch32v10x.S:34
        j   HardFault_Handler           /* Hard Fault Handler */
  44:	10c0006f          	j	150 <HardFault_Handler>
	...
D:/Desktop/智能车基地/CH32V103_SmartCar_V1.0/4.Demo/Libraries/Device/CH32V10x_p/Startup/startup_ch32v10x.S:43
    .word   0
    .word   0
    .word   0
    .word   0
    .word   0
        j   SysTick_Handler            /* SysTick Handler */
  68:	f99ff06f          	j	0 <_sinit>
  6c:	0000                	unimp
  6e:	0000                	unimp
D:/Desktop/智能车基地/CH32V103_SmartCar_V1.0/4.Demo/Libraries/Device/CH32V10x_p/Startup/startup_ch32v10x.S:45
    .word   0
        j   SW_handler                 /* SW Handler */
  70:	f91ff06f          	j	0 <_sinit>
  74:	0000                	unimp
  76:	0000                	unimp
D:/Desktop/智能车基地/CH32V103_SmartCar_V1.0/4.Demo/Libraries/Device/CH32V10x_p/Startup/startup_ch32v10x.S:48
    .word   0
    /* External Interrupts */
        j   WWDG_IRQHandler            /* Window Watchdog */
  78:	f89ff06f          	j	0 <_sinit>
D:/Desktop/智能车基地/CH32V103_SmartCar_V1.0/4.Demo/Libraries/Device/CH32V10x_p/Startup/startup_ch32v10x.S:49
        j   PVD_IRQHandler             /* PVD through EXTI Line detect */
  7c:	f85ff06f          	j	0 <_sinit>
D:/Desktop/智能车基地/CH32V103_SmartCar_V1.0/4.Demo/Libraries/Device/CH32V10x_p/Startup/startup_ch32v10x.S:50
        j   TAMPER_IRQHandler          /* TAMPER */
  80:	f81ff06f          	j	0 <_sinit>
D:/Desktop/智能车基地/CH32V103_SmartCar_V1.0/4.Demo/Libraries/Device/CH32V10x_p/Startup/startup_ch32v10x.S:51
        j   RTC_IRQHandler             /* RTC */
  84:	f7dff06f          	j	0 <_sinit>
D:/Desktop/智能车基地/CH32V103_SmartCar_V1.0/4.Demo/Libraries/Device/CH32V10x_p/Startup/startup_ch32v10x.S:52
        j   FLASH_IRQHandler           /* Flash */
  88:	f79ff06f          	j	0 <_sinit>
D:/Desktop/智能车基地/CH32V103_SmartCar_V1.0/4.Demo/Libraries/Device/CH32V10x_p/Startup/startup_ch32v10x.S:53
        j   RCC_IRQHandler             /* RCC */
  8c:	f75ff06f          	j	0 <_sinit>
D:/Desktop/智能车基地/CH32V103_SmartCar_V1.0/4.Demo/Libraries/Device/CH32V10x_p/Startup/startup_ch32v10x.S:54
        j   EXTI0_IRQHandler           /* EXTI Line 0 */
  90:	0c80006f          	j	158 <EXTI0_IRQHandler>
D:/Desktop/智能车基地/CH32V103_SmartCar_V1.0/4.Demo/Libraries/Device/CH32V10x_p/Startup/startup_ch32v10x.S:55
        j   EXTI1_IRQHandler           /* EXTI Line 1 */
  94:	0e40006f          	j	178 <EXTI1_IRQHandler>
D:/Desktop/智能车基地/CH32V103_SmartCar_V1.0/4.Demo/Libraries/Device/CH32V10x_p/Startup/startup_ch32v10x.S:56
        j   EXTI2_IRQHandler           /* EXTI Line 2 */
  98:	0f00006f          	j	188 <EXTI2_IRQHandler>
D:/Desktop/智能车基地/CH32V103_SmartCar_V1.0/4.Demo/Libraries/Device/CH32V10x_p/Startup/startup_ch32v10x.S:57
        j   EXTI3_IRQHandler           /* EXTI Line 3 */
  9c:	0fc0006f          	j	198 <EXTI3_IRQHandler>
D:/Desktop/智能车基地/CH32V103_SmartCar_V1.0/4.Demo/Libraries/Device/CH32V10x_p/Startup/startup_ch32v10x.S:58
        j   EXTI4_IRQHandler           /* EXTI Line 4 */
  a0:	1080006f          	j	1a8 <EXTI4_IRQHandler>
D:/Desktop/智能车基地/CH32V103_SmartCar_V1.0/4.Demo/Libraries/Device/CH32V10x_p/Startup/startup_ch32v10x.S:59
        j   DMA1_Channel1_IRQHandler   /* DMA1 Channel 1 */
  a4:	f5dff06f          	j	0 <_sinit>
D:/Desktop/智能车基地/CH32V103_SmartCar_V1.0/4.Demo/Libraries/Device/CH32V10x_p/Startup/startup_ch32v10x.S:60
        j   DMA1_Channel2_IRQHandler   /* DMA1 Channel 2 */
  a8:	f59ff06f          	j	0 <_sinit>
D:/Desktop/智能车基地/CH32V103_SmartCar_V1.0/4.Demo/Libraries/Device/CH32V10x_p/Startup/startup_ch32v10x.S:61
        j   DMA1_Channel3_IRQHandler   /* DMA1 Channel 3 */
  ac:	f55ff06f          	j	0 <_sinit>
D:/Desktop/智能车基地/CH32V103_SmartCar_V1.0/4.Demo/Libraries/Device/CH32V10x_p/Startup/startup_ch32v10x.S:62
        j   DMA1_Channel4_IRQHandler   /* DMA1 Channel 4 */
  b0:	f51ff06f          	j	0 <_sinit>
D:/Desktop/智能车基地/CH32V103_SmartCar_V1.0/4.Demo/Libraries/Device/CH32V10x_p/Startup/startup_ch32v10x.S:63
        j   DMA1_Channel5_IRQHandler   /* DMA1 Channel 5 */
  b4:	f4dff06f          	j	0 <_sinit>
D:/Desktop/智能车基地/CH32V103_SmartCar_V1.0/4.Demo/Libraries/Device/CH32V10x_p/Startup/startup_ch32v10x.S:64
        j   DMA1_Channel6_IRQHandler   /* DMA1 Channel 6 */
  b8:	f49ff06f          	j	0 <_sinit>
D:/Desktop/智能车基地/CH32V103_SmartCar_V1.0/4.Demo/Libraries/Device/CH32V10x_p/Startup/startup_ch32v10x.S:65
        j   DMA1_Channel7_IRQHandler   /* DMA1 Channel 7 */
  bc:	f45ff06f          	j	0 <_sinit>
D:/Desktop/智能车基地/CH32V103_SmartCar_V1.0/4.Demo/Libraries/Device/CH32V10x_p/Startup/startup_ch32v10x.S:66
        j   ADC1_2_IRQHandler          /* ADC1_2 */
  c0:	1180006f          	j	1d8 <ADC1_2_IRQHandler>
	...
D:/Desktop/智能车基地/CH32V103_SmartCar_V1.0/4.Demo/Libraries/Device/CH32V10x_p/Startup/startup_ch32v10x.S:71
        .word   0
        .word   0
        .word   0
        .word   0
        j   EXTI9_5_IRQHandler         /* EXTI Line 9..5 */
  d4:	0e40006f          	j	1b8 <EXTI9_5_IRQHandler>
D:/Desktop/智能车基地/CH32V103_SmartCar_V1.0/4.Demo/Libraries/Device/CH32V10x_p/Startup/startup_ch32v10x.S:72
        j   TIM1_BRK_IRQHandler        /* TIM1 Break */
  d8:	f29ff06f          	j	0 <_sinit>
D:/Desktop/智能车基地/CH32V103_SmartCar_V1.0/4.Demo/Libraries/Device/CH32V10x_p/Startup/startup_ch32v10x.S:73
        j   TIM1_UP_IRQHandler         /* TIM1 Update */
  dc:	10c0006f          	j	1e8 <TIM1_UP_IRQHandler>
D:/Desktop/智能车基地/CH32V103_SmartCar_V1.0/4.Demo/Libraries/Device/CH32V10x_p/Startup/startup_ch32v10x.S:74
        j   TIM1_TRG_COM_IRQHandler    /* TIM1 Trigger and Commutation */
  e0:	f21ff06f          	j	0 <_sinit>
D:/Desktop/智能车基地/CH32V103_SmartCar_V1.0/4.Demo/Libraries/Device/CH32V10x_p/Startup/startup_ch32v10x.S:75
        j   TIM1_CC_IRQHandler         /* TIM1 Capture Compare */
  e4:	f1dff06f          	j	0 <_sinit>
D:/Desktop/智能车基地/CH32V103_SmartCar_V1.0/4.Demo/Libraries/Device/CH32V10x_p/Startup/startup_ch32v10x.S:76
        j   TIM2_IRQHandler            /* TIM2 */
  e8:	1300006f          	j	218 <TIM2_IRQHandler>
D:/Desktop/智能车基地/CH32V103_SmartCar_V1.0/4.Demo/Libraries/Device/CH32V10x_p/Startup/startup_ch32v10x.S:77
        j   TIM3_IRQHandler            /* TIM3 */
  ec:	1540006f          	j	240 <TIM3_IRQHandler>
D:/Desktop/智能车基地/CH32V103_SmartCar_V1.0/4.Demo/Libraries/Device/CH32V10x_p/Startup/startup_ch32v10x.S:78
        j   TIM4_IRQHandler            /* TIM4 */
  f0:	1800006f          	j	270 <TIM4_IRQHandler>
D:/Desktop/智能车基地/CH32V103_SmartCar_V1.0/4.Demo/Libraries/Device/CH32V10x_p/Startup/startup_ch32v10x.S:79
        j   I2C1_EV_IRQHandler         /* I2C1 Event */
  f4:	f0dff06f          	j	0 <_sinit>
D:/Desktop/智能车基地/CH32V103_SmartCar_V1.0/4.Demo/Libraries/Device/CH32V10x_p/Startup/startup_ch32v10x.S:80
        j   I2C1_ER_IRQHandler         /* I2C1 Error */
  f8:	f09ff06f          	j	0 <_sinit>
D:/Desktop/智能车基地/CH32V103_SmartCar_V1.0/4.Demo/Libraries/Device/CH32V10x_p/Startup/startup_ch32v10x.S:81
        j   I2C2_EV_IRQHandler         /* I2C2 Event */
  fc:	f05ff06f          	j	0 <_sinit>
D:/Desktop/智能车基地/CH32V103_SmartCar_V1.0/4.Demo/Libraries/Device/CH32V10x_p/Startup/startup_ch32v10x.S:82
        j   I2C2_ER_IRQHandler         /* I2C2 Error */
 100:	f01ff06f          	j	0 <_sinit>
D:/Desktop/智能车基地/CH32V103_SmartCar_V1.0/4.Demo/Libraries/Device/CH32V10x_p/Startup/startup_ch32v10x.S:83
        j   SPI1_IRQHandler            /* SPI1 */
 104:	efdff06f          	j	0 <_sinit>
D:/Desktop/智能车基地/CH32V103_SmartCar_V1.0/4.Demo/Libraries/Device/CH32V10x_p/Startup/startup_ch32v10x.S:84
        j   SPI2_IRQHandler            /* SPI2 */
 108:	ef9ff06f          	j	0 <_sinit>
D:/Desktop/智能车基地/CH32V103_SmartCar_V1.0/4.Demo/Libraries/Device/CH32V10x_p/Startup/startup_ch32v10x.S:85
        j   USART1_IRQHandler          /* USART1 */
 10c:	1940006f          	j	2a0 <USART1_IRQHandler>
D:/Desktop/智能车基地/CH32V103_SmartCar_V1.0/4.Demo/Libraries/Device/CH32V10x_p/Startup/startup_ch32v10x.S:86
        j   USART2_IRQHandler          /* USART2 */
 110:	1c40006f          	j	2d4 <USART2_IRQHandler>
D:/Desktop/智能车基地/CH32V103_SmartCar_V1.0/4.Demo/Libraries/Device/CH32V10x_p/Startup/startup_ch32v10x.S:87
        j   USART3_IRQHandler          /* USART3 */
 114:	1f40006f          	j	308 <USART3_IRQHandler>
D:/Desktop/智能车基地/CH32V103_SmartCar_V1.0/4.Demo/Libraries/Device/CH32V10x_p/Startup/startup_ch32v10x.S:88
        j   EXTI15_10_IRQHandler       /* EXTI Line 15..10 */
 118:	0b00006f          	j	1c8 <EXTI15_10_IRQHandler>
D:/Desktop/智能车基地/CH32V103_SmartCar_V1.0/4.Demo/Libraries/Device/CH32V10x_p/Startup/startup_ch32v10x.S:89
        j   RTCAlarm_IRQHandler        /* RTC Alarm through EXTI Line */
 11c:	ee5ff06f          	j	0 <_sinit>
D:/Desktop/智能车基地/CH32V103_SmartCar_V1.0/4.Demo/Libraries/Device/CH32V10x_p/Startup/startup_ch32v10x.S:90
        j   USBWakeUp_IRQHandler       /* USB Wakeup from suspend */
 120:	ee1ff06f          	j	0 <_sinit>
D:/Desktop/智能车基地/CH32V103_SmartCar_V1.0/4.Demo/Libraries/Device/CH32V10x_p/Startup/startup_ch32v10x.S:91
        j   USBHD_IRQHandler           /* USBHD */
 124:	eddff06f          	j	0 <_sinit>
	...

Disassembly of section .text:

00000140 <NMI_Handler>:
NMI_Handler():
D:/Desktop/智能车基地/CH32V103_SmartCar_V1.0/4.Demo/03-Car_led_display/USER/src/isr.c:38
* Description    : This function handles NMI exception.
* Input          : None
* Return         : None
*******************************************************************************/
void NMI_Handler(void)
{
     140:	1141                	addi	sp,sp,-16
     142:	c622                	sw	s0,12(sp)
     144:	0800                	addi	s0,sp,16
D:/Desktop/智能车基地/CH32V103_SmartCar_V1.0/4.Demo/03-Car_led_display/USER/src/isr.c:40
    ;
}
     146:	0001                	nop
     148:	4432                	lw	s0,12(sp)
     14a:	0141                	addi	sp,sp,16
     14c:	30200073          	mret

00000150 <HardFault_Handler>:
HardFault_Handler():
D:/Desktop/智能车基地/CH32V103_SmartCar_V1.0/4.Demo/03-Car_led_display/USER/src/isr.c:49
* Description    : This function handles Hard Fault exception.
* Input          : None
* Return         : None
*******************************************************************************/
void HardFault_Handler(void)
{
     150:	1141                	addi	sp,sp,-16
     152:	c622                	sw	s0,12(sp)
     154:	0800                	addi	s0,sp,16
D:/Desktop/智能车基地/CH32V103_SmartCar_V1.0/4.Demo/03-Car_led_display/USER/src/isr.c:51 (discriminator 1)

  while (1)
     156:	a001                	j	156 <HardFault_Handler+0x6>

00000158 <EXTI0_IRQHandler>:
EXTI0_IRQHandler():
D:/Desktop/智能车基地/CH32V103_SmartCar_V1.0/4.Demo/03-Car_led_display/USER/src/isr.c:62

//以下为中断服务函数，用户可根据需要，在对应函数内添加内容

/* EXTI0 中断服务函数 */
void EXTI0_IRQHandler(void)
{
     158:	1141                	addi	sp,sp,-16
     15a:	c622                	sw	s0,12(sp)
     15c:	0800                	addi	s0,sp,16
D:/Desktop/智能车基地/CH32V103_SmartCar_V1.0/4.Demo/03-Car_led_display/USER/src/isr.c:63
    if(RESET != EXTI_GetITStatus(EXTI_Line0))
     15e:	4505                	li	a0,1
     160:	4ad010ef          	jal	ra,1e0c <EXTI_GetITStatus>
     164:	87aa                	mv	a5,a0
     166:	c781                	beqz	a5,16e <EXTI0_IRQHandler+0x16>
D:/Desktop/智能车基地/CH32V103_SmartCar_V1.0/4.Demo/03-Car_led_display/USER/src/isr.c:65
    {
        EXTI_ClearITPendingBit(EXTI_Line0);
     168:	4505                	li	a0,1
     16a:	4f9010ef          	jal	ra,1e62 <EXTI_ClearITPendingBit>
D:/Desktop/智能车基地/CH32V103_SmartCar_V1.0/4.Demo/03-Car_led_display/USER/src/isr.c:70

    }


}
     16e:	0001                	nop
     170:	4432                	lw	s0,12(sp)
     172:	0141                	addi	sp,sp,16
     174:	30200073          	mret

00000178 <EXTI1_IRQHandler>:
EXTI1_IRQHandler():
D:/Desktop/智能车基地/CH32V103_SmartCar_V1.0/4.Demo/03-Car_led_display/USER/src/isr.c:74

/* EXTI1 中断服务函数 */
void EXTI1_IRQHandler(void)
{
     178:	1141                	addi	sp,sp,-16
     17a:	c622                	sw	s0,12(sp)
     17c:	0800                	addi	s0,sp,16
D:/Desktop/智能车基地/CH32V103_SmartCar_V1.0/4.Demo/03-Car_led_display/USER/src/isr.c:76
    ;
}
     17e:	0001                	nop
     180:	4432                	lw	s0,12(sp)
     182:	0141                	addi	sp,sp,16
     184:	30200073          	mret

00000188 <EXTI2_IRQHandler>:
EXTI2_IRQHandler():
D:/Desktop/智能车基地/CH32V103_SmartCar_V1.0/4.Demo/03-Car_led_display/USER/src/isr.c:80

/* EXTI2 中断服务函数 */
void EXTI2_IRQHandler(void)
{
     188:	1141                	addi	sp,sp,-16
     18a:	c622                	sw	s0,12(sp)
     18c:	0800                	addi	s0,sp,16
D:/Desktop/智能车基地/CH32V103_SmartCar_V1.0/4.Demo/03-Car_led_display/USER/src/isr.c:82
    ;
}
     18e:	0001                	nop
     190:	4432                	lw	s0,12(sp)
     192:	0141                	addi	sp,sp,16
     194:	30200073          	mret

00000198 <EXTI3_IRQHandler>:
EXTI3_IRQHandler():
D:/Desktop/智能车基地/CH32V103_SmartCar_V1.0/4.Demo/03-Car_led_display/USER/src/isr.c:86

/* EXTI3 中断服务函数 */
void EXTI3_IRQHandler(void)
{
     198:	1141                	addi	sp,sp,-16
     19a:	c622                	sw	s0,12(sp)
     19c:	0800                	addi	s0,sp,16
D:/Desktop/智能车基地/CH32V103_SmartCar_V1.0/4.Demo/03-Car_led_display/USER/src/isr.c:88
    ;
}
     19e:	0001                	nop
     1a0:	4432                	lw	s0,12(sp)
     1a2:	0141                	addi	sp,sp,16
     1a4:	30200073          	mret

000001a8 <EXTI4_IRQHandler>:
EXTI4_IRQHandler():
D:/Desktop/智能车基地/CH32V103_SmartCar_V1.0/4.Demo/03-Car_led_display/USER/src/isr.c:92

/* EXTI4 中断服务函数 */
void EXTI4_IRQHandler(void)
{
     1a8:	1141                	addi	sp,sp,-16
     1aa:	c622                	sw	s0,12(sp)
     1ac:	0800                	addi	s0,sp,16
D:/Desktop/智能车基地/CH32V103_SmartCar_V1.0/4.Demo/03-Car_led_display/USER/src/isr.c:94
    ;
}
     1ae:	0001                	nop
     1b0:	4432                	lw	s0,12(sp)
     1b2:	0141                	addi	sp,sp,16
     1b4:	30200073          	mret

000001b8 <EXTI9_5_IRQHandler>:
EXTI9_5_IRQHandler():
D:/Desktop/智能车基地/CH32V103_SmartCar_V1.0/4.Demo/03-Car_led_display/USER/src/isr.c:98

/* EXTI9_5 中断服务函数 */
void EXTI9_5_IRQHandler(void)
{
     1b8:	1141                	addi	sp,sp,-16
     1ba:	c622                	sw	s0,12(sp)
     1bc:	0800                	addi	s0,sp,16
D:/Desktop/智能车基地/CH32V103_SmartCar_V1.0/4.Demo/03-Car_led_display/USER/src/isr.c:100
    ;
}
     1be:	0001                	nop
     1c0:	4432                	lw	s0,12(sp)
     1c2:	0141                	addi	sp,sp,16
     1c4:	30200073          	mret

000001c8 <EXTI15_10_IRQHandler>:
EXTI15_10_IRQHandler():
D:/Desktop/智能车基地/CH32V103_SmartCar_V1.0/4.Demo/03-Car_led_display/USER/src/isr.c:104

/* EXTI15_10 中断服务函数 */
void EXTI15_10_IRQHandler(void)
{
     1c8:	1141                	addi	sp,sp,-16
     1ca:	c622                	sw	s0,12(sp)
     1cc:	0800                	addi	s0,sp,16
D:/Desktop/智能车基地/CH32V103_SmartCar_V1.0/4.Demo/03-Car_led_display/USER/src/isr.c:106
    ;
}
     1ce:	0001                	nop
     1d0:	4432                	lw	s0,12(sp)
     1d2:	0141                	addi	sp,sp,16
     1d4:	30200073          	mret

000001d8 <ADC1_2_IRQHandler>:
ADC1_2_IRQHandler():
D:/Desktop/智能车基地/CH32V103_SmartCar_V1.0/4.Demo/03-Car_led_display/USER/src/isr.c:110

/* ADC1_2 中断服务函数 */
void ADC1_2_IRQHandler(void)
{
     1d8:	1141                	addi	sp,sp,-16
     1da:	c622                	sw	s0,12(sp)
     1dc:	0800                	addi	s0,sp,16
D:/Desktop/智能车基地/CH32V103_SmartCar_V1.0/4.Demo/03-Car_led_display/USER/src/isr.c:112
    ;
}
     1de:	0001                	nop
     1e0:	4432                	lw	s0,12(sp)
     1e2:	0141                	addi	sp,sp,16
     1e4:	30200073          	mret

000001e8 <TIM1_UP_IRQHandler>:
TIM1_UP_IRQHandler():
D:/Desktop/智能车基地/CH32V103_SmartCar_V1.0/4.Demo/03-Car_led_display/USER/src/isr.c:116

/* TIM1_UP 中断服务函数 */
void TIM1_UP_IRQHandler(void)
{
     1e8:	1141                	addi	sp,sp,-16
     1ea:	c622                	sw	s0,12(sp)
     1ec:	0800                	addi	s0,sp,16
D:/Desktop/智能车基地/CH32V103_SmartCar_V1.0/4.Demo/03-Car_led_display/USER/src/isr.c:117
    if(TIM_GetITStatus(TIM1, TIM_IT_Update) != RESET)
     1ee:	4585                	li	a1,1
     1f0:	400137b7          	lui	a5,0x40013
     1f4:	c0078513          	addi	a0,a5,-1024 # 40012c00 <_eusrstack+0x2000dc00>
     1f8:	42b020ef          	jal	ra,2e22 <TIM_GetITStatus>
     1fc:	87aa                	mv	a5,a0
     1fe:	cb81                	beqz	a5,20e <TIM1_UP_IRQHandler+0x26>
D:/Desktop/智能车基地/CH32V103_SmartCar_V1.0/4.Demo/03-Car_led_display/USER/src/isr.c:119
    {
        TIM_ClearITPendingBit(TIM1, TIM_IT_Update);
     200:	4585                	li	a1,1
     202:	400137b7          	lui	a5,0x40013
     206:	c0078513          	addi	a0,a5,-1024 # 40012c00 <_eusrstack+0x2000dc00>
     20a:	489020ef          	jal	ra,2e92 <TIM_ClearITPendingBit>
D:/Desktop/智能车基地/CH32V103_SmartCar_V1.0/4.Demo/03-Car_led_display/USER/src/isr.c:122

    }
}
     20e:	0001                	nop
     210:	4432                	lw	s0,12(sp)
     212:	0141                	addi	sp,sp,16
     214:	30200073          	mret

00000218 <TIM2_IRQHandler>:
TIM2_IRQHandler():
D:/Desktop/智能车基地/CH32V103_SmartCar_V1.0/4.Demo/03-Car_led_display/USER/src/isr.c:126

/* TIM2 中断服务函数 */
void TIM2_IRQHandler(void)
{
     218:	1141                	addi	sp,sp,-16
     21a:	c622                	sw	s0,12(sp)
     21c:	0800                	addi	s0,sp,16
D:/Desktop/智能车基地/CH32V103_SmartCar_V1.0/4.Demo/03-Car_led_display/USER/src/isr.c:127
    if(TIM_GetITStatus(TIM2, TIM_IT_Update) != RESET)
     21e:	4585                	li	a1,1
     220:	40000537          	lui	a0,0x40000
     224:	3ff020ef          	jal	ra,2e22 <TIM_GetITStatus>
     228:	87aa                	mv	a5,a0
     22a:	c791                	beqz	a5,236 <TIM2_IRQHandler+0x1e>
D:/Desktop/智能车基地/CH32V103_SmartCar_V1.0/4.Demo/03-Car_led_display/USER/src/isr.c:129
    {
        TIM_ClearITPendingBit(TIM2, TIM_IT_Update);
     22c:	4585                	li	a1,1
     22e:	40000537          	lui	a0,0x40000
     232:	461020ef          	jal	ra,2e92 <TIM_ClearITPendingBit>
D:/Desktop/智能车基地/CH32V103_SmartCar_V1.0/4.Demo/03-Car_led_display/USER/src/isr.c:132

    }
}
     236:	0001                	nop
     238:	4432                	lw	s0,12(sp)
     23a:	0141                	addi	sp,sp,16
     23c:	30200073          	mret

00000240 <TIM3_IRQHandler>:
TIM3_IRQHandler():
D:/Desktop/智能车基地/CH32V103_SmartCar_V1.0/4.Demo/03-Car_led_display/USER/src/isr.c:136

/* TIM3 中断服务函数 */
void TIM3_IRQHandler(void)
{
     240:	1141                	addi	sp,sp,-16
     242:	c622                	sw	s0,12(sp)
     244:	0800                	addi	s0,sp,16
D:/Desktop/智能车基地/CH32V103_SmartCar_V1.0/4.Demo/03-Car_led_display/USER/src/isr.c:137
    if(TIM_GetITStatus(TIM3, TIM_IT_Update) != RESET)
     246:	4585                	li	a1,1
     248:	400007b7          	lui	a5,0x40000
     24c:	40078513          	addi	a0,a5,1024 # 40000400 <_eusrstack+0x1fffb400>
     250:	3d3020ef          	jal	ra,2e22 <TIM_GetITStatus>
     254:	87aa                	mv	a5,a0
     256:	cb81                	beqz	a5,266 <TIM3_IRQHandler+0x26>
D:/Desktop/智能车基地/CH32V103_SmartCar_V1.0/4.Demo/03-Car_led_display/USER/src/isr.c:139
    {
        TIM_ClearITPendingBit(TIM3, TIM_IT_Update);
     258:	4585                	li	a1,1
     25a:	400007b7          	lui	a5,0x40000
     25e:	40078513          	addi	a0,a5,1024 # 40000400 <_eusrstack+0x1fffb400>
     262:	431020ef          	jal	ra,2e92 <TIM_ClearITPendingBit>
D:/Desktop/智能车基地/CH32V103_SmartCar_V1.0/4.Demo/03-Car_led_display/USER/src/isr.c:142

    }
}
     266:	0001                	nop
     268:	4432                	lw	s0,12(sp)
     26a:	0141                	addi	sp,sp,16
     26c:	30200073          	mret

00000270 <TIM4_IRQHandler>:
TIM4_IRQHandler():
D:/Desktop/智能车基地/CH32V103_SmartCar_V1.0/4.Demo/03-Car_led_display/USER/src/isr.c:146

/* TIM4 中断服务函数 */
void TIM4_IRQHandler(void)
{
     270:	1141                	addi	sp,sp,-16
     272:	c622                	sw	s0,12(sp)
     274:	0800                	addi	s0,sp,16
D:/Desktop/智能车基地/CH32V103_SmartCar_V1.0/4.Demo/03-Car_led_display/USER/src/isr.c:147
    if(TIM_GetITStatus(TIM4, TIM_IT_Update) != RESET)
     276:	4585                	li	a1,1
     278:	400017b7          	lui	a5,0x40001
     27c:	80078513          	addi	a0,a5,-2048 # 40000800 <_eusrstack+0x1fffb800>
     280:	3a3020ef          	jal	ra,2e22 <TIM_GetITStatus>
     284:	87aa                	mv	a5,a0
     286:	cb81                	beqz	a5,296 <TIM4_IRQHandler+0x26>
D:/Desktop/智能车基地/CH32V103_SmartCar_V1.0/4.Demo/03-Car_led_display/USER/src/isr.c:149
    {
        TIM_ClearITPendingBit(TIM4, TIM_IT_Update);
     288:	4585                	li	a1,1
     28a:	400017b7          	lui	a5,0x40001
     28e:	80078513          	addi	a0,a5,-2048 # 40000800 <_eusrstack+0x1fffb800>
     292:	401020ef          	jal	ra,2e92 <TIM_ClearITPendingBit>
D:/Desktop/智能车基地/CH32V103_SmartCar_V1.0/4.Demo/03-Car_led_display/USER/src/isr.c:152

    }
}
     296:	0001                	nop
     298:	4432                	lw	s0,12(sp)
     29a:	0141                	addi	sp,sp,16
     29c:	30200073          	mret

000002a0 <USART1_IRQHandler>:
USART1_IRQHandler():
D:/Desktop/智能车基地/CH32V103_SmartCar_V1.0/4.Demo/03-Car_led_display/USER/src/isr.c:156

/* USART1 中断服务函数 */
void USART1_IRQHandler(void)
{
     2a0:	1141                	addi	sp,sp,-16
     2a2:	c622                	sw	s0,12(sp)
     2a4:	0800                	addi	s0,sp,16
D:/Desktop/智能车基地/CH32V103_SmartCar_V1.0/4.Demo/03-Car_led_display/USER/src/isr.c:157
    if(USART_GetITStatus(USART1, USART_IT_RXNE) != RESET)
     2a6:	52500593          	li	a1,1317
     2aa:	400147b7          	lui	a5,0x40014
     2ae:	80078513          	addi	a0,a5,-2048 # 40013800 <_eusrstack+0x2000e800>
     2b2:	6a3020ef          	jal	ra,3154 <USART_GetITStatus>
     2b6:	87aa                	mv	a5,a0
     2b8:	cb89                	beqz	a5,2ca <USART1_IRQHandler+0x2a>
D:/Desktop/智能车基地/CH32V103_SmartCar_V1.0/4.Demo/03-Car_led_display/USER/src/isr.c:159
    {
        USART_ClearITPendingBit(USART1, USART_IT_RXNE);
     2ba:	52500593          	li	a1,1317
     2be:	400147b7          	lui	a5,0x40014
     2c2:	80078513          	addi	a0,a5,-2048 # 40013800 <_eusrstack+0x2000e800>
     2c6:	791020ef          	jal	ra,3256 <USART_ClearITPendingBit>
D:/Desktop/智能车基地/CH32V103_SmartCar_V1.0/4.Demo/03-Car_led_display/USER/src/isr.c:162

    }
}
     2ca:	0001                	nop
     2cc:	4432                	lw	s0,12(sp)
     2ce:	0141                	addi	sp,sp,16
     2d0:	30200073          	mret

000002d4 <USART2_IRQHandler>:
USART2_IRQHandler():
D:/Desktop/智能车基地/CH32V103_SmartCar_V1.0/4.Demo/03-Car_led_display/USER/src/isr.c:166

/* USART2 中断服务函数 */
void USART2_IRQHandler(void)
{
     2d4:	1141                	addi	sp,sp,-16
     2d6:	c622                	sw	s0,12(sp)
     2d8:	0800                	addi	s0,sp,16
D:/Desktop/智能车基地/CH32V103_SmartCar_V1.0/4.Demo/03-Car_led_display/USER/src/isr.c:167
    if(USART_GetITStatus(USART2, USART_IT_RXNE) != RESET)
     2da:	52500593          	li	a1,1317
     2de:	400047b7          	lui	a5,0x40004
     2e2:	40078513          	addi	a0,a5,1024 # 40004400 <_eusrstack+0x1ffff400>
     2e6:	66f020ef          	jal	ra,3154 <USART_GetITStatus>
     2ea:	87aa                	mv	a5,a0
     2ec:	cb89                	beqz	a5,2fe <USART2_IRQHandler+0x2a>
D:/Desktop/智能车基地/CH32V103_SmartCar_V1.0/4.Demo/03-Car_led_display/USER/src/isr.c:169
    {
        USART_ClearITPendingBit(USART2, USART_IT_RXNE);
     2ee:	52500593          	li	a1,1317
     2f2:	400047b7          	lui	a5,0x40004
     2f6:	40078513          	addi	a0,a5,1024 # 40004400 <_eusrstack+0x1ffff400>
     2fa:	75d020ef          	jal	ra,3256 <USART_ClearITPendingBit>
D:/Desktop/智能车基地/CH32V103_SmartCar_V1.0/4.Demo/03-Car_led_display/USER/src/isr.c:172

    }
}
     2fe:	0001                	nop
     300:	4432                	lw	s0,12(sp)
     302:	0141                	addi	sp,sp,16
     304:	30200073          	mret

00000308 <USART3_IRQHandler>:
USART3_IRQHandler():
D:/Desktop/智能车基地/CH32V103_SmartCar_V1.0/4.Demo/03-Car_led_display/USER/src/isr.c:176

/* USART3 中断服务函数 */
void USART3_IRQHandler(void)
{
     308:	1141                	addi	sp,sp,-16
     30a:	c622                	sw	s0,12(sp)
     30c:	0800                	addi	s0,sp,16
D:/Desktop/智能车基地/CH32V103_SmartCar_V1.0/4.Demo/03-Car_led_display/USER/src/isr.c:177
    if(USART_GetITStatus(USART3, USART_IT_RXNE) != RESET)
     30e:	52500593          	li	a1,1317
     312:	400057b7          	lui	a5,0x40005
     316:	80078513          	addi	a0,a5,-2048 # 40004800 <_eusrstack+0x1ffff800>
     31a:	63b020ef          	jal	ra,3154 <USART_GetITStatus>
     31e:	87aa                	mv	a5,a0
     320:	cb89                	beqz	a5,332 <USART3_IRQHandler+0x2a>
D:/Desktop/智能车基地/CH32V103_SmartCar_V1.0/4.Demo/03-Car_led_display/USER/src/isr.c:179
    {
        USART_ClearITPendingBit(USART3, USART_IT_RXNE);
     322:	52500593          	li	a1,1317
     326:	400057b7          	lui	a5,0x40005
     32a:	80078513          	addi	a0,a5,-2048 # 40004800 <_eusrstack+0x1ffff800>
     32e:	729020ef          	jal	ra,3256 <USART_ClearITPendingBit>
D:/Desktop/智能车基地/CH32V103_SmartCar_V1.0/4.Demo/03-Car_led_display/USER/src/isr.c:182

    }
}
     332:	0001                	nop
     334:	4432                	lw	s0,12(sp)
     336:	0141                	addi	sp,sp,16
     338:	30200073          	mret

0000033c <main>:
main():
D:/Desktop/智能车基地/CH32V103_SmartCar_V1.0/4.Demo/03-Car_led_display/USER/src/main.c:34
/* 全局变量声明 */


/* 主函数 */
int main()
{
     33c:	1101                	addi	sp,sp,-32
     33e:	ce06                	sw	ra,28(sp)
     340:	cc22                	sw	s0,24(sp)
     342:	1000                	addi	s0,sp,32
D:/Desktop/智能车基地/CH32V103_SmartCar_V1.0/4.Demo/03-Car_led_display/USER/src/main.c:39
    /* 此处声明需要用到的局部变量 */
    unsigned char i;

    /* 智能车初始化 */
    car_init();
     344:	796010ef          	jal	ra,1ada <car_init>
D:/Desktop/智能车基地/CH32V103_SmartCar_V1.0/4.Demo/03-Car_led_display/USER/src/main.c:48

    while(1)
    {
    /* 此处编写需要循环运行的代码 */

        for(i=0; i<7; i++)
     348:	fe0407a3          	sb	zero,-17(s0)
     34c:	a891                	j	3a0 <main+0x64>
D:/Desktop/智能车基地/CH32V103_SmartCar_V1.0/4.Demo/03-Car_led_display/USER/src/main.c:50 (discriminator 3)
        {
            tm1637_leddisplay(BIT_1, i, 0);
     34e:	fef44783          	lbu	a5,-17(s0)
     352:	4601                	li	a2,0
     354:	85be                	mv	a1,a5
     356:	4505                	li	a0,1
     358:	2c85                	jal	5c8 <tm1637_leddisplay>
D:/Desktop/智能车基地/CH32V103_SmartCar_V1.0/4.Demo/03-Car_led_display/USER/src/main.c:51 (discriminator 3)
            tm1637_leddisplay(BIT_2, i+1, 1);
     35a:	fef44783          	lbu	a5,-17(s0)
     35e:	0785                	addi	a5,a5,1
     360:	0ff7f793          	andi	a5,a5,255
     364:	4605                	li	a2,1
     366:	85be                	mv	a1,a5
     368:	4509                	li	a0,2
     36a:	2cb9                	jal	5c8 <tm1637_leddisplay>
D:/Desktop/智能车基地/CH32V103_SmartCar_V1.0/4.Demo/03-Car_led_display/USER/src/main.c:52 (discriminator 3)
            tm1637_leddisplay(BIT_3, i+2, 0);
     36c:	fef44783          	lbu	a5,-17(s0)
     370:	0789                	addi	a5,a5,2
     372:	0ff7f793          	andi	a5,a5,255
     376:	4601                	li	a2,0
     378:	85be                	mv	a1,a5
     37a:	450d                	li	a0,3
     37c:	24b1                	jal	5c8 <tm1637_leddisplay>
D:/Desktop/智能车基地/CH32V103_SmartCar_V1.0/4.Demo/03-Car_led_display/USER/src/main.c:53 (discriminator 3)
            tm1637_leddisplay(BIT_4, i+3, 0);
     37e:	fef44783          	lbu	a5,-17(s0)
     382:	078d                	addi	a5,a5,3
     384:	0ff7f793          	andi	a5,a5,255
     388:	4601                	li	a2,0
     38a:	85be                	mv	a1,a5
     38c:	4511                	li	a0,4
     38e:	2c2d                	jal	5c8 <tm1637_leddisplay>
D:/Desktop/智能车基地/CH32V103_SmartCar_V1.0/4.Demo/03-Car_led_display/USER/src/main.c:55 (discriminator 3)

            Delay_Ms (1000);
     390:	3e800513          	li	a0,1000
     394:	2d79                	jal	a32 <Delay_Ms>
D:/Desktop/智能车基地/CH32V103_SmartCar_V1.0/4.Demo/03-Car_led_display/USER/src/main.c:48 (discriminator 3)
        for(i=0; i<7; i++)
     396:	fef44783          	lbu	a5,-17(s0)
     39a:	0785                	addi	a5,a5,1
     39c:	fef407a3          	sb	a5,-17(s0)
D:/Desktop/智能车基地/CH32V103_SmartCar_V1.0/4.Demo/03-Car_led_display/USER/src/main.c:48 (discriminator 1)
     3a0:	fef44703          	lbu	a4,-17(s0)
     3a4:	4799                	li	a5,6
     3a6:	fae7f4e3          	bgeu	a5,a4,34e <main+0x12>
D:/Desktop/智能车基地/CH32V103_SmartCar_V1.0/4.Demo/03-Car_led_display/USER/src/main.c:48
     3aa:	bf79                	j	348 <main+0xc>

000003ac <l9110s_init>:
l9110s_init():
D:/Desktop/智能车基地/CH32V103_SmartCar_V1.0/4.Demo/Libraries/hefei_peripheral/HF_L9110S_2.c:19
// @return       void
// Sample usage:        PWM_9110_init(left); 
                        //初始化左电机PWM
//-------------------------------------------------------------------------------------------------------------------
void l9110s_init(left_or_right object)
{
     3ac:	1101                	addi	sp,sp,-32
     3ae:	ce06                	sw	ra,28(sp)
     3b0:	cc22                	sw	s0,24(sp)
     3b2:	1000                	addi	s0,sp,32
     3b4:	fea42623          	sw	a0,-20(s0)
D:/Desktop/智能车基地/CH32V103_SmartCar_V1.0/4.Demo/Libraries/hefei_peripheral/HF_L9110S_2.c:20
    if(object == left)
     3b8:	fec42783          	lw	a5,-20(s0)
     3bc:	e395                	bnez	a5,3e0 <l9110s_init+0x34>
D:/Desktop/智能车基地/CH32V103_SmartCar_V1.0/4.Demo/Libraries/hefei_peripheral/HF_L9110S_2.c:22
    {
        pwm_init(L_PWM_F, 72, 0, TIM_OCPreload_Enable);
     3be:	46a1                	li	a3,8
     3c0:	4601                	li	a2,0
     3c2:	04800593          	li	a1,72
     3c6:	30200513          	li	a0,770
     3ca:	405000ef          	jal	ra,fce <pwm_init>
D:/Desktop/智能车基地/CH32V103_SmartCar_V1.0/4.Demo/Libraries/hefei_peripheral/HF_L9110S_2.c:23
        pwm_init(L_PWM_B, 72, 0, TIM_OCPreload_Enable);
     3ce:	46a1                	li	a3,8
     3d0:	4601                	li	a2,0
     3d2:	04800593          	li	a1,72
     3d6:	30300513          	li	a0,771
     3da:	3f5000ef          	jal	ra,fce <pwm_init>
D:/Desktop/智能车基地/CH32V103_SmartCar_V1.0/4.Demo/Libraries/hefei_peripheral/HF_L9110S_2.c:31
    else if(object == right)
    {
        pwm_init(R_PWM_F, 72, 0, TIM_OCPreload_Disable);
        pwm_init(R_PWM_B, 72, 0, TIM_OCPreload_Disable);
    }
}
     3de:	a035                	j	40a <l9110s_init+0x5e>
D:/Desktop/智能车基地/CH32V103_SmartCar_V1.0/4.Demo/Libraries/hefei_peripheral/HF_L9110S_2.c:26
    else if(object == right)
     3e0:	fec42703          	lw	a4,-20(s0)
     3e4:	4785                	li	a5,1
     3e6:	02f71263          	bne	a4,a5,40a <l9110s_init+0x5e>
D:/Desktop/智能车基地/CH32V103_SmartCar_V1.0/4.Demo/Libraries/hefei_peripheral/HF_L9110S_2.c:28
        pwm_init(R_PWM_F, 72, 0, TIM_OCPreload_Disable);
     3ea:	4681                	li	a3,0
     3ec:	4601                	li	a2,0
     3ee:	04800593          	li	a1,72
     3f2:	20200513          	li	a0,514
     3f6:	3d9000ef          	jal	ra,fce <pwm_init>
D:/Desktop/智能车基地/CH32V103_SmartCar_V1.0/4.Demo/Libraries/hefei_peripheral/HF_L9110S_2.c:29
        pwm_init(R_PWM_B, 72, 0, TIM_OCPreload_Disable);
     3fa:	4681                	li	a3,0
     3fc:	4601                	li	a2,0
     3fe:	04800593          	li	a1,72
     402:	20300513          	li	a0,515
     406:	3c9000ef          	jal	ra,fce <pwm_init>
D:/Desktop/智能车基地/CH32V103_SmartCar_V1.0/4.Demo/Libraries/hefei_peripheral/HF_L9110S_2.c:31
}
     40a:	0001                	nop
     40c:	40f2                	lw	ra,28(sp)
     40e:	4462                	lw	s0,24(sp)
     410:	6105                	addi	sp,sp,32
     412:	8082                	ret

00000414 <tm1637_init>:
tm1637_init():
D:/Desktop/智能车基地/CH32V103_SmartCar_V1.0/4.Demo/Libraries/hefei_peripheral/HF_TM1637.c:18
// @param        void
// @return       void
// Sample usage:        tm1637_init();//初始化数码管
//-------------------------------------------------------------------------------------------------------------------
void tm1637_init(void)
{
     414:	1141                	addi	sp,sp,-16
     416:	c606                	sw	ra,12(sp)
     418:	c422                	sw	s0,8(sp)
     41a:	0800                	addi	s0,sp,16
D:/Desktop/智能车基地/CH32V103_SmartCar_V1.0/4.Demo/Libraries/hefei_peripheral/HF_TM1637.c:20
    /* 配置GPIO时钟 */
    RCC_APB2PeriphClockCmd(RCC_APB2Periph_GPIOA, ENABLE);
     41c:	4585                	li	a1,1
     41e:	4511                	li	a0,4
     420:	725010ef          	jal	ra,2344 <RCC_APB2PeriphClockCmd>
D:/Desktop/智能车基地/CH32V103_SmartCar_V1.0/4.Demo/Libraries/hefei_peripheral/HF_TM1637.c:23

    /* 配置PA8、PA11接口 */
    gpio_init(led_scl, GPO, 1, SPEED_50MHZ | OUT_PP);
     424:	31000693          	li	a3,784
     428:	4605                	li	a2,1
     42a:	4585                	li	a1,1
     42c:	02a00513          	li	a0,42
     430:	0b7000ef          	jal	ra,ce6 <gpio_init>
D:/Desktop/智能车基地/CH32V103_SmartCar_V1.0/4.Demo/Libraries/hefei_peripheral/HF_TM1637.c:24
    gpio_init(led_sda, GPO, 1, SPEED_50MHZ | OUT_PP);
     434:	31000693          	li	a3,784
     438:	4605                	li	a2,1
     43a:	4585                	li	a1,1
     43c:	02b00513          	li	a0,43
     440:	0a7000ef          	jal	ra,ce6 <gpio_init>
D:/Desktop/智能车基地/CH32V103_SmartCar_V1.0/4.Demo/Libraries/hefei_peripheral/HF_TM1637.c:25
}
     444:	0001                	nop
     446:	40b2                	lw	ra,12(sp)
     448:	4422                	lw	s0,8(sp)
     44a:	0141                	addi	sp,sp,16
     44c:	8082                	ret

0000044e <tm1637_start>:
tm1637_start():
D:/Desktop/智能车基地/CH32V103_SmartCar_V1.0/4.Demo/Libraries/hefei_peripheral/HF_TM1637.c:34
// @param        void
// @return       void
// Sample usage:        tm1637_start();//起始信号
//-------------------------------------------------------------------------------------------------------------------
void tm1637_start(void)
{
     44e:	1141                	addi	sp,sp,-16
     450:	c606                	sw	ra,12(sp)
     452:	c422                	sw	s0,8(sp)
     454:	0800                	addi	s0,sp,16
D:/Desktop/智能车基地/CH32V103_SmartCar_V1.0/4.Demo/Libraries/hefei_peripheral/HF_TM1637.c:35
    led_scl_set();      //SCL为高电平
     456:	4585                	li	a1,1
     458:	02a00513          	li	a0,42
     45c:	22f000ef          	jal	ra,e8a <gpio_bit_output>
D:/Desktop/智能车基地/CH32V103_SmartCar_V1.0/4.Demo/Libraries/hefei_peripheral/HF_TM1637.c:36
    led_sda_set();      //SDA为高电平
     460:	4585                	li	a1,1
     462:	02b00513          	li	a0,43
     466:	225000ef          	jal	ra,e8a <gpio_bit_output>
D:/Desktop/智能车基地/CH32V103_SmartCar_V1.0/4.Demo/Libraries/hefei_peripheral/HF_TM1637.c:37
    Delay_Us(125);
     46a:	07d00513          	li	a0,125
     46e:	2bb9                	jal	9cc <Delay_Us>
D:/Desktop/智能车基地/CH32V103_SmartCar_V1.0/4.Demo/Libraries/hefei_peripheral/HF_TM1637.c:38
    led_sda_clr();      //SDA为低电平
     470:	4581                	li	a1,0
     472:	02b00513          	li	a0,43
     476:	215000ef          	jal	ra,e8a <gpio_bit_output>
D:/Desktop/智能车基地/CH32V103_SmartCar_V1.0/4.Demo/Libraries/hefei_peripheral/HF_TM1637.c:39
    Delay_Us(75);
     47a:	04b00513          	li	a0,75
     47e:	23b9                	jal	9cc <Delay_Us>
D:/Desktop/智能车基地/CH32V103_SmartCar_V1.0/4.Demo/Libraries/hefei_peripheral/HF_TM1637.c:40
    led_scl_clr();      //SCL为低电平
     480:	4581                	li	a1,0
     482:	02a00513          	li	a0,42
     486:	205000ef          	jal	ra,e8a <gpio_bit_output>
D:/Desktop/智能车基地/CH32V103_SmartCar_V1.0/4.Demo/Libraries/hefei_peripheral/HF_TM1637.c:41
    Delay_Us(25);
     48a:	4565                	li	a0,25
     48c:	2381                	jal	9cc <Delay_Us>
D:/Desktop/智能车基地/CH32V103_SmartCar_V1.0/4.Demo/Libraries/hefei_peripheral/HF_TM1637.c:42
}
     48e:	0001                	nop
     490:	40b2                	lw	ra,12(sp)
     492:	4422                	lw	s0,8(sp)
     494:	0141                	addi	sp,sp,16
     496:	8082                	ret

00000498 <tm1637_wait_ack>:
tm1637_wait_ack():
D:/Desktop/智能车基地/CH32V103_SmartCar_V1.0/4.Demo/Libraries/hefei_peripheral/HF_TM1637.c:51
// @param        void
// @return       void
// Sample usage:        tm1637_wait_ack();//等待应答
//-------------------------------------------------------------------------------------------------------------------
void tm1637_wait_ack(void)
{
     498:	1141                	addi	sp,sp,-16
     49a:	c606                	sw	ra,12(sp)
     49c:	c422                	sw	s0,8(sp)
     49e:	0800                	addi	s0,sp,16
D:/Desktop/智能车基地/CH32V103_SmartCar_V1.0/4.Demo/Libraries/hefei_peripheral/HF_TM1637.c:52
    led_scl_clr();      //SCL为低电平
     4a0:	4581                	li	a1,0
     4a2:	02a00513          	li	a0,42
     4a6:	1e5000ef          	jal	ra,e8a <gpio_bit_output>
D:/Desktop/智能车基地/CH32V103_SmartCar_V1.0/4.Demo/Libraries/hefei_peripheral/HF_TM1637.c:53
    led_sda_clr();      //SDA为低电平
     4aa:	4581                	li	a1,0
     4ac:	02b00513          	li	a0,43
     4b0:	1db000ef          	jal	ra,e8a <gpio_bit_output>
D:/Desktop/智能车基地/CH32V103_SmartCar_V1.0/4.Demo/Libraries/hefei_peripheral/HF_TM1637.c:54
    Delay_Us(50);
     4b4:	03200513          	li	a0,50
     4b8:	2b11                	jal	9cc <Delay_Us>
D:/Desktop/智能车基地/CH32V103_SmartCar_V1.0/4.Demo/Libraries/hefei_peripheral/HF_TM1637.c:55
    led_scl_set();      //SCL为高电平
     4ba:	4585                	li	a1,1
     4bc:	02a00513          	li	a0,42
     4c0:	1cb000ef          	jal	ra,e8a <gpio_bit_output>
D:/Desktop/智能车基地/CH32V103_SmartCar_V1.0/4.Demo/Libraries/hefei_peripheral/HF_TM1637.c:56
    Delay_Us(25);
     4c4:	4565                	li	a0,25
     4c6:	2319                	jal	9cc <Delay_Us>
D:/Desktop/智能车基地/CH32V103_SmartCar_V1.0/4.Demo/Libraries/hefei_peripheral/HF_TM1637.c:57
    led_scl_clr();      //SCL为低电平
     4c8:	4581                	li	a1,0
     4ca:	02a00513          	li	a0,42
     4ce:	1bd000ef          	jal	ra,e8a <gpio_bit_output>
D:/Desktop/智能车基地/CH32V103_SmartCar_V1.0/4.Demo/Libraries/hefei_peripheral/HF_TM1637.c:58
    Delay_Us(25);
     4d2:	4565                	li	a0,25
     4d4:	29e5                	jal	9cc <Delay_Us>
D:/Desktop/智能车基地/CH32V103_SmartCar_V1.0/4.Demo/Libraries/hefei_peripheral/HF_TM1637.c:59
}
     4d6:	0001                	nop
     4d8:	40b2                	lw	ra,12(sp)
     4da:	4422                	lw	s0,8(sp)
     4dc:	0141                	addi	sp,sp,16
     4de:	8082                	ret

000004e0 <tm1637_stop>:
tm1637_stop():
D:/Desktop/智能车基地/CH32V103_SmartCar_V1.0/4.Demo/Libraries/hefei_peripheral/HF_TM1637.c:68
// @param        void
// @return       void
// Sample usage:        tm1637_stop();//停止信号
//-------------------------------------------------------------------------------------------------------------------
void tm1637_stop(void)
{
     4e0:	1141                	addi	sp,sp,-16
     4e2:	c606                	sw	ra,12(sp)
     4e4:	c422                	sw	s0,8(sp)
     4e6:	0800                	addi	s0,sp,16
D:/Desktop/智能车基地/CH32V103_SmartCar_V1.0/4.Demo/Libraries/hefei_peripheral/HF_TM1637.c:69
    Delay_Us(25);
     4e8:	4565                	li	a0,25
     4ea:	21cd                	jal	9cc <Delay_Us>
D:/Desktop/智能车基地/CH32V103_SmartCar_V1.0/4.Demo/Libraries/hefei_peripheral/HF_TM1637.c:70
    led_scl_set();      //SCL为高电平
     4ec:	4585                	li	a1,1
     4ee:	02a00513          	li	a0,42
     4f2:	199000ef          	jal	ra,e8a <gpio_bit_output>
D:/Desktop/智能车基地/CH32V103_SmartCar_V1.0/4.Demo/Libraries/hefei_peripheral/HF_TM1637.c:71
    led_sda_clr();      //SDA为低电平
     4f6:	4581                	li	a1,0
     4f8:	02b00513          	li	a0,43
     4fc:	18f000ef          	jal	ra,e8a <gpio_bit_output>
D:/Desktop/智能车基地/CH32V103_SmartCar_V1.0/4.Demo/Libraries/hefei_peripheral/HF_TM1637.c:72
    Delay_Us(75);
     500:	04b00513          	li	a0,75
     504:	21e1                	jal	9cc <Delay_Us>
D:/Desktop/智能车基地/CH32V103_SmartCar_V1.0/4.Demo/Libraries/hefei_peripheral/HF_TM1637.c:73
    led_sda_set();      //SDA为高电平
     506:	4585                	li	a1,1
     508:	02b00513          	li	a0,43
     50c:	17f000ef          	jal	ra,e8a <gpio_bit_output>
D:/Desktop/智能车基地/CH32V103_SmartCar_V1.0/4.Demo/Libraries/hefei_peripheral/HF_TM1637.c:74
}
     510:	0001                	nop
     512:	40b2                	lw	ra,12(sp)
     514:	4422                	lw	s0,8(sp)
     516:	0141                	addi	sp,sp,16
     518:	8082                	ret

0000051a <tm1637_write_byte>:
tm1637_write_byte():
D:/Desktop/智能车基地/CH32V103_SmartCar_V1.0/4.Demo/Libraries/hefei_peripheral/HF_TM1637.c:83
// @param        void
// @return       void
// Sample usage:        tm1637_write_byte(0xFF);//向数码管写0xFF字节,点亮八个灯区
//-------------------------------------------------------------------------------------------------------------------
void tm1637_write_byte(unsigned char dat)
{
     51a:	7179                	addi	sp,sp,-48
     51c:	d606                	sw	ra,44(sp)
     51e:	d422                	sw	s0,40(sp)
     520:	1800                	addi	s0,sp,48
     522:	87aa                	mv	a5,a0
     524:	fcf40fa3          	sb	a5,-33(s0)
D:/Desktop/智能车基地/CH32V103_SmartCar_V1.0/4.Demo/Libraries/hefei_peripheral/HF_TM1637.c:85
    unsigned char i;
    for( i = 0; i < 8; i++)
     528:	fe0407a3          	sb	zero,-17(s0)
     52c:	a08d                	j	58e <tm1637_write_byte+0x74>
D:/Desktop/智能车基地/CH32V103_SmartCar_V1.0/4.Demo/Libraries/hefei_peripheral/HF_TM1637.c:87
    {
        led_scl_clr();      //SCL为低电平
     52e:	4581                	li	a1,0
     530:	02a00513          	li	a0,42
     534:	157000ef          	jal	ra,e8a <gpio_bit_output>
D:/Desktop/智能车基地/CH32V103_SmartCar_V1.0/4.Demo/Libraries/hefei_peripheral/HF_TM1637.c:88
        if(dat & 0x01) //低位在前
     538:	fdf44783          	lbu	a5,-33(s0)
     53c:	8b85                	andi	a5,a5,1
     53e:	c799                	beqz	a5,54c <tm1637_write_byte+0x32>
D:/Desktop/智能车基地/CH32V103_SmartCar_V1.0/4.Demo/Libraries/hefei_peripheral/HF_TM1637.c:90
        {
            led_sda_set();      //SDA为高电平
     540:	4585                	li	a1,1
     542:	02b00513          	li	a0,43
     546:	145000ef          	jal	ra,e8a <gpio_bit_output>
     54a:	a031                	j	556 <tm1637_write_byte+0x3c>
D:/Desktop/智能车基地/CH32V103_SmartCar_V1.0/4.Demo/Libraries/hefei_peripheral/HF_TM1637.c:94
        }
        else
        {
            led_sda_clr();      //SDA为低电平
     54c:	4581                	li	a1,0
     54e:	02b00513          	li	a0,43
     552:	139000ef          	jal	ra,e8a <gpio_bit_output>
D:/Desktop/智能车基地/CH32V103_SmartCar_V1.0/4.Demo/Libraries/hefei_peripheral/HF_TM1637.c:96 (discriminator 2)
        }
        Delay_Us(25);
     556:	4565                	li	a0,25
     558:	2995                	jal	9cc <Delay_Us>
D:/Desktop/智能车基地/CH32V103_SmartCar_V1.0/4.Demo/Libraries/hefei_peripheral/HF_TM1637.c:97 (discriminator 2)
        dat = dat >> 1;
     55a:	fdf44783          	lbu	a5,-33(s0)
     55e:	8385                	srli	a5,a5,0x1
     560:	fcf40fa3          	sb	a5,-33(s0)
D:/Desktop/智能车基地/CH32V103_SmartCar_V1.0/4.Demo/Libraries/hefei_peripheral/HF_TM1637.c:98 (discriminator 2)
        led_scl_set();      //SCL为高电平
     564:	4585                	li	a1,1
     566:	02a00513          	li	a0,42
     56a:	121000ef          	jal	ra,e8a <gpio_bit_output>
D:/Desktop/智能车基地/CH32V103_SmartCar_V1.0/4.Demo/Libraries/hefei_peripheral/HF_TM1637.c:99 (discriminator 2)
        Delay_Us(50);
     56e:	03200513          	li	a0,50
     572:	29a9                	jal	9cc <Delay_Us>
D:/Desktop/智能车基地/CH32V103_SmartCar_V1.0/4.Demo/Libraries/hefei_peripheral/HF_TM1637.c:100 (discriminator 2)
        led_scl_clr();      //SCL为低电平
     574:	4581                	li	a1,0
     576:	02a00513          	li	a0,42
     57a:	111000ef          	jal	ra,e8a <gpio_bit_output>
D:/Desktop/智能车基地/CH32V103_SmartCar_V1.0/4.Demo/Libraries/hefei_peripheral/HF_TM1637.c:101 (discriminator 2)
        Delay_Us(50);
     57e:	03200513          	li	a0,50
     582:	21a9                	jal	9cc <Delay_Us>
D:/Desktop/智能车基地/CH32V103_SmartCar_V1.0/4.Demo/Libraries/hefei_peripheral/HF_TM1637.c:85 (discriminator 2)
    for( i = 0; i < 8; i++)
     584:	fef44783          	lbu	a5,-17(s0)
     588:	0785                	addi	a5,a5,1
     58a:	fef407a3          	sb	a5,-17(s0)
D:/Desktop/智能车基地/CH32V103_SmartCar_V1.0/4.Demo/Libraries/hefei_peripheral/HF_TM1637.c:85 (discriminator 1)
     58e:	fef44703          	lbu	a4,-17(s0)
     592:	479d                	li	a5,7
     594:	f8e7fde3          	bgeu	a5,a4,52e <tm1637_write_byte+0x14>
D:/Desktop/智能车基地/CH32V103_SmartCar_V1.0/4.Demo/Libraries/hefei_peripheral/HF_TM1637.c:103
    }
}
     598:	0001                	nop
     59a:	50b2                	lw	ra,44(sp)
     59c:	5422                	lw	s0,40(sp)
     59e:	6145                	addi	sp,sp,48
     5a0:	8082                	ret

000005a2 <tm1637_command>:
tm1637_command():
D:/Desktop/智能车基地/CH32V103_SmartCar_V1.0/4.Demo/Libraries/hefei_peripheral/HF_TM1637.c:112
// @param        void
// @return       void
// Sample usage:        tm1637_command(0x40);//向数码管发送一个命令（设置为地址自动加一显示）
//-------------------------------------------------------------------------------------------------------------------
void tm1637_command(unsigned char cmd)
{
     5a2:	1101                	addi	sp,sp,-32
     5a4:	ce06                	sw	ra,28(sp)
     5a6:	cc22                	sw	s0,24(sp)
     5a8:	1000                	addi	s0,sp,32
     5aa:	87aa                	mv	a5,a0
     5ac:	fef407a3          	sb	a5,-17(s0)
D:/Desktop/智能车基地/CH32V103_SmartCar_V1.0/4.Demo/Libraries/hefei_peripheral/HF_TM1637.c:113
    tm1637_start();
     5b0:	3d79                	jal	44e <tm1637_start>
D:/Desktop/智能车基地/CH32V103_SmartCar_V1.0/4.Demo/Libraries/hefei_peripheral/HF_TM1637.c:114
    tm1637_write_byte(cmd);
     5b2:	fef44783          	lbu	a5,-17(s0)
     5b6:	853e                	mv	a0,a5
     5b8:	378d                	jal	51a <tm1637_write_byte>
D:/Desktop/智能车基地/CH32V103_SmartCar_V1.0/4.Demo/Libraries/hefei_peripheral/HF_TM1637.c:115
    tm1637_wait_ack();
     5ba:	3df9                	jal	498 <tm1637_wait_ack>
D:/Desktop/智能车基地/CH32V103_SmartCar_V1.0/4.Demo/Libraries/hefei_peripheral/HF_TM1637.c:116
    tm1637_stop();
     5bc:	3715                	jal	4e0 <tm1637_stop>
D:/Desktop/智能车基地/CH32V103_SmartCar_V1.0/4.Demo/Libraries/hefei_peripheral/HF_TM1637.c:117
}
     5be:	0001                	nop
     5c0:	40f2                	lw	ra,28(sp)
     5c2:	4462                	lw	s0,24(sp)
     5c4:	6105                	addi	sp,sp,32
     5c6:	8082                	ret

000005c8 <tm1637_leddisplay>:
tm1637_leddisplay():
D:/Desktop/智能车基地/CH32V103_SmartCar_V1.0/4.Demo/Libraries/hefei_peripheral/HF_TM1637.c:128
// @param        dp            是否有小数点  dp = 0,1  //dp=0表示没有小数点，=1则表示有小数点
// @return       void
// Sample usage:        tm1637_leddisplay(1, 1, 0);//在第一位（从右往左数位数逐渐增大）显示数字1，不带小数点
//-------------------------------------------------------------------------------------------------------------------
void tm1637_leddisplay(unsigned char num_position, unsigned char num, unsigned char dp)
{
     5c8:	1101                	addi	sp,sp,-32
     5ca:	ce06                	sw	ra,28(sp)
     5cc:	cc22                	sw	s0,24(sp)
     5ce:	1000                	addi	s0,sp,32
     5d0:	87aa                	mv	a5,a0
     5d2:	86ae                	mv	a3,a1
     5d4:	8732                	mv	a4,a2
     5d6:	fef407a3          	sb	a5,-17(s0)
     5da:	87b6                	mv	a5,a3
     5dc:	fef40723          	sb	a5,-18(s0)
     5e0:	87ba                	mv	a5,a4
     5e2:	fef406a3          	sb	a5,-19(s0)
D:/Desktop/智能车基地/CH32V103_SmartCar_V1.0/4.Demo/Libraries/hefei_peripheral/HF_TM1637.c:129
    tm1637_start();
     5e6:	35a5                	jal	44e <tm1637_start>
D:/Desktop/智能车基地/CH32V103_SmartCar_V1.0/4.Demo/Libraries/hefei_peripheral/HF_TM1637.c:130
    tm1637_write_byte(0xC4 - num_position);
     5e8:	fef44783          	lbu	a5,-17(s0)
     5ec:	fc400713          	li	a4,-60
     5f0:	40f707b3          	sub	a5,a4,a5
     5f4:	0ff7f793          	andi	a5,a5,255
     5f8:	853e                	mv	a0,a5
     5fa:	3705                	jal	51a <tm1637_write_byte>
D:/Desktop/智能车基地/CH32V103_SmartCar_V1.0/4.Demo/Libraries/hefei_peripheral/HF_TM1637.c:131
    tm1637_wait_ack();
     5fc:	3d71                	jal	498 <tm1637_wait_ack>
D:/Desktop/智能车基地/CH32V103_SmartCar_V1.0/4.Demo/Libraries/hefei_peripheral/HF_TM1637.c:132
    tm1637_write_byte(leddata[num] | (dp<<7));
     5fe:	fee44703          	lbu	a4,-18(s0)
     602:	678d                	lui	a5,0x3
     604:	2a478793          	addi	a5,a5,676 # 32a4 <leddata>
     608:	97ba                	add	a5,a5,a4
     60a:	0007c783          	lbu	a5,0(a5)
     60e:	01879713          	slli	a4,a5,0x18
     612:	8761                	srai	a4,a4,0x18
     614:	fed44783          	lbu	a5,-19(s0)
     618:	079e                	slli	a5,a5,0x7
     61a:	07e2                	slli	a5,a5,0x18
     61c:	87e1                	srai	a5,a5,0x18
     61e:	8fd9                	or	a5,a5,a4
     620:	07e2                	slli	a5,a5,0x18
     622:	87e1                	srai	a5,a5,0x18
     624:	0ff7f793          	andi	a5,a5,255
     628:	853e                	mv	a0,a5
     62a:	3dc5                	jal	51a <tm1637_write_byte>
D:/Desktop/智能车基地/CH32V103_SmartCar_V1.0/4.Demo/Libraries/hefei_peripheral/HF_TM1637.c:133
    tm1637_wait_ack();
     62c:	35b5                	jal	498 <tm1637_wait_ack>
D:/Desktop/智能车基地/CH32V103_SmartCar_V1.0/4.Demo/Libraries/hefei_peripheral/HF_TM1637.c:134
    tm1637_stop();
     62e:	3d4d                	jal	4e0 <tm1637_stop>
D:/Desktop/智能车基地/CH32V103_SmartCar_V1.0/4.Demo/Libraries/hefei_peripheral/HF_TM1637.c:135
}
     630:	0001                	nop
     632:	40f2                	lw	ra,28(sp)
     634:	4462                	lw	s0,24(sp)
     636:	6105                	addi	sp,sp,32
     638:	8082                	ret

0000063a <ws2812b_init>:
ws2812b_init():
D:/Desktop/智能车基地/CH32V103_SmartCar_V1.0/4.Demo/Libraries/hefei_peripheral/HF_WS2812b.c:20
//  @since      v1.0
//  Sample usage:           ws2812b_init();
//                          //初始化RGB等
//-------------------------------------------------------------------------------------------------------------------
void ws2812b_init()
{
     63a:	1101                	addi	sp,sp,-32
     63c:	ce06                	sw	ra,28(sp)
     63e:	cc22                	sw	s0,24(sp)
     640:	1000                	addi	s0,sp,32
D:/Desktop/智能车基地/CH32V103_SmartCar_V1.0/4.Demo/Libraries/hefei_peripheral/HF_WS2812b.c:21
    pwm_init(PWM2_CH2_A1, 180000, 0, TIM_OCPreload_Disable);
     642:	4681                	li	a3,0
     644:	4601                	li	a2,0
     646:	0002c7b7          	lui	a5,0x2c
     64a:	f2078593          	addi	a1,a5,-224 # 2bf20 <_data_lma+0x28c38>
     64e:	10100513          	li	a0,257
     652:	17d000ef          	jal	ra,fce <pwm_init>
D:/Desktop/智能车基地/CH32V103_SmartCar_V1.0/4.Demo/Libraries/hefei_peripheral/HF_WS2812b.c:22
    TIM_OC2PolarityConfig(TIM2, TIM_OCPolarity_Low);
     656:	4589                	li	a1,2
     658:	40000537          	lui	a0,0x40000
     65c:	6d8020ef          	jal	ra,2d34 <TIM_OC2PolarityConfig>
D:/Desktop/智能车基地/CH32V103_SmartCar_V1.0/4.Demo/Libraries/hefei_peripheral/HF_WS2812b.c:24

    uint8_t RGB[3] = {0x00,0x00,0x00};
     660:	fe040623          	sb	zero,-20(s0)
     664:	fe0406a3          	sb	zero,-19(s0)
     668:	fe040723          	sb	zero,-18(s0)
D:/Desktop/智能车基地/CH32V103_SmartCar_V1.0/4.Demo/Libraries/hefei_peripheral/HF_WS2812b.c:25
    ws2812b_write(RGB);
     66c:	fec40793          	addi	a5,s0,-20
     670:	853e                	mv	a0,a5
     672:	2829                	jal	68c <ws2812b_write>
D:/Desktop/智能车基地/CH32V103_SmartCar_V1.0/4.Demo/Libraries/hefei_peripheral/HF_WS2812b.c:26
    Delay_Us(100);
     674:	06400513          	li	a0,100
     678:	2e91                	jal	9cc <Delay_Us>
D:/Desktop/智能车基地/CH32V103_SmartCar_V1.0/4.Demo/Libraries/hefei_peripheral/HF_WS2812b.c:27
    ws2812b_write(RGB);
     67a:	fec40793          	addi	a5,s0,-20
     67e:	853e                	mv	a0,a5
     680:	2031                	jal	68c <ws2812b_write>
D:/Desktop/智能车基地/CH32V103_SmartCar_V1.0/4.Demo/Libraries/hefei_peripheral/HF_WS2812b.c:28
}
     682:	0001                	nop
     684:	40f2                	lw	ra,28(sp)
     686:	4462                	lw	s0,24(sp)
     688:	6105                	addi	sp,sp,32
     68a:	8082                	ret

0000068c <ws2812b_write>:
ws2812b_write():
D:/Desktop/智能车基地/CH32V103_SmartCar_V1.0/4.Demo/Libraries/hefei_peripheral/HF_WS2812b.c:38
// @return       void
// Sample usage:        uint8_t RGB[3] = {0xff,0x00,0x00};  ws2812b_write(RGB);
                        //向RGB写入数组，显示红色
//-------------------------------------------------------------------------------------------------------------------
void ws2812b_write(uint8_t* RGB)
{
     68c:	7179                	addi	sp,sp,-48
     68e:	d606                	sw	ra,44(sp)
     690:	d422                	sw	s0,40(sp)
     692:	1800                	addi	s0,sp,48
     694:	fca42e23          	sw	a0,-36(s0)
D:/Desktop/智能车基地/CH32V103_SmartCar_V1.0/4.Demo/Libraries/hefei_peripheral/HF_WS2812b.c:40
    unsigned int num, i;
    unsigned char GRB[3] = {0,};
     698:	fe041223          	sh	zero,-28(s0)
     69c:	fe040323          	sb	zero,-26(s0)
D:/Desktop/智能车基地/CH32V103_SmartCar_V1.0/4.Demo/Libraries/hefei_peripheral/HF_WS2812b.c:42

    GRB[0] = RGB[1];
     6a0:	fdc42783          	lw	a5,-36(s0)
     6a4:	0017c783          	lbu	a5,1(a5)
     6a8:	fef40223          	sb	a5,-28(s0)
D:/Desktop/智能车基地/CH32V103_SmartCar_V1.0/4.Demo/Libraries/hefei_peripheral/HF_WS2812b.c:43
    GRB[1] = RGB[0];
     6ac:	fdc42783          	lw	a5,-36(s0)
     6b0:	0007c783          	lbu	a5,0(a5)
     6b4:	fef402a3          	sb	a5,-27(s0)
D:/Desktop/智能车基地/CH32V103_SmartCar_V1.0/4.Demo/Libraries/hefei_peripheral/HF_WS2812b.c:44
    GRB[2] = RGB[2];
     6b8:	fdc42783          	lw	a5,-36(s0)
     6bc:	0027c783          	lbu	a5,2(a5)
     6c0:	fef40323          	sb	a5,-26(s0)
D:/Desktop/智能车基地/CH32V103_SmartCar_V1.0/4.Demo/Libraries/hefei_peripheral/HF_WS2812b.c:45
    TIM_SetCounter(((TIM_TypeDef *)TIM2_BASE), 0);
     6c4:	4581                	li	a1,0
     6c6:	40000537          	lui	a0,0x40000
     6ca:	6c0020ef          	jal	ra,2d8a <TIM_SetCounter>
D:/Desktop/智能车基地/CH32V103_SmartCar_V1.0/4.Demo/Libraries/hefei_peripheral/HF_WS2812b.c:47

    for(num = 0; num<3; num++)
     6ce:	fe042623          	sw	zero,-20(s0)
     6d2:	a861                	j	76a <ws2812b_write+0xde>
D:/Desktop/智能车基地/CH32V103_SmartCar_V1.0/4.Demo/Libraries/hefei_peripheral/HF_WS2812b.c:49
    {
        for(i = 8; i!=0; i--)
     6d4:	47a1                	li	a5,8
     6d6:	fef42423          	sw	a5,-24(s0)
     6da:	a041                	j	75a <ws2812b_write+0xce>
D:/Desktop/智能车基地/CH32V103_SmartCar_V1.0/4.Demo/Libraries/hefei_peripheral/HF_WS2812b.c:51
        {
            if((*(GRB+num)>>(i-1))&0x01)
     6dc:	fe440713          	addi	a4,s0,-28
     6e0:	fec42783          	lw	a5,-20(s0)
     6e4:	97ba                	add	a5,a5,a4
     6e6:	0007c783          	lbu	a5,0(a5)
     6ea:	873e                	mv	a4,a5
     6ec:	fe842783          	lw	a5,-24(s0)
     6f0:	17fd                	addi	a5,a5,-1
     6f2:	40f757b3          	sra	a5,a4,a5
     6f6:	8b85                	andi	a5,a5,1
     6f8:	cb89                	beqz	a5,70a <ws2812b_write+0x7e>
D:/Desktop/智能车基地/CH32V103_SmartCar_V1.0/4.Demo/Libraries/hefei_peripheral/HF_WS2812b.c:54
            {
                //设置阈值(比较值,调节占空比的时候调节这个值)
                pwm_duty(PWM2_CH2_A1, 8500);/*发1*/
     6fa:	6789                	lui	a5,0x2
     6fc:	13478593          	addi	a1,a5,308 # 2134 <RCC_GetClocksFreq+0xa>
     700:	10100513          	li	a0,257
     704:	371000ef          	jal	ra,1274 <pwm_duty>
     708:	a801                	j	718 <ws2812b_write+0x8c>
D:/Desktop/智能车基地/CH32V103_SmartCar_V1.0/4.Demo/Libraries/hefei_peripheral/HF_WS2812b.c:58
            }
            else
            {
                pwm_duty(PWM2_CH2_A1, 9500);/*发0*/
     70a:	6789                	lui	a5,0x2
     70c:	51c78593          	addi	a1,a5,1308 # 251c <TIM_OC1Init+0xc>
     710:	10100513          	li	a0,257
     714:	361000ef          	jal	ra,1274 <pwm_duty>
D:/Desktop/智能车基地/CH32V103_SmartCar_V1.0/4.Demo/Libraries/hefei_peripheral/HF_WS2812b.c:60
            }
            TIM_Cmd(((TIM_TypeDef *)TIM2_BASE), ENABLE);
     718:	4585                	li	a1,1
     71a:	40000537          	lui	a0,0x40000
     71e:	412020ef          	jal	ra,2b30 <TIM_Cmd>
D:/Desktop/智能车基地/CH32V103_SmartCar_V1.0/4.Demo/Libraries/hefei_peripheral/HF_WS2812b.c:61
            while(!TIM_GetFlagStatus(((TIM_TypeDef *)TIM2_BASE), TIM_FLAG_Update));
     722:	0001                	nop
D:/Desktop/智能车基地/CH32V103_SmartCar_V1.0/4.Demo/Libraries/hefei_peripheral/HF_WS2812b.c:61 (discriminator 1)
     724:	4585                	li	a1,1
     726:	40000537          	lui	a0,0x40000
     72a:	684020ef          	jal	ra,2dae <TIM_GetFlagStatus>
     72e:	87aa                	mv	a5,a0
     730:	dbf5                	beqz	a5,724 <ws2812b_write+0x98>
D:/Desktop/智能车基地/CH32V103_SmartCar_V1.0/4.Demo/Libraries/hefei_peripheral/HF_WS2812b.c:62 (discriminator 2)
            TIM_Cmd(((TIM_TypeDef *)TIM2_BASE), DISABLE);
     732:	4581                	li	a1,0
     734:	40000537          	lui	a0,0x40000
     738:	3f8020ef          	jal	ra,2b30 <TIM_Cmd>
D:/Desktop/智能车基地/CH32V103_SmartCar_V1.0/4.Demo/Libraries/hefei_peripheral/HF_WS2812b.c:63 (discriminator 2)
            TIM_ClearFlag(((TIM_TypeDef *)TIM2_BASE), TIM_FLAG_Update);
     73c:	4585                	li	a1,1
     73e:	40000537          	lui	a0,0x40000
     742:	6b2020ef          	jal	ra,2df4 <TIM_ClearFlag>
D:/Desktop/智能车基地/CH32V103_SmartCar_V1.0/4.Demo/Libraries/hefei_peripheral/HF_WS2812b.c:64 (discriminator 2)
            TIM_SetCounter(((TIM_TypeDef *)TIM2_BASE), 0);
     746:	4581                	li	a1,0
     748:	40000537          	lui	a0,0x40000
     74c:	63e020ef          	jal	ra,2d8a <TIM_SetCounter>
D:/Desktop/智能车基地/CH32V103_SmartCar_V1.0/4.Demo/Libraries/hefei_peripheral/HF_WS2812b.c:49 (discriminator 2)
        for(i = 8; i!=0; i--)
     750:	fe842783          	lw	a5,-24(s0)
     754:	17fd                	addi	a5,a5,-1
     756:	fef42423          	sw	a5,-24(s0)
D:/Desktop/智能车基地/CH32V103_SmartCar_V1.0/4.Demo/Libraries/hefei_peripheral/HF_WS2812b.c:49 (discriminator 1)
     75a:	fe842783          	lw	a5,-24(s0)
     75e:	ffbd                	bnez	a5,6dc <ws2812b_write+0x50>
D:/Desktop/智能车基地/CH32V103_SmartCar_V1.0/4.Demo/Libraries/hefei_peripheral/HF_WS2812b.c:47 (discriminator 2)
    for(num = 0; num<3; num++)
     760:	fec42783          	lw	a5,-20(s0)
     764:	0785                	addi	a5,a5,1
     766:	fef42623          	sw	a5,-20(s0)
D:/Desktop/智能车基地/CH32V103_SmartCar_V1.0/4.Demo/Libraries/hefei_peripheral/HF_WS2812b.c:47 (discriminator 1)
     76a:	fec42703          	lw	a4,-20(s0)
     76e:	4789                	li	a5,2
     770:	f6e7f2e3          	bgeu	a5,a4,6d4 <ws2812b_write+0x48>
D:/Desktop/智能车基地/CH32V103_SmartCar_V1.0/4.Demo/Libraries/hefei_peripheral/HF_WS2812b.c:67
        }
    }
}
     774:	0001                	nop
     776:	50b2                	lw	ra,44(sp)
     778:	5422                	lw	s0,40(sp)
     77a:	6145                	addi	sp,sp,48
     77c:	8082                	ret

0000077e <board_init>:
board_init():
D:/Desktop/智能车基地/CH32V103_SmartCar_V1.0/4.Demo/Libraries/hefei_libraries/board/board.c:20
//  @return     void
//  @since      v1.0
//  Sample usage:              board_init();
//-------------------------------------------------------------------------------------------------------------------
void board_init(void)
{
     77e:	1141                	addi	sp,sp,-16
     780:	c606                	sw	ra,12(sp)
     782:	c422                	sw	s0,8(sp)
     784:	0800                	addi	s0,sp,16
D:/Desktop/智能车基地/CH32V103_SmartCar_V1.0/4.Demo/Libraries/hefei_libraries/board/board.c:22
    //获取系统主频
    sys_clk = 8000000 * (((RCC->CFGR0 >> 18)&0x0F) + 2);
     786:	400217b7          	lui	a5,0x40021
     78a:	43dc                	lw	a5,4(a5)
     78c:	83c9                	srli	a5,a5,0x12
     78e:	00f7f713          	andi	a4,a5,15
     792:	007a17b7          	lui	a5,0x7a1
     796:	20078793          	addi	a5,a5,512 # 7a1200 <_data_lma+0x79df18>
     79a:	02f70733          	mul	a4,a4,a5
     79e:	00f427b7          	lui	a5,0xf42
     7a2:	40078793          	addi	a5,a5,1024 # f42400 <_data_lma+0xf3f118>
     7a6:	973e                	add	a4,a4,a5
     7a8:	200007b7          	lui	a5,0x20000
     7ac:	00e7ac23          	sw	a4,24(a5) # 20000018 <_edata>
D:/Desktop/智能车基地/CH32V103_SmartCar_V1.0/4.Demo/Libraries/hefei_libraries/board/board.c:24
    //初始化DEBUG串口
    uart_init(DEBUG_UART, DEBUG_UART_BAUD, DEBUG_UART_TX_PIN, DEBUG_UART_RX_PIN);
     7b0:	4685                	li	a3,1
     7b2:	4601                	li	a2,0
     7b4:	67f1                	lui	a5,0x1c
     7b6:	20078593          	addi	a1,a5,512 # 1c200 <_data_lma+0x18f18>
     7ba:	4501                	li	a0,0
     7bc:	050010ef          	jal	ra,180c <uart_init>
D:/Desktop/智能车基地/CH32V103_SmartCar_V1.0/4.Demo/Libraries/hefei_libraries/board/board.c:25
}
     7c0:	0001                	nop
     7c2:	40b2                	lw	ra,12(sp)
     7c4:	4422                	lw	s0,8(sp)
     7c6:	0141                	addi	sp,sp,16
     7c8:	8082                	ret

000007ca <SetSysClock>:
SetSysClock():
D:/Desktop/智能车基地/CH32V103_SmartCar_V1.0/4.Demo/Libraries/hefei_libraries/board/clock_config.c:20
* Description    : Sets System clock frequency to 72MHz and configure HCLK, PCLK2 and PCLK1 prescalers.
* Input          : None
* Return         : None
*******************************************************************************************/
static void SetSysClock(void)
{
     7ca:	1101                	addi	sp,sp,-32
     7cc:	ce22                	sw	s0,28(sp)
     7ce:	1000                	addi	s0,sp,32
D:/Desktop/智能车基地/CH32V103_SmartCar_V1.0/4.Demo/Libraries/hefei_libraries/board/clock_config.c:21
    __IO uint32_t StartUpCounter = 0, HSEStatus = 0;
     7d0:	fe042623          	sw	zero,-20(s0)
     7d4:	fe042423          	sw	zero,-24(s0)
D:/Desktop/智能车基地/CH32V103_SmartCar_V1.0/4.Demo/Libraries/hefei_libraries/board/clock_config.c:23

    RCC->CTLR |= ((uint32_t)RCC_HSEON);
     7d8:	400217b7          	lui	a5,0x40021
     7dc:	4394                	lw	a3,0(a5)
     7de:	400217b7          	lui	a5,0x40021
     7e2:	6741                	lui	a4,0x10
     7e4:	8f55                	or	a4,a4,a3
     7e6:	c398                	sw	a4,0(a5)
D:/Desktop/智能车基地/CH32V103_SmartCar_V1.0/4.Demo/Libraries/hefei_libraries/board/clock_config.c:28 (discriminator 2)

    /* Wait till HSE is ready and if Time out is reached exit */
    do
    {
        HSEStatus = RCC->CTLR & RCC_HSERDY;
     7e8:	400217b7          	lui	a5,0x40021
     7ec:	4398                	lw	a4,0(a5)
     7ee:	000207b7          	lui	a5,0x20
     7f2:	8ff9                	and	a5,a5,a4
     7f4:	fef42423          	sw	a5,-24(s0)
D:/Desktop/智能车基地/CH32V103_SmartCar_V1.0/4.Demo/Libraries/hefei_libraries/board/clock_config.c:29 (discriminator 2)
        StartUpCounter++;
     7f8:	fec42783          	lw	a5,-20(s0)
     7fc:	0785                	addi	a5,a5,1
     7fe:	fef42623          	sw	a5,-20(s0)
D:/Desktop/智能车基地/CH32V103_SmartCar_V1.0/4.Demo/Libraries/hefei_libraries/board/clock_config.c:30 (discriminator 2)
    } while((HSEStatus == 0) && (StartUpCounter != HSE_STARTUP_TIMEOUT));
     802:	fe842783          	lw	a5,-24(s0)
     806:	e799                	bnez	a5,814 <__stack_size+0x14>
D:/Desktop/智能车基地/CH32V103_SmartCar_V1.0/4.Demo/Libraries/hefei_libraries/board/clock_config.c:30 (discriminator 1)
     808:	fec42703          	lw	a4,-20(s0)
     80c:	50000793          	li	a5,1280
     810:	fcf71ce3          	bne	a4,a5,7e8 <SetSysClock+0x1e>
D:/Desktop/智能车基地/CH32V103_SmartCar_V1.0/4.Demo/Libraries/hefei_libraries/board/clock_config.c:32

    if ((RCC->CTLR & RCC_HSERDY) != RESET)
     814:	400217b7          	lui	a5,0x40021
     818:	4398                	lw	a4,0(a5)
     81a:	000207b7          	lui	a5,0x20
     81e:	8ff9                	and	a5,a5,a4
     820:	c789                	beqz	a5,82a <__stack_size+0x2a>
D:/Desktop/智能车基地/CH32V103_SmartCar_V1.0/4.Demo/Libraries/hefei_libraries/board/clock_config.c:34
    {
        HSEStatus = (uint32_t)0x01;
     822:	4785                	li	a5,1
     824:	fef42423          	sw	a5,-24(s0)
     828:	a019                	j	82e <__stack_size+0x2e>
D:/Desktop/智能车基地/CH32V103_SmartCar_V1.0/4.Demo/Libraries/hefei_libraries/board/clock_config.c:38
    }
    else
    {
        HSEStatus = (uint32_t)0x00;
     82a:	fe042423          	sw	zero,-24(s0)
D:/Desktop/智能车基地/CH32V103_SmartCar_V1.0/4.Demo/Libraries/hefei_libraries/board/clock_config.c:41
    }

    if (HSEStatus == (uint32_t)0x01)
     82e:	fe842703          	lw	a4,-24(s0)
     832:	4785                	li	a5,1
     834:	0cf71763          	bne	a4,a5,902 <__stack_size+0x102>
D:/Desktop/智能车基地/CH32V103_SmartCar_V1.0/4.Demo/Libraries/hefei_libraries/board/clock_config.c:44
    {
        /* Enable Prefetch Buffer */
        FLASH->ACTLR |= FLASH_ACTLR_PRFTBE;
     838:	400227b7          	lui	a5,0x40022
     83c:	4398                	lw	a4,0(a5)
     83e:	400227b7          	lui	a5,0x40022
     842:	01076713          	ori	a4,a4,16
     846:	c398                	sw	a4,0(a5)
D:/Desktop/智能车基地/CH32V103_SmartCar_V1.0/4.Demo/Libraries/hefei_libraries/board/clock_config.c:47

        /* Flash 2 wait state */
        FLASH->ACTLR &= (uint32_t)((uint32_t)~FLASH_ACTLR_LATENCY);
     848:	400227b7          	lui	a5,0x40022
     84c:	4398                	lw	a4,0(a5)
     84e:	400227b7          	lui	a5,0x40022
     852:	9b71                	andi	a4,a4,-4
     854:	c398                	sw	a4,0(a5)
D:/Desktop/智能车基地/CH32V103_SmartCar_V1.0/4.Demo/Libraries/hefei_libraries/board/clock_config.c:48
        FLASH->ACTLR |= (uint32_t)FLASH_ACTLR_LATENCY_2;
     856:	400227b7          	lui	a5,0x40022
     85a:	4398                	lw	a4,0(a5)
     85c:	400227b7          	lui	a5,0x40022
     860:	00276713          	ori	a4,a4,2
     864:	c398                	sw	a4,0(a5)
D:/Desktop/智能车基地/CH32V103_SmartCar_V1.0/4.Demo/Libraries/hefei_libraries/board/clock_config.c:51

        /* HCLK = SYSCLK */
        RCC->CFGR0 |= (uint32_t)RCC_HPRE_DIV1;
     866:	40021737          	lui	a4,0x40021
     86a:	400217b7          	lui	a5,0x40021
     86e:	4358                	lw	a4,4(a4)
     870:	c3d8                	sw	a4,4(a5)
D:/Desktop/智能车基地/CH32V103_SmartCar_V1.0/4.Demo/Libraries/hefei_libraries/board/clock_config.c:53
        /* PCLK2 = HCLK */
        RCC->CFGR0 |= (uint32_t)RCC_PPRE2_DIV1;
     872:	40021737          	lui	a4,0x40021
     876:	400217b7          	lui	a5,0x40021
     87a:	4358                	lw	a4,4(a4)
     87c:	c3d8                	sw	a4,4(a5)
D:/Desktop/智能车基地/CH32V103_SmartCar_V1.0/4.Demo/Libraries/hefei_libraries/board/clock_config.c:55
        /* PCLK1 = HCLK */
        RCC->CFGR0 |= (uint32_t)RCC_PPRE1_DIV1;
     87e:	40021737          	lui	a4,0x40021
     882:	400217b7          	lui	a5,0x40021
     886:	4358                	lw	a4,4(a4)
     888:	c3d8                	sw	a4,4(a5)
D:/Desktop/智能车基地/CH32V103_SmartCar_V1.0/4.Demo/Libraries/hefei_libraries/board/clock_config.c:58


        RCC->CFGR0 &= (uint32_t)((uint32_t)~(RCC_PLLSRC | RCC_PLLXTPRE |
     88a:	400217b7          	lui	a5,0x40021
     88e:	43d4                	lw	a3,4(a5)
     890:	400217b7          	lui	a5,0x40021
     894:	ffc10737          	lui	a4,0xffc10
     898:	177d                	addi	a4,a4,-1
     89a:	8f75                	and	a4,a4,a3
     89c:	c3d8                	sw	a4,4(a5)
D:/Desktop/智能车基地/CH32V103_SmartCar_V1.0/4.Demo/Libraries/hefei_libraries/board/clock_config.c:61
                                            RCC_PLLMULL));
        /*  PLL configuration: PLLCLK = HSE * ?  */
        RCC->CFGR0 |= (uint32_t)(RCC_PLLSRC_HSE | RCC_PLLMULL11);
     89e:	400217b7          	lui	a5,0x40021
     8a2:	43d4                	lw	a3,4(a5)
     8a4:	400217b7          	lui	a5,0x40021
     8a8:	00250737          	lui	a4,0x250
     8ac:	8f55                	or	a4,a4,a3
     8ae:	c3d8                	sw	a4,4(a5)
D:/Desktop/智能车基地/CH32V103_SmartCar_V1.0/4.Demo/Libraries/hefei_libraries/board/clock_config.c:63
        /* Enable PLL */
        RCC->CTLR |= RCC_PLLON;
     8b0:	400217b7          	lui	a5,0x40021
     8b4:	4394                	lw	a3,0(a5)
     8b6:	400217b7          	lui	a5,0x40021
     8ba:	01000737          	lui	a4,0x1000
     8be:	8f55                	or	a4,a4,a3
     8c0:	c398                	sw	a4,0(a5)
D:/Desktop/智能车基地/CH32V103_SmartCar_V1.0/4.Demo/Libraries/hefei_libraries/board/clock_config.c:65
        /* Wait till PLL is ready */
        while((RCC->CTLR & RCC_PLLRDY) == 0)
     8c2:	0001                	nop
D:/Desktop/智能车基地/CH32V103_SmartCar_V1.0/4.Demo/Libraries/hefei_libraries/board/clock_config.c:65 (discriminator 1)
     8c4:	400217b7          	lui	a5,0x40021
     8c8:	4398                	lw	a4,0(a5)
     8ca:	020007b7          	lui	a5,0x2000
     8ce:	8ff9                	and	a5,a5,a4
     8d0:	dbf5                	beqz	a5,8c4 <__stack_size+0xc4>
D:/Desktop/智能车基地/CH32V103_SmartCar_V1.0/4.Demo/Libraries/hefei_libraries/board/clock_config.c:69
        {
        }
        /* Select PLL as system clock source */
        RCC->CFGR0 &= (uint32_t)((uint32_t)~(RCC_SW));
     8d2:	400217b7          	lui	a5,0x40021
     8d6:	43d8                	lw	a4,4(a5)
     8d8:	400217b7          	lui	a5,0x40021
     8dc:	9b71                	andi	a4,a4,-4
     8de:	c3d8                	sw	a4,4(a5)
D:/Desktop/智能车基地/CH32V103_SmartCar_V1.0/4.Demo/Libraries/hefei_libraries/board/clock_config.c:70
        RCC->CFGR0 |= (uint32_t)RCC_SW_PLL;
     8e0:	400217b7          	lui	a5,0x40021
     8e4:	43d8                	lw	a4,4(a5)
     8e6:	400217b7          	lui	a5,0x40021
     8ea:	00276713          	ori	a4,a4,2
     8ee:	c3d8                	sw	a4,4(a5)
D:/Desktop/智能车基地/CH32V103_SmartCar_V1.0/4.Demo/Libraries/hefei_libraries/board/clock_config.c:72
        /* Wait till PLL is used as system clock source */
        while ((RCC->CFGR0 & (uint32_t)RCC_SWS) != (uint32_t)0x08)
     8f0:	0001                	nop
D:/Desktop/智能车基地/CH32V103_SmartCar_V1.0/4.Demo/Libraries/hefei_libraries/board/clock_config.c:72 (discriminator 1)
     8f2:	400217b7          	lui	a5,0x40021
     8f6:	43dc                	lw	a5,4(a5)
     8f8:	00c7f713          	andi	a4,a5,12
     8fc:	47a1                	li	a5,8
     8fe:	fef71ae3          	bne	a4,a5,8f2 <__stack_size+0xf2>
D:/Desktop/智能车基地/CH32V103_SmartCar_V1.0/4.Demo/Libraries/hefei_libraries/board/clock_config.c:83
        /*
         * If HSE fails to start-up, the application will have wrong clock
     * configuration. User can add here some code to deal with this error
         */
    }
}
     902:	0001                	nop
     904:	4472                	lw	s0,28(sp)
     906:	6105                	addi	sp,sp,32
     908:	8082                	ret

0000090a <SystemInit>:
SystemInit():
D:/Desktop/智能车基地/CH32V103_SmartCar_V1.0/4.Demo/Libraries/hefei_libraries/board/clock_config.c:93
*                  the PLL and update the SystemCoreClock variable.
* Input          : None
* Return         : None
*******************************************************************************************/
void SystemInit (void)
{
     90a:	1141                	addi	sp,sp,-16
     90c:	c606                	sw	ra,12(sp)
     90e:	c422                	sw	s0,8(sp)
     910:	0800                	addi	s0,sp,16
D:/Desktop/智能车基地/CH32V103_SmartCar_V1.0/4.Demo/Libraries/hefei_libraries/board/clock_config.c:94
    RCC->CTLR |= (uint32_t)0x00000001;
     912:	400217b7          	lui	a5,0x40021
     916:	4398                	lw	a4,0(a5)
     918:	400217b7          	lui	a5,0x40021
     91c:	00176713          	ori	a4,a4,1
     920:	c398                	sw	a4,0(a5)
D:/Desktop/智能车基地/CH32V103_SmartCar_V1.0/4.Demo/Libraries/hefei_libraries/board/clock_config.c:95
    RCC->CFGR0 &= (uint32_t)0xF8FF0000;
     922:	400217b7          	lui	a5,0x40021
     926:	43d4                	lw	a3,4(a5)
     928:	400217b7          	lui	a5,0x40021
     92c:	f8ff0737          	lui	a4,0xf8ff0
     930:	8f75                	and	a4,a4,a3
     932:	c3d8                	sw	a4,4(a5)
D:/Desktop/智能车基地/CH32V103_SmartCar_V1.0/4.Demo/Libraries/hefei_libraries/board/clock_config.c:96
    RCC->CTLR &= (uint32_t)0xFEF6FFFF;
     934:	400217b7          	lui	a5,0x40021
     938:	4394                	lw	a3,0(a5)
     93a:	400217b7          	lui	a5,0x40021
     93e:	fef70737          	lui	a4,0xfef70
     942:	177d                	addi	a4,a4,-1
     944:	8f75                	and	a4,a4,a3
     946:	c398                	sw	a4,0(a5)
D:/Desktop/智能车基地/CH32V103_SmartCar_V1.0/4.Demo/Libraries/hefei_libraries/board/clock_config.c:97
    RCC->CTLR &= (uint32_t)0xFFFBFFFF;
     948:	400217b7          	lui	a5,0x40021
     94c:	4394                	lw	a3,0(a5)
     94e:	400217b7          	lui	a5,0x40021
     952:	fffc0737          	lui	a4,0xfffc0
     956:	177d                	addi	a4,a4,-1
     958:	8f75                	and	a4,a4,a3
     95a:	c398                	sw	a4,0(a5)
D:/Desktop/智能车基地/CH32V103_SmartCar_V1.0/4.Demo/Libraries/hefei_libraries/board/clock_config.c:98
    RCC->CFGR0 &= (uint32_t)0xFF80FFFF;
     95c:	400217b7          	lui	a5,0x40021
     960:	43d4                	lw	a3,4(a5)
     962:	400217b7          	lui	a5,0x40021
     966:	ff810737          	lui	a4,0xff810
     96a:	177d                	addi	a4,a4,-1
     96c:	8f75                	and	a4,a4,a3
     96e:	c3d8                	sw	a4,4(a5)
D:/Desktop/智能车基地/CH32V103_SmartCar_V1.0/4.Demo/Libraries/hefei_libraries/board/clock_config.c:99
    RCC->INTR = 0x009F0000;
     970:	400217b7          	lui	a5,0x40021
     974:	009f0737          	lui	a4,0x9f0
     978:	c798                	sw	a4,8(a5)
D:/Desktop/智能车基地/CH32V103_SmartCar_V1.0/4.Demo/Libraries/hefei_libraries/board/clock_config.c:100
    SetSysClock();
     97a:	3d81                	jal	7ca <SetSysClock>
D:/Desktop/智能车基地/CH32V103_SmartCar_V1.0/4.Demo/Libraries/hefei_libraries/board/clock_config.c:101
}
     97c:	0001                	nop
     97e:	40b2                	lw	ra,12(sp)
     980:	4422                	lw	s0,8(sp)
     982:	0141                	addi	sp,sp,16
     984:	8082                	ret

00000986 <Delay_Init>:
Delay_Init():
D:/Desktop/智能车基地/CH32V103_SmartCar_V1.0/4.Demo/Libraries/hefei_libraries/delay.c:23
//  @param      void
//  @return     void
//  Sample usage:           Delay_Init();
//-------------------------------------------------------------------------------------------------------------------
void Delay_Init(void)
{
     986:	1141                	addi	sp,sp,-16
     988:	c622                	sw	s0,12(sp)
     98a:	0800                	addi	s0,sp,16
D:/Desktop/智能车基地/CH32V103_SmartCar_V1.0/4.Demo/Libraries/hefei_libraries/delay.c:24
    p_us=sys_clk/8000000;
     98c:	200007b7          	lui	a5,0x20000
     990:	0187a703          	lw	a4,24(a5) # 20000018 <_edata>
     994:	007a17b7          	lui	a5,0x7a1
     998:	20078793          	addi	a5,a5,512 # 7a1200 <_data_lma+0x79df18>
     99c:	02f757b3          	divu	a5,a4,a5
     9a0:	0ff7f713          	andi	a4,a5,255
     9a4:	80e18623          	sb	a4,-2036(gp) # 2000001c <p_us>
D:/Desktop/智能车基地/CH32V103_SmartCar_V1.0/4.Demo/Libraries/hefei_libraries/delay.c:25
    p_ms=(uint16_t)p_us*1000;
     9a8:	80c1c783          	lbu	a5,-2036(gp) # 2000001c <p_us>
     9ac:	01079713          	slli	a4,a5,0x10
     9b0:	8341                	srli	a4,a4,0x10
     9b2:	3e800793          	li	a5,1000
     9b6:	02f707b3          	mul	a5,a4,a5
     9ba:	01079713          	slli	a4,a5,0x10
     9be:	8341                	srli	a4,a4,0x10
     9c0:	80e19723          	sh	a4,-2034(gp) # 2000001e <p_ms>
D:/Desktop/智能车基地/CH32V103_SmartCar_V1.0/4.Demo/Libraries/hefei_libraries/delay.c:26
}
     9c4:	0001                	nop
     9c6:	4432                	lw	s0,12(sp)
     9c8:	0141                	addi	sp,sp,16
     9ca:	8082                	ret

000009cc <Delay_Us>:
Delay_Us():
D:/Desktop/智能车基地/CH32V103_SmartCar_V1.0/4.Demo/Libraries/hefei_libraries/delay.c:35
//  @param      n           延时的时间（us）
//  @return     void
//  Sample usage:           Delay_Us(1000);//延时1000us
//-------------------------------------------------------------------------------------------------------------------
void Delay_Us(uint32_t n)
{
     9cc:	7179                	addi	sp,sp,-48
     9ce:	d622                	sw	s0,44(sp)
     9d0:	1800                	addi	s0,sp,48
     9d2:	fca42e23          	sw	a0,-36(s0)
D:/Desktop/智能车基地/CH32V103_SmartCar_V1.0/4.Demo/Libraries/hefei_libraries/delay.c:38
    uint32_t i;

    SysTick->CTLR = 0;
     9d6:	e000f7b7          	lui	a5,0xe000f
     9da:	0007a023          	sw	zero,0(a5) # e000f000 <_eusrstack+0xc000a000>
D:/Desktop/智能车基地/CH32V103_SmartCar_V1.0/4.Demo/Libraries/hefei_libraries/delay.c:39
    i = (uint32_t)n*p_us;
     9de:	80c1c783          	lbu	a5,-2036(gp) # 2000001c <p_us>
     9e2:	873e                	mv	a4,a5
     9e4:	fdc42783          	lw	a5,-36(s0)
     9e8:	02e787b3          	mul	a5,a5,a4
     9ec:	fef42623          	sw	a5,-20(s0)
D:/Desktop/智能车基地/CH32V103_SmartCar_V1.0/4.Demo/Libraries/hefei_libraries/delay.c:41

    SysTick->CNTL0 = 0;
     9f0:	e000f7b7          	lui	a5,0xe000f
     9f4:	00078223          	sb	zero,4(a5) # e000f004 <_eusrstack+0xc000a004>
D:/Desktop/智能车基地/CH32V103_SmartCar_V1.0/4.Demo/Libraries/hefei_libraries/delay.c:42
    SysTick->CNTL1 = 0;
     9f8:	e000f7b7          	lui	a5,0xe000f
     9fc:	000782a3          	sb	zero,5(a5) # e000f005 <_eusrstack+0xc000a005>
D:/Desktop/智能车基地/CH32V103_SmartCar_V1.0/4.Demo/Libraries/hefei_libraries/delay.c:43
    SysTick->CNTL2 = 0;
     a00:	e000f7b7          	lui	a5,0xe000f
     a04:	00078323          	sb	zero,6(a5) # e000f006 <_eusrstack+0xc000a006>
D:/Desktop/智能车基地/CH32V103_SmartCar_V1.0/4.Demo/Libraries/hefei_libraries/delay.c:44
    SysTick->CNTL3 = 0;
     a08:	e000f7b7          	lui	a5,0xe000f
     a0c:	000783a3          	sb	zero,7(a5) # e000f007 <_eusrstack+0xc000a007>
D:/Desktop/智能车基地/CH32V103_SmartCar_V1.0/4.Demo/Libraries/hefei_libraries/delay.c:45
    SysTick->CTLR = 1;
     a10:	e000f7b7          	lui	a5,0xe000f
     a14:	4705                	li	a4,1
     a16:	c398                	sw	a4,0(a5)
D:/Desktop/智能车基地/CH32V103_SmartCar_V1.0/4.Demo/Libraries/hefei_libraries/delay.c:47

  while((*(__IO uint32_t*)0xE000F004) <= i);
     a18:	0001                	nop
D:/Desktop/智能车基地/CH32V103_SmartCar_V1.0/4.Demo/Libraries/hefei_libraries/delay.c:47 (discriminator 1)
     a1a:	e000f7b7          	lui	a5,0xe000f
     a1e:	0791                	addi	a5,a5,4
     a20:	439c                	lw	a5,0(a5)
     a22:	fec42703          	lw	a4,-20(s0)
     a26:	fef77ae3          	bgeu	a4,a5,a1a <Delay_Us+0x4e>
D:/Desktop/智能车基地/CH32V103_SmartCar_V1.0/4.Demo/Libraries/hefei_libraries/delay.c:49

}
     a2a:	0001                	nop
     a2c:	5432                	lw	s0,44(sp)
     a2e:	6145                	addi	sp,sp,48
     a30:	8082                	ret

00000a32 <Delay_Ms>:
Delay_Ms():
D:/Desktop/智能车基地/CH32V103_SmartCar_V1.0/4.Demo/Libraries/hefei_libraries/delay.c:58
//  @param      n           延时的时间（ms）
//  @return     void
//  Sample usage:           Delay_Ms(1000);//延时1000ms
//-------------------------------------------------------------------------------------------------------------------
void Delay_Ms (uint32_t n)
{
     a32:	7179                	addi	sp,sp,-48
     a34:	d622                	sw	s0,44(sp)
     a36:	1800                	addi	s0,sp,48
     a38:	fca42e23          	sw	a0,-36(s0)
D:/Desktop/智能车基地/CH32V103_SmartCar_V1.0/4.Demo/Libraries/hefei_libraries/delay.c:61
    uint32_t i;

    SysTick->CTLR = 0;
     a3c:	e000f7b7          	lui	a5,0xe000f
     a40:	0007a023          	sw	zero,0(a5) # e000f000 <_eusrstack+0xc000a000>
D:/Desktop/智能车基地/CH32V103_SmartCar_V1.0/4.Demo/Libraries/hefei_libraries/delay.c:62
    i = (uint32_t)n*p_ms;
     a44:	80e1d783          	lhu	a5,-2034(gp) # 2000001e <p_ms>
     a48:	873e                	mv	a4,a5
     a4a:	fdc42783          	lw	a5,-36(s0)
     a4e:	02e787b3          	mul	a5,a5,a4
     a52:	fef42623          	sw	a5,-20(s0)
D:/Desktop/智能车基地/CH32V103_SmartCar_V1.0/4.Demo/Libraries/hefei_libraries/delay.c:64

    SysTick->CNTL0 = 0;
     a56:	e000f7b7          	lui	a5,0xe000f
     a5a:	00078223          	sb	zero,4(a5) # e000f004 <_eusrstack+0xc000a004>
D:/Desktop/智能车基地/CH32V103_SmartCar_V1.0/4.Demo/Libraries/hefei_libraries/delay.c:65
    SysTick->CNTL1 = 0;
     a5e:	e000f7b7          	lui	a5,0xe000f
     a62:	000782a3          	sb	zero,5(a5) # e000f005 <_eusrstack+0xc000a005>
D:/Desktop/智能车基地/CH32V103_SmartCar_V1.0/4.Demo/Libraries/hefei_libraries/delay.c:66
    SysTick->CNTL2 = 0;
     a66:	e000f7b7          	lui	a5,0xe000f
     a6a:	00078323          	sb	zero,6(a5) # e000f006 <_eusrstack+0xc000a006>
D:/Desktop/智能车基地/CH32V103_SmartCar_V1.0/4.Demo/Libraries/hefei_libraries/delay.c:67
    SysTick->CNTL3 = 0;
     a6e:	e000f7b7          	lui	a5,0xe000f
     a72:	000783a3          	sb	zero,7(a5) # e000f007 <_eusrstack+0xc000a007>
D:/Desktop/智能车基地/CH32V103_SmartCar_V1.0/4.Demo/Libraries/hefei_libraries/delay.c:68
    SysTick->CTLR = 1;
     a76:	e000f7b7          	lui	a5,0xe000f
     a7a:	4705                	li	a4,1
     a7c:	c398                	sw	a4,0(a5)
D:/Desktop/智能车基地/CH32V103_SmartCar_V1.0/4.Demo/Libraries/hefei_libraries/delay.c:70

  while((*(__IO uint32_t*)0xE000F004) <= i);
     a7e:	0001                	nop
D:/Desktop/智能车基地/CH32V103_SmartCar_V1.0/4.Demo/Libraries/hefei_libraries/delay.c:70 (discriminator 1)
     a80:	e000f7b7          	lui	a5,0xe000f
     a84:	0791                	addi	a5,a5,4
     a86:	439c                	lw	a5,0(a5)
     a88:	fec42703          	lw	a4,-20(s0)
     a8c:	fef77ae3          	bgeu	a4,a5,a80 <Delay_Ms+0x4e>
D:/Desktop/智能车基地/CH32V103_SmartCar_V1.0/4.Demo/Libraries/hefei_libraries/delay.c:71
}
     a90:	0001                	nop
     a92:	5432                	lw	s0,44(sp)
     a94:	6145                	addi	sp,sp,48
     a96:	8082                	ret

00000a98 <adc_init>:
adc_init():
D:/Desktop/智能车基地/CH32V103_SmartCar_V1.0/4.Demo/Libraries/hefei_libraries/hf_adc.c:19
//  @param      ADC_IN0_Ax              选择ADC通道，见wh_adc.h内关于ADC通道的定义
//  @return     void
//  Sample usage:               adc_init(ADC_IN0_A0);//初始化A0引脚为ADC功能
//-------------------------------------------------------------------------------------------------------------------
void adc_init(ADCCH_enum ADC_INx_xx)
{
     a98:	7139                	addi	sp,sp,-64
     a9a:	de06                	sw	ra,60(sp)
     a9c:	dc22                	sw	s0,56(sp)
     a9e:	0080                	addi	s0,sp,64
     aa0:	fca42623          	sw	a0,-52(s0)
D:/Desktop/智能车基地/CH32V103_SmartCar_V1.0/4.Demo/Libraries/hefei_libraries/hf_adc.c:24
    /* 初始化ADC结构体 */
    ADC_InitTypeDef ADC_InitStructure;

    /* 开启GPIO、ADC1的时钟 */
    RCC_APB2PeriphClockCmd(RCC_APB2Periph_GPIOA |RCC_APB2Periph_ADC1 , ENABLE );   //使能ADC1通道时钟，默认采用ADC1
     aa4:	4585                	li	a1,1
     aa6:	20400513          	li	a0,516
     aaa:	09b010ef          	jal	ra,2344 <RCC_APB2PeriphClockCmd>
D:/Desktop/智能车基地/CH32V103_SmartCar_V1.0/4.Demo/Libraries/hefei_libraries/hf_adc.c:27

    /* 根据ADC通道初始化GPIO */
    adc_gpio_init(ADC_INx_xx);
     aae:	fcc42503          	lw	a0,-52(s0)
     ab2:	2855                	jal	b66 <adc_gpio_init>
D:/Desktop/智能车基地/CH32V103_SmartCar_V1.0/4.Demo/Libraries/hefei_libraries/hf_adc.c:30

    /* 设置ADC分频因子，根据APB2的时钟进行设置 */
    if(sys_clk > 84000000)  RCC_ADCCLKConfig(RCC_PCLK2_Div8);           //设置ADC分频因子，ADC最大速率不能超过14M
     ab4:	200007b7          	lui	a5,0x20000
     ab8:	0187a703          	lw	a4,24(a5) # 20000018 <_edata>
     abc:	0501c7b7          	lui	a5,0x501c
     ac0:	d0078793          	addi	a5,a5,-768 # 501bd00 <_data_lma+0x5018a18>
     ac4:	00e7f663          	bgeu	a5,a4,ad0 <adc_init+0x38>
D:/Desktop/智能车基地/CH32V103_SmartCar_V1.0/4.Demo/Libraries/hefei_libraries/hf_adc.c:30 (discriminator 1)
     ac8:	6531                	lui	a0,0xc
     aca:	61a010ef          	jal	ra,20e4 <RCC_ADCCLKConfig>
     ace:	a021                	j	ad6 <adc_init+0x3e>
D:/Desktop/智能车基地/CH32V103_SmartCar_V1.0/4.Demo/Libraries/hefei_libraries/hf_adc.c:31
    else RCC_ADCCLKConfig(RCC_PCLK2_Div6);
     ad0:	6521                	lui	a0,0x8
     ad2:	612010ef          	jal	ra,20e4 <RCC_ADCCLKConfig>
D:/Desktop/智能车基地/CH32V103_SmartCar_V1.0/4.Demo/Libraries/hefei_libraries/hf_adc.c:33

    ADC_DeInit(ADC1);                                                   //复位ADC1
     ad6:	400127b7          	lui	a5,0x40012
     ada:	40078513          	addi	a0,a5,1024 # 40012400 <_eusrstack+0x2000d400>
     ade:	124010ef          	jal	ra,1c02 <ADC_DeInit>
D:/Desktop/智能车基地/CH32V103_SmartCar_V1.0/4.Demo/Libraries/hefei_libraries/hf_adc.c:36

    /* 配置ADC初始化参数 */
    ADC_InitStructure.ADC_Mode = ADC_Mode_Independent;                  //ADC工作模式:ADC1工作在独立模式
     ae2:	fc042c23          	sw	zero,-40(s0)
D:/Desktop/智能车基地/CH32V103_SmartCar_V1.0/4.Demo/Libraries/hefei_libraries/hf_adc.c:37
    ADC_InitStructure.ADC_ScanConvMode = DISABLE;                       //模数转换工作在单通道模式
     ae6:	fc042e23          	sw	zero,-36(s0)
D:/Desktop/智能车基地/CH32V103_SmartCar_V1.0/4.Demo/Libraries/hefei_libraries/hf_adc.c:38
    ADC_InitStructure.ADC_ContinuousConvMode = DISABLE;                 //模数转换工作在单次转换模式
     aea:	fe042023          	sw	zero,-32(s0)
D:/Desktop/智能车基地/CH32V103_SmartCar_V1.0/4.Demo/Libraries/hefei_libraries/hf_adc.c:39
    ADC_InitStructure.ADC_ExternalTrigConv = ADC_ExternalTrigConv_None; //转换由软件而不是外部触发启动
     aee:	000e07b7          	lui	a5,0xe0
     af2:	fef42223          	sw	a5,-28(s0)
D:/Desktop/智能车基地/CH32V103_SmartCar_V1.0/4.Demo/Libraries/hefei_libraries/hf_adc.c:40
    ADC_InitStructure.ADC_DataAlign = ADC_DataAlign_Right;              //ADC数据右对齐
     af6:	fe042423          	sw	zero,-24(s0)
D:/Desktop/智能车基地/CH32V103_SmartCar_V1.0/4.Demo/Libraries/hefei_libraries/hf_adc.c:41
    ADC_InitStructure.ADC_NbrOfChannel = 1;                             //顺序进行规则转换的ADC通道的数目
     afa:	4785                	li	a5,1
     afc:	fef40623          	sb	a5,-20(s0)
D:/Desktop/智能车基地/CH32V103_SmartCar_V1.0/4.Demo/Libraries/hefei_libraries/hf_adc.c:42
    ADC_Init(ADC1, &ADC_InitStructure);                                 //根据ADC_InitStruct中指定的参数初始化外设ADCx的寄存器
     b00:	fd840793          	addi	a5,s0,-40
     b04:	85be                	mv	a1,a5
     b06:	400127b7          	lui	a5,0x40012
     b0a:	40078513          	addi	a0,a5,1024 # 40012400 <_eusrstack+0x2000d400>
     b0e:	12a010ef          	jal	ra,1c38 <ADC_Init>
D:/Desktop/智能车基地/CH32V103_SmartCar_V1.0/4.Demo/Libraries/hefei_libraries/hf_adc.c:44

    ADC_Cmd(ADC1, ENABLE);                                              //使能指定的ADC1
     b12:	4585                	li	a1,1
     b14:	400127b7          	lui	a5,0x40012
     b18:	40078513          	addi	a0,a5,1024 # 40012400 <_eusrstack+0x2000d400>
     b1c:	20e010ef          	jal	ra,1d2a <ADC_Cmd>
D:/Desktop/智能车基地/CH32V103_SmartCar_V1.0/4.Demo/Libraries/hefei_libraries/hf_adc.c:45
    ADC_ResetCalibration(ADC1);                                         //使能复位校准
     b20:	400127b7          	lui	a5,0x40012
     b24:	40078513          	addi	a0,a5,1024 # 40012400 <_eusrstack+0x2000d400>
     b28:	240010ef          	jal	ra,1d68 <ADC_ResetCalibration>
D:/Desktop/智能车基地/CH32V103_SmartCar_V1.0/4.Demo/Libraries/hefei_libraries/hf_adc.c:46
    while(ADC_GetResetCalibrationStatus(ADC1));                         //等待复位校准结束
     b2c:	0001                	nop
D:/Desktop/智能车基地/CH32V103_SmartCar_V1.0/4.Demo/Libraries/hefei_libraries/hf_adc.c:46 (discriminator 1)
     b2e:	400127b7          	lui	a5,0x40012
     b32:	40078513          	addi	a0,a5,1024 # 40012400 <_eusrstack+0x2000d400>
     b36:	254010ef          	jal	ra,1d8a <ADC_GetResetCalibrationStatus>
     b3a:	87aa                	mv	a5,a0
     b3c:	fbed                	bnez	a5,b2e <adc_init+0x96>
D:/Desktop/智能车基地/CH32V103_SmartCar_V1.0/4.Demo/Libraries/hefei_libraries/hf_adc.c:47
    ADC_StartCalibration(ADC1);                                         //开启AD校准
     b3e:	400127b7          	lui	a5,0x40012
     b42:	40078513          	addi	a0,a5,1024 # 40012400 <_eusrstack+0x2000d400>
     b46:	274010ef          	jal	ra,1dba <ADC_StartCalibration>
D:/Desktop/智能车基地/CH32V103_SmartCar_V1.0/4.Demo/Libraries/hefei_libraries/hf_adc.c:48
    while(ADC_GetCalibrationStatus(ADC1));                              //等待校准结束
     b4a:	0001                	nop
D:/Desktop/智能车基地/CH32V103_SmartCar_V1.0/4.Demo/Libraries/hefei_libraries/hf_adc.c:48 (discriminator 1)
     b4c:	400127b7          	lui	a5,0x40012
     b50:	40078513          	addi	a0,a5,1024 # 40012400 <_eusrstack+0x2000d400>
     b54:	288010ef          	jal	ra,1ddc <ADC_GetCalibrationStatus>
     b58:	87aa                	mv	a5,a0
     b5a:	fbed                	bnez	a5,b4c <adc_init+0xb4>
D:/Desktop/智能车基地/CH32V103_SmartCar_V1.0/4.Demo/Libraries/hefei_libraries/hf_adc.c:50

}
     b5c:	0001                	nop
     b5e:	50f2                	lw	ra,60(sp)
     b60:	5462                	lw	s0,56(sp)
     b62:	6121                	addi	sp,sp,64
     b64:	8082                	ret

00000b66 <adc_gpio_init>:
adc_gpio_init():
D:/Desktop/智能车基地/CH32V103_SmartCar_V1.0/4.Demo/Libraries/hefei_libraries/hf_adc.c:100
//  @param      ADC_IN0_Ax          可选择范围由wh_adc.h内ADCCH_enum枚举值确定
//  @return     void
//  Sample usage:           内部使用  用户无需关心
//-------------------------------------------------------------------------------------------------------------------
void adc_gpio_init(ADCCH_enum ADC_INx_xx)
{
     b66:	1101                	addi	sp,sp,-32
     b68:	ce06                	sw	ra,28(sp)
     b6a:	cc22                	sw	s0,24(sp)
     b6c:	1000                	addi	s0,sp,32
     b6e:	fea42623          	sw	a0,-20(s0)
D:/Desktop/智能车基地/CH32V103_SmartCar_V1.0/4.Demo/Libraries/hefei_libraries/hf_adc.c:101
    if(ADC_IN0_A0 == ADC_INx_xx)            gpio_init(A0, GPI, 0, IN_AIN);
     b72:	fec42783          	lw	a5,-20(s0)
     b76:	e799                	bnez	a5,b84 <adc_gpio_init+0x1e>
D:/Desktop/智能车基地/CH32V103_SmartCar_V1.0/4.Demo/Libraries/hefei_libraries/hf_adc.c:101 (discriminator 1)
     b78:	4681                	li	a3,0
     b7a:	4601                	li	a2,0
     b7c:	4581                	li	a1,0
     b7e:	4501                	li	a0,0
     b80:	229d                	jal	ce6 <gpio_init>
D:/Desktop/智能车基地/CH32V103_SmartCar_V1.0/4.Demo/Libraries/hefei_libraries/hf_adc.c:117 (discriminator 1)
    else if(ADC_IN11_C1 == ADC_INx_xx)      gpio_init(C1, GPI, 0, IN_AIN);
    else if(ADC_IN12_C2 == ADC_INx_xx)      gpio_init(C2, GPI, 0, IN_AIN);
    else if(ADC_IN13_C3 == ADC_INx_xx)      gpio_init(C3, GPI, 0, IN_AIN);
    else if(ADC_IN14_C4 == ADC_INx_xx)      gpio_init(C4, GPI, 0, IN_AIN);
    else if(ADC_IN15_C5 == ADC_INx_xx)      gpio_init(C5, GPI, 0, IN_AIN);
}
     b82:	aaa9                	j	cdc <adc_gpio_init+0x176>
D:/Desktop/智能车基地/CH32V103_SmartCar_V1.0/4.Demo/Libraries/hefei_libraries/hf_adc.c:102
    else if(ADC_IN1_A1 == ADC_INx_xx)       gpio_init(A1, GPI, 0, IN_AIN);
     b84:	fec42703          	lw	a4,-20(s0)
     b88:	4785                	li	a5,1
     b8a:	00f71863          	bne	a4,a5,b9a <adc_gpio_init+0x34>
D:/Desktop/智能车基地/CH32V103_SmartCar_V1.0/4.Demo/Libraries/hefei_libraries/hf_adc.c:102 (discriminator 1)
     b8e:	4681                	li	a3,0
     b90:	4601                	li	a2,0
     b92:	4581                	li	a1,0
     b94:	4505                	li	a0,1
     b96:	2a81                	jal	ce6 <gpio_init>
D:/Desktop/智能车基地/CH32V103_SmartCar_V1.0/4.Demo/Libraries/hefei_libraries/hf_adc.c:117 (discriminator 1)
}
     b98:	a291                	j	cdc <adc_gpio_init+0x176>
D:/Desktop/智能车基地/CH32V103_SmartCar_V1.0/4.Demo/Libraries/hefei_libraries/hf_adc.c:103
    else if(ADC_IN2_A2 == ADC_INx_xx)       gpio_init(A2, GPI, 0, IN_AIN);
     b9a:	fec42703          	lw	a4,-20(s0)
     b9e:	4789                	li	a5,2
     ba0:	00f71863          	bne	a4,a5,bb0 <adc_gpio_init+0x4a>
D:/Desktop/智能车基地/CH32V103_SmartCar_V1.0/4.Demo/Libraries/hefei_libraries/hf_adc.c:103 (discriminator 1)
     ba4:	4681                	li	a3,0
     ba6:	4601                	li	a2,0
     ba8:	4581                	li	a1,0
     baa:	4509                	li	a0,2
     bac:	2a2d                	jal	ce6 <gpio_init>
D:/Desktop/智能车基地/CH32V103_SmartCar_V1.0/4.Demo/Libraries/hefei_libraries/hf_adc.c:117 (discriminator 1)
}
     bae:	a23d                	j	cdc <adc_gpio_init+0x176>
D:/Desktop/智能车基地/CH32V103_SmartCar_V1.0/4.Demo/Libraries/hefei_libraries/hf_adc.c:104
    else if(ADC_IN3_A3 == ADC_INx_xx)       gpio_init(A3, GPI, 0, IN_AIN);
     bb0:	fec42703          	lw	a4,-20(s0)
     bb4:	478d                	li	a5,3
     bb6:	00f71863          	bne	a4,a5,bc6 <adc_gpio_init+0x60>
D:/Desktop/智能车基地/CH32V103_SmartCar_V1.0/4.Demo/Libraries/hefei_libraries/hf_adc.c:104 (discriminator 1)
     bba:	4681                	li	a3,0
     bbc:	4601                	li	a2,0
     bbe:	4581                	li	a1,0
     bc0:	450d                	li	a0,3
     bc2:	2215                	jal	ce6 <gpio_init>
D:/Desktop/智能车基地/CH32V103_SmartCar_V1.0/4.Demo/Libraries/hefei_libraries/hf_adc.c:117 (discriminator 1)
}
     bc4:	aa21                	j	cdc <adc_gpio_init+0x176>
D:/Desktop/智能车基地/CH32V103_SmartCar_V1.0/4.Demo/Libraries/hefei_libraries/hf_adc.c:105
    else if(ADC_IN4_A4 == ADC_INx_xx)       gpio_init(A4, GPI, 0, IN_AIN);
     bc6:	fec42703          	lw	a4,-20(s0)
     bca:	4791                	li	a5,4
     bcc:	00f71863          	bne	a4,a5,bdc <adc_gpio_init+0x76>
D:/Desktop/智能车基地/CH32V103_SmartCar_V1.0/4.Demo/Libraries/hefei_libraries/hf_adc.c:105 (discriminator 1)
     bd0:	4681                	li	a3,0
     bd2:	4601                	li	a2,0
     bd4:	4581                	li	a1,0
     bd6:	4511                	li	a0,4
     bd8:	2239                	jal	ce6 <gpio_init>
D:/Desktop/智能车基地/CH32V103_SmartCar_V1.0/4.Demo/Libraries/hefei_libraries/hf_adc.c:117 (discriminator 1)
}
     bda:	a209                	j	cdc <adc_gpio_init+0x176>
D:/Desktop/智能车基地/CH32V103_SmartCar_V1.0/4.Demo/Libraries/hefei_libraries/hf_adc.c:106
    else if(ADC_IN5_A5 == ADC_INx_xx)       gpio_init(A5, GPI, 0, IN_AIN);
     bdc:	fec42703          	lw	a4,-20(s0)
     be0:	4795                	li	a5,5
     be2:	00f71863          	bne	a4,a5,bf2 <adc_gpio_init+0x8c>
D:/Desktop/智能车基地/CH32V103_SmartCar_V1.0/4.Demo/Libraries/hefei_libraries/hf_adc.c:106 (discriminator 1)
     be6:	4681                	li	a3,0
     be8:	4601                	li	a2,0
     bea:	4581                	li	a1,0
     bec:	4515                	li	a0,5
     bee:	28e5                	jal	ce6 <gpio_init>
D:/Desktop/智能车基地/CH32V103_SmartCar_V1.0/4.Demo/Libraries/hefei_libraries/hf_adc.c:117 (discriminator 1)
}
     bf0:	a0f5                	j	cdc <adc_gpio_init+0x176>
D:/Desktop/智能车基地/CH32V103_SmartCar_V1.0/4.Demo/Libraries/hefei_libraries/hf_adc.c:107
    else if(ADC_IN6_A6 == ADC_INx_xx)       gpio_init(A6, GPI, 0, IN_AIN);
     bf2:	fec42703          	lw	a4,-20(s0)
     bf6:	4799                	li	a5,6
     bf8:	00f71863          	bne	a4,a5,c08 <adc_gpio_init+0xa2>
D:/Desktop/智能车基地/CH32V103_SmartCar_V1.0/4.Demo/Libraries/hefei_libraries/hf_adc.c:107 (discriminator 1)
     bfc:	4681                	li	a3,0
     bfe:	4601                	li	a2,0
     c00:	4581                	li	a1,0
     c02:	4519                	li	a0,6
     c04:	20cd                	jal	ce6 <gpio_init>
D:/Desktop/智能车基地/CH32V103_SmartCar_V1.0/4.Demo/Libraries/hefei_libraries/hf_adc.c:117 (discriminator 1)
}
     c06:	a8d9                	j	cdc <adc_gpio_init+0x176>
D:/Desktop/智能车基地/CH32V103_SmartCar_V1.0/4.Demo/Libraries/hefei_libraries/hf_adc.c:108
    else if(ADC_IN7_A7 == ADC_INx_xx)       gpio_init(A7, GPI, 0, IN_AIN);
     c08:	fec42703          	lw	a4,-20(s0)
     c0c:	479d                	li	a5,7
     c0e:	00f71863          	bne	a4,a5,c1e <adc_gpio_init+0xb8>
D:/Desktop/智能车基地/CH32V103_SmartCar_V1.0/4.Demo/Libraries/hefei_libraries/hf_adc.c:108 (discriminator 1)
     c12:	4681                	li	a3,0
     c14:	4601                	li	a2,0
     c16:	4581                	li	a1,0
     c18:	451d                	li	a0,7
     c1a:	20f1                	jal	ce6 <gpio_init>
D:/Desktop/智能车基地/CH32V103_SmartCar_V1.0/4.Demo/Libraries/hefei_libraries/hf_adc.c:117 (discriminator 1)
}
     c1c:	a0c1                	j	cdc <adc_gpio_init+0x176>
D:/Desktop/智能车基地/CH32V103_SmartCar_V1.0/4.Demo/Libraries/hefei_libraries/hf_adc.c:109
    else if(ADC_IN8_B0 == ADC_INx_xx)       gpio_init(B0, GPI, 0, IN_AIN);
     c1e:	fec42703          	lw	a4,-20(s0)
     c22:	47a1                	li	a5,8
     c24:	00f71963          	bne	a4,a5,c36 <adc_gpio_init+0xd0>
D:/Desktop/智能车基地/CH32V103_SmartCar_V1.0/4.Demo/Libraries/hefei_libraries/hf_adc.c:109 (discriminator 1)
     c28:	4681                	li	a3,0
     c2a:	4601                	li	a2,0
     c2c:	4581                	li	a1,0
     c2e:	02000513          	li	a0,32
     c32:	2855                	jal	ce6 <gpio_init>
D:/Desktop/智能车基地/CH32V103_SmartCar_V1.0/4.Demo/Libraries/hefei_libraries/hf_adc.c:117 (discriminator 1)
}
     c34:	a065                	j	cdc <adc_gpio_init+0x176>
D:/Desktop/智能车基地/CH32V103_SmartCar_V1.0/4.Demo/Libraries/hefei_libraries/hf_adc.c:110
    else if(ADC_IN9_B1 == ADC_INx_xx)       gpio_init(B1, GPI, 0, IN_AIN);
     c36:	fec42703          	lw	a4,-20(s0)
     c3a:	47a5                	li	a5,9
     c3c:	00f71963          	bne	a4,a5,c4e <adc_gpio_init+0xe8>
D:/Desktop/智能车基地/CH32V103_SmartCar_V1.0/4.Demo/Libraries/hefei_libraries/hf_adc.c:110 (discriminator 1)
     c40:	4681                	li	a3,0
     c42:	4601                	li	a2,0
     c44:	4581                	li	a1,0
     c46:	02100513          	li	a0,33
     c4a:	2871                	jal	ce6 <gpio_init>
D:/Desktop/智能车基地/CH32V103_SmartCar_V1.0/4.Demo/Libraries/hefei_libraries/hf_adc.c:117 (discriminator 1)
}
     c4c:	a841                	j	cdc <adc_gpio_init+0x176>
D:/Desktop/智能车基地/CH32V103_SmartCar_V1.0/4.Demo/Libraries/hefei_libraries/hf_adc.c:111
    else if(ADC_IN10_C0 == ADC_INx_xx)      gpio_init(C0, GPI, 0, IN_AIN);
     c4e:	fec42703          	lw	a4,-20(s0)
     c52:	47a9                	li	a5,10
     c54:	00f71963          	bne	a4,a5,c66 <adc_gpio_init+0x100>
D:/Desktop/智能车基地/CH32V103_SmartCar_V1.0/4.Demo/Libraries/hefei_libraries/hf_adc.c:111 (discriminator 1)
     c58:	4681                	li	a3,0
     c5a:	4601                	li	a2,0
     c5c:	4581                	li	a1,0
     c5e:	04000513          	li	a0,64
     c62:	2051                	jal	ce6 <gpio_init>
D:/Desktop/智能车基地/CH32V103_SmartCar_V1.0/4.Demo/Libraries/hefei_libraries/hf_adc.c:117 (discriminator 1)
}
     c64:	a8a5                	j	cdc <adc_gpio_init+0x176>
D:/Desktop/智能车基地/CH32V103_SmartCar_V1.0/4.Demo/Libraries/hefei_libraries/hf_adc.c:112
    else if(ADC_IN11_C1 == ADC_INx_xx)      gpio_init(C1, GPI, 0, IN_AIN);
     c66:	fec42703          	lw	a4,-20(s0)
     c6a:	47ad                	li	a5,11
     c6c:	00f71963          	bne	a4,a5,c7e <adc_gpio_init+0x118>
D:/Desktop/智能车基地/CH32V103_SmartCar_V1.0/4.Demo/Libraries/hefei_libraries/hf_adc.c:112 (discriminator 1)
     c70:	4681                	li	a3,0
     c72:	4601                	li	a2,0
     c74:	4581                	li	a1,0
     c76:	04100513          	li	a0,65
     c7a:	20b5                	jal	ce6 <gpio_init>
D:/Desktop/智能车基地/CH32V103_SmartCar_V1.0/4.Demo/Libraries/hefei_libraries/hf_adc.c:117 (discriminator 1)
}
     c7c:	a085                	j	cdc <adc_gpio_init+0x176>
D:/Desktop/智能车基地/CH32V103_SmartCar_V1.0/4.Demo/Libraries/hefei_libraries/hf_adc.c:113
    else if(ADC_IN12_C2 == ADC_INx_xx)      gpio_init(C2, GPI, 0, IN_AIN);
     c7e:	fec42703          	lw	a4,-20(s0)
     c82:	47b1                	li	a5,12
     c84:	00f71963          	bne	a4,a5,c96 <adc_gpio_init+0x130>
D:/Desktop/智能车基地/CH32V103_SmartCar_V1.0/4.Demo/Libraries/hefei_libraries/hf_adc.c:113 (discriminator 1)
     c88:	4681                	li	a3,0
     c8a:	4601                	li	a2,0
     c8c:	4581                	li	a1,0
     c8e:	04200513          	li	a0,66
     c92:	2891                	jal	ce6 <gpio_init>
D:/Desktop/智能车基地/CH32V103_SmartCar_V1.0/4.Demo/Libraries/hefei_libraries/hf_adc.c:117 (discriminator 1)
}
     c94:	a0a1                	j	cdc <adc_gpio_init+0x176>
D:/Desktop/智能车基地/CH32V103_SmartCar_V1.0/4.Demo/Libraries/hefei_libraries/hf_adc.c:114
    else if(ADC_IN13_C3 == ADC_INx_xx)      gpio_init(C3, GPI, 0, IN_AIN);
     c96:	fec42703          	lw	a4,-20(s0)
     c9a:	47b5                	li	a5,13
     c9c:	00f71963          	bne	a4,a5,cae <adc_gpio_init+0x148>
D:/Desktop/智能车基地/CH32V103_SmartCar_V1.0/4.Demo/Libraries/hefei_libraries/hf_adc.c:114 (discriminator 1)
     ca0:	4681                	li	a3,0
     ca2:	4601                	li	a2,0
     ca4:	4581                	li	a1,0
     ca6:	04300513          	li	a0,67
     caa:	2835                	jal	ce6 <gpio_init>
D:/Desktop/智能车基地/CH32V103_SmartCar_V1.0/4.Demo/Libraries/hefei_libraries/hf_adc.c:117 (discriminator 1)
}
     cac:	a805                	j	cdc <adc_gpio_init+0x176>
D:/Desktop/智能车基地/CH32V103_SmartCar_V1.0/4.Demo/Libraries/hefei_libraries/hf_adc.c:115
    else if(ADC_IN14_C4 == ADC_INx_xx)      gpio_init(C4, GPI, 0, IN_AIN);
     cae:	fec42703          	lw	a4,-20(s0)
     cb2:	47b9                	li	a5,14
     cb4:	00f71963          	bne	a4,a5,cc6 <adc_gpio_init+0x160>
D:/Desktop/智能车基地/CH32V103_SmartCar_V1.0/4.Demo/Libraries/hefei_libraries/hf_adc.c:115 (discriminator 1)
     cb8:	4681                	li	a3,0
     cba:	4601                	li	a2,0
     cbc:	4581                	li	a1,0
     cbe:	04400513          	li	a0,68
     cc2:	2015                	jal	ce6 <gpio_init>
D:/Desktop/智能车基地/CH32V103_SmartCar_V1.0/4.Demo/Libraries/hefei_libraries/hf_adc.c:117 (discriminator 1)
}
     cc4:	a821                	j	cdc <adc_gpio_init+0x176>
D:/Desktop/智能车基地/CH32V103_SmartCar_V1.0/4.Demo/Libraries/hefei_libraries/hf_adc.c:116
    else if(ADC_IN15_C5 == ADC_INx_xx)      gpio_init(C5, GPI, 0, IN_AIN);
     cc6:	fec42703          	lw	a4,-20(s0)
     cca:	47bd                	li	a5,15
     ccc:	00f71863          	bne	a4,a5,cdc <adc_gpio_init+0x176>
D:/Desktop/智能车基地/CH32V103_SmartCar_V1.0/4.Demo/Libraries/hefei_libraries/hf_adc.c:116 (discriminator 1)
     cd0:	4681                	li	a3,0
     cd2:	4601                	li	a2,0
     cd4:	4581                	li	a1,0
     cd6:	04500513          	li	a0,69
     cda:	2031                	jal	ce6 <gpio_init>
D:/Desktop/智能车基地/CH32V103_SmartCar_V1.0/4.Demo/Libraries/hefei_libraries/hf_adc.c:117
}
     cdc:	0001                	nop
     cde:	40f2                	lw	ra,28(sp)
     ce0:	4462                	lw	s0,24(sp)
     ce2:	6105                	addi	sp,sp,32
     ce4:	8082                	ret

00000ce6 <gpio_init>:
gpio_init():
D:/Desktop/智能车基地/CH32V103_SmartCar_V1.0/4.Demo/Libraries/hefei_libraries/hf_gpio.c:25
//  @param      pinconf     引脚配置（可设置参数由wh_gpio.h文件内GPIOSPEED_enum与GPIOMODE_enum枚举值确定，多个条件使用 | 相或）
//  @return     void
//  Sample usage:           gpio_init(D0, GPO, 1, SPEED_50MHZ|OUT_PP);//D0初始化为GPIO功能、输出模式、输出高电平、速度50MHZ 推挽输出
//-------------------------------------------------------------------------------------------------------------------
void gpio_init(PIN_enum pin, GPIODIR_enum dir, uint8 dat, uint32 pinconf)
{
     ce6:	7179                	addi	sp,sp,-48
     ce8:	d606                	sw	ra,44(sp)
     cea:	d422                	sw	s0,40(sp)
     cec:	1800                	addi	s0,sp,48
     cee:	fca42e23          	sw	a0,-36(s0)
     cf2:	fcb42c23          	sw	a1,-40(s0)
     cf6:	87b2                	mv	a5,a2
     cf8:	fcd42823          	sw	a3,-48(s0)
     cfc:	fcf40ba3          	sb	a5,-41(s0)
D:/Desktop/智能车基地/CH32V103_SmartCar_V1.0/4.Demo/Libraries/hefei_libraries/hf_gpio.c:27
    GPIO_InitTypeDef GPIO_InitStructure;
    uint8 io_group = (pin & 0xE0) >> 5;
     d00:	fdc42783          	lw	a5,-36(s0)
     d04:	8395                	srli	a5,a5,0x5
     d06:	0ff7f793          	andi	a5,a5,255
     d0a:	8b9d                	andi	a5,a5,7
     d0c:	fef407a3          	sb	a5,-17(s0)
D:/Desktop/智能车基地/CH32V103_SmartCar_V1.0/4.Demo/Libraries/hefei_libraries/hf_gpio.c:28
    uint8 io_pin = pin & 0x1F;
     d10:	fdc42783          	lw	a5,-36(s0)
     d14:	0ff7f793          	andi	a5,a5,255
     d18:	8bfd                	andi	a5,a5,31
     d1a:	fef40723          	sb	a5,-18(s0)
D:/Desktop/智能车基地/CH32V103_SmartCar_V1.0/4.Demo/Libraries/hefei_libraries/hf_gpio.c:31


    if(PIN_NULL == pin) return;
     d1e:	fdc42703          	lw	a4,-36(s0)
     d22:	08000793          	li	a5,128
     d26:	14f70d63          	beq	a4,a5,e80 <gpio_init+0x19a>
D:/Desktop/智能车基地/CH32V103_SmartCar_V1.0/4.Demo/Libraries/hefei_libraries/hf_gpio.c:33
    //GPIO总线使能
    if(0 == (pin >> 5))      RCC_APB2PeriphClockCmd(RCC_APB2Periph_GPIOA, ENABLE);
     d2a:	fdc42783          	lw	a5,-36(s0)
     d2e:	8395                	srli	a5,a5,0x5
     d30:	e791                	bnez	a5,d3c <gpio_init+0x56>
D:/Desktop/智能车基地/CH32V103_SmartCar_V1.0/4.Demo/Libraries/hefei_libraries/hf_gpio.c:33 (discriminator 1)
     d32:	4585                	li	a1,1
     d34:	4511                	li	a0,4
     d36:	60e010ef          	jal	ra,2344 <RCC_APB2PeriphClockCmd>
     d3a:	a861                	j	dd2 <gpio_init+0xec>
D:/Desktop/智能车基地/CH32V103_SmartCar_V1.0/4.Demo/Libraries/hefei_libraries/hf_gpio.c:34
    else if(1 == (pin >> 5)) RCC_APB2PeriphClockCmd(RCC_APB2Periph_GPIOB, ENABLE);
     d3c:	fdc42783          	lw	a5,-36(s0)
     d40:	0057d713          	srli	a4,a5,0x5
     d44:	4785                	li	a5,1
     d46:	00f71763          	bne	a4,a5,d54 <gpio_init+0x6e>
D:/Desktop/智能车基地/CH32V103_SmartCar_V1.0/4.Demo/Libraries/hefei_libraries/hf_gpio.c:34 (discriminator 1)
     d4a:	4585                	li	a1,1
     d4c:	4521                	li	a0,8
     d4e:	5f6010ef          	jal	ra,2344 <RCC_APB2PeriphClockCmd>
     d52:	a041                	j	dd2 <gpio_init+0xec>
D:/Desktop/智能车基地/CH32V103_SmartCar_V1.0/4.Demo/Libraries/hefei_libraries/hf_gpio.c:35
    else if(2 == (pin >> 5)) RCC_APB2PeriphClockCmd(RCC_APB2Periph_GPIOC, ENABLE);
     d54:	fdc42783          	lw	a5,-36(s0)
     d58:	0057d713          	srli	a4,a5,0x5
     d5c:	4789                	li	a5,2
     d5e:	00f71763          	bne	a4,a5,d6c <gpio_init+0x86>
D:/Desktop/智能车基地/CH32V103_SmartCar_V1.0/4.Demo/Libraries/hefei_libraries/hf_gpio.c:35 (discriminator 1)
     d62:	4585                	li	a1,1
     d64:	4541                	li	a0,16
     d66:	5de010ef          	jal	ra,2344 <RCC_APB2PeriphClockCmd>
     d6a:	a0a5                	j	dd2 <gpio_init+0xec>
D:/Desktop/智能车基地/CH32V103_SmartCar_V1.0/4.Demo/Libraries/hefei_libraries/hf_gpio.c:36
    else if(3 == (pin >> 5)) RCC_APB2PeriphClockCmd(RCC_APB2Periph_GPIOD, ENABLE);
     d6c:	fdc42783          	lw	a5,-36(s0)
     d70:	0057d713          	srli	a4,a5,0x5
     d74:	478d                	li	a5,3
     d76:	00f71863          	bne	a4,a5,d86 <gpio_init+0xa0>
D:/Desktop/智能车基地/CH32V103_SmartCar_V1.0/4.Demo/Libraries/hefei_libraries/hf_gpio.c:36 (discriminator 1)
     d7a:	4585                	li	a1,1
     d7c:	02000513          	li	a0,32
     d80:	5c4010ef          	jal	ra,2344 <RCC_APB2PeriphClockCmd>
     d84:	a0b9                	j	dd2 <gpio_init+0xec>
D:/Desktop/智能车基地/CH32V103_SmartCar_V1.0/4.Demo/Libraries/hefei_libraries/hf_gpio.c:37
    else if(4 == (pin >> 5)) RCC_APB2PeriphClockCmd(RCC_APB2Periph_GPIOE, ENABLE);
     d86:	fdc42783          	lw	a5,-36(s0)
     d8a:	0057d713          	srli	a4,a5,0x5
     d8e:	4791                	li	a5,4
     d90:	00f71863          	bne	a4,a5,da0 <gpio_init+0xba>
D:/Desktop/智能车基地/CH32V103_SmartCar_V1.0/4.Demo/Libraries/hefei_libraries/hf_gpio.c:37 (discriminator 1)
     d94:	4585                	li	a1,1
     d96:	04000513          	li	a0,64
     d9a:	5aa010ef          	jal	ra,2344 <RCC_APB2PeriphClockCmd>
     d9e:	a815                	j	dd2 <gpio_init+0xec>
D:/Desktop/智能车基地/CH32V103_SmartCar_V1.0/4.Demo/Libraries/hefei_libraries/hf_gpio.c:38
    else if(5 == (pin >> 5)) RCC_APB2PeriphClockCmd(RCC_APB2Periph_GPIOF, ENABLE);
     da0:	fdc42783          	lw	a5,-36(s0)
     da4:	0057d713          	srli	a4,a5,0x5
     da8:	4795                	li	a5,5
     daa:	00f71863          	bne	a4,a5,dba <gpio_init+0xd4>
D:/Desktop/智能车基地/CH32V103_SmartCar_V1.0/4.Demo/Libraries/hefei_libraries/hf_gpio.c:38 (discriminator 1)
     dae:	4585                	li	a1,1
     db0:	08000513          	li	a0,128
     db4:	590010ef          	jal	ra,2344 <RCC_APB2PeriphClockCmd>
     db8:	a829                	j	dd2 <gpio_init+0xec>
D:/Desktop/智能车基地/CH32V103_SmartCar_V1.0/4.Demo/Libraries/hefei_libraries/hf_gpio.c:39
    else if(6 == (pin >> 5)) RCC_APB2PeriphClockCmd(RCC_APB2Periph_GPIOG, ENABLE);
     dba:	fdc42783          	lw	a5,-36(s0)
     dbe:	0057d713          	srli	a4,a5,0x5
     dc2:	4799                	li	a5,6
     dc4:	00f71763          	bne	a4,a5,dd2 <gpio_init+0xec>
D:/Desktop/智能车基地/CH32V103_SmartCar_V1.0/4.Demo/Libraries/hefei_libraries/hf_gpio.c:39 (discriminator 1)
     dc8:	4585                	li	a1,1
     dca:	10000513          	li	a0,256
     dce:	576010ef          	jal	ra,2344 <RCC_APB2PeriphClockCmd>
D:/Desktop/智能车基地/CH32V103_SmartCar_V1.0/4.Demo/Libraries/hefei_libraries/hf_gpio.c:43


    //设置引脚号
    GPIO_InitStructure.GPIO_Pin = (uint16)(1 << io_pin);
     dd2:	fee44783          	lbu	a5,-18(s0)
     dd6:	4705                	li	a4,1
     dd8:	00f717b3          	sll	a5,a4,a5
     ddc:	07c2                	slli	a5,a5,0x10
     dde:	83c1                	srli	a5,a5,0x10
     de0:	fef41023          	sh	a5,-32(s0)
D:/Desktop/智能车基地/CH32V103_SmartCar_V1.0/4.Demo/Libraries/hefei_libraries/hf_gpio.c:45

    if(GPO == dir)
     de4:	fd842703          	lw	a4,-40(s0)
     de8:	4785                	li	a5,1
     dea:	02f71763          	bne	a4,a5,e18 <gpio_init+0x132>
D:/Desktop/智能车基地/CH32V103_SmartCar_V1.0/4.Demo/Libraries/hefei_libraries/hf_gpio.c:48
    {
        //只有输出需要设置速度
        if((uint16)pinconf >> 8 == 0) GPIO_InitStructure.GPIO_Speed = (GPIOSpeed_TypeDef)(GPIO_Speed_50MHz);  //防止没有填写这个参数,默认设置50Mhz
     dee:	fd042783          	lw	a5,-48(s0)
     df2:	07c2                	slli	a5,a5,0x10
     df4:	83c1                	srli	a5,a5,0x10
     df6:	83a1                	srli	a5,a5,0x8
     df8:	07c2                	slli	a5,a5,0x10
     dfa:	83c1                	srli	a5,a5,0x10
     dfc:	e789                	bnez	a5,e06 <gpio_init+0x120>
D:/Desktop/智能车基地/CH32V103_SmartCar_V1.0/4.Demo/Libraries/hefei_libraries/hf_gpio.c:48 (discriminator 1)
     dfe:	478d                	li	a5,3
     e00:	fef42223          	sw	a5,-28(s0)
     e04:	a811                	j	e18 <gpio_init+0x132>
D:/Desktop/智能车基地/CH32V103_SmartCar_V1.0/4.Demo/Libraries/hefei_libraries/hf_gpio.c:49
        else GPIO_InitStructure.GPIO_Speed = (GPIOSpeed_TypeDef)((uint16)pinconf >> 8);                       //已经填写了该参数。根据值来设置
     e06:	fd042783          	lw	a5,-48(s0)
     e0a:	07c2                	slli	a5,a5,0x10
     e0c:	83c1                	srli	a5,a5,0x10
     e0e:	83a1                	srli	a5,a5,0x8
     e10:	07c2                	slli	a5,a5,0x10
     e12:	83c1                	srli	a5,a5,0x10
     e14:	fef42223          	sw	a5,-28(s0)
D:/Desktop/智能车基地/CH32V103_SmartCar_V1.0/4.Demo/Libraries/hefei_libraries/hf_gpio.c:53
    }

    //设置模式
    GPIO_InitStructure.GPIO_Mode = (GPIOMode_TypeDef)((uint16)pinconf & 0xff);
     e18:	fd042783          	lw	a5,-48(s0)
     e1c:	07c2                	slli	a5,a5,0x10
     e1e:	83c1                	srli	a5,a5,0x10
     e20:	0ff7f793          	andi	a5,a5,255
     e24:	fef42423          	sw	a5,-24(s0)
D:/Desktop/智能车基地/CH32V103_SmartCar_V1.0/4.Demo/Libraries/hefei_libraries/hf_gpio.c:54
    GPIO_Init((GPIO_TypeDef *)(GPION[io_group]), &GPIO_InitStructure);
     e28:	fef44703          	lbu	a4,-17(s0)
     e2c:	678d                	lui	a5,0x3
     e2e:	070a                	slli	a4,a4,0x2
     e30:	2b878793          	addi	a5,a5,696 # 32b8 <GPION>
     e34:	97ba                	add	a5,a5,a4
     e36:	439c                	lw	a5,0(a5)
     e38:	873e                	mv	a4,a5
     e3a:	fe040793          	addi	a5,s0,-32
     e3e:	85be                	mv	a1,a5
     e40:	853a                	mv	a0,a4
     e42:	040010ef          	jal	ra,1e82 <GPIO_Init>
D:/Desktop/智能车基地/CH32V103_SmartCar_V1.0/4.Demo/Libraries/hefei_libraries/hf_gpio.c:56

    if(GPO == dir)
     e46:	fd842703          	lw	a4,-40(s0)
     e4a:	4785                	li	a5,1
     e4c:	02f71b63          	bne	a4,a5,e82 <gpio_init+0x19c>
D:/Desktop/智能车基地/CH32V103_SmartCar_V1.0/4.Demo/Libraries/hefei_libraries/hf_gpio.c:59
    {
        //只有输出需要设置引脚状态
        GPIO_WriteBit((GPIO_TypeDef *)(GPION[io_group]), (uint16)(1 << io_pin), dat);
     e50:	fef44703          	lbu	a4,-17(s0)
     e54:	678d                	lui	a5,0x3
     e56:	070a                	slli	a4,a4,0x2
     e58:	2b878793          	addi	a5,a5,696 # 32b8 <GPION>
     e5c:	97ba                	add	a5,a5,a4
     e5e:	439c                	lw	a5,0(a5)
     e60:	86be                	mv	a3,a5
     e62:	fee44783          	lbu	a5,-18(s0)
     e66:	4705                	li	a4,1
     e68:	00f717b3          	sll	a5,a4,a5
     e6c:	07c2                	slli	a5,a5,0x10
     e6e:	83c1                	srli	a5,a5,0x10
     e70:	fd744703          	lbu	a4,-41(s0)
     e74:	863a                	mv	a2,a4
     e76:	85be                	mv	a1,a5
     e78:	8536                	mv	a0,a3
     e7a:	232010ef          	jal	ra,20ac <GPIO_WriteBit>
     e7e:	a011                	j	e82 <gpio_init+0x19c>
D:/Desktop/智能车基地/CH32V103_SmartCar_V1.0/4.Demo/Libraries/hefei_libraries/hf_gpio.c:31
    if(PIN_NULL == pin) return;
     e80:	0001                	nop
D:/Desktop/智能车基地/CH32V103_SmartCar_V1.0/4.Demo/Libraries/hefei_libraries/hf_gpio.c:61
    }
}
     e82:	50b2                	lw	ra,44(sp)
     e84:	5422                	lw	s0,40(sp)
     e86:	6145                	addi	sp,sp,48
     e88:	8082                	ret

00000e8a <gpio_bit_output>:
gpio_bit_output():
D:/Desktop/智能车基地/CH32V103_SmartCar_V1.0/4.Demo/Libraries/hefei_libraries/hf_gpio.c:71
//  @param      dat         引脚的电平状态，输出时有效 0：低电平 1：高电平
//  @return     void
//  Sample usage:           gpio_set(D0, 0);//D0输出低电平
//-------------------------------------------------------------------------------------------------------------------
void gpio_bit_output(PIN_enum pin, uint8 dat)
{
     e8a:	7179                	addi	sp,sp,-48
     e8c:	d622                	sw	s0,44(sp)
     e8e:	1800                	addi	s0,sp,48
     e90:	fca42e23          	sw	a0,-36(s0)
     e94:	87ae                	mv	a5,a1
     e96:	fcf40da3          	sb	a5,-37(s0)
D:/Desktop/智能车基地/CH32V103_SmartCar_V1.0/4.Demo/Libraries/hefei_libraries/hf_gpio.c:72
    uint8 io_group = (pin & 0xE0) >> 5;
     e9a:	fdc42783          	lw	a5,-36(s0)
     e9e:	8395                	srli	a5,a5,0x5
     ea0:	0ff7f793          	andi	a5,a5,255
     ea4:	8b9d                	andi	a5,a5,7
     ea6:	fef407a3          	sb	a5,-17(s0)
D:/Desktop/智能车基地/CH32V103_SmartCar_V1.0/4.Demo/Libraries/hefei_libraries/hf_gpio.c:73
    uint8 io_pin = pin & 0x1F;
     eaa:	fdc42783          	lw	a5,-36(s0)
     eae:	0ff7f793          	andi	a5,a5,255
     eb2:	8bfd                	andi	a5,a5,31
     eb4:	fef40723          	sb	a5,-18(s0)
D:/Desktop/智能车基地/CH32V103_SmartCar_V1.0/4.Demo/Libraries/hefei_libraries/hf_gpio.c:75

    if (dat == 1)
     eb8:	fdb44703          	lbu	a4,-37(s0)
     ebc:	4785                	li	a5,1
     ebe:	02f71263          	bne	a4,a5,ee2 <gpio_bit_output+0x58>
D:/Desktop/智能车基地/CH32V103_SmartCar_V1.0/4.Demo/Libraries/hefei_libraries/hf_gpio.c:76
         ((GPIO_TypeDef *)(GPION[io_group]))->BSHR = 1 << io_pin;
     ec2:	fee44783          	lbu	a5,-18(s0)
     ec6:	4705                	li	a4,1
     ec8:	00f716b3          	sll	a3,a4,a5
     ecc:	fef44703          	lbu	a4,-17(s0)
     ed0:	678d                	lui	a5,0x3
     ed2:	070a                	slli	a4,a4,0x2
     ed4:	2b878793          	addi	a5,a5,696 # 32b8 <GPION>
     ed8:	97ba                	add	a5,a5,a4
     eda:	439c                	lw	a5,0(a5)
     edc:	8736                	mv	a4,a3
     ede:	cb98                	sw	a4,16(a5)
D:/Desktop/智能车基地/CH32V103_SmartCar_V1.0/4.Demo/Libraries/hefei_libraries/hf_gpio.c:79
    else
         ((GPIO_TypeDef *)(GPION[io_group]))->BCR = 1 << io_pin;
}
     ee0:	a005                	j	f00 <gpio_bit_output+0x76>
D:/Desktop/智能车基地/CH32V103_SmartCar_V1.0/4.Demo/Libraries/hefei_libraries/hf_gpio.c:78
         ((GPIO_TypeDef *)(GPION[io_group]))->BCR = 1 << io_pin;
     ee2:	fee44783          	lbu	a5,-18(s0)
     ee6:	4705                	li	a4,1
     ee8:	00f716b3          	sll	a3,a4,a5
     eec:	fef44703          	lbu	a4,-17(s0)
     ef0:	678d                	lui	a5,0x3
     ef2:	070a                	slli	a4,a4,0x2
     ef4:	2b878793          	addi	a5,a5,696 # 32b8 <GPION>
     ef8:	97ba                	add	a5,a5,a4
     efa:	439c                	lw	a5,0(a5)
     efc:	8736                	mv	a4,a3
     efe:	cbd8                	sw	a4,20(a5)
D:/Desktop/智能车基地/CH32V103_SmartCar_V1.0/4.Demo/Libraries/hefei_libraries/hf_gpio.c:79
}
     f00:	0001                	nop
     f02:	5432                	lw	s0,44(sp)
     f04:	6145                	addi	sp,sp,48
     f06:	8082                	ret

00000f08 <DisableGlobalIRQ>:
DisableGlobalIRQ():
D:/Desktop/智能车基地/CH32V103_SmartCar_V1.0/4.Demo/Libraries/hefei_libraries/hf_nvic.c:48
//  @return     void
//  @since      v1.0
//  Sample usage:       DisableGlobalIRQ();
//-------------------------------------------------------------------------------------------------------------------
uint8 DisableGlobalIRQ(void)
{
     f08:	1101                	addi	sp,sp,-32
     f0a:	ce06                	sw	ra,28(sp)
     f0c:	cc22                	sw	s0,24(sp)
     f0e:	1000                	addi	s0,sp,32
D:/Desktop/智能车基地/CH32V103_SmartCar_V1.0/4.Demo/Libraries/hefei_libraries/hf_nvic.c:50
    uint8 state;
    irq_status.flag = 1;
     f10:	200007b7          	lui	a5,0x20000
     f14:	02078793          	addi	a5,a5,32 # 20000020 <irq_status>
     f18:	4705                	li	a4,1
     f1a:	00e78423          	sb	a4,8(a5)
D:/Desktop/智能车基地/CH32V103_SmartCar_V1.0/4.Demo/Libraries/hefei_libraries/hf_nvic.c:51
    if((irq_status.ienr0 == 0) && (irq_status.ienr1 == 0))   state = 0;  //没有就返回0
     f1e:	200007b7          	lui	a5,0x20000
     f22:	0207a783          	lw	a5,32(a5) # 20000020 <irq_status>
     f26:	eb91                	bnez	a5,f3a <DisableGlobalIRQ+0x32>
D:/Desktop/智能车基地/CH32V103_SmartCar_V1.0/4.Demo/Libraries/hefei_libraries/hf_nvic.c:51 (discriminator 1)
     f28:	200007b7          	lui	a5,0x20000
     f2c:	02078793          	addi	a5,a5,32 # 20000020 <irq_status>
     f30:	43dc                	lw	a5,4(a5)
     f32:	e781                	bnez	a5,f3a <DisableGlobalIRQ+0x32>
D:/Desktop/智能车基地/CH32V103_SmartCar_V1.0/4.Demo/Libraries/hefei_libraries/hf_nvic.c:51 (discriminator 2)
     f34:	fe0407a3          	sb	zero,-17(s0)
     f38:	a021                	j	f40 <DisableGlobalIRQ+0x38>
D:/Desktop/智能车基地/CH32V103_SmartCar_V1.0/4.Demo/Libraries/hefei_libraries/hf_nvic.c:52
    else state = 1;  //有中断就返回1
     f3a:	4785                	li	a5,1
     f3c:	fef407a3          	sb	a5,-17(s0)
D:/Desktop/智能车基地/CH32V103_SmartCar_V1.0/4.Demo/Libraries/hefei_libraries/hf_nvic.c:53
    close_all_irq();
     f40:	2835                	jal	f7c <close_all_irq>
D:/Desktop/智能车基地/CH32V103_SmartCar_V1.0/4.Demo/Libraries/hefei_libraries/hf_nvic.c:54
    return state;
     f42:	fef44783          	lbu	a5,-17(s0)
D:/Desktop/智能车基地/CH32V103_SmartCar_V1.0/4.Demo/Libraries/hefei_libraries/hf_nvic.c:55
}
     f46:	853e                	mv	a0,a5
     f48:	40f2                	lw	ra,28(sp)
     f4a:	4462                	lw	s0,24(sp)
     f4c:	6105                	addi	sp,sp,32
     f4e:	8082                	ret

00000f50 <EnableGlobalIRQ>:
EnableGlobalIRQ():
D:/Desktop/智能车基地/CH32V103_SmartCar_V1.0/4.Demo/Libraries/hefei_libraries/hf_nvic.c:65
//  @return     void
//  @since      v1.0
//  Sample usage:       EnableGlobalIRQ();
//-------------------------------------------------------------------------------------------------------------------
void EnableGlobalIRQ(uint8 state)
{
     f50:	1101                	addi	sp,sp,-32
     f52:	ce06                	sw	ra,28(sp)
     f54:	cc22                	sw	s0,24(sp)
     f56:	1000                	addi	s0,sp,32
     f58:	87aa                	mv	a5,a0
     f5a:	fef407a3          	sb	a5,-17(s0)
D:/Desktop/智能车基地/CH32V103_SmartCar_V1.0/4.Demo/Libraries/hefei_libraries/hf_nvic.c:66
    if(state == 0)
     f5e:	fef44783          	lbu	a5,-17(s0)
     f62:	eb81                	bnez	a5,f72 <EnableGlobalIRQ+0x22>
D:/Desktop/智能车基地/CH32V103_SmartCar_V1.0/4.Demo/Libraries/hefei_libraries/hf_nvic.c:68
    {
        irq_status.flag = 0;
     f64:	200007b7          	lui	a5,0x20000
     f68:	02078793          	addi	a5,a5,32 # 20000020 <irq_status>
     f6c:	00078423          	sb	zero,8(a5)
D:/Desktop/智能车基地/CH32V103_SmartCar_V1.0/4.Demo/Libraries/hefei_libraries/hf_nvic.c:69
        sys_recover_irq();
     f70:	203d                	jal	f9e <sys_recover_irq>
D:/Desktop/智能车基地/CH32V103_SmartCar_V1.0/4.Demo/Libraries/hefei_libraries/hf_nvic.c:71
    }
}
     f72:	0001                	nop
     f74:	40f2                	lw	ra,28(sp)
     f76:	4462                	lw	s0,24(sp)
     f78:	6105                	addi	sp,sp,32
     f7a:	8082                	ret

00000f7c <close_all_irq>:
close_all_irq():
D:/Desktop/智能车基地/CH32V103_SmartCar_V1.0/4.Demo/Libraries/hefei_libraries/hf_nvic.c:80
//  @return     void
//  @since      v1.0
//  Sample usage:       内部使用  用户无需关心
//-------------------------------------------------------------------------------------------------------------------
void close_all_irq(void)
{
     f7c:	1141                	addi	sp,sp,-16
     f7e:	c622                	sw	s0,12(sp)
     f80:	0800                	addi	s0,sp,16
D:/Desktop/智能车基地/CH32V103_SmartCar_V1.0/4.Demo/Libraries/hefei_libraries/hf_nvic.c:82
    /* 写1，清空状态 */
    PFIC->IRER[0] = 0xffffffff;
     f82:	e000e7b7          	lui	a5,0xe000e
     f86:	577d                	li	a4,-1
     f88:	18e7a023          	sw	a4,384(a5) # e000e180 <_eusrstack+0xc0009180>
D:/Desktop/智能车基地/CH32V103_SmartCar_V1.0/4.Demo/Libraries/hefei_libraries/hf_nvic.c:83
    PFIC->IRER[1] = 0xffffffff;
     f8c:	e000e7b7          	lui	a5,0xe000e
     f90:	577d                	li	a4,-1
     f92:	18e7a223          	sw	a4,388(a5) # e000e184 <_eusrstack+0xc0009184>
D:/Desktop/智能车基地/CH32V103_SmartCar_V1.0/4.Demo/Libraries/hefei_libraries/hf_nvic.c:84
}
     f96:	0001                	nop
     f98:	4432                	lw	s0,12(sp)
     f9a:	0141                	addi	sp,sp,16
     f9c:	8082                	ret

00000f9e <sys_recover_irq>:
sys_recover_irq():
D:/Desktop/智能车基地/CH32V103_SmartCar_V1.0/4.Demo/Libraries/hefei_libraries/hf_nvic.c:94
//  @return     void
//  @since      v1.0
//  Sample usage:       内部使用  用户无需关心
//-------------------------------------------------------------------------------------------------------------------
void sys_recover_irq(void)
{
     f9e:	1141                	addi	sp,sp,-16
     fa0:	c622                	sw	s0,12(sp)
     fa2:	0800                	addi	s0,sp,16
D:/Desktop/智能车基地/CH32V103_SmartCar_V1.0/4.Demo/Libraries/hefei_libraries/hf_nvic.c:95
    PFIC->IENR[0] = irq_status.ienr0;
     fa4:	e000e7b7          	lui	a5,0xe000e
     fa8:	20000737          	lui	a4,0x20000
     fac:	02072703          	lw	a4,32(a4) # 20000020 <irq_status>
     fb0:	10e7a023          	sw	a4,256(a5) # e000e100 <_eusrstack+0xc0009100>
D:/Desktop/智能车基地/CH32V103_SmartCar_V1.0/4.Demo/Libraries/hefei_libraries/hf_nvic.c:96
    PFIC->IENR[1] = irq_status.ienr1;
     fb4:	e000e7b7          	lui	a5,0xe000e
     fb8:	20000737          	lui	a4,0x20000
     fbc:	02070713          	addi	a4,a4,32 # 20000020 <irq_status>
     fc0:	4358                	lw	a4,4(a4)
     fc2:	10e7a223          	sw	a4,260(a5) # e000e104 <_eusrstack+0xc0009104>
D:/Desktop/智能车基地/CH32V103_SmartCar_V1.0/4.Demo/Libraries/hefei_libraries/hf_nvic.c:97
}
     fc6:	0001                	nop
     fc8:	4432                	lw	s0,12(sp)
     fca:	0141                	addi	sp,sp,16
     fcc:	8082                	ret

00000fce <pwm_init>:
pwm_init():
D:/Desktop/智能车基地/CH32V103_SmartCar_V1.0/4.Demo/Libraries/hefei_libraries/hf_pwm.c:25
//  @return     void
//  Sample usage:               pwm_init(PWM1_CH1_A8, 50, 5000);   //初始化PWM1 通道1 使用引脚A8  输出PWM频率50HZ   占空比为百分之 5000/PWM_DUTY_MAX*100
//                              PWM_DUTY_MAX在wh_pwm.h文件中 默认为10000
//-------------------------------------------------------------------------------------------------------------------
void pwm_init(PWMCH_enum pwmch, uint32 freq, uint32 duty, uint16_t TIM_OCPreload_Enable_Disable)
{
     fce:	7139                	addi	sp,sp,-64
     fd0:	de06                	sw	ra,60(sp)
     fd2:	dc22                	sw	s0,56(sp)
     fd4:	0080                	addi	s0,sp,64
     fd6:	fca42623          	sw	a0,-52(s0)
     fda:	fcb42423          	sw	a1,-56(s0)
     fde:	fcc42223          	sw	a2,-60(s0)
     fe2:	87b6                	mv	a5,a3
     fe4:	fcf41123          	sh	a5,-62(s0)
D:/Desktop/智能车基地/CH32V103_SmartCar_V1.0/4.Demo/Libraries/hefei_libraries/hf_pwm.c:30
    TIM_OCInitTypeDef  TIM_OCInitStructure;

    uint16 match_temp;                                          //占空比值
    uint16 period_temp;                                         //周期值
    uint16 freq_div = 0;                                        //分频值
     fe8:	fe041723          	sh	zero,-18(s0)
D:/Desktop/智能车基地/CH32V103_SmartCar_V1.0/4.Demo/Libraries/hefei_libraries/hf_pwm.c:32

    pwm_gpio_init(pwmch);                                       //PWM引脚初始化
     fec:	fcc42503          	lw	a0,-52(s0)
     ff0:	2131                	jal	13fc <pwm_gpio_init>
D:/Desktop/智能车基地/CH32V103_SmartCar_V1.0/4.Demo/Libraries/hefei_libraries/hf_pwm.c:35

    /* 获取系统主频 */
    sys_clk = (uint32)72000000;
     ff2:	200007b7          	lui	a5,0x20000
     ff6:	044aa737          	lui	a4,0x44aa
     ffa:	20070713          	addi	a4,a4,512 # 44aa200 <_data_lma+0x44a6f18>
     ffe:	00e7ac23          	sw	a4,24(a5) # 20000018 <_edata>
D:/Desktop/智能车基地/CH32V103_SmartCar_V1.0/4.Demo/Libraries/hefei_libraries/hf_pwm.c:36
    freq_div = (uint16)((sys_clk / freq) >> 16);                            //多少分频
    1002:	200007b7          	lui	a5,0x20000
    1006:	0187a703          	lw	a4,24(a5) # 20000018 <_edata>
    100a:	fc842783          	lw	a5,-56(s0)
    100e:	02f757b3          	divu	a5,a4,a5
    1012:	83c1                	srli	a5,a5,0x10
    1014:	fef41723          	sh	a5,-18(s0)
D:/Desktop/智能车基地/CH32V103_SmartCar_V1.0/4.Demo/Libraries/hefei_libraries/hf_pwm.c:37
    period_temp = (uint16)(sys_clk/(freq*(freq_div + 1)));                  //周期
    1018:	200007b7          	lui	a5,0x20000
    101c:	0187a703          	lw	a4,24(a5) # 20000018 <_edata>
    1020:	fee45783          	lhu	a5,-18(s0)
    1024:	0785                	addi	a5,a5,1
    1026:	86be                	mv	a3,a5
    1028:	fc842783          	lw	a5,-56(s0)
    102c:	02f687b3          	mul	a5,a3,a5
    1030:	02f757b3          	divu	a5,a4,a5
    1034:	fef41623          	sh	a5,-20(s0)
D:/Desktop/智能车基地/CH32V103_SmartCar_V1.0/4.Demo/Libraries/hefei_libraries/hf_pwm.c:38
    match_temp = period_temp * duty / PWM_DUTY_MAX;                         //占空比
    1038:	fec45703          	lhu	a4,-20(s0)
    103c:	fc442783          	lw	a5,-60(s0)
    1040:	02f70733          	mul	a4,a4,a5
    1044:	6789                	lui	a5,0x2
    1046:	71078793          	addi	a5,a5,1808 # 2710 <TIM_OC2Init+0x90>
    104a:	02f757b3          	divu	a5,a4,a5
    104e:	fef41523          	sh	a5,-22(s0)
D:/Desktop/智能车基地/CH32V103_SmartCar_V1.0/4.Demo/Libraries/hefei_libraries/hf_pwm.c:41

    /* 时基初始化 */
    timbase_init((pwmch >> 8), period_temp - 1, freq_div);
    1052:	fcc42783          	lw	a5,-52(s0)
    1056:	0087d713          	srli	a4,a5,0x8
    105a:	fec45783          	lhu	a5,-20(s0)
    105e:	17fd                	addi	a5,a5,-1
    1060:	07c2                	slli	a5,a5,0x10
    1062:	83c1                	srli	a5,a5,0x10
    1064:	fee45683          	lhu	a3,-18(s0)
    1068:	8636                	mv	a2,a3
    106a:	85be                	mv	a1,a5
    106c:	853a                	mv	a0,a4
    106e:	2dcd                	jal	1760 <timbase_init>
D:/Desktop/智能车基地/CH32V103_SmartCar_V1.0/4.Demo/Libraries/hefei_libraries/hf_pwm.c:43

    RCC_APB2PeriphClockCmd(RCC_APB2Periph_AFIO, ENABLE);        //使能AFIO复用功能模块时钟
    1070:	4585                	li	a1,1
    1072:	4505                	li	a0,1
    1074:	2d0010ef          	jal	ra,2344 <RCC_APB2PeriphClockCmd>
D:/Desktop/智能车基地/CH32V103_SmartCar_V1.0/4.Demo/Libraries/hefei_libraries/hf_pwm.c:56
//        GPIO_PinRemapConfig(GPIO_FullRemap_TIM3, ENABLE);
//    else if((pwmch >> 4) == 0x22)   //PWM3的部分重映射
//        GPIO_PinRemapConfig(GPIO_PartialRemap_TIM3, ENABLE);

    //初始化TIM PWM模式
    TIM_OCInitStructure.TIM_OCMode = TIM_OCMode_PWM1;                       //选择定时器模式:TIM脉冲宽度调制模式2
    1078:	06000793          	li	a5,96
    107c:	fcf41c23          	sh	a5,-40(s0)
D:/Desktop/智能车基地/CH32V103_SmartCar_V1.0/4.Demo/Libraries/hefei_libraries/hf_pwm.c:57
    TIM_OCInitStructure.TIM_OutputState = TIM_OutputState_Enable;           //比较输出使能
    1080:	4785                	li	a5,1
    1082:	fcf41d23          	sh	a5,-38(s0)
D:/Desktop/智能车基地/CH32V103_SmartCar_V1.0/4.Demo/Libraries/hefei_libraries/hf_pwm.c:58
    TIM_OCInitStructure.TIM_Pulse = match_temp;
    1086:	fea45783          	lhu	a5,-22(s0)
    108a:	fcf41f23          	sh	a5,-34(s0)
D:/Desktop/智能车基地/CH32V103_SmartCar_V1.0/4.Demo/Libraries/hefei_libraries/hf_pwm.c:59
    TIM_OCInitStructure.TIM_OCPolarity = TIM_OCPolarity_High;               //输出极性:TIM输出比较极性高
    108e:	fe041023          	sh	zero,-32(s0)
D:/Desktop/智能车基地/CH32V103_SmartCar_V1.0/4.Demo/Libraries/hefei_libraries/hf_pwm.c:60
    TIM_OCInitStructure.TIM_OCIdleState = TIM_OCIdleState_Reset;
    1092:	fe041223          	sh	zero,-28(s0)
D:/Desktop/智能车基地/CH32V103_SmartCar_V1.0/4.Demo/Libraries/hefei_libraries/hf_pwm.c:62

    if((pwmch & 0x03) == 0x00)                                              //通道选择
    1096:	fcc42783          	lw	a5,-52(s0)
    109a:	8b8d                	andi	a5,a5,3
    109c:	e3b5                	bnez	a5,1100 <pwm_init+0x132>
D:/Desktop/智能车基地/CH32V103_SmartCar_V1.0/4.Demo/Libraries/hefei_libraries/hf_pwm.c:64
    {
        TIM_OC1Init(((TIM_TypeDef *) TIMERN[pwmch>>8]), &TIM_OCInitStructure );                         //定时器通道1初始化
    109e:	fcc42783          	lw	a5,-52(s0)
    10a2:	0087d713          	srli	a4,a5,0x8
    10a6:	678d                	lui	a5,0x3
    10a8:	070a                	slli	a4,a4,0x2
    10aa:	2c878793          	addi	a5,a5,712 # 32c8 <TIMERN>
    10ae:	97ba                	add	a5,a5,a4
    10b0:	439c                	lw	a5,0(a5)
    10b2:	873e                	mv	a4,a5
    10b4:	fd840793          	addi	a5,s0,-40
    10b8:	85be                	mv	a1,a5
    10ba:	853a                	mv	a0,a4
    10bc:	454010ef          	jal	ra,2510 <TIM_OC1Init>
D:/Desktop/智能车基地/CH32V103_SmartCar_V1.0/4.Demo/Libraries/hefei_libraries/hf_pwm.c:65
        TIM_CtrlPWMOutputs(((TIM_TypeDef *) TIMERN[pwmch>>8]), ENABLE );
    10c0:	fcc42783          	lw	a5,-52(s0)
    10c4:	0087d713          	srli	a4,a5,0x8
    10c8:	678d                	lui	a5,0x3
    10ca:	070a                	slli	a4,a4,0x2
    10cc:	2c878793          	addi	a5,a5,712 # 32c8 <TIMERN>
    10d0:	97ba                	add	a5,a5,a4
    10d2:	439c                	lw	a5,0(a5)
    10d4:	4585                	li	a1,1
    10d6:	853e                	mv	a0,a5
    10d8:	2b1010ef          	jal	ra,2b88 <TIM_CtrlPWMOutputs>
D:/Desktop/智能车基地/CH32V103_SmartCar_V1.0/4.Demo/Libraries/hefei_libraries/hf_pwm.c:66
        TIM_OC1PreloadConfig(((TIM_TypeDef *) TIMERN[pwmch>>8]), TIM_OCPreload_Enable_Disable);         //定时器预装载配置
    10dc:	fcc42783          	lw	a5,-52(s0)
    10e0:	0087d713          	srli	a4,a5,0x8
    10e4:	678d                	lui	a5,0x3
    10e6:	070a                	slli	a4,a4,0x2
    10e8:	2c878793          	addi	a5,a5,712 # 32c8 <TIMERN>
    10ec:	97ba                	add	a5,a5,a4
    10ee:	439c                	lw	a5,0(a5)
    10f0:	873e                	mv	a4,a5
    10f2:	fc245783          	lhu	a5,-62(s0)
    10f6:	85be                	mv	a1,a5
    10f8:	853a                	mv	a0,a4
    10fa:	2ef010ef          	jal	ra,2be8 <TIM_OC1PreloadConfig>
    10fe:	aa81                	j	124e <pwm_init+0x280>
D:/Desktop/智能车基地/CH32V103_SmartCar_V1.0/4.Demo/Libraries/hefei_libraries/hf_pwm.c:68
    }
    else if((pwmch & 0x03) == 0x01)
    1100:	fcc42783          	lw	a5,-52(s0)
    1104:	0037f713          	andi	a4,a5,3
    1108:	4785                	li	a5,1
    110a:	06f71363          	bne	a4,a5,1170 <pwm_init+0x1a2>
D:/Desktop/智能车基地/CH32V103_SmartCar_V1.0/4.Demo/Libraries/hefei_libraries/hf_pwm.c:70
    {
        TIM_OC2Init(((TIM_TypeDef *) TIMERN[pwmch>>8]), &TIM_OCInitStructure );
    110e:	fcc42783          	lw	a5,-52(s0)
    1112:	0087d713          	srli	a4,a5,0x8
    1116:	678d                	lui	a5,0x3
    1118:	070a                	slli	a4,a4,0x2
    111a:	2c878793          	addi	a5,a5,712 # 32c8 <TIMERN>
    111e:	97ba                	add	a5,a5,a4
    1120:	439c                	lw	a5,0(a5)
    1122:	873e                	mv	a4,a5
    1124:	fd840793          	addi	a5,s0,-40
    1128:	85be                	mv	a1,a5
    112a:	853a                	mv	a0,a4
    112c:	554010ef          	jal	ra,2680 <TIM_OC2Init>
D:/Desktop/智能车基地/CH32V103_SmartCar_V1.0/4.Demo/Libraries/hefei_libraries/hf_pwm.c:71
        TIM_CtrlPWMOutputs(((TIM_TypeDef *) TIMERN[pwmch>>8]), ENABLE );
    1130:	fcc42783          	lw	a5,-52(s0)
    1134:	0087d713          	srli	a4,a5,0x8
    1138:	678d                	lui	a5,0x3
    113a:	070a                	slli	a4,a4,0x2
    113c:	2c878793          	addi	a5,a5,712 # 32c8 <TIMERN>
    1140:	97ba                	add	a5,a5,a4
    1142:	439c                	lw	a5,0(a5)
    1144:	4585                	li	a1,1
    1146:	853e                	mv	a0,a5
    1148:	241010ef          	jal	ra,2b88 <TIM_CtrlPWMOutputs>
D:/Desktop/智能车基地/CH32V103_SmartCar_V1.0/4.Demo/Libraries/hefei_libraries/hf_pwm.c:72
        TIM_OC2PreloadConfig(((TIM_TypeDef *) TIMERN[pwmch>>8]), TIM_OCPreload_Enable_Disable);
    114c:	fcc42783          	lw	a5,-52(s0)
    1150:	0087d713          	srli	a4,a5,0x8
    1154:	678d                	lui	a5,0x3
    1156:	070a                	slli	a4,a4,0x2
    1158:	2c878793          	addi	a5,a5,712 # 32c8 <TIMERN>
    115c:	97ba                	add	a5,a5,a4
    115e:	439c                	lw	a5,0(a5)
    1160:	873e                	mv	a4,a5
    1162:	fc245783          	lhu	a5,-62(s0)
    1166:	85be                	mv	a1,a5
    1168:	853a                	mv	a0,a4
    116a:	2cb010ef          	jal	ra,2c34 <TIM_OC2PreloadConfig>
    116e:	a0c5                	j	124e <pwm_init+0x280>
D:/Desktop/智能车基地/CH32V103_SmartCar_V1.0/4.Demo/Libraries/hefei_libraries/hf_pwm.c:74
    }
    else if((pwmch & 0x03) == 0x02)
    1170:	fcc42783          	lw	a5,-52(s0)
    1174:	0037f713          	andi	a4,a5,3
    1178:	4789                	li	a5,2
    117a:	06f71363          	bne	a4,a5,11e0 <pwm_init+0x212>
D:/Desktop/智能车基地/CH32V103_SmartCar_V1.0/4.Demo/Libraries/hefei_libraries/hf_pwm.c:76
    {
        TIM_OC3Init(((TIM_TypeDef *) TIMERN[pwmch>>8]), &TIM_OCInitStructure );
    117e:	fcc42783          	lw	a5,-52(s0)
    1182:	0087d713          	srli	a4,a5,0x8
    1186:	678d                	lui	a5,0x3
    1188:	070a                	slli	a4,a4,0x2
    118a:	2c878793          	addi	a5,a5,712 # 32c8 <TIMERN>
    118e:	97ba                	add	a5,a5,a4
    1190:	439c                	lw	a5,0(a5)
    1192:	873e                	mv	a4,a5
    1194:	fd840793          	addi	a5,s0,-40
    1198:	85be                	mv	a1,a5
    119a:	853a                	mv	a0,a4
    119c:	69a010ef          	jal	ra,2836 <TIM_OC3Init>
D:/Desktop/智能车基地/CH32V103_SmartCar_V1.0/4.Demo/Libraries/hefei_libraries/hf_pwm.c:77
        TIM_CtrlPWMOutputs(((TIM_TypeDef *) TIMERN[pwmch>>8]), ENABLE );
    11a0:	fcc42783          	lw	a5,-52(s0)
    11a4:	0087d713          	srli	a4,a5,0x8
    11a8:	678d                	lui	a5,0x3
    11aa:	070a                	slli	a4,a4,0x2
    11ac:	2c878793          	addi	a5,a5,712 # 32c8 <TIMERN>
    11b0:	97ba                	add	a5,a5,a4
    11b2:	439c                	lw	a5,0(a5)
    11b4:	4585                	li	a1,1
    11b6:	853e                	mv	a0,a5
    11b8:	1d1010ef          	jal	ra,2b88 <TIM_CtrlPWMOutputs>
D:/Desktop/智能车基地/CH32V103_SmartCar_V1.0/4.Demo/Libraries/hefei_libraries/hf_pwm.c:78
        TIM_OC3PreloadConfig(((TIM_TypeDef *) TIMERN[pwmch>>8]), TIM_OCPreload_Enable_Disable);
    11bc:	fcc42783          	lw	a5,-52(s0)
    11c0:	0087d713          	srli	a4,a5,0x8
    11c4:	678d                	lui	a5,0x3
    11c6:	070a                	slli	a4,a4,0x2
    11c8:	2c878793          	addi	a5,a5,712 # 32c8 <TIMERN>
    11cc:	97ba                	add	a5,a5,a4
    11ce:	439c                	lw	a5,0(a5)
    11d0:	873e                	mv	a4,a5
    11d2:	fc245783          	lhu	a5,-62(s0)
    11d6:	85be                	mv	a1,a5
    11d8:	853a                	mv	a0,a4
    11da:	2b5010ef          	jal	ra,2c8e <TIM_OC3PreloadConfig>
    11de:	a885                	j	124e <pwm_init+0x280>
D:/Desktop/智能车基地/CH32V103_SmartCar_V1.0/4.Demo/Libraries/hefei_libraries/hf_pwm.c:80
    }
    else if((pwmch & 0x03) == 0x03)
    11e0:	fcc42783          	lw	a5,-52(s0)
    11e4:	0037f713          	andi	a4,a5,3
    11e8:	478d                	li	a5,3
    11ea:	06f71263          	bne	a4,a5,124e <pwm_init+0x280>
D:/Desktop/智能车基地/CH32V103_SmartCar_V1.0/4.Demo/Libraries/hefei_libraries/hf_pwm.c:82
    {
        TIM_OC4Init(((TIM_TypeDef *) TIMERN[pwmch>>8]), &TIM_OCInitStructure );
    11ee:	fcc42783          	lw	a5,-52(s0)
    11f2:	0087d713          	srli	a4,a5,0x8
    11f6:	678d                	lui	a5,0x3
    11f8:	070a                	slli	a4,a4,0x2
    11fa:	2c878793          	addi	a5,a5,712 # 32c8 <TIMERN>
    11fe:	97ba                	add	a5,a5,a4
    1200:	439c                	lw	a5,0(a5)
    1202:	873e                	mv	a4,a5
    1204:	fd840793          	addi	a5,s0,-40
    1208:	85be                	mv	a1,a5
    120a:	853a                	mv	a0,a4
    120c:	7da010ef          	jal	ra,29e6 <TIM_OC4Init>
D:/Desktop/智能车基地/CH32V103_SmartCar_V1.0/4.Demo/Libraries/hefei_libraries/hf_pwm.c:83
        TIM_CtrlPWMOutputs(((TIM_TypeDef *) TIMERN[pwmch>>8]), ENABLE );
    1210:	fcc42783          	lw	a5,-52(s0)
    1214:	0087d713          	srli	a4,a5,0x8
    1218:	678d                	lui	a5,0x3
    121a:	070a                	slli	a4,a4,0x2
    121c:	2c878793          	addi	a5,a5,712 # 32c8 <TIMERN>
    1220:	97ba                	add	a5,a5,a4
    1222:	439c                	lw	a5,0(a5)
    1224:	4585                	li	a1,1
    1226:	853e                	mv	a0,a5
    1228:	161010ef          	jal	ra,2b88 <TIM_CtrlPWMOutputs>
D:/Desktop/智能车基地/CH32V103_SmartCar_V1.0/4.Demo/Libraries/hefei_libraries/hf_pwm.c:84
        TIM_OC4PreloadConfig(((TIM_TypeDef *) TIMERN[pwmch>>8]), TIM_OCPreload_Enable_Disable);
    122c:	fcc42783          	lw	a5,-52(s0)
    1230:	0087d713          	srli	a4,a5,0x8
    1234:	678d                	lui	a5,0x3
    1236:	070a                	slli	a4,a4,0x2
    1238:	2c878793          	addi	a5,a5,712 # 32c8 <TIMERN>
    123c:	97ba                	add	a5,a5,a4
    123e:	439c                	lw	a5,0(a5)
    1240:	873e                	mv	a4,a5
    1242:	fc245783          	lhu	a5,-62(s0)
    1246:	85be                	mv	a1,a5
    1248:	853a                	mv	a0,a4
    124a:	291010ef          	jal	ra,2cda <TIM_OC4PreloadConfig>
D:/Desktop/智能车基地/CH32V103_SmartCar_V1.0/4.Demo/Libraries/hefei_libraries/hf_pwm.c:87
    }

    TIM_Cmd(((TIM_TypeDef *) TIMERN[pwmch>>8]), ENABLE);                                              //定时器使能
    124e:	fcc42783          	lw	a5,-52(s0)
    1252:	0087d713          	srli	a4,a5,0x8
    1256:	678d                	lui	a5,0x3
    1258:	070a                	slli	a4,a4,0x2
    125a:	2c878793          	addi	a5,a5,712 # 32c8 <TIMERN>
    125e:	97ba                	add	a5,a5,a4
    1260:	439c                	lw	a5,0(a5)
    1262:	4585                	li	a1,1
    1264:	853e                	mv	a0,a5
    1266:	0cb010ef          	jal	ra,2b30 <TIM_Cmd>
D:/Desktop/智能车基地/CH32V103_SmartCar_V1.0/4.Demo/Libraries/hefei_libraries/hf_pwm.c:88
}
    126a:	0001                	nop
    126c:	50f2                	lw	ra,60(sp)
    126e:	5462                	lw	s0,56(sp)
    1270:	6121                	addi	sp,sp,64
    1272:	8082                	ret

00001274 <pwm_duty>:
pwm_duty():
D:/Desktop/智能车基地/CH32V103_SmartCar_V1.0/4.Demo/Libraries/hefei_libraries/hf_pwm.c:99
//  @return     void
//  Sample usage:               pwm_duty(PWM1_CH1_A8, 5000);   //PWM1 通道1 使用引脚A8 占空比为百分之 5000/PWM_DUTY_MAX*100
//                              PWM_DUTY_MAX在wh_pwm.h文件中 默认为10000
//-------------------------------------------------------------------------------------------------------------------
void pwm_duty(PWMCH_enum pwmch, uint32 duty)
{
    1274:	7179                	addi	sp,sp,-48
    1276:	d622                	sw	s0,44(sp)
    1278:	1800                	addi	s0,sp,48
    127a:	fca42e23          	sw	a0,-36(s0)
    127e:	fcb42c23          	sw	a1,-40(s0)
D:/Desktop/智能车基地/CH32V103_SmartCar_V1.0/4.Demo/Libraries/hefei_libraries/hf_pwm.c:103
    uint16 match_temp;
    uint16 period_temp;

    period_temp = ((TIM_TypeDef *) TIMERN[pwmch>>8])->ATRLR;    //获取定时器的周期值
    1282:	fdc42783          	lw	a5,-36(s0)
    1286:	0087d713          	srli	a4,a5,0x8
    128a:	678d                	lui	a5,0x3
    128c:	070a                	slli	a4,a4,0x2
    128e:	2c878793          	addi	a5,a5,712 # 32c8 <TIMERN>
    1292:	97ba                	add	a5,a5,a4
    1294:	439c                	lw	a5,0(a5)
    1296:	02c7d783          	lhu	a5,44(a5)
    129a:	fef41723          	sh	a5,-18(s0)
D:/Desktop/智能车基地/CH32V103_SmartCar_V1.0/4.Demo/Libraries/hefei_libraries/hf_pwm.c:104
    match_temp = period_temp * duty / PWM_DUTY_MAX;             //占空比
    129e:	fee45703          	lhu	a4,-18(s0)
    12a2:	fd842783          	lw	a5,-40(s0)
    12a6:	02f70733          	mul	a4,a4,a5
    12aa:	6789                	lui	a5,0x2
    12ac:	71078793          	addi	a5,a5,1808 # 2710 <TIM_OC2Init+0x90>
    12b0:	02f757b3          	divu	a5,a4,a5
    12b4:	fef41623          	sh	a5,-20(s0)
D:/Desktop/智能车基地/CH32V103_SmartCar_V1.0/4.Demo/Libraries/hefei_libraries/hf_pwm.c:106

    if((pwmch >> 8) == 0x00)
    12b8:	fdc42783          	lw	a5,-36(s0)
    12bc:	83a1                	srli	a5,a5,0x8
    12be:	e385                	bnez	a5,12de <pwm_duty+0x6a>
D:/Desktop/智能车基地/CH32V103_SmartCar_V1.0/4.Demo/Libraries/hefei_libraries/hf_pwm.c:108
    {
        (*(volatile uint32*)(0x40012C34 + (pwmch&0x03) * 0x04)) = match_temp;
    12c0:	fdc42783          	lw	a5,-36(s0)
    12c4:	0037f713          	andi	a4,a5,3
    12c8:	100057b7          	lui	a5,0x10005
    12cc:	b0d78793          	addi	a5,a5,-1267 # 10004b0d <_data_lma+0x10001825>
    12d0:	97ba                	add	a5,a5,a4
    12d2:	078a                	slli	a5,a5,0x2
    12d4:	873e                	mv	a4,a5
    12d6:	fec45783          	lhu	a5,-20(s0)
    12da:	c31c                	sw	a5,0(a4)
D:/Desktop/智能车基地/CH32V103_SmartCar_V1.0/4.Demo/Libraries/hefei_libraries/hf_pwm.c:138
        //0x40000834 TIM4->CH1CVR
        //0x40000838 TIM4->CH2CVR
        //0x4000083C TIM4->CH3CVR
        //0x40000840 TIM4->CH4CVR
    }
}
    12dc:	a049                	j	135e <pwm_duty+0xea>
D:/Desktop/智能车基地/CH32V103_SmartCar_V1.0/4.Demo/Libraries/hefei_libraries/hf_pwm.c:114
    else if((pwmch >> 8) == 0x01)
    12de:	fdc42783          	lw	a5,-36(s0)
    12e2:	0087d713          	srli	a4,a5,0x8
    12e6:	4785                	li	a5,1
    12e8:	02f71063          	bne	a4,a5,1308 <pwm_duty+0x94>
D:/Desktop/智能车基地/CH32V103_SmartCar_V1.0/4.Demo/Libraries/hefei_libraries/hf_pwm.c:116
        (*(volatile uint32*)(0x40000034 + (pwmch&0x03) * 0x04)) = match_temp;
    12ec:	fdc42783          	lw	a5,-36(s0)
    12f0:	0037f713          	andi	a4,a5,3
    12f4:	100007b7          	lui	a5,0x10000
    12f8:	07b5                	addi	a5,a5,13
    12fa:	97ba                	add	a5,a5,a4
    12fc:	078a                	slli	a5,a5,0x2
    12fe:	873e                	mv	a4,a5
    1300:	fec45783          	lhu	a5,-20(s0)
    1304:	c31c                	sw	a5,0(a4)
D:/Desktop/智能车基地/CH32V103_SmartCar_V1.0/4.Demo/Libraries/hefei_libraries/hf_pwm.c:138
}
    1306:	a8a1                	j	135e <pwm_duty+0xea>
D:/Desktop/智能车基地/CH32V103_SmartCar_V1.0/4.Demo/Libraries/hefei_libraries/hf_pwm.c:122
    else if((pwmch >> 8) == 0x02)
    1308:	fdc42783          	lw	a5,-36(s0)
    130c:	0087d713          	srli	a4,a5,0x8
    1310:	4789                	li	a5,2
    1312:	02f71163          	bne	a4,a5,1334 <pwm_duty+0xc0>
D:/Desktop/智能车基地/CH32V103_SmartCar_V1.0/4.Demo/Libraries/hefei_libraries/hf_pwm.c:124
        (*(volatile uint32*)(0x40000434 + (pwmch&0x03) * 0x04)) = match_temp;
    1316:	fdc42783          	lw	a5,-36(s0)
    131a:	0037f713          	andi	a4,a5,3
    131e:	100007b7          	lui	a5,0x10000
    1322:	10d78793          	addi	a5,a5,269 # 1000010d <_data_lma+0xfffce25>
    1326:	97ba                	add	a5,a5,a4
    1328:	078a                	slli	a5,a5,0x2
    132a:	873e                	mv	a4,a5
    132c:	fec45783          	lhu	a5,-20(s0)
    1330:	c31c                	sw	a5,0(a4)
D:/Desktop/智能车基地/CH32V103_SmartCar_V1.0/4.Demo/Libraries/hefei_libraries/hf_pwm.c:138
}
    1332:	a035                	j	135e <pwm_duty+0xea>
D:/Desktop/智能车基地/CH32V103_SmartCar_V1.0/4.Demo/Libraries/hefei_libraries/hf_pwm.c:130
    else if((pwmch >> 8) == 0x03)
    1334:	fdc42783          	lw	a5,-36(s0)
    1338:	0087d713          	srli	a4,a5,0x8
    133c:	478d                	li	a5,3
    133e:	02f71063          	bne	a4,a5,135e <pwm_duty+0xea>
D:/Desktop/智能车基地/CH32V103_SmartCar_V1.0/4.Demo/Libraries/hefei_libraries/hf_pwm.c:132
        (*(volatile uint32*)(0x40000834 + (pwmch&0x03) * 0x04)) = match_temp;
    1342:	fdc42783          	lw	a5,-36(s0)
    1346:	0037f713          	andi	a4,a5,3
    134a:	100007b7          	lui	a5,0x10000
    134e:	20d78793          	addi	a5,a5,525 # 1000020d <_data_lma+0xfffcf25>
    1352:	97ba                	add	a5,a5,a4
    1354:	078a                	slli	a5,a5,0x2
    1356:	873e                	mv	a4,a5
    1358:	fec45783          	lhu	a5,-20(s0)
    135c:	c31c                	sw	a5,0(a4)
D:/Desktop/智能车基地/CH32V103_SmartCar_V1.0/4.Demo/Libraries/hefei_libraries/hf_pwm.c:138
}
    135e:	0001                	nop
    1360:	5432                	lw	s0,44(sp)
    1362:	6145                	addi	sp,sp,48
    1364:	8082                	ret

00001366 <pwm_freq>:
pwm_freq():
D:/Desktop/智能车基地/CH32V103_SmartCar_V1.0/4.Demo/Libraries/hefei_libraries/hf_pwm.c:150
//  @return     void
//  Sample usage:               pwm_freq(PWM1_CH1_A8, 60, 5000);   //使用引脚A8  输出PWM频率60HZ   占空比为百分之 5000/PWM_DUTY_MAX*100
//                              PWM_DUTY_MAX在wh_pwm.h文件中 默认为10000
//-------------------------------------------------------------------------------------------------------------------
void pwm_freq(PWMCH_enum pwmch, uint32 freq)
{
    1366:	7179                	addi	sp,sp,-48
    1368:	d622                	sw	s0,44(sp)
    136a:	1800                	addi	s0,sp,48
    136c:	fca42e23          	sw	a0,-36(s0)
    1370:	fcb42c23          	sw	a1,-40(s0)
D:/Desktop/智能车基地/CH32V103_SmartCar_V1.0/4.Demo/Libraries/hefei_libraries/hf_pwm.c:151
    uint16 period_temp = 0;                                     //周期值
    1374:	fe041723          	sh	zero,-18(s0)
D:/Desktop/智能车基地/CH32V103_SmartCar_V1.0/4.Demo/Libraries/hefei_libraries/hf_pwm.c:152
    uint16 freq_div = 0;                                        //分频值
    1378:	fe041623          	sh	zero,-20(s0)
D:/Desktop/智能车基地/CH32V103_SmartCar_V1.0/4.Demo/Libraries/hefei_libraries/hf_pwm.c:155
    uint16 match_temp;

    freq_div = (uint16)((sys_clk / freq) >> 16);                //计算多少分频
    137c:	200007b7          	lui	a5,0x20000
    1380:	0187a703          	lw	a4,24(a5) # 20000018 <_edata>
    1384:	fd842783          	lw	a5,-40(s0)
    1388:	02f757b3          	divu	a5,a4,a5
    138c:	83c1                	srli	a5,a5,0x10
    138e:	fef41623          	sh	a5,-20(s0)
D:/Desktop/智能车基地/CH32V103_SmartCar_V1.0/4.Demo/Libraries/hefei_libraries/hf_pwm.c:156
    period_temp = (uint16)(sys_clk/(freq*(freq_div + 1)));      //计算周期
    1392:	200007b7          	lui	a5,0x20000
    1396:	0187a703          	lw	a4,24(a5) # 20000018 <_edata>
    139a:	fec45783          	lhu	a5,-20(s0)
    139e:	0785                	addi	a5,a5,1
    13a0:	86be                	mv	a3,a5
    13a2:	fd842783          	lw	a5,-40(s0)
    13a6:	02f687b3          	mul	a5,a3,a5
    13aa:	02f757b3          	divu	a5,a4,a5
    13ae:	fef41723          	sh	a5,-18(s0)
D:/Desktop/智能车基地/CH32V103_SmartCar_V1.0/4.Demo/Libraries/hefei_libraries/hf_pwm.c:158

    ((TIM_TypeDef *) TIMERN[pwmch>>8])->ATRLR = period_temp - 1 ;
    13b2:	fdc42783          	lw	a5,-36(s0)
    13b6:	0087d713          	srli	a4,a5,0x8
    13ba:	678d                	lui	a5,0x3
    13bc:	070a                	slli	a4,a4,0x2
    13be:	2c878793          	addi	a5,a5,712 # 32c8 <TIMERN>
    13c2:	97ba                	add	a5,a5,a4
    13c4:	439c                	lw	a5,0(a5)
    13c6:	873e                	mv	a4,a5
    13c8:	fee45783          	lhu	a5,-18(s0)
    13cc:	17fd                	addi	a5,a5,-1
    13ce:	07c2                	slli	a5,a5,0x10
    13d0:	83c1                	srli	a5,a5,0x10
    13d2:	02f71623          	sh	a5,44(a4)
D:/Desktop/智能车基地/CH32V103_SmartCar_V1.0/4.Demo/Libraries/hefei_libraries/hf_pwm.c:159
    ((TIM_TypeDef *) TIMERN[pwmch>>8])->PSC = freq_div;
    13d6:	fdc42783          	lw	a5,-36(s0)
    13da:	0087d713          	srli	a4,a5,0x8
    13de:	678d                	lui	a5,0x3
    13e0:	070a                	slli	a4,a4,0x2
    13e2:	2c878793          	addi	a5,a5,712 # 32c8 <TIMERN>
    13e6:	97ba                	add	a5,a5,a4
    13e8:	439c                	lw	a5,0(a5)
    13ea:	873e                	mv	a4,a5
    13ec:	fec45783          	lhu	a5,-20(s0)
    13f0:	02f71423          	sh	a5,40(a4)
D:/Desktop/智能车基地/CH32V103_SmartCar_V1.0/4.Demo/Libraries/hefei_libraries/hf_pwm.c:160
}
    13f4:	0001                	nop
    13f6:	5432                	lw	s0,44(sp)
    13f8:	6145                	addi	sp,sp,48
    13fa:	8082                	ret

000013fc <pwm_gpio_init>:
pwm_gpio_init():
D:/Desktop/智能车基地/CH32V103_SmartCar_V1.0/4.Demo/Libraries/hefei_libraries/hf_pwm.c:182
//  @param      pwmch       PWM通道(可选择范围由wh_pwm.h内PWMCH_enum枚举值确定)
//  @return     void
//  Sample usage:           内部使用  用户无需关心
//-------------------------------------------------------------------------------------------------------------------
void pwm_gpio_init(PWMCH_enum pwmch)
{
    13fc:	1101                	addi	sp,sp,-32
    13fe:	ce06                	sw	ra,28(sp)
    1400:	cc22                	sw	s0,24(sp)
    1402:	1000                	addi	s0,sp,32
    1404:	fea42623          	sw	a0,-20(s0)
    1408:	fec42703          	lw	a4,-20(s0)
    140c:	20000793          	li	a5,512
    1410:	24f70763          	beq	a4,a5,165e <pwm_gpio_init+0x262>
    1414:	fec42703          	lw	a4,-20(s0)
    1418:	20000793          	li	a5,512
    141c:	0ae7ea63          	bltu	a5,a4,14d0 <pwm_gpio_init+0xd4>
    1420:	fec42703          	lw	a4,-20(s0)
    1424:	10100793          	li	a5,257
    1428:	1cf70063          	beq	a4,a5,15e8 <pwm_gpio_init+0x1ec>
    142c:	fec42703          	lw	a4,-20(s0)
    1430:	10100793          	li	a5,257
    1434:	04e7e263          	bltu	a5,a4,1478 <pwm_gpio_init+0x7c>
    1438:	fec42703          	lw	a4,-20(s0)
    143c:	4789                	li	a5,2
    143e:	16f70d63          	beq	a4,a5,15b8 <pwm_gpio_init+0x1bc>
    1442:	fec42703          	lw	a4,-20(s0)
    1446:	4789                	li	a5,2
    1448:	00e7ec63          	bltu	a5,a4,1460 <pwm_gpio_init+0x64>
    144c:	fec42783          	lw	a5,-20(s0)
    1450:	14078463          	beqz	a5,1598 <pwm_gpio_init+0x19c>
    1454:	fec42703          	lw	a4,-20(s0)
    1458:	4785                	li	a5,1
    145a:	14f70763          	beq	a4,a5,15a8 <pwm_gpio_init+0x1ac>
D:/Desktop/智能车基地/CH32V103_SmartCar_V1.0/4.Demo/Libraries/hefei_libraries/hf_pwm.c:272
        case PWM4_CH4_B9:
            gpio_init(B9, GPO, 0, SPEED_50MHZ|OUT_AF_PP);
            break;
        default:
            //断言
            break;
    145e:	ace5                	j	1756 <pwm_gpio_init+0x35a>
    1460:	fec42703          	lw	a4,-20(s0)
    1464:	478d                	li	a5,3
    1466:	16f70163          	beq	a4,a5,15c8 <pwm_gpio_init+0x1cc>
    146a:	fec42703          	lw	a4,-20(s0)
    146e:	10000793          	li	a5,256
    1472:	16f70363          	beq	a4,a5,15d8 <pwm_gpio_init+0x1dc>
    1476:	a4c5                	j	1756 <pwm_gpio_init+0x35a>
    1478:	fec42703          	lw	a4,-20(s0)
    147c:	11000793          	li	a5,272
    1480:	18f70c63          	beq	a4,a5,1618 <pwm_gpio_init+0x21c>
    1484:	fec42703          	lw	a4,-20(s0)
    1488:	11000793          	li	a5,272
    148c:	00e7ef63          	bltu	a5,a4,14aa <pwm_gpio_init+0xae>
    1490:	fec42703          	lw	a4,-20(s0)
    1494:	10200793          	li	a5,258
    1498:	16f70063          	beq	a4,a5,15f8 <pwm_gpio_init+0x1fc>
    149c:	fec42703          	lw	a4,-20(s0)
    14a0:	10300793          	li	a5,259
    14a4:	16f70263          	beq	a4,a5,1608 <pwm_gpio_init+0x20c>
    14a8:	a47d                	j	1756 <pwm_gpio_init+0x35a>
    14aa:	fec42703          	lw	a4,-20(s0)
    14ae:	11200793          	li	a5,274
    14b2:	18f70463          	beq	a4,a5,163a <pwm_gpio_init+0x23e>
    14b6:	fec42703          	lw	a4,-20(s0)
    14ba:	11200793          	li	a5,274
    14be:	16f76563          	bltu	a4,a5,1628 <pwm_gpio_init+0x22c>
    14c2:	fec42703          	lw	a4,-20(s0)
    14c6:	11300793          	li	a5,275
    14ca:	18f70163          	beq	a4,a5,164c <pwm_gpio_init+0x250>
    14ce:	a461                	j	1756 <pwm_gpio_init+0x35a>
    14d0:	fec42703          	lw	a4,-20(s0)
    14d4:	21300793          	li	a5,531
    14d8:	20f70063          	beq	a4,a5,16d8 <pwm_gpio_init+0x2dc>
    14dc:	fec42703          	lw	a4,-20(s0)
    14e0:	21300793          	li	a5,531
    14e4:	04e7ee63          	bltu	a5,a4,1540 <pwm_gpio_init+0x144>
    14e8:	fec42703          	lw	a4,-20(s0)
    14ec:	20300793          	li	a5,515
    14f0:	1af70063          	beq	a4,a5,1690 <pwm_gpio_init+0x294>
    14f4:	fec42703          	lw	a4,-20(s0)
    14f8:	20300793          	li	a5,515
    14fc:	00e7ef63          	bltu	a5,a4,151a <pwm_gpio_init+0x11e>
    1500:	fec42703          	lw	a4,-20(s0)
    1504:	20100793          	li	a5,513
    1508:	16f70363          	beq	a4,a5,166e <pwm_gpio_init+0x272>
    150c:	fec42703          	lw	a4,-20(s0)
    1510:	20200793          	li	a5,514
    1514:	16f70563          	beq	a4,a5,167e <pwm_gpio_init+0x282>
    1518:	ac3d                	j	1756 <pwm_gpio_init+0x35a>
    151a:	fec42703          	lw	a4,-20(s0)
    151e:	21100793          	li	a5,529
    1522:	18f70963          	beq	a4,a5,16b4 <pwm_gpio_init+0x2b8>
    1526:	fec42703          	lw	a4,-20(s0)
    152a:	21100793          	li	a5,529
    152e:	18e7ec63          	bltu	a5,a4,16c6 <pwm_gpio_init+0x2ca>
    1532:	fec42703          	lw	a4,-20(s0)
    1536:	21000793          	li	a5,528
    153a:	16f70463          	beq	a4,a5,16a2 <pwm_gpio_init+0x2a6>
    153e:	ac21                	j	1756 <pwm_gpio_init+0x35a>
    1540:	fec42703          	lw	a4,-20(s0)
    1544:	30000793          	li	a5,768
    1548:	1cf70363          	beq	a4,a5,170e <pwm_gpio_init+0x312>
    154c:	fec42703          	lw	a4,-20(s0)
    1550:	30000793          	li	a5,768
    1554:	00e7ef63          	bltu	a5,a4,1572 <pwm_gpio_init+0x176>
    1558:	fec42703          	lw	a4,-20(s0)
    155c:	22000793          	li	a5,544
    1560:	18f70563          	beq	a4,a5,16ea <pwm_gpio_init+0x2ee>
    1564:	fec42703          	lw	a4,-20(s0)
    1568:	22100793          	li	a5,545
    156c:	18f70863          	beq	a4,a5,16fc <pwm_gpio_init+0x300>
    1570:	a2dd                	j	1756 <pwm_gpio_init+0x35a>
    1572:	fec42703          	lw	a4,-20(s0)
    1576:	30200793          	li	a5,770
    157a:	1af70c63          	beq	a4,a5,1732 <pwm_gpio_init+0x336>
    157e:	fec42703          	lw	a4,-20(s0)
    1582:	30200793          	li	a5,770
    1586:	18f76d63          	bltu	a4,a5,1720 <pwm_gpio_init+0x324>
    158a:	fec42703          	lw	a4,-20(s0)
    158e:	30300793          	li	a5,771
    1592:	1af70963          	beq	a4,a5,1744 <pwm_gpio_init+0x348>
    1596:	a2c1                	j	1756 <pwm_gpio_init+0x35a>
D:/Desktop/智能车基地/CH32V103_SmartCar_V1.0/4.Demo/Libraries/hefei_libraries/hf_pwm.c:187
            gpio_init(A8, GPO, 0, SPEED_50MHZ|OUT_AF_PP);
    1598:	31800693          	li	a3,792
    159c:	4601                	li	a2,0
    159e:	4585                	li	a1,1
    15a0:	4521                	li	a0,8
    15a2:	f44ff0ef          	jal	ra,ce6 <gpio_init>
D:/Desktop/智能车基地/CH32V103_SmartCar_V1.0/4.Demo/Libraries/hefei_libraries/hf_pwm.c:188
            break;
    15a6:	aa45                	j	1756 <pwm_gpio_init+0x35a>
D:/Desktop/智能车基地/CH32V103_SmartCar_V1.0/4.Demo/Libraries/hefei_libraries/hf_pwm.c:190
            gpio_init(A9, GPO, 0, SPEED_50MHZ|OUT_AF_PP);
    15a8:	31800693          	li	a3,792
    15ac:	4601                	li	a2,0
    15ae:	4585                	li	a1,1
    15b0:	4525                	li	a0,9
    15b2:	f34ff0ef          	jal	ra,ce6 <gpio_init>
D:/Desktop/智能车基地/CH32V103_SmartCar_V1.0/4.Demo/Libraries/hefei_libraries/hf_pwm.c:191
            break;
    15b6:	a245                	j	1756 <pwm_gpio_init+0x35a>
D:/Desktop/智能车基地/CH32V103_SmartCar_V1.0/4.Demo/Libraries/hefei_libraries/hf_pwm.c:193
            gpio_init(A10, GPO, 0, SPEED_50MHZ|OUT_AF_PP);
    15b8:	31800693          	li	a3,792
    15bc:	4601                	li	a2,0
    15be:	4585                	li	a1,1
    15c0:	4529                	li	a0,10
    15c2:	f24ff0ef          	jal	ra,ce6 <gpio_init>
D:/Desktop/智能车基地/CH32V103_SmartCar_V1.0/4.Demo/Libraries/hefei_libraries/hf_pwm.c:194
            break;
    15c6:	aa41                	j	1756 <pwm_gpio_init+0x35a>
D:/Desktop/智能车基地/CH32V103_SmartCar_V1.0/4.Demo/Libraries/hefei_libraries/hf_pwm.c:196
            gpio_init(A11, GPO, 0, SPEED_50MHZ|OUT_AF_PP);
    15c8:	31800693          	li	a3,792
    15cc:	4601                	li	a2,0
    15ce:	4585                	li	a1,1
    15d0:	452d                	li	a0,11
    15d2:	f14ff0ef          	jal	ra,ce6 <gpio_init>
D:/Desktop/智能车基地/CH32V103_SmartCar_V1.0/4.Demo/Libraries/hefei_libraries/hf_pwm.c:197
            break;
    15d6:	a241                	j	1756 <pwm_gpio_init+0x35a>
D:/Desktop/智能车基地/CH32V103_SmartCar_V1.0/4.Demo/Libraries/hefei_libraries/hf_pwm.c:200
            gpio_init(A0, GPO, 0, SPEED_50MHZ|OUT_AF_PP);
    15d8:	31800693          	li	a3,792
    15dc:	4601                	li	a2,0
    15de:	4585                	li	a1,1
    15e0:	4501                	li	a0,0
    15e2:	f04ff0ef          	jal	ra,ce6 <gpio_init>
D:/Desktop/智能车基地/CH32V103_SmartCar_V1.0/4.Demo/Libraries/hefei_libraries/hf_pwm.c:201
            break;
    15e6:	aa85                	j	1756 <pwm_gpio_init+0x35a>
D:/Desktop/智能车基地/CH32V103_SmartCar_V1.0/4.Demo/Libraries/hefei_libraries/hf_pwm.c:203
            gpio_init(A1, GPO, 0, SPEED_50MHZ|OUT_AF_PP);
    15e8:	31800693          	li	a3,792
    15ec:	4601                	li	a2,0
    15ee:	4585                	li	a1,1
    15f0:	4505                	li	a0,1
    15f2:	ef4ff0ef          	jal	ra,ce6 <gpio_init>
D:/Desktop/智能车基地/CH32V103_SmartCar_V1.0/4.Demo/Libraries/hefei_libraries/hf_pwm.c:204
            break;
    15f6:	a285                	j	1756 <pwm_gpio_init+0x35a>
D:/Desktop/智能车基地/CH32V103_SmartCar_V1.0/4.Demo/Libraries/hefei_libraries/hf_pwm.c:206
            gpio_init(A2, GPO, 0, SPEED_50MHZ|OUT_AF_PP);
    15f8:	31800693          	li	a3,792
    15fc:	4601                	li	a2,0
    15fe:	4585                	li	a1,1
    1600:	4509                	li	a0,2
    1602:	ee4ff0ef          	jal	ra,ce6 <gpio_init>
D:/Desktop/智能车基地/CH32V103_SmartCar_V1.0/4.Demo/Libraries/hefei_libraries/hf_pwm.c:207
            break;
    1606:	aa81                	j	1756 <pwm_gpio_init+0x35a>
D:/Desktop/智能车基地/CH32V103_SmartCar_V1.0/4.Demo/Libraries/hefei_libraries/hf_pwm.c:209
            gpio_init(A3, GPO, 0, SPEED_50MHZ|OUT_AF_PP);
    1608:	31800693          	li	a3,792
    160c:	4601                	li	a2,0
    160e:	4585                	li	a1,1
    1610:	450d                	li	a0,3
    1612:	ed4ff0ef          	jal	ra,ce6 <gpio_init>
D:/Desktop/智能车基地/CH32V103_SmartCar_V1.0/4.Demo/Libraries/hefei_libraries/hf_pwm.c:210
            break;
    1616:	a281                	j	1756 <pwm_gpio_init+0x35a>
D:/Desktop/智能车基地/CH32V103_SmartCar_V1.0/4.Demo/Libraries/hefei_libraries/hf_pwm.c:213
            gpio_init(A15, GPO, 0, SPEED_50MHZ|OUT_AF_PP);
    1618:	31800693          	li	a3,792
    161c:	4601                	li	a2,0
    161e:	4585                	li	a1,1
    1620:	453d                	li	a0,15
    1622:	ec4ff0ef          	jal	ra,ce6 <gpio_init>
D:/Desktop/智能车基地/CH32V103_SmartCar_V1.0/4.Demo/Libraries/hefei_libraries/hf_pwm.c:214
            break;
    1626:	aa05                	j	1756 <pwm_gpio_init+0x35a>
D:/Desktop/智能车基地/CH32V103_SmartCar_V1.0/4.Demo/Libraries/hefei_libraries/hf_pwm.c:216
            gpio_init(B3, GPO, 0, SPEED_50MHZ|OUT_AF_PP);
    1628:	31800693          	li	a3,792
    162c:	4601                	li	a2,0
    162e:	4585                	li	a1,1
    1630:	02300513          	li	a0,35
    1634:	eb2ff0ef          	jal	ra,ce6 <gpio_init>
D:/Desktop/智能车基地/CH32V103_SmartCar_V1.0/4.Demo/Libraries/hefei_libraries/hf_pwm.c:217
            break;
    1638:	aa39                	j	1756 <pwm_gpio_init+0x35a>
D:/Desktop/智能车基地/CH32V103_SmartCar_V1.0/4.Demo/Libraries/hefei_libraries/hf_pwm.c:219
            gpio_init(B10, GPO, 0, SPEED_50MHZ|OUT_AF_PP);
    163a:	31800693          	li	a3,792
    163e:	4601                	li	a2,0
    1640:	4585                	li	a1,1
    1642:	02a00513          	li	a0,42
    1646:	ea0ff0ef          	jal	ra,ce6 <gpio_init>
D:/Desktop/智能车基地/CH32V103_SmartCar_V1.0/4.Demo/Libraries/hefei_libraries/hf_pwm.c:220
            break;
    164a:	a231                	j	1756 <pwm_gpio_init+0x35a>
D:/Desktop/智能车基地/CH32V103_SmartCar_V1.0/4.Demo/Libraries/hefei_libraries/hf_pwm.c:222
            gpio_init(B11, GPO, 0, SPEED_50MHZ|OUT_AF_PP);
    164c:	31800693          	li	a3,792
    1650:	4601                	li	a2,0
    1652:	4585                	li	a1,1
    1654:	02b00513          	li	a0,43
    1658:	e8eff0ef          	jal	ra,ce6 <gpio_init>
D:/Desktop/智能车基地/CH32V103_SmartCar_V1.0/4.Demo/Libraries/hefei_libraries/hf_pwm.c:223
            break;
    165c:	a8ed                	j	1756 <pwm_gpio_init+0x35a>
D:/Desktop/智能车基地/CH32V103_SmartCar_V1.0/4.Demo/Libraries/hefei_libraries/hf_pwm.c:226
            gpio_init(A6, GPO, 0, SPEED_50MHZ|OUT_AF_PP);
    165e:	31800693          	li	a3,792
    1662:	4601                	li	a2,0
    1664:	4585                	li	a1,1
    1666:	4519                	li	a0,6
    1668:	e7eff0ef          	jal	ra,ce6 <gpio_init>
D:/Desktop/智能车基地/CH32V103_SmartCar_V1.0/4.Demo/Libraries/hefei_libraries/hf_pwm.c:227
            break;
    166c:	a0ed                	j	1756 <pwm_gpio_init+0x35a>
D:/Desktop/智能车基地/CH32V103_SmartCar_V1.0/4.Demo/Libraries/hefei_libraries/hf_pwm.c:229
            gpio_init(A7, GPO, 0, SPEED_50MHZ|OUT_AF_PP);
    166e:	31800693          	li	a3,792
    1672:	4601                	li	a2,0
    1674:	4585                	li	a1,1
    1676:	451d                	li	a0,7
    1678:	e6eff0ef          	jal	ra,ce6 <gpio_init>
D:/Desktop/智能车基地/CH32V103_SmartCar_V1.0/4.Demo/Libraries/hefei_libraries/hf_pwm.c:230
            break;
    167c:	a8e9                	j	1756 <pwm_gpio_init+0x35a>
D:/Desktop/智能车基地/CH32V103_SmartCar_V1.0/4.Demo/Libraries/hefei_libraries/hf_pwm.c:232
            gpio_init(B0, GPO, 0, SPEED_50MHZ|OUT_AF_PP);
    167e:	31800693          	li	a3,792
    1682:	4601                	li	a2,0
    1684:	4585                	li	a1,1
    1686:	02000513          	li	a0,32
    168a:	e5cff0ef          	jal	ra,ce6 <gpio_init>
D:/Desktop/智能车基地/CH32V103_SmartCar_V1.0/4.Demo/Libraries/hefei_libraries/hf_pwm.c:233
            break;
    168e:	a0e1                	j	1756 <pwm_gpio_init+0x35a>
D:/Desktop/智能车基地/CH32V103_SmartCar_V1.0/4.Demo/Libraries/hefei_libraries/hf_pwm.c:235
            gpio_init(B1, GPO, 0, SPEED_50MHZ|OUT_AF_PP);
    1690:	31800693          	li	a3,792
    1694:	4601                	li	a2,0
    1696:	4585                	li	a1,1
    1698:	02100513          	li	a0,33
    169c:	e4aff0ef          	jal	ra,ce6 <gpio_init>
D:/Desktop/智能车基地/CH32V103_SmartCar_V1.0/4.Demo/Libraries/hefei_libraries/hf_pwm.c:236
            break;
    16a0:	a85d                	j	1756 <pwm_gpio_init+0x35a>
D:/Desktop/智能车基地/CH32V103_SmartCar_V1.0/4.Demo/Libraries/hefei_libraries/hf_pwm.c:239
            gpio_init(C6, GPO, 0, SPEED_50MHZ|OUT_AF_PP);
    16a2:	31800693          	li	a3,792
    16a6:	4601                	li	a2,0
    16a8:	4585                	li	a1,1
    16aa:	04600513          	li	a0,70
    16ae:	e38ff0ef          	jal	ra,ce6 <gpio_init>
D:/Desktop/智能车基地/CH32V103_SmartCar_V1.0/4.Demo/Libraries/hefei_libraries/hf_pwm.c:240
            break;
    16b2:	a055                	j	1756 <pwm_gpio_init+0x35a>
D:/Desktop/智能车基地/CH32V103_SmartCar_V1.0/4.Demo/Libraries/hefei_libraries/hf_pwm.c:242
            gpio_init(C7, GPO, 0, SPEED_50MHZ|OUT_AF_PP);
    16b4:	31800693          	li	a3,792
    16b8:	4601                	li	a2,0
    16ba:	4585                	li	a1,1
    16bc:	04700513          	li	a0,71
    16c0:	e26ff0ef          	jal	ra,ce6 <gpio_init>
D:/Desktop/智能车基地/CH32V103_SmartCar_V1.0/4.Demo/Libraries/hefei_libraries/hf_pwm.c:243
            break;
    16c4:	a849                	j	1756 <pwm_gpio_init+0x35a>
D:/Desktop/智能车基地/CH32V103_SmartCar_V1.0/4.Demo/Libraries/hefei_libraries/hf_pwm.c:245
            gpio_init(C8, GPO, 0, SPEED_50MHZ|OUT_AF_PP);
    16c6:	31800693          	li	a3,792
    16ca:	4601                	li	a2,0
    16cc:	4585                	li	a1,1
    16ce:	04800513          	li	a0,72
    16d2:	e14ff0ef          	jal	ra,ce6 <gpio_init>
D:/Desktop/智能车基地/CH32V103_SmartCar_V1.0/4.Demo/Libraries/hefei_libraries/hf_pwm.c:246
            break;
    16d6:	a041                	j	1756 <pwm_gpio_init+0x35a>
D:/Desktop/智能车基地/CH32V103_SmartCar_V1.0/4.Demo/Libraries/hefei_libraries/hf_pwm.c:248
            gpio_init(C9, GPO, 0, SPEED_50MHZ|OUT_AF_PP);
    16d8:	31800693          	li	a3,792
    16dc:	4601                	li	a2,0
    16de:	4585                	li	a1,1
    16e0:	04900513          	li	a0,73
    16e4:	e02ff0ef          	jal	ra,ce6 <gpio_init>
D:/Desktop/智能车基地/CH32V103_SmartCar_V1.0/4.Demo/Libraries/hefei_libraries/hf_pwm.c:249
            break;
    16e8:	a0bd                	j	1756 <pwm_gpio_init+0x35a>
D:/Desktop/智能车基地/CH32V103_SmartCar_V1.0/4.Demo/Libraries/hefei_libraries/hf_pwm.c:252
            gpio_init(B4, GPO, 0, SPEED_50MHZ|OUT_AF_PP);
    16ea:	31800693          	li	a3,792
    16ee:	4601                	li	a2,0
    16f0:	4585                	li	a1,1
    16f2:	02400513          	li	a0,36
    16f6:	df0ff0ef          	jal	ra,ce6 <gpio_init>
D:/Desktop/智能车基地/CH32V103_SmartCar_V1.0/4.Demo/Libraries/hefei_libraries/hf_pwm.c:253
            break;
    16fa:	a8b1                	j	1756 <pwm_gpio_init+0x35a>
D:/Desktop/智能车基地/CH32V103_SmartCar_V1.0/4.Demo/Libraries/hefei_libraries/hf_pwm.c:255
            gpio_init(B5, GPO, 0, SPEED_50MHZ|OUT_AF_PP);
    16fc:	31800693          	li	a3,792
    1700:	4601                	li	a2,0
    1702:	4585                	li	a1,1
    1704:	02500513          	li	a0,37
    1708:	ddeff0ef          	jal	ra,ce6 <gpio_init>
D:/Desktop/智能车基地/CH32V103_SmartCar_V1.0/4.Demo/Libraries/hefei_libraries/hf_pwm.c:256
            break;
    170c:	a0a9                	j	1756 <pwm_gpio_init+0x35a>
D:/Desktop/智能车基地/CH32V103_SmartCar_V1.0/4.Demo/Libraries/hefei_libraries/hf_pwm.c:259
            gpio_init(B6, GPO, 0, SPEED_50MHZ|OUT_AF_PP);
    170e:	31800693          	li	a3,792
    1712:	4601                	li	a2,0
    1714:	4585                	li	a1,1
    1716:	02600513          	li	a0,38
    171a:	dccff0ef          	jal	ra,ce6 <gpio_init>
D:/Desktop/智能车基地/CH32V103_SmartCar_V1.0/4.Demo/Libraries/hefei_libraries/hf_pwm.c:260
            break;
    171e:	a825                	j	1756 <pwm_gpio_init+0x35a>
D:/Desktop/智能车基地/CH32V103_SmartCar_V1.0/4.Demo/Libraries/hefei_libraries/hf_pwm.c:262
            gpio_init(B7, GPO, 0, SPEED_50MHZ|OUT_AF_PP);
    1720:	31800693          	li	a3,792
    1724:	4601                	li	a2,0
    1726:	4585                	li	a1,1
    1728:	02700513          	li	a0,39
    172c:	dbaff0ef          	jal	ra,ce6 <gpio_init>
D:/Desktop/智能车基地/CH32V103_SmartCar_V1.0/4.Demo/Libraries/hefei_libraries/hf_pwm.c:263
            break;
    1730:	a01d                	j	1756 <pwm_gpio_init+0x35a>
D:/Desktop/智能车基地/CH32V103_SmartCar_V1.0/4.Demo/Libraries/hefei_libraries/hf_pwm.c:265
            gpio_init(B8, GPO, 0, SPEED_50MHZ|OUT_AF_PP);
    1732:	31800693          	li	a3,792
    1736:	4601                	li	a2,0
    1738:	4585                	li	a1,1
    173a:	02800513          	li	a0,40
    173e:	da8ff0ef          	jal	ra,ce6 <gpio_init>
D:/Desktop/智能车基地/CH32V103_SmartCar_V1.0/4.Demo/Libraries/hefei_libraries/hf_pwm.c:266
            break;
    1742:	a811                	j	1756 <pwm_gpio_init+0x35a>
D:/Desktop/智能车基地/CH32V103_SmartCar_V1.0/4.Demo/Libraries/hefei_libraries/hf_pwm.c:268
            gpio_init(B9, GPO, 0, SPEED_50MHZ|OUT_AF_PP);
    1744:	31800693          	li	a3,792
    1748:	4601                	li	a2,0
    174a:	4585                	li	a1,1
    174c:	02900513          	li	a0,41
    1750:	d96ff0ef          	jal	ra,ce6 <gpio_init>
D:/Desktop/智能车基地/CH32V103_SmartCar_V1.0/4.Demo/Libraries/hefei_libraries/hf_pwm.c:269
            break;
    1754:	0001                	nop
D:/Desktop/智能车基地/CH32V103_SmartCar_V1.0/4.Demo/Libraries/hefei_libraries/hf_pwm.c:274
    }
}
    1756:	0001                	nop
    1758:	40f2                	lw	ra,28(sp)
    175a:	4462                	lw	s0,24(sp)
    175c:	6105                	addi	sp,sp,32
    175e:	8082                	ret

00001760 <timbase_init>:
timbase_init():
D:/Desktop/智能车基地/CH32V103_SmartCar_V1.0/4.Demo/Libraries/hefei_libraries/hf_tim.c:24
//  @return     void
//  Sample usage:           timbase_init(TIMER_2, 71, 0);
//                          //时基初始化为定时器2,频率为1MHz
//-------------------------------------------------------------------------------------------------------------------
void timbase_init(TIMERN_enum TIMER_x, uint16 arr, uint16 pre)
{
    1760:	7179                	addi	sp,sp,-48
    1762:	d606                	sw	ra,44(sp)
    1764:	d422                	sw	s0,40(sp)
    1766:	1800                	addi	s0,sp,48
    1768:	fca42e23          	sw	a0,-36(s0)
    176c:	87ae                	mv	a5,a1
    176e:	8732                	mv	a4,a2
    1770:	fcf41d23          	sh	a5,-38(s0)
    1774:	87ba                	mv	a5,a4
    1776:	fcf41c23          	sh	a5,-40(s0)
D:/Desktop/智能车基地/CH32V103_SmartCar_V1.0/4.Demo/Libraries/hefei_libraries/hf_tim.c:27
    TIM_TimeBaseInitTypeDef  TIM_TimeBaseStructure;

    if(TIMER_1 == TIMER_x)
    177a:	fdc42783          	lw	a5,-36(s0)
    177e:	eb81                	bnez	a5,178e <timbase_init+0x2e>
D:/Desktop/智能车基地/CH32V103_SmartCar_V1.0/4.Demo/Libraries/hefei_libraries/hf_tim.c:28
        RCC_APB2PeriphClockCmd(RCC_APB2Periph_TIM1, ENABLE);                //时钟使能
    1780:	4585                	li	a1,1
    1782:	6785                	lui	a5,0x1
    1784:	80078513          	addi	a0,a5,-2048 # 800 <__stack_size>
    1788:	3bd000ef          	jal	ra,2344 <RCC_APB2PeriphClockCmd>
    178c:	a835                	j	17c8 <timbase_init+0x68>
D:/Desktop/智能车基地/CH32V103_SmartCar_V1.0/4.Demo/Libraries/hefei_libraries/hf_tim.c:29
    else if(TIMER_2 == TIMER_x)
    178e:	fdc42703          	lw	a4,-36(s0)
    1792:	4785                	li	a5,1
    1794:	00f71763          	bne	a4,a5,17a2 <timbase_init+0x42>
D:/Desktop/智能车基地/CH32V103_SmartCar_V1.0/4.Demo/Libraries/hefei_libraries/hf_tim.c:30
        RCC_APB1PeriphClockCmd(RCC_APB1Periph_TIM2, ENABLE);                //时钟使能
    1798:	4585                	li	a1,1
    179a:	4505                	li	a0,1
    179c:	3ef000ef          	jal	ra,238a <RCC_APB1PeriphClockCmd>
    17a0:	a025                	j	17c8 <timbase_init+0x68>
D:/Desktop/智能车基地/CH32V103_SmartCar_V1.0/4.Demo/Libraries/hefei_libraries/hf_tim.c:31
    else if(TIMER_3 == TIMER_x)
    17a2:	fdc42703          	lw	a4,-36(s0)
    17a6:	4789                	li	a5,2
    17a8:	00f71763          	bne	a4,a5,17b6 <timbase_init+0x56>
D:/Desktop/智能车基地/CH32V103_SmartCar_V1.0/4.Demo/Libraries/hefei_libraries/hf_tim.c:32
        RCC_APB1PeriphClockCmd(RCC_APB1Periph_TIM3, ENABLE);                //时钟使能
    17ac:	4585                	li	a1,1
    17ae:	4509                	li	a0,2
    17b0:	3db000ef          	jal	ra,238a <RCC_APB1PeriphClockCmd>
    17b4:	a811                	j	17c8 <timbase_init+0x68>
D:/Desktop/智能车基地/CH32V103_SmartCar_V1.0/4.Demo/Libraries/hefei_libraries/hf_tim.c:33
    else if(TIMER_4 == TIMER_x)
    17b6:	fdc42703          	lw	a4,-36(s0)
    17ba:	478d                	li	a5,3
    17bc:	00f71663          	bne	a4,a5,17c8 <timbase_init+0x68>
D:/Desktop/智能车基地/CH32V103_SmartCar_V1.0/4.Demo/Libraries/hefei_libraries/hf_tim.c:34
        RCC_APB1PeriphClockCmd(RCC_APB1Periph_TIM4, ENABLE);                //时钟使能
    17c0:	4585                	li	a1,1
    17c2:	4511                	li	a0,4
    17c4:	3c7000ef          	jal	ra,238a <RCC_APB1PeriphClockCmd>
D:/Desktop/智能车基地/CH32V103_SmartCar_V1.0/4.Demo/Libraries/hefei_libraries/hf_tim.c:37


    TIM_TimeBaseStructure.TIM_Period = arr;                    //计数44000
    17c8:	fda45783          	lhu	a5,-38(s0)
    17cc:	fef41423          	sh	a5,-24(s0)
D:/Desktop/智能车基地/CH32V103_SmartCar_V1.0/4.Demo/Libraries/hefei_libraries/hf_tim.c:38
    TIM_TimeBaseStructure.TIM_Prescaler = pre;                      //设置为1MHZ计数一次,也就是1us计数一次
    17d0:	fd845783          	lhu	a5,-40(s0)
    17d4:	fef41223          	sh	a5,-28(s0)
D:/Desktop/智能车基地/CH32V103_SmartCar_V1.0/4.Demo/Libraries/hefei_libraries/hf_tim.c:39
    TIM_TimeBaseStructure.TIM_ClockDivision = TIM_CKD_DIV1;                 //设置时钟分割:TDTS = Tck_tim
    17d8:	fe041523          	sh	zero,-22(s0)
D:/Desktop/智能车基地/CH32V103_SmartCar_V1.0/4.Demo/Libraries/hefei_libraries/hf_tim.c:40
    TIM_TimeBaseStructure.TIM_CounterMode = TIM_CounterMode_Up;             //TIM向上计数模式
    17dc:	fe041323          	sh	zero,-26(s0)
D:/Desktop/智能车基地/CH32V103_SmartCar_V1.0/4.Demo/Libraries/hefei_libraries/hf_tim.c:41
    TIM_TimeBaseStructure.TIM_RepetitionCounter = 0;                        //重复计数器设置为0
    17e0:	fe040623          	sb	zero,-20(s0)
D:/Desktop/智能车基地/CH32V103_SmartCar_V1.0/4.Demo/Libraries/hefei_libraries/hf_tim.c:42
    TIM_TimeBaseInit((TIM_TypeDef *)TIMERN[TIMER_x], &TIM_TimeBaseStructure);//根据指定的参数初始化TIMx的时间基数单位
    17e4:	678d                	lui	a5,0x3
    17e6:	fdc42703          	lw	a4,-36(s0)
    17ea:	070a                	slli	a4,a4,0x2
    17ec:	2c878793          	addi	a5,a5,712 # 32c8 <TIMERN>
    17f0:	97ba                	add	a5,a5,a4
    17f2:	439c                	lw	a5,0(a5)
    17f4:	873e                	mv	a4,a5
    17f6:	fe440793          	addi	a5,s0,-28
    17fa:	85be                	mv	a1,a5
    17fc:	853a                	mv	a0,a4
    17fe:	419000ef          	jal	ra,2416 <TIM_TimeBaseInit>
D:/Desktop/智能车基地/CH32V103_SmartCar_V1.0/4.Demo/Libraries/hefei_libraries/hf_tim.c:43
}
    1802:	0001                	nop
    1804:	50b2                	lw	ra,44(sp)
    1806:	5422                	lw	s0,40(sp)
    1808:	6145                	addi	sp,sp,48
    180a:	8082                	ret

0000180c <uart_init>:
uart_init():
D:/Desktop/智能车基地/CH32V103_SmartCar_V1.0/4.Demo/Libraries/hefei_libraries/hf_uart.c:25
//  @param      rx_pin      串口接收引脚号
//  @return     void
//  Sample usage:           uart_init(UART_1, 115200, UART1_TX_A9, UART1_RX_A10); //串口1初始化引脚号,TX为A9,RX为A10
//-------------------------------------------------------------------------------------------------------------------
void uart_init(UARTN_enum UART_x, uint32 baud, UARTPIN_enum tx_pin, UARTPIN_enum rx_pin)
{
    180c:	7179                	addi	sp,sp,-48
    180e:	d606                	sw	ra,44(sp)
    1810:	d422                	sw	s0,40(sp)
    1812:	1800                	addi	s0,sp,48
    1814:	fca42e23          	sw	a0,-36(s0)
    1818:	fcb42c23          	sw	a1,-40(s0)
    181c:	fcc42a23          	sw	a2,-44(s0)
    1820:	fcd42823          	sw	a3,-48(s0)
D:/Desktop/智能车基地/CH32V103_SmartCar_V1.0/4.Demo/Libraries/hefei_libraries/hf_uart.c:29
    USART_InitTypeDef USART_InitStructure;

    //串口总线使能
    if(UART_1 == UART_x) RCC_APB2PeriphClockCmd(RCC_APB2Periph_USART1, ENABLE);
    1824:	fdc42783          	lw	a5,-36(s0)
    1828:	e791                	bnez	a5,1834 <uart_init+0x28>
D:/Desktop/智能车基地/CH32V103_SmartCar_V1.0/4.Demo/Libraries/hefei_libraries/hf_uart.c:29 (discriminator 1)
    182a:	4585                	li	a1,1
    182c:	6511                	lui	a0,0x4
    182e:	317000ef          	jal	ra,2344 <RCC_APB2PeriphClockCmd>
    1832:	a035                	j	185e <uart_init+0x52>
D:/Desktop/智能车基地/CH32V103_SmartCar_V1.0/4.Demo/Libraries/hefei_libraries/hf_uart.c:30
    else if(UART_2 == UART_x) RCC_APB1PeriphClockCmd(RCC_APB1Periph_USART2, ENABLE);
    1834:	fdc42703          	lw	a4,-36(s0)
    1838:	4785                	li	a5,1
    183a:	00f71863          	bne	a4,a5,184a <uart_init+0x3e>
D:/Desktop/智能车基地/CH32V103_SmartCar_V1.0/4.Demo/Libraries/hefei_libraries/hf_uart.c:30 (discriminator 1)
    183e:	4585                	li	a1,1
    1840:	00020537          	lui	a0,0x20
    1844:	347000ef          	jal	ra,238a <RCC_APB1PeriphClockCmd>
    1848:	a819                	j	185e <uart_init+0x52>
D:/Desktop/智能车基地/CH32V103_SmartCar_V1.0/4.Demo/Libraries/hefei_libraries/hf_uart.c:31
    else if(UART_3 == UART_x) RCC_APB1PeriphClockCmd(RCC_APB1Periph_USART3, ENABLE);
    184a:	fdc42703          	lw	a4,-36(s0)
    184e:	4789                	li	a5,2
    1850:	00f71763          	bne	a4,a5,185e <uart_init+0x52>
D:/Desktop/智能车基地/CH32V103_SmartCar_V1.0/4.Demo/Libraries/hefei_libraries/hf_uart.c:31 (discriminator 1)
    1854:	4585                	li	a1,1
    1856:	00040537          	lui	a0,0x40
    185a:	331000ef          	jal	ra,238a <RCC_APB1PeriphClockCmd>
D:/Desktop/智能车基地/CH32V103_SmartCar_V1.0/4.Demo/Libraries/hefei_libraries/hf_uart.c:34

    //引脚初始化
    uart_gpio_init(tx_pin, rx_pin);
    185e:	fd042583          	lw	a1,-48(s0)
    1862:	fd442503          	lw	a0,-44(s0)
    1866:	2085                	jal	18c6 <uart_gpio_init>
D:/Desktop/智能车基地/CH32V103_SmartCar_V1.0/4.Demo/Libraries/hefei_libraries/hf_uart.c:37

    //串口参数配置
    USART_InitStructure.USART_BaudRate = baud;
    1868:	fd842783          	lw	a5,-40(s0)
    186c:	fef42023          	sw	a5,-32(s0)
D:/Desktop/智能车基地/CH32V103_SmartCar_V1.0/4.Demo/Libraries/hefei_libraries/hf_uart.c:38
    USART_InitStructure.USART_WordLength = USART_WordLength_8b;
    1870:	fe041223          	sh	zero,-28(s0)
D:/Desktop/智能车基地/CH32V103_SmartCar_V1.0/4.Demo/Libraries/hefei_libraries/hf_uart.c:39
    USART_InitStructure.USART_StopBits = USART_StopBits_1;
    1874:	fe041323          	sh	zero,-26(s0)
D:/Desktop/智能车基地/CH32V103_SmartCar_V1.0/4.Demo/Libraries/hefei_libraries/hf_uart.c:40
    USART_InitStructure.USART_Parity = USART_Parity_No;
    1878:	fe041423          	sh	zero,-24(s0)
D:/Desktop/智能车基地/CH32V103_SmartCar_V1.0/4.Demo/Libraries/hefei_libraries/hf_uart.c:41
    USART_InitStructure.USART_HardwareFlowControl = USART_HardwareFlowControl_None;
    187c:	fe041623          	sh	zero,-20(s0)
D:/Desktop/智能车基地/CH32V103_SmartCar_V1.0/4.Demo/Libraries/hefei_libraries/hf_uart.c:42
    USART_InitStructure.USART_Mode = USART_Mode_Tx | USART_Mode_Rx;
    1880:	47b1                	li	a5,12
    1882:	fef41523          	sh	a5,-22(s0)
D:/Desktop/智能车基地/CH32V103_SmartCar_V1.0/4.Demo/Libraries/hefei_libraries/hf_uart.c:45

    //使能串口
    USART_Init((USART_TypeDef*)UARTN[UART_x], &USART_InitStructure);
    1886:	678d                	lui	a5,0x3
    1888:	fdc42703          	lw	a4,-36(s0)
    188c:	070a                	slli	a4,a4,0x2
    188e:	2d878793          	addi	a5,a5,728 # 32d8 <UARTN>
    1892:	97ba                	add	a5,a5,a4
    1894:	439c                	lw	a5,0(a5)
    1896:	873e                	mv	a4,a5
    1898:	fe040793          	addi	a5,s0,-32
    189c:	85be                	mv	a1,a5
    189e:	853a                	mv	a0,a4
    18a0:	620010ef          	jal	ra,2ec0 <USART_Init>
D:/Desktop/智能车基地/CH32V103_SmartCar_V1.0/4.Demo/Libraries/hefei_libraries/hf_uart.c:46
    USART_Cmd((USART_TypeDef*)UARTN[UART_x], ENABLE);
    18a4:	678d                	lui	a5,0x3
    18a6:	fdc42703          	lw	a4,-36(s0)
    18aa:	070a                	slli	a4,a4,0x2
    18ac:	2d878793          	addi	a5,a5,728 # 32d8 <UARTN>
    18b0:	97ba                	add	a5,a5,a4
    18b2:	439c                	lw	a5,0(a5)
    18b4:	4585                	li	a1,1
    18b6:	853e                	mv	a0,a5
    18b8:	03d010ef          	jal	ra,30f4 <USART_Cmd>
D:/Desktop/智能车基地/CH32V103_SmartCar_V1.0/4.Demo/Libraries/hefei_libraries/hf_uart.c:48

}
    18bc:	0001                	nop
    18be:	50b2                	lw	ra,44(sp)
    18c0:	5422                	lw	s0,40(sp)
    18c2:	6145                	addi	sp,sp,48
    18c4:	8082                	ret

000018c6 <uart_gpio_init>:
uart_gpio_init():
D:/Desktop/智能车基地/CH32V103_SmartCar_V1.0/4.Demo/Libraries/hefei_libraries/hf_uart.c:166
//  @param      rx_pin      串口接收引脚号
//  @return     void
//  Sample usage:           内部使用，用户无需关心
//-------------------------------------------------------------------------------------------------------------------
void uart_gpio_init(UARTPIN_enum tx_pin, UARTPIN_enum rx_pin)
{
    18c6:	1101                	addi	sp,sp,-32
    18c8:	ce06                	sw	ra,28(sp)
    18ca:	cc22                	sw	s0,24(sp)
    18cc:	1000                	addi	s0,sp,32
    18ce:	fea42623          	sw	a0,-20(s0)
    18d2:	feb42423          	sw	a1,-24(s0)
D:/Desktop/智能车基地/CH32V103_SmartCar_V1.0/4.Demo/Libraries/hefei_libraries/hf_uart.c:167
    if(tx_pin == UART1_TX_A9 && rx_pin == UART1_RX_A10)
    18d6:	fec42783          	lw	a5,-20(s0)
    18da:	e785                	bnez	a5,1902 <uart_gpio_init+0x3c>
D:/Desktop/智能车基地/CH32V103_SmartCar_V1.0/4.Demo/Libraries/hefei_libraries/hf_uart.c:167 (discriminator 1)
    18dc:	fe842703          	lw	a4,-24(s0)
    18e0:	4785                	li	a5,1
    18e2:	02f71063          	bne	a4,a5,1902 <uart_gpio_init+0x3c>
D:/Desktop/智能车基地/CH32V103_SmartCar_V1.0/4.Demo/Libraries/hefei_libraries/hf_uart.c:169
    {
        gpio_init(A9, GPO, 0, SPEED_50MHZ|OUT_AF_PP);
    18e6:	31800693          	li	a3,792
    18ea:	4601                	li	a2,0
    18ec:	4585                	li	a1,1
    18ee:	4525                	li	a0,9
    18f0:	bf6ff0ef          	jal	ra,ce6 <gpio_init>
D:/Desktop/智能车基地/CH32V103_SmartCar_V1.0/4.Demo/Libraries/hefei_libraries/hf_uart.c:170
        gpio_init(A10, GPI, 0, IN_FLOAT);
    18f4:	4691                	li	a3,4
    18f6:	4601                	li	a2,0
    18f8:	4581                	li	a1,0
    18fa:	4529                	li	a0,10
    18fc:	beaff0ef          	jal	ra,ce6 <gpio_init>
D:/Desktop/智能车基地/CH32V103_SmartCar_V1.0/4.Demo/Libraries/hefei_libraries/hf_uart.c:195
    else if(tx_pin == UART3_TX_C10)
    {
        gpio_init(C10, GPO, 0, SPEED_50MHZ|OUT_PP);
        gpio_init(C11, GPI, 0, IN_FLOAT);
    }
}
    1900:	a065                	j	19a8 <uart_gpio_init+0xe2>
D:/Desktop/智能车基地/CH32V103_SmartCar_V1.0/4.Demo/Libraries/hefei_libraries/hf_uart.c:172
    else if(tx_pin == UART1_TX_B6)
    1902:	fec42703          	lw	a4,-20(s0)
    1906:	4789                	li	a5,2
    1908:	02f71263          	bne	a4,a5,192c <uart_gpio_init+0x66>
D:/Desktop/智能车基地/CH32V103_SmartCar_V1.0/4.Demo/Libraries/hefei_libraries/hf_uart.c:174
        gpio_init(B6, GPO, 0, SPEED_50MHZ|OUT_AF_PP);
    190c:	31800693          	li	a3,792
    1910:	4601                	li	a2,0
    1912:	4585                	li	a1,1
    1914:	02600513          	li	a0,38
    1918:	bceff0ef          	jal	ra,ce6 <gpio_init>
D:/Desktop/智能车基地/CH32V103_SmartCar_V1.0/4.Demo/Libraries/hefei_libraries/hf_uart.c:175
        gpio_init(B7, GPI, 0, IN_FLOAT);
    191c:	4691                	li	a3,4
    191e:	4601                	li	a2,0
    1920:	4581                	li	a1,0
    1922:	02700513          	li	a0,39
    1926:	bc0ff0ef          	jal	ra,ce6 <gpio_init>
D:/Desktop/智能车基地/CH32V103_SmartCar_V1.0/4.Demo/Libraries/hefei_libraries/hf_uart.c:195
}
    192a:	a8bd                	j	19a8 <uart_gpio_init+0xe2>
D:/Desktop/智能车基地/CH32V103_SmartCar_V1.0/4.Demo/Libraries/hefei_libraries/hf_uart.c:178
    else if(tx_pin == UART2_TX_A2)
    192c:	fec42703          	lw	a4,-20(s0)
    1930:	47c1                	li	a5,16
    1932:	02f71063          	bne	a4,a5,1952 <uart_gpio_init+0x8c>
D:/Desktop/智能车基地/CH32V103_SmartCar_V1.0/4.Demo/Libraries/hefei_libraries/hf_uart.c:180
        gpio_init(A2, GPO, 0, SPEED_50MHZ|OUT_AF_PP);
    1936:	31800693          	li	a3,792
    193a:	4601                	li	a2,0
    193c:	4585                	li	a1,1
    193e:	4509                	li	a0,2
    1940:	ba6ff0ef          	jal	ra,ce6 <gpio_init>
D:/Desktop/智能车基地/CH32V103_SmartCar_V1.0/4.Demo/Libraries/hefei_libraries/hf_uart.c:181
        gpio_init(A3, GPI, 0, IN_FLOAT);
    1944:	4691                	li	a3,4
    1946:	4601                	li	a2,0
    1948:	4581                	li	a1,0
    194a:	450d                	li	a0,3
    194c:	b9aff0ef          	jal	ra,ce6 <gpio_init>
D:/Desktop/智能车基地/CH32V103_SmartCar_V1.0/4.Demo/Libraries/hefei_libraries/hf_uart.c:195
}
    1950:	a8a1                	j	19a8 <uart_gpio_init+0xe2>
D:/Desktop/智能车基地/CH32V103_SmartCar_V1.0/4.Demo/Libraries/hefei_libraries/hf_uart.c:184
    else if(tx_pin == UART3_TX_B10)
    1952:	fec42703          	lw	a4,-20(s0)
    1956:	02000793          	li	a5,32
    195a:	02f71263          	bne	a4,a5,197e <uart_gpio_init+0xb8>
D:/Desktop/智能车基地/CH32V103_SmartCar_V1.0/4.Demo/Libraries/hefei_libraries/hf_uart.c:186
        gpio_init(B10, GPO, 0, SPEED_50MHZ|OUT_AF_PP);
    195e:	31800693          	li	a3,792
    1962:	4601                	li	a2,0
    1964:	4585                	li	a1,1
    1966:	02a00513          	li	a0,42
    196a:	b7cff0ef          	jal	ra,ce6 <gpio_init>
D:/Desktop/智能车基地/CH32V103_SmartCar_V1.0/4.Demo/Libraries/hefei_libraries/hf_uart.c:187
        gpio_init(B11, GPI, 0, IN_FLOAT);
    196e:	4691                	li	a3,4
    1970:	4601                	li	a2,0
    1972:	4581                	li	a1,0
    1974:	02b00513          	li	a0,43
    1978:	b6eff0ef          	jal	ra,ce6 <gpio_init>
D:/Desktop/智能车基地/CH32V103_SmartCar_V1.0/4.Demo/Libraries/hefei_libraries/hf_uart.c:195
}
    197c:	a035                	j	19a8 <uart_gpio_init+0xe2>
D:/Desktop/智能车基地/CH32V103_SmartCar_V1.0/4.Demo/Libraries/hefei_libraries/hf_uart.c:190
    else if(tx_pin == UART3_TX_C10)
    197e:	fec42703          	lw	a4,-20(s0)
    1982:	02200793          	li	a5,34
    1986:	02f71163          	bne	a4,a5,19a8 <uart_gpio_init+0xe2>
D:/Desktop/智能车基地/CH32V103_SmartCar_V1.0/4.Demo/Libraries/hefei_libraries/hf_uart.c:192
        gpio_init(C10, GPO, 0, SPEED_50MHZ|OUT_PP);
    198a:	31000693          	li	a3,784
    198e:	4601                	li	a2,0
    1990:	4585                	li	a1,1
    1992:	04a00513          	li	a0,74
    1996:	b50ff0ef          	jal	ra,ce6 <gpio_init>
D:/Desktop/智能车基地/CH32V103_SmartCar_V1.0/4.Demo/Libraries/hefei_libraries/hf_uart.c:193
        gpio_init(C11, GPI, 0, IN_FLOAT);
    199a:	4691                	li	a3,4
    199c:	4601                	li	a2,0
    199e:	4581                	li	a1,0
    19a0:	04b00513          	li	a0,75
    19a4:	b42ff0ef          	jal	ra,ce6 <gpio_init>
D:/Desktop/智能车基地/CH32V103_SmartCar_V1.0/4.Demo/Libraries/hefei_libraries/hf_uart.c:195
}
    19a8:	0001                	nop
    19aa:	40f2                	lw	ra,28(sp)
    19ac:	4462                	lw	s0,24(sp)
    19ae:	6105                	addi	sp,sp,32
    19b0:	8082                	ret

000019b2 <board_led_init>:
board_led_init():
D:/Desktop/智能车基地/CH32V103_SmartCar_V1.0/4.Demo/03-Car_led_display/CODE/board_led.c:18
// @param        led_num            选择LED：LEDx(x = 1.2)
// @return       void
// Sample usage:       board_led_init(LED1);//板载LED1初始化
//-------------------------------------------------------------------------------------------------------------------
void board_led_init(unsigned char led_num)
{
    19b2:	1101                	addi	sp,sp,-32
    19b4:	ce06                	sw	ra,28(sp)
    19b6:	cc22                	sw	s0,24(sp)
    19b8:	1000                	addi	s0,sp,32
    19ba:	87aa                	mv	a5,a0
    19bc:	fef407a3          	sb	a5,-17(s0)
D:/Desktop/智能车基地/CH32V103_SmartCar_V1.0/4.Demo/03-Car_led_display/CODE/board_led.c:19
    if(led_num == LED1)
    19c0:	fef44703          	lbu	a4,-17(s0)
    19c4:	4785                	li	a5,1
    19c6:	00f71a63          	bne	a4,a5,19da <board_led_init+0x28>
D:/Desktop/智能车基地/CH32V103_SmartCar_V1.0/4.Demo/03-Car_led_display/CODE/board_led.c:21
    {
        gpio_init(LED1_PIN, GPO, 1, SPEED_50MHZ|LED1_MODE);
    19ca:	31000693          	li	a3,784
    19ce:	4605                	li	a2,1
    19d0:	4585                	li	a1,1
    19d2:	04700513          	li	a0,71
    19d6:	b10ff0ef          	jal	ra,ce6 <gpio_init>
D:/Desktop/智能车基地/CH32V103_SmartCar_V1.0/4.Demo/03-Car_led_display/CODE/board_led.c:23
    }
    if(led_num == LED2)
    19da:	fef44703          	lbu	a4,-17(s0)
    19de:	4789                	li	a5,2
    19e0:	00f71a63          	bne	a4,a5,19f4 <board_led_init+0x42>
D:/Desktop/智能车基地/CH32V103_SmartCar_V1.0/4.Demo/03-Car_led_display/CODE/board_led.c:25
    {
        gpio_init(LED2_PIN, GPO, 1, SPEED_50MHZ|LED2_MODE);
    19e4:	31000693          	li	a3,784
    19e8:	4605                	li	a2,1
    19ea:	4585                	li	a1,1
    19ec:	04600513          	li	a0,70
    19f0:	af6ff0ef          	jal	ra,ce6 <gpio_init>
D:/Desktop/智能车基地/CH32V103_SmartCar_V1.0/4.Demo/03-Car_led_display/CODE/board_led.c:27
    }
}
    19f4:	0001                	nop
    19f6:	40f2                	lw	ra,28(sp)
    19f8:	4462                	lw	s0,24(sp)
    19fa:	6105                	addi	sp,sp,32
    19fc:	8082                	ret

000019fe <key_init>:
key_init():
D:/Desktop/智能车基地/CH32V103_SmartCar_V1.0/4.Demo/03-Car_led_display/CODE/car_4keys.c:18
// @param        key_num            选择按键：Kx(x = 1, 2, 3, 4)
// @return       void
// Sample usage:       key_init(K1);//按键初始化
//-------------------------------------------------------------------------------------------------------------------
void key_init(unsigned char key_num)
{
    19fe:	1101                	addi	sp,sp,-32
    1a00:	ce06                	sw	ra,28(sp)
    1a02:	cc22                	sw	s0,24(sp)
    1a04:	1000                	addi	s0,sp,32
    1a06:	87aa                	mv	a5,a0
    1a08:	fef407a3          	sb	a5,-17(s0)
D:/Desktop/智能车基地/CH32V103_SmartCar_V1.0/4.Demo/03-Car_led_display/CODE/car_4keys.c:19
    if(key_num == K1)
    1a0c:	fef44703          	lbu	a4,-17(s0)
    1a10:	4789                	li	a5,2
    1a12:	00f71a63          	bne	a4,a5,1a26 <key_init+0x28>
D:/Desktop/智能车基地/CH32V103_SmartCar_V1.0/4.Demo/03-Car_led_display/CODE/car_4keys.c:21
    {
        gpio_init(K1_PIN, GPI, 1, SPEED_50MHZ|K1_MODE);
    1a16:	34800693          	li	a3,840
    1a1a:	4605                	li	a2,1
    1a1c:	4581                	li	a1,0
    1a1e:	02c00513          	li	a0,44
    1a22:	ac4ff0ef          	jal	ra,ce6 <gpio_init>
D:/Desktop/智能车基地/CH32V103_SmartCar_V1.0/4.Demo/03-Car_led_display/CODE/car_4keys.c:23
    }
    if(key_num == K2)
    1a26:	fef44703          	lbu	a4,-17(s0)
    1a2a:	478d                	li	a5,3
    1a2c:	00f71a63          	bne	a4,a5,1a40 <key_init+0x42>
D:/Desktop/智能车基地/CH32V103_SmartCar_V1.0/4.Demo/03-Car_led_display/CODE/car_4keys.c:25
    {
        gpio_init(K2_PIN, GPI, 1, SPEED_50MHZ|K2_MODE);
    1a30:	34800693          	li	a3,840
    1a34:	4605                	li	a2,1
    1a36:	4581                	li	a1,0
    1a38:	02d00513          	li	a0,45
    1a3c:	aaaff0ef          	jal	ra,ce6 <gpio_init>
D:/Desktop/智能车基地/CH32V103_SmartCar_V1.0/4.Demo/03-Car_led_display/CODE/car_4keys.c:27
    }
    if(key_num == K3)
    1a40:	fef44703          	lbu	a4,-17(s0)
    1a44:	4791                	li	a5,4
    1a46:	00f71a63          	bne	a4,a5,1a5a <key_init+0x5c>
D:/Desktop/智能车基地/CH32V103_SmartCar_V1.0/4.Demo/03-Car_led_display/CODE/car_4keys.c:29
    {
        gpio_init(K3_PIN, GPI, 1, SPEED_50MHZ|K3_MODE);
    1a4a:	34800693          	li	a3,840
    1a4e:	4605                	li	a2,1
    1a50:	4581                	li	a1,0
    1a52:	02e00513          	li	a0,46
    1a56:	a90ff0ef          	jal	ra,ce6 <gpio_init>
D:/Desktop/智能车基地/CH32V103_SmartCar_V1.0/4.Demo/03-Car_led_display/CODE/car_4keys.c:31
    }
    if(key_num == K4)
    1a5a:	fef44703          	lbu	a4,-17(s0)
    1a5e:	4795                	li	a5,5
    1a60:	00f71a63          	bne	a4,a5,1a74 <key_init+0x76>
D:/Desktop/智能车基地/CH32V103_SmartCar_V1.0/4.Demo/03-Car_led_display/CODE/car_4keys.c:33
    {
        gpio_init(K4_PIN, GPI, 1, SPEED_50MHZ|K4_MODE);
    1a64:	34800693          	li	a3,840
    1a68:	4605                	li	a2,1
    1a6a:	4581                	li	a1,0
    1a6c:	02f00513          	li	a0,47
    1a70:	a76ff0ef          	jal	ra,ce6 <gpio_init>
D:/Desktop/智能车基地/CH32V103_SmartCar_V1.0/4.Demo/03-Car_led_display/CODE/car_4keys.c:35
    }
}
    1a74:	0001                	nop
    1a76:	40f2                	lw	ra,28(sp)
    1a78:	4462                	lw	s0,24(sp)
    1a7a:	6105                	addi	sp,sp,32
    1a7c:	8082                	ret

00001a7e <adc_channel_init>:
adc_channel_init():
D:/Desktop/智能车基地/CH32V103_SmartCar_V1.0/4.Demo/03-Car_led_display/CODE/car_adc.c:18
// @param        adc_ch            选择ADC通道：ADC_CH_x(x = 1,2,3)
// @return       void
// Sample usage:       adc_channel_init(ADC_CH_1);//初始化ADC通道1
//-------------------------------------------------------------------------------------------------------------------
void adc_channel_init(uint32_t adc_ch)
{
    1a7e:	1101                	addi	sp,sp,-32
    1a80:	ce06                	sw	ra,28(sp)
    1a82:	cc22                	sw	s0,24(sp)
    1a84:	1000                	addi	s0,sp,32
    1a86:	fea42623          	sw	a0,-20(s0)
D:/Desktop/智能车基地/CH32V103_SmartCar_V1.0/4.Demo/03-Car_led_display/CODE/car_adc.c:19
    adc_init(adc_ch);
    1a8a:	fec42503          	lw	a0,-20(s0)
    1a8e:	80aff0ef          	jal	ra,a98 <adc_init>
D:/Desktop/智能车基地/CH32V103_SmartCar_V1.0/4.Demo/03-Car_led_display/CODE/car_adc.c:20
}
    1a92:	0001                	nop
    1a94:	40f2                	lw	ra,28(sp)
    1a96:	4462                	lw	s0,24(sp)
    1a98:	6105                	addi	sp,sp,32
    1a9a:	8082                	ret

00001a9c <buzzer_init>:
buzzer_init():
D:/Desktop/智能车基地/CH32V103_SmartCar_V1.0/4.Demo/03-Car_led_display/CODE/car_buzzer.c:20
//@return       void
//Sample usage:        buzzer_init();
//                     //buzzer初始化
//-------------------------------------------------------------------------------------------------------------------
void buzzer_init(void)
{
    1a9c:	1141                	addi	sp,sp,-16
    1a9e:	c606                	sw	ra,12(sp)
    1aa0:	c422                	sw	s0,8(sp)
    1aa2:	0800                	addi	s0,sp,16
D:/Desktop/智能车基地/CH32V103_SmartCar_V1.0/4.Demo/03-Car_led_display/CODE/car_buzzer.c:21
    pwm_init(PWMCH, FREQ_DIV, 0, TIM_OCPreload_Disable);
    1aa4:	4681                	li	a3,0
    1aa6:	4601                	li	a2,0
    1aa8:	45b9                	li	a1,14
    1aaa:	450d                	li	a0,3
    1aac:	d22ff0ef          	jal	ra,fce <pwm_init>
D:/Desktop/智能车基地/CH32V103_SmartCar_V1.0/4.Demo/03-Car_led_display/CODE/car_buzzer.c:22
}
    1ab0:	0001                	nop
    1ab2:	40b2                	lw	ra,12(sp)
    1ab4:	4422                	lw	s0,8(sp)
    1ab6:	0141                	addi	sp,sp,16
    1ab8:	8082                	ret

00001aba <buzzer_freq>:
buzzer_freq():
D:/Desktop/智能车基地/CH32V103_SmartCar_V1.0/4.Demo/03-Car_led_display/CODE/car_buzzer.c:32
//@return       
//Sample usage:        buzzer_freq(400);    //设置buzzer频率为400Hz
                       //频率计算公式：buzzer频率 = PWM信号频率 = 时钟频率（72MHz） / 预分频值 / 自动重装载值
//-------------------------------------------------------------------------------------------------------------------
void buzzer_freq(unsigned int freq)
{
    1aba:	1101                	addi	sp,sp,-32
    1abc:	ce06                	sw	ra,28(sp)
    1abe:	cc22                	sw	s0,24(sp)
    1ac0:	1000                	addi	s0,sp,32
    1ac2:	fea42623          	sw	a0,-20(s0)
D:/Desktop/智能车基地/CH32V103_SmartCar_V1.0/4.Demo/03-Car_led_display/CODE/car_buzzer.c:33
    pwm_freq(PWMCH, freq);
    1ac6:	fec42583          	lw	a1,-20(s0)
    1aca:	450d                	li	a0,3
    1acc:	89bff0ef          	jal	ra,1366 <pwm_freq>
D:/Desktop/智能车基地/CH32V103_SmartCar_V1.0/4.Demo/03-Car_led_display/CODE/car_buzzer.c:34
}
    1ad0:	0001                	nop
    1ad2:	40f2                	lw	ra,28(sp)
    1ad4:	4462                	lw	s0,24(sp)
    1ad6:	6105                	addi	sp,sp,32
    1ad8:	8082                	ret

00001ada <car_init>:
car_init():
D:/Desktop/智能车基地/CH32V103_SmartCar_V1.0/4.Demo/03-Car_led_display/CODE/car_init.c:20
// Sample usage:        car_init(); 
                        //智能车初始化
//-------------------------------------------------------------------------------------------------------------------

void car_init()
{
    1ada:	1141                	addi	sp,sp,-16
    1adc:	c606                	sw	ra,12(sp)
    1ade:	c422                	sw	s0,8(sp)
    1ae0:	0800                	addi	s0,sp,16
D:/Desktop/智能车基地/CH32V103_SmartCar_V1.0/4.Demo/03-Car_led_display/CODE/car_init.c:21
    DisableGlobalIRQ();                                         //默认关所有中断
    1ae2:	c26ff0ef          	jal	ra,f08 <DisableGlobalIRQ>
D:/Desktop/智能车基地/CH32V103_SmartCar_V1.0/4.Demo/03-Car_led_display/CODE/car_init.c:22
    uart_init(UART_1, 115200U, UART1_TX_A9, UART1_RX_A10);      //配置TYPE-C串行通信接口，用于printf打印数据
    1ae6:	4685                	li	a3,1
    1ae8:	4601                	li	a2,0
    1aea:	67f1                	lui	a5,0x1c
    1aec:	20078593          	addi	a1,a5,512 # 1c200 <_data_lma+0x18f18>
    1af0:	4501                	li	a0,0
    1af2:	3b29                	jal	180c <uart_init>
D:/Desktop/智能车基地/CH32V103_SmartCar_V1.0/4.Demo/03-Car_led_display/CODE/car_init.c:23
    board_init();                                               //务必保留，本函数用于初始化MPU,时钟/调试串口
    1af4:	c8bfe0ef          	jal	ra,77e <board_init>
D:/Desktop/智能车基地/CH32V103_SmartCar_V1.0/4.Demo/03-Car_led_display/CODE/car_init.c:24
    Delay_Init();
    1af8:	e8ffe0ef          	jal	ra,986 <Delay_Init>
D:/Desktop/智能车基地/CH32V103_SmartCar_V1.0/4.Demo/03-Car_led_display/CODE/car_init.c:27

    /* 初始化电机 */
    l9110s_init(left);
    1afc:	4501                	li	a0,0
    1afe:	8affe0ef          	jal	ra,3ac <l9110s_init>
D:/Desktop/智能车基地/CH32V103_SmartCar_V1.0/4.Demo/03-Car_led_display/CODE/car_init.c:28
    l9110s_init(right);
    1b02:	4505                	li	a0,1
    1b04:	8a9fe0ef          	jal	ra,3ac <l9110s_init>
D:/Desktop/智能车基地/CH32V103_SmartCar_V1.0/4.Demo/03-Car_led_display/CODE/car_init.c:31

    /* 初始化按键 */
    key_init(K1);
    1b08:	4509                	li	a0,2
    1b0a:	3dd5                	jal	19fe <key_init>
D:/Desktop/智能车基地/CH32V103_SmartCar_V1.0/4.Demo/03-Car_led_display/CODE/car_init.c:32
    key_init(K2);
    1b0c:	450d                	li	a0,3
    1b0e:	3dc5                	jal	19fe <key_init>
D:/Desktop/智能车基地/CH32V103_SmartCar_V1.0/4.Demo/03-Car_led_display/CODE/car_init.c:33
    key_init(K3);
    1b10:	4511                	li	a0,4
    1b12:	35f5                	jal	19fe <key_init>
D:/Desktop/智能车基地/CH32V103_SmartCar_V1.0/4.Demo/03-Car_led_display/CODE/car_init.c:34
    key_init(K4);
    1b14:	4515                	li	a0,5
    1b16:	35e5                	jal	19fe <key_init>
D:/Desktop/智能车基地/CH32V103_SmartCar_V1.0/4.Demo/03-Car_led_display/CODE/car_init.c:37

    /* 初始化ADC */
    adc_channel_init(ADC_CH_1);
    1b18:	453d                	li	a0,15
    1b1a:	3795                	jal	1a7e <adc_channel_init>
D:/Desktop/智能车基地/CH32V103_SmartCar_V1.0/4.Demo/03-Car_led_display/CODE/car_init.c:38
    adc_channel_init(ADC_CH_2);
    1b1c:	4539                	li	a0,14
    1b1e:	3785                	jal	1a7e <adc_channel_init>
D:/Desktop/智能车基地/CH32V103_SmartCar_V1.0/4.Demo/03-Car_led_display/CODE/car_init.c:39
    adc_channel_init(ADC_CH_3);
    1b20:	452d                	li	a0,11
    1b22:	3fb1                	jal	1a7e <adc_channel_init>
D:/Desktop/智能车基地/CH32V103_SmartCar_V1.0/4.Demo/03-Car_led_display/CODE/car_init.c:42

    /* 初始化板载LED */
    board_led_init(LED1);
    1b24:	4505                	li	a0,1
    1b26:	3571                	jal	19b2 <board_led_init>
D:/Desktop/智能车基地/CH32V103_SmartCar_V1.0/4.Demo/03-Car_led_display/CODE/car_init.c:43
    board_led_init(LED2);
    1b28:	4509                	li	a0,2
    1b2a:	3561                	jal	19b2 <board_led_init>
D:/Desktop/智能车基地/CH32V103_SmartCar_V1.0/4.Demo/03-Car_led_display/CODE/car_init.c:46

    /* 初始化蜂鸣器 */
    buzzer_init();
    1b2c:	3f85                	jal	1a9c <buzzer_init>
D:/Desktop/智能车基地/CH32V103_SmartCar_V1.0/4.Demo/03-Car_led_display/CODE/car_init.c:47
    buzzer_freq(2000);
    1b2e:	7d000513          	li	a0,2000
    1b32:	3761                	jal	1aba <buzzer_freq>
D:/Desktop/智能车基地/CH32V103_SmartCar_V1.0/4.Demo/03-Car_led_display/CODE/car_init.c:50

    /* 初始化RGB引脚 */
    ws2812b_init();
    1b34:	b07fe0ef          	jal	ra,63a <ws2812b_init>
D:/Desktop/智能车基地/CH32V103_SmartCar_V1.0/4.Demo/03-Car_led_display/CODE/car_init.c:53

    /* 初始化干簧管板引脚 */
    reed_init();
    1b38:	203d                	jal	1b66 <reed_init>
D:/Desktop/智能车基地/CH32V103_SmartCar_V1.0/4.Demo/03-Car_led_display/CODE/car_init.c:56

    /* 初始化数码管  */
    tm1637_init();
    1b3a:	8dbfe0ef          	jal	ra,414 <tm1637_init>
D:/Desktop/智能车基地/CH32V103_SmartCar_V1.0/4.Demo/03-Car_led_display/CODE/car_init.c:57
    tm1637_command(0x8f);
    1b3e:	08f00513          	li	a0,143
    1b42:	a61fe0ef          	jal	ra,5a2 <tm1637_command>
D:/Desktop/智能车基地/CH32V103_SmartCar_V1.0/4.Demo/03-Car_led_display/CODE/car_init.c:60

    /* 初始化中断 */
    int_init();
    1b46:	2809                	jal	1b58 <int_init>
D:/Desktop/智能车基地/CH32V103_SmartCar_V1.0/4.Demo/03-Car_led_display/CODE/car_init.c:63

    /* 总中断最后开启 */
    EnableGlobalIRQ(0);
    1b48:	4501                	li	a0,0
    1b4a:	c06ff0ef          	jal	ra,f50 <EnableGlobalIRQ>
D:/Desktop/智能车基地/CH32V103_SmartCar_V1.0/4.Demo/03-Car_led_display/CODE/car_init.c:64
}	
    1b4e:	0001                	nop
    1b50:	40b2                	lw	ra,12(sp)
    1b52:	4422                	lw	s0,8(sp)
    1b54:	0141                	addi	sp,sp,16
    1b56:	8082                	ret

00001b58 <int_init>:
int_init():
D:/Desktop/智能车基地/CH32V103_SmartCar_V1.0/4.Demo/03-Car_led_display/CODE/car_init.c:73
// @param        void
// @return       void
// Sample usage:        int_init();//中断初始化
//-------------------------------------------------------------------------------------------------------------------
void int_init(void)
{
    1b58:	1141                	addi	sp,sp,-16
    1b5a:	c622                	sw	s0,12(sp)
    1b5c:	0800                	addi	s0,sp,16
D:/Desktop/智能车基地/CH32V103_SmartCar_V1.0/4.Demo/03-Car_led_display/CODE/car_init.c:75
    ;
}
    1b5e:	0001                	nop
    1b60:	4432                	lw	s0,12(sp)
    1b62:	0141                	addi	sp,sp,16
    1b64:	8082                	ret

00001b66 <reed_init>:
reed_init():
D:/Desktop/智能车基地/CH32V103_SmartCar_V1.0/4.Demo/03-Car_led_display/CODE/car_reed_switch.c:18
// @param      void
// @return     void
// Sample usage:       reed_init();
//-------------------------------------------------------------------------------------------------------------------
void reed_init(void)
{
    1b66:	1141                	addi	sp,sp,-16
    1b68:	c606                	sw	ra,12(sp)
    1b6a:	c422                	sw	s0,8(sp)
    1b6c:	0800                	addi	s0,sp,16
D:/Desktop/智能车基地/CH32V103_SmartCar_V1.0/4.Demo/03-Car_led_display/CODE/car_reed_switch.c:20
    /* 干簧管引脚初始化 */
    gpio_init(REED_SWITCH_PIN, GPI, 1, IN_PULLUP);
    1b6e:	04800693          	li	a3,72
    1b72:	4605                	li	a2,1
    1b74:	4581                	li	a1,0
    1b76:	02300513          	li	a0,35
    1b7a:	96cff0ef          	jal	ra,ce6 <gpio_init>
D:/Desktop/智能车基地/CH32V103_SmartCar_V1.0/4.Demo/03-Car_led_display/CODE/car_reed_switch.c:21
}
    1b7e:	0001                	nop
    1b80:	40b2                	lw	ra,12(sp)
    1b82:	4422                	lw	s0,8(sp)
    1b84:	0141                	addi	sp,sp,16
    1b86:	8082                	ret

00001b88 <handle_reset>:
handle_reset():
D:/Desktop/智能车基地/CH32V103_SmartCar_V1.0/4.Demo/Libraries/Device/CH32V10x_p/Startup/startup_ch32v10x.S:147
	.weak	handle_reset
	.align	1
handle_reset:
.option push 
.option	norelax 
	la gp, __global_pointer$
    1b88:	1ffff197          	auipc	gp,0x1ffff
    1b8c:	c8818193          	addi	gp,gp,-888 # 20000810 <__global_pointer$>
D:/Desktop/智能车基地/CH32V103_SmartCar_V1.0/4.Demo/Libraries/Device/CH32V10x_p/Startup/startup_ch32v10x.S:150
.option	pop 
1:
	la sp, _eusrstack 
    1b90:	20003117          	auipc	sp,0x20003
    1b94:	47010113          	addi	sp,sp,1136 # 20005000 <_eusrstack>
D:/Desktop/智能车基地/CH32V103_SmartCar_V1.0/4.Demo/Libraries/Device/CH32V10x_p/Startup/startup_ch32v10x.S:153
2:
	/* Load data section from flash to RAM */
	la a0, _data_lma
    1b98:	00001517          	auipc	a0,0x1
    1b9c:	75050513          	addi	a0,a0,1872 # 32e8 <_data_lma>
D:/Desktop/智能车基地/CH32V103_SmartCar_V1.0/4.Demo/Libraries/Device/CH32V10x_p/Startup/startup_ch32v10x.S:154
	la a1, _data_vma
    1ba0:	1fffe597          	auipc	a1,0x1fffe
    1ba4:	46058593          	addi	a1,a1,1120 # 20000000 <_data_vma>
D:/Desktop/智能车基地/CH32V103_SmartCar_V1.0/4.Demo/Libraries/Device/CH32V10x_p/Startup/startup_ch32v10x.S:155
	la a2, _edata
    1ba8:	80818613          	addi	a2,gp,-2040 # 20000018 <_edata>
D:/Desktop/智能车基地/CH32V103_SmartCar_V1.0/4.Demo/Libraries/Device/CH32V10x_p/Startup/startup_ch32v10x.S:156
	bgeu a1, a2, 2f
    1bac:	00c5fa63          	bgeu	a1,a2,1bc0 <handle_reset+0x38>
D:/Desktop/智能车基地/CH32V103_SmartCar_V1.0/4.Demo/Libraries/Device/CH32V10x_p/Startup/startup_ch32v10x.S:158
1:
	lw t0, (a0)
    1bb0:	00052283          	lw	t0,0(a0)
D:/Desktop/智能车基地/CH32V103_SmartCar_V1.0/4.Demo/Libraries/Device/CH32V10x_p/Startup/startup_ch32v10x.S:159
	sw t0, (a1)
    1bb4:	0055a023          	sw	t0,0(a1)
D:/Desktop/智能车基地/CH32V103_SmartCar_V1.0/4.Demo/Libraries/Device/CH32V10x_p/Startup/startup_ch32v10x.S:160
	addi a0, a0, 4
    1bb8:	0511                	addi	a0,a0,4
D:/Desktop/智能车基地/CH32V103_SmartCar_V1.0/4.Demo/Libraries/Device/CH32V10x_p/Startup/startup_ch32v10x.S:161
	addi a1, a1, 4
    1bba:	0591                	addi	a1,a1,4
D:/Desktop/智能车基地/CH32V103_SmartCar_V1.0/4.Demo/Libraries/Device/CH32V10x_p/Startup/startup_ch32v10x.S:162
	bltu a1, a2, 1b
    1bbc:	fec5eae3          	bltu	a1,a2,1bb0 <handle_reset+0x28>
D:/Desktop/智能车基地/CH32V103_SmartCar_V1.0/4.Demo/Libraries/Device/CH32V10x_p/Startup/startup_ch32v10x.S:165
2:
	/* clear bss section */
	la a0, _sbss
    1bc0:	80818513          	addi	a0,gp,-2040 # 20000018 <_edata>
D:/Desktop/智能车基地/CH32V103_SmartCar_V1.0/4.Demo/Libraries/Device/CH32V10x_p/Startup/startup_ch32v10x.S:166
	la a1, _ebss
    1bc4:	81c18593          	addi	a1,gp,-2020 # 2000002c <_ebss>
D:/Desktop/智能车基地/CH32V103_SmartCar_V1.0/4.Demo/Libraries/Device/CH32V10x_p/Startup/startup_ch32v10x.S:167
	bgeu a0, a1, 2f
    1bc8:	00b57763          	bgeu	a0,a1,1bd6 <handle_reset+0x4e>
D:/Desktop/智能车基地/CH32V103_SmartCar_V1.0/4.Demo/Libraries/Device/CH32V10x_p/Startup/startup_ch32v10x.S:169
1:
	sw zero, (a0)
    1bcc:	00052023          	sw	zero,0(a0)
D:/Desktop/智能车基地/CH32V103_SmartCar_V1.0/4.Demo/Libraries/Device/CH32V10x_p/Startup/startup_ch32v10x.S:170
	addi a0, a0, 4
    1bd0:	0511                	addi	a0,a0,4
D:/Desktop/智能车基地/CH32V103_SmartCar_V1.0/4.Demo/Libraries/Device/CH32V10x_p/Startup/startup_ch32v10x.S:171
	bltu a0, a1, 1b
    1bd2:	feb56de3          	bltu	a0,a1,1bcc <handle_reset+0x44>
D:/Desktop/智能车基地/CH32V103_SmartCar_V1.0/4.Demo/Libraries/Device/CH32V10x_p/Startup/startup_ch32v10x.S:174
2:
	/* enable all interrupt */
  li t0, 0x88
    1bd6:	08800293          	li	t0,136
D:/Desktop/智能车基地/CH32V103_SmartCar_V1.0/4.Demo/Libraries/Device/CH32V10x_p/Startup/startup_ch32v10x.S:175
  csrs mstatus, t0
    1bda:	3002a073          	csrs	mstatus,t0
D:/Desktop/智能车基地/CH32V103_SmartCar_V1.0/4.Demo/Libraries/Device/CH32V10x_p/Startup/startup_ch32v10x.S:176
	la t0, _vector_base
    1bde:	ffffe297          	auipc	t0,0xffffe
    1be2:	45a28293          	addi	t0,t0,1114 # 38 <_einit>
D:/Desktop/智能车基地/CH32V103_SmartCar_V1.0/4.Demo/Libraries/Device/CH32V10x_p/Startup/startup_ch32v10x.S:177
  ori t0, t0, 1
    1be6:	0012e293          	ori	t0,t0,1
D:/Desktop/智能车基地/CH32V103_SmartCar_V1.0/4.Demo/Libraries/Device/CH32V10x_p/Startup/startup_ch32v10x.S:178
	csrw mtvec, t0
    1bea:	30529073          	csrw	mtvec,t0
D:/Desktop/智能车基地/CH32V103_SmartCar_V1.0/4.Demo/Libraries/Device/CH32V10x_p/Startup/startup_ch32v10x.S:180

  jal  SystemInit
    1bee:	d1dfe0ef          	jal	ra,90a <SystemInit>
D:/Desktop/智能车基地/CH32V103_SmartCar_V1.0/4.Demo/Libraries/Device/CH32V10x_p/Startup/startup_ch32v10x.S:181
	la t0, main
    1bf2:	ffffe297          	auipc	t0,0xffffe
    1bf6:	74a28293          	addi	t0,t0,1866 # 33c <main>
D:/Desktop/智能车基地/CH32V103_SmartCar_V1.0/4.Demo/Libraries/Device/CH32V10x_p/Startup/startup_ch32v10x.S:182
	csrw mepc, t0
    1bfa:	34129073          	csrw	mepc,t0
D:/Desktop/智能车基地/CH32V103_SmartCar_V1.0/4.Demo/Libraries/Device/CH32V10x_p/Startup/startup_ch32v10x.S:183
	mret
    1bfe:	30200073          	mret

00001c02 <ADC_DeInit>:
ADC_DeInit():
D:/Desktop/智能车基地/CH32V103_SmartCar_V1.0/4.Demo/Libraries/Device/CH32V10x_p/CH32V10x_Lib/ch32v10x_adc.c:115
* Input          : ADCx:
*                    where x can be 1 to select the ADC peripheral.
* Return         : None
*******************************************************************************/
void ADC_DeInit(ADC_TypeDef* ADCx)
{
    1c02:	1101                	addi	sp,sp,-32
    1c04:	ce06                	sw	ra,28(sp)
    1c06:	cc22                	sw	s0,24(sp)
    1c08:	1000                	addi	s0,sp,32
    1c0a:	fea42623          	sw	a0,-20(s0)
D:/Desktop/智能车基地/CH32V103_SmartCar_V1.0/4.Demo/Libraries/Device/CH32V10x_p/CH32V10x_Lib/ch32v10x_adc.c:116
  if (ADCx == ADC1)
    1c0e:	fec42703          	lw	a4,-20(s0)
    1c12:	400127b7          	lui	a5,0x40012
    1c16:	40078793          	addi	a5,a5,1024 # 40012400 <_eusrstack+0x2000d400>
    1c1a:	00f71a63          	bne	a4,a5,1c2e <ADC_DeInit+0x2c>
D:/Desktop/智能车基地/CH32V103_SmartCar_V1.0/4.Demo/Libraries/Device/CH32V10x_p/CH32V10x_Lib/ch32v10x_adc.c:118
  {
    RCC_APB2PeriphResetCmd(RCC_APB2Periph_ADC1, ENABLE);
    1c1e:	4585                	li	a1,1
    1c20:	20000513          	li	a0,512
    1c24:	2775                	jal	23d0 <RCC_APB2PeriphResetCmd>
D:/Desktop/智能车基地/CH32V103_SmartCar_V1.0/4.Demo/Libraries/Device/CH32V10x_p/CH32V10x_Lib/ch32v10x_adc.c:119
    RCC_APB2PeriphResetCmd(RCC_APB2Periph_ADC1, DISABLE);
    1c26:	4581                	li	a1,0
    1c28:	20000513          	li	a0,512
    1c2c:	2755                	jal	23d0 <RCC_APB2PeriphResetCmd>
D:/Desktop/智能车基地/CH32V103_SmartCar_V1.0/4.Demo/Libraries/Device/CH32V10x_p/CH32V10x_Lib/ch32v10x_adc.c:121
  }
}
    1c2e:	0001                	nop
    1c30:	40f2                	lw	ra,28(sp)
    1c32:	4462                	lw	s0,24(sp)
    1c34:	6105                	addi	sp,sp,32
    1c36:	8082                	ret

00001c38 <ADC_Init>:
ADC_Init():
D:/Desktop/智能车基地/CH32V103_SmartCar_V1.0/4.Demo/Libraries/Device/CH32V10x_p/CH32V10x_Lib/ch32v10x_adc.c:134
*                  ADC_InitStruct: pointer to an ADC_InitTypeDef structure that 
*      contains the configuration information for the specified ADC peripheral.
* Return         : None
*******************************************************************************/
void ADC_Init(ADC_TypeDef* ADCx, ADC_InitTypeDef* ADC_InitStruct)
{
    1c38:	7179                	addi	sp,sp,-48
    1c3a:	d622                	sw	s0,44(sp)
    1c3c:	1800                	addi	s0,sp,48
    1c3e:	fca42e23          	sw	a0,-36(s0)
    1c42:	fcb42c23          	sw	a1,-40(s0)
D:/Desktop/智能车基地/CH32V103_SmartCar_V1.0/4.Demo/Libraries/Device/CH32V10x_p/CH32V10x_Lib/ch32v10x_adc.c:135
  uint32_t tmpreg1 = 0;
    1c46:	fe042623          	sw	zero,-20(s0)
D:/Desktop/智能车基地/CH32V103_SmartCar_V1.0/4.Demo/Libraries/Device/CH32V10x_p/CH32V10x_Lib/ch32v10x_adc.c:136
  uint8_t tmpreg2 = 0;
    1c4a:	fe0405a3          	sb	zero,-21(s0)
D:/Desktop/智能车基地/CH32V103_SmartCar_V1.0/4.Demo/Libraries/Device/CH32V10x_p/CH32V10x_Lib/ch32v10x_adc.c:138

  tmpreg1 = ADCx->CTLR1;
    1c4e:	fdc42783          	lw	a5,-36(s0)
    1c52:	43dc                	lw	a5,4(a5)
    1c54:	fef42623          	sw	a5,-20(s0)
D:/Desktop/智能车基地/CH32V103_SmartCar_V1.0/4.Demo/Libraries/Device/CH32V10x_p/CH32V10x_Lib/ch32v10x_adc.c:139
  tmpreg1 &= CTLR1_CLEAR_Mask;
    1c58:	fec42703          	lw	a4,-20(s0)
    1c5c:	fff107b7          	lui	a5,0xfff10
    1c60:	eff78793          	addi	a5,a5,-257 # fff0feff <_eusrstack+0xdff0aeff>
    1c64:	8ff9                	and	a5,a5,a4
    1c66:	fef42623          	sw	a5,-20(s0)
D:/Desktop/智能车基地/CH32V103_SmartCar_V1.0/4.Demo/Libraries/Device/CH32V10x_p/CH32V10x_Lib/ch32v10x_adc.c:140
  tmpreg1 |= (uint32_t)(ADC_InitStruct->ADC_Mode | ((uint32_t)ADC_InitStruct->ADC_ScanConvMode << 8));
    1c6a:	fd842783          	lw	a5,-40(s0)
    1c6e:	4398                	lw	a4,0(a5)
    1c70:	fd842783          	lw	a5,-40(s0)
    1c74:	43dc                	lw	a5,4(a5)
    1c76:	07a2                	slli	a5,a5,0x8
    1c78:	8fd9                	or	a5,a5,a4
    1c7a:	fec42703          	lw	a4,-20(s0)
    1c7e:	8fd9                	or	a5,a5,a4
    1c80:	fef42623          	sw	a5,-20(s0)
D:/Desktop/智能车基地/CH32V103_SmartCar_V1.0/4.Demo/Libraries/Device/CH32V10x_p/CH32V10x_Lib/ch32v10x_adc.c:141
  ADCx->CTLR1 = tmpreg1;
    1c84:	fdc42783          	lw	a5,-36(s0)
    1c88:	fec42703          	lw	a4,-20(s0)
    1c8c:	c3d8                	sw	a4,4(a5)
D:/Desktop/智能车基地/CH32V103_SmartCar_V1.0/4.Demo/Libraries/Device/CH32V10x_p/CH32V10x_Lib/ch32v10x_adc.c:143

  tmpreg1 = ADCx->CTLR2;
    1c8e:	fdc42783          	lw	a5,-36(s0)
    1c92:	479c                	lw	a5,8(a5)
    1c94:	fef42623          	sw	a5,-20(s0)
D:/Desktop/智能车基地/CH32V103_SmartCar_V1.0/4.Demo/Libraries/Device/CH32V10x_p/CH32V10x_Lib/ch32v10x_adc.c:144
  tmpreg1 &= CTLR2_CLEAR_Mask;
    1c98:	fec42703          	lw	a4,-20(s0)
    1c9c:	fff1f7b7          	lui	a5,0xfff1f
    1ca0:	7fd78793          	addi	a5,a5,2045 # fff1f7fd <_eusrstack+0xdff1a7fd>
    1ca4:	8ff9                	and	a5,a5,a4
    1ca6:	fef42623          	sw	a5,-20(s0)
D:/Desktop/智能车基地/CH32V103_SmartCar_V1.0/4.Demo/Libraries/Device/CH32V10x_p/CH32V10x_Lib/ch32v10x_adc.c:145
  tmpreg1 |= (uint32_t)(ADC_InitStruct->ADC_DataAlign | ADC_InitStruct->ADC_ExternalTrigConv |
    1caa:	fd842783          	lw	a5,-40(s0)
    1cae:	4b98                	lw	a4,16(a5)
    1cb0:	fd842783          	lw	a5,-40(s0)
    1cb4:	47dc                	lw	a5,12(a5)
    1cb6:	8f5d                	or	a4,a4,a5
D:/Desktop/智能车基地/CH32V103_SmartCar_V1.0/4.Demo/Libraries/Device/CH32V10x_p/CH32V10x_Lib/ch32v10x_adc.c:146
            ((uint32_t)ADC_InitStruct->ADC_ContinuousConvMode << 1));
    1cb8:	fd842783          	lw	a5,-40(s0)
    1cbc:	479c                	lw	a5,8(a5)
    1cbe:	0786                	slli	a5,a5,0x1
D:/Desktop/智能车基地/CH32V103_SmartCar_V1.0/4.Demo/Libraries/Device/CH32V10x_p/CH32V10x_Lib/ch32v10x_adc.c:145
  tmpreg1 |= (uint32_t)(ADC_InitStruct->ADC_DataAlign | ADC_InitStruct->ADC_ExternalTrigConv |
    1cc0:	8fd9                	or	a5,a5,a4
    1cc2:	fec42703          	lw	a4,-20(s0)
    1cc6:	8fd9                	or	a5,a5,a4
    1cc8:	fef42623          	sw	a5,-20(s0)
D:/Desktop/智能车基地/CH32V103_SmartCar_V1.0/4.Demo/Libraries/Device/CH32V10x_p/CH32V10x_Lib/ch32v10x_adc.c:147
  ADCx->CTLR2 = tmpreg1;
    1ccc:	fdc42783          	lw	a5,-36(s0)
    1cd0:	fec42703          	lw	a4,-20(s0)
    1cd4:	c798                	sw	a4,8(a5)
D:/Desktop/智能车基地/CH32V103_SmartCar_V1.0/4.Demo/Libraries/Device/CH32V10x_p/CH32V10x_Lib/ch32v10x_adc.c:149

  tmpreg1 = ADCx->RSQR1;
    1cd6:	fdc42783          	lw	a5,-36(s0)
    1cda:	57dc                	lw	a5,44(a5)
    1cdc:	fef42623          	sw	a5,-20(s0)
D:/Desktop/智能车基地/CH32V103_SmartCar_V1.0/4.Demo/Libraries/Device/CH32V10x_p/CH32V10x_Lib/ch32v10x_adc.c:150
  tmpreg1 &= RSQR1_CLEAR_Mask;
    1ce0:	fec42703          	lw	a4,-20(s0)
    1ce4:	ff1007b7          	lui	a5,0xff100
    1ce8:	17fd                	addi	a5,a5,-1
    1cea:	8ff9                	and	a5,a5,a4
    1cec:	fef42623          	sw	a5,-20(s0)
D:/Desktop/智能车基地/CH32V103_SmartCar_V1.0/4.Demo/Libraries/Device/CH32V10x_p/CH32V10x_Lib/ch32v10x_adc.c:151
  tmpreg2 |= (uint8_t) (ADC_InitStruct->ADC_NbrOfChannel - (uint8_t)1);
    1cf0:	fd842783          	lw	a5,-40(s0)
    1cf4:	0147c783          	lbu	a5,20(a5) # ff100014 <_eusrstack+0xdf0fb014>
    1cf8:	17fd                	addi	a5,a5,-1
    1cfa:	0ff7f713          	andi	a4,a5,255
    1cfe:	feb44783          	lbu	a5,-21(s0)
    1d02:	8fd9                	or	a5,a5,a4
    1d04:	fef405a3          	sb	a5,-21(s0)
D:/Desktop/智能车基地/CH32V103_SmartCar_V1.0/4.Demo/Libraries/Device/CH32V10x_p/CH32V10x_Lib/ch32v10x_adc.c:152
  tmpreg1 |= (uint32_t)tmpreg2 << 20;
    1d08:	feb44783          	lbu	a5,-21(s0)
    1d0c:	07d2                	slli	a5,a5,0x14
    1d0e:	fec42703          	lw	a4,-20(s0)
    1d12:	8fd9                	or	a5,a5,a4
    1d14:	fef42623          	sw	a5,-20(s0)
D:/Desktop/智能车基地/CH32V103_SmartCar_V1.0/4.Demo/Libraries/Device/CH32V10x_p/CH32V10x_Lib/ch32v10x_adc.c:153
  ADCx->RSQR1 = tmpreg1;
    1d18:	fdc42783          	lw	a5,-36(s0)
    1d1c:	fec42703          	lw	a4,-20(s0)
    1d20:	d7d8                	sw	a4,44(a5)
D:/Desktop/智能车基地/CH32V103_SmartCar_V1.0/4.Demo/Libraries/Device/CH32V10x_p/CH32V10x_Lib/ch32v10x_adc.c:154
}
    1d22:	0001                	nop
    1d24:	5432                	lw	s0,44(sp)
    1d26:	6145                	addi	sp,sp,48
    1d28:	8082                	ret

00001d2a <ADC_Cmd>:
ADC_Cmd():
D:/Desktop/智能车基地/CH32V103_SmartCar_V1.0/4.Demo/Libraries/Device/CH32V10x_p/CH32V10x_Lib/ch32v10x_adc.c:182
*                    where x can be 1 to select the ADC peripheral.
*                  NewState: ENABLE or DISABLE.
* Return         : None
*******************************************************************************/
void ADC_Cmd(ADC_TypeDef* ADCx, FunctionalState NewState)
{
    1d2a:	1101                	addi	sp,sp,-32
    1d2c:	ce22                	sw	s0,28(sp)
    1d2e:	1000                	addi	s0,sp,32
    1d30:	fea42623          	sw	a0,-20(s0)
    1d34:	feb42423          	sw	a1,-24(s0)
D:/Desktop/智能车基地/CH32V103_SmartCar_V1.0/4.Demo/Libraries/Device/CH32V10x_p/CH32V10x_Lib/ch32v10x_adc.c:183
  if (NewState != DISABLE)
    1d38:	fe842783          	lw	a5,-24(s0)
    1d3c:	cb91                	beqz	a5,1d50 <ADC_Cmd+0x26>
D:/Desktop/智能车基地/CH32V103_SmartCar_V1.0/4.Demo/Libraries/Device/CH32V10x_p/CH32V10x_Lib/ch32v10x_adc.c:185
  {
    ADCx->CTLR2 |= CTLR2_ADON_Set;
    1d3e:	fec42783          	lw	a5,-20(s0)
    1d42:	479c                	lw	a5,8(a5)
    1d44:	0017e713          	ori	a4,a5,1
    1d48:	fec42783          	lw	a5,-20(s0)
    1d4c:	c798                	sw	a4,8(a5)
D:/Desktop/智能车基地/CH32V103_SmartCar_V1.0/4.Demo/Libraries/Device/CH32V10x_p/CH32V10x_Lib/ch32v10x_adc.c:191
  }
  else
  {
    ADCx->CTLR2 &= CTLR2_ADON_Reset;
  }
}
    1d4e:	a809                	j	1d60 <ADC_Cmd+0x36>
D:/Desktop/智能车基地/CH32V103_SmartCar_V1.0/4.Demo/Libraries/Device/CH32V10x_p/CH32V10x_Lib/ch32v10x_adc.c:189
    ADCx->CTLR2 &= CTLR2_ADON_Reset;
    1d50:	fec42783          	lw	a5,-20(s0)
    1d54:	479c                	lw	a5,8(a5)
    1d56:	ffe7f713          	andi	a4,a5,-2
    1d5a:	fec42783          	lw	a5,-20(s0)
    1d5e:	c798                	sw	a4,8(a5)
D:/Desktop/智能车基地/CH32V103_SmartCar_V1.0/4.Demo/Libraries/Device/CH32V10x_p/CH32V10x_Lib/ch32v10x_adc.c:191
}
    1d60:	0001                	nop
    1d62:	4472                	lw	s0,28(sp)
    1d64:	6105                	addi	sp,sp,32
    1d66:	8082                	ret

00001d68 <ADC_ResetCalibration>:
ADC_ResetCalibration():
D:/Desktop/智能车基地/CH32V103_SmartCar_V1.0/4.Demo/Libraries/Device/CH32V10x_p/CH32V10x_Lib/ch32v10x_adc.c:249
* Input          : ADCx:
*                    where x can be 1 to select the ADC peripheral.
* Return         : None
*******************************************************************************/
void ADC_ResetCalibration(ADC_TypeDef* ADCx)
{
    1d68:	1101                	addi	sp,sp,-32
    1d6a:	ce22                	sw	s0,28(sp)
    1d6c:	1000                	addi	s0,sp,32
    1d6e:	fea42623          	sw	a0,-20(s0)
D:/Desktop/智能车基地/CH32V103_SmartCar_V1.0/4.Demo/Libraries/Device/CH32V10x_p/CH32V10x_Lib/ch32v10x_adc.c:250
  ADCx->CTLR2 |= CTLR2_RSTCAL_Set;
    1d72:	fec42783          	lw	a5,-20(s0)
    1d76:	479c                	lw	a5,8(a5)
    1d78:	0087e713          	ori	a4,a5,8
    1d7c:	fec42783          	lw	a5,-20(s0)
    1d80:	c798                	sw	a4,8(a5)
D:/Desktop/智能车基地/CH32V103_SmartCar_V1.0/4.Demo/Libraries/Device/CH32V10x_p/CH32V10x_Lib/ch32v10x_adc.c:251
}
    1d82:	0001                	nop
    1d84:	4472                	lw	s0,28(sp)
    1d86:	6105                	addi	sp,sp,32
    1d88:	8082                	ret

00001d8a <ADC_GetResetCalibrationStatus>:
ADC_GetResetCalibrationStatus():
D:/Desktop/智能车基地/CH32V103_SmartCar_V1.0/4.Demo/Libraries/Device/CH32V10x_p/CH32V10x_Lib/ch32v10x_adc.c:261
* Input          : ADCx:
*                    where x can be 1 to select the ADC peripheral.
* Return         : FlagStatus: SET or RESET.
*******************************************************************************/
FlagStatus ADC_GetResetCalibrationStatus(ADC_TypeDef* ADCx)
{
    1d8a:	7179                	addi	sp,sp,-48
    1d8c:	d622                	sw	s0,44(sp)
    1d8e:	1800                	addi	s0,sp,48
    1d90:	fca42e23          	sw	a0,-36(s0)
D:/Desktop/智能车基地/CH32V103_SmartCar_V1.0/4.Demo/Libraries/Device/CH32V10x_p/CH32V10x_Lib/ch32v10x_adc.c:262
  FlagStatus bitstatus = RESET;
    1d94:	fe042623          	sw	zero,-20(s0)
D:/Desktop/智能车基地/CH32V103_SmartCar_V1.0/4.Demo/Libraries/Device/CH32V10x_p/CH32V10x_Lib/ch32v10x_adc.c:264

  if ((ADCx->CTLR2 & CTLR2_RSTCAL_Set) != (uint32_t)RESET)
    1d98:	fdc42783          	lw	a5,-36(s0)
    1d9c:	479c                	lw	a5,8(a5)
    1d9e:	8ba1                	andi	a5,a5,8
    1da0:	c789                	beqz	a5,1daa <ADC_GetResetCalibrationStatus+0x20>
D:/Desktop/智能车基地/CH32V103_SmartCar_V1.0/4.Demo/Libraries/Device/CH32V10x_p/CH32V10x_Lib/ch32v10x_adc.c:266
  {
    bitstatus = SET;
    1da2:	4785                	li	a5,1
    1da4:	fef42623          	sw	a5,-20(s0)
    1da8:	a019                	j	1dae <ADC_GetResetCalibrationStatus+0x24>
D:/Desktop/智能车基地/CH32V103_SmartCar_V1.0/4.Demo/Libraries/Device/CH32V10x_p/CH32V10x_Lib/ch32v10x_adc.c:270
  }
  else
  {
    bitstatus = RESET;
    1daa:	fe042623          	sw	zero,-20(s0)
D:/Desktop/智能车基地/CH32V103_SmartCar_V1.0/4.Demo/Libraries/Device/CH32V10x_p/CH32V10x_Lib/ch32v10x_adc.c:273
  }
	
  return  bitstatus;
    1dae:	fec42783          	lw	a5,-20(s0)
D:/Desktop/智能车基地/CH32V103_SmartCar_V1.0/4.Demo/Libraries/Device/CH32V10x_p/CH32V10x_Lib/ch32v10x_adc.c:274
}
    1db2:	853e                	mv	a0,a5
    1db4:	5432                	lw	s0,44(sp)
    1db6:	6145                	addi	sp,sp,48
    1db8:	8082                	ret

00001dba <ADC_StartCalibration>:
ADC_StartCalibration():
D:/Desktop/智能车基地/CH32V103_SmartCar_V1.0/4.Demo/Libraries/Device/CH32V10x_p/CH32V10x_Lib/ch32v10x_adc.c:284
* Input          : ADCx:
*                    where x can be 1 to select the ADC peripheral.
* Return         : None
*******************************************************************************/
void ADC_StartCalibration(ADC_TypeDef* ADCx)
{ 
    1dba:	1101                	addi	sp,sp,-32
    1dbc:	ce22                	sw	s0,28(sp)
    1dbe:	1000                	addi	s0,sp,32
    1dc0:	fea42623          	sw	a0,-20(s0)
D:/Desktop/智能车基地/CH32V103_SmartCar_V1.0/4.Demo/Libraries/Device/CH32V10x_p/CH32V10x_Lib/ch32v10x_adc.c:285
  ADCx->CTLR2 |= CTLR2_CAL_Set;
    1dc4:	fec42783          	lw	a5,-20(s0)
    1dc8:	479c                	lw	a5,8(a5)
    1dca:	0047e713          	ori	a4,a5,4
    1dce:	fec42783          	lw	a5,-20(s0)
    1dd2:	c798                	sw	a4,8(a5)
D:/Desktop/智能车基地/CH32V103_SmartCar_V1.0/4.Demo/Libraries/Device/CH32V10x_p/CH32V10x_Lib/ch32v10x_adc.c:286
}
    1dd4:	0001                	nop
    1dd6:	4472                	lw	s0,28(sp)
    1dd8:	6105                	addi	sp,sp,32
    1dda:	8082                	ret

00001ddc <ADC_GetCalibrationStatus>:
ADC_GetCalibrationStatus():
D:/Desktop/智能车基地/CH32V103_SmartCar_V1.0/4.Demo/Libraries/Device/CH32V10x_p/CH32V10x_Lib/ch32v10x_adc.c:296
* Input          : ADCx:
*                    where x can be 1 to select the ADC peripheral.
* Return         : FlagStatus: SET or RESET.
*******************************************************************************/
FlagStatus ADC_GetCalibrationStatus(ADC_TypeDef* ADCx)
{
    1ddc:	7179                	addi	sp,sp,-48
    1dde:	d622                	sw	s0,44(sp)
    1de0:	1800                	addi	s0,sp,48
    1de2:	fca42e23          	sw	a0,-36(s0)
D:/Desktop/智能车基地/CH32V103_SmartCar_V1.0/4.Demo/Libraries/Device/CH32V10x_p/CH32V10x_Lib/ch32v10x_adc.c:297
  FlagStatus bitstatus = RESET;
    1de6:	fe042623          	sw	zero,-20(s0)
D:/Desktop/智能车基地/CH32V103_SmartCar_V1.0/4.Demo/Libraries/Device/CH32V10x_p/CH32V10x_Lib/ch32v10x_adc.c:299

  if ((ADCx->CTLR2 & CTLR2_CAL_Set) != (uint32_t)RESET)
    1dea:	fdc42783          	lw	a5,-36(s0)
    1dee:	479c                	lw	a5,8(a5)
    1df0:	8b91                	andi	a5,a5,4
    1df2:	c789                	beqz	a5,1dfc <ADC_GetCalibrationStatus+0x20>
D:/Desktop/智能车基地/CH32V103_SmartCar_V1.0/4.Demo/Libraries/Device/CH32V10x_p/CH32V10x_Lib/ch32v10x_adc.c:301
  {
    bitstatus = SET;
    1df4:	4785                	li	a5,1
    1df6:	fef42623          	sw	a5,-20(s0)
    1dfa:	a019                	j	1e00 <ADC_GetCalibrationStatus+0x24>
D:/Desktop/智能车基地/CH32V103_SmartCar_V1.0/4.Demo/Libraries/Device/CH32V10x_p/CH32V10x_Lib/ch32v10x_adc.c:305
  }
  else
  {
    bitstatus = RESET;
    1dfc:	fe042623          	sw	zero,-20(s0)
D:/Desktop/智能车基地/CH32V103_SmartCar_V1.0/4.Demo/Libraries/Device/CH32V10x_p/CH32V10x_Lib/ch32v10x_adc.c:308
  }

  return  bitstatus;
    1e00:	fec42783          	lw	a5,-20(s0)
D:/Desktop/智能车基地/CH32V103_SmartCar_V1.0/4.Demo/Libraries/Device/CH32V10x_p/CH32V10x_Lib/ch32v10x_adc.c:309
}
    1e04:	853e                	mv	a0,a5
    1e06:	5432                	lw	s0,44(sp)
    1e08:	6145                	addi	sp,sp,48
    1e0a:	8082                	ret

00001e0c <EXTI_GetITStatus>:
EXTI_GetITStatus():
D:/Desktop/智能车基地/CH32V103_SmartCar_V1.0/4.Demo/Libraries/Device/CH32V10x_p/CH32V10x_Lib/ch32v10x_exti.c:131
* Description    : Checks whether the specified EXTI line is asserted or not.
* Input          : EXTI_Line: specifies the EXTI lines to be enabled or disabled.
* Return         : The new state of EXTI_Line (SET or RESET).
*********************************************************************************/	
ITStatus EXTI_GetITStatus(uint32_t EXTI_Line)
{
    1e0c:	7179                	addi	sp,sp,-48
    1e0e:	d622                	sw	s0,44(sp)
    1e10:	1800                	addi	s0,sp,48
    1e12:	fca42e23          	sw	a0,-36(s0)
D:/Desktop/智能车基地/CH32V103_SmartCar_V1.0/4.Demo/Libraries/Device/CH32V10x_p/CH32V10x_Lib/ch32v10x_exti.c:132
  ITStatus bitstatus = RESET;
    1e16:	fe042623          	sw	zero,-20(s0)
D:/Desktop/智能车基地/CH32V103_SmartCar_V1.0/4.Demo/Libraries/Device/CH32V10x_p/CH32V10x_Lib/ch32v10x_exti.c:133
  uint32_t enablestatus = 0;
    1e1a:	fe042423          	sw	zero,-24(s0)
D:/Desktop/智能车基地/CH32V103_SmartCar_V1.0/4.Demo/Libraries/Device/CH32V10x_p/CH32V10x_Lib/ch32v10x_exti.c:135
  
  enablestatus =  EXTI->INTENR & EXTI_Line;
    1e1e:	400107b7          	lui	a5,0x40010
    1e22:	40078793          	addi	a5,a5,1024 # 40010400 <_eusrstack+0x2000b400>
    1e26:	439c                	lw	a5,0(a5)
    1e28:	fdc42703          	lw	a4,-36(s0)
    1e2c:	8ff9                	and	a5,a5,a4
    1e2e:	fef42423          	sw	a5,-24(s0)
D:/Desktop/智能车基地/CH32V103_SmartCar_V1.0/4.Demo/Libraries/Device/CH32V10x_p/CH32V10x_Lib/ch32v10x_exti.c:136
  if (((EXTI->INTFR & EXTI_Line) != (uint32_t)RESET) && (enablestatus != (uint32_t)RESET))
    1e32:	400107b7          	lui	a5,0x40010
    1e36:	40078793          	addi	a5,a5,1024 # 40010400 <_eusrstack+0x2000b400>
    1e3a:	4bd8                	lw	a4,20(a5)
    1e3c:	fdc42783          	lw	a5,-36(s0)
    1e40:	8ff9                	and	a5,a5,a4
    1e42:	cb81                	beqz	a5,1e52 <EXTI_GetITStatus+0x46>
D:/Desktop/智能车基地/CH32V103_SmartCar_V1.0/4.Demo/Libraries/Device/CH32V10x_p/CH32V10x_Lib/ch32v10x_exti.c:136 (discriminator 1)
    1e44:	fe842783          	lw	a5,-24(s0)
    1e48:	c789                	beqz	a5,1e52 <EXTI_GetITStatus+0x46>
D:/Desktop/智能车基地/CH32V103_SmartCar_V1.0/4.Demo/Libraries/Device/CH32V10x_p/CH32V10x_Lib/ch32v10x_exti.c:138
  {
    bitstatus = SET;
    1e4a:	4785                	li	a5,1
    1e4c:	fef42623          	sw	a5,-20(s0)
    1e50:	a019                	j	1e56 <EXTI_GetITStatus+0x4a>
D:/Desktop/智能车基地/CH32V103_SmartCar_V1.0/4.Demo/Libraries/Device/CH32V10x_p/CH32V10x_Lib/ch32v10x_exti.c:142
  }
  else
  {
    bitstatus = RESET;
    1e52:	fe042623          	sw	zero,-20(s0)
D:/Desktop/智能车基地/CH32V103_SmartCar_V1.0/4.Demo/Libraries/Device/CH32V10x_p/CH32V10x_Lib/ch32v10x_exti.c:144
  }
  return bitstatus;
    1e56:	fec42783          	lw	a5,-20(s0)
D:/Desktop/智能车基地/CH32V103_SmartCar_V1.0/4.Demo/Libraries/Device/CH32V10x_p/CH32V10x_Lib/ch32v10x_exti.c:145
}
    1e5a:	853e                	mv	a0,a5
    1e5c:	5432                	lw	s0,44(sp)
    1e5e:	6145                	addi	sp,sp,48
    1e60:	8082                	ret

00001e62 <EXTI_ClearITPendingBit>:
EXTI_ClearITPendingBit():
D:/Desktop/智能车基地/CH32V103_SmartCar_V1.0/4.Demo/Libraries/Device/CH32V10x_p/CH32V10x_Lib/ch32v10x_exti.c:154
* Description    : Clears the EXTI's line pending bits.
* Input          : EXTI_Line: specifies the EXTI lines to be enabled or disabled.
* Return         : None
*********************************************************************************/
void EXTI_ClearITPendingBit(uint32_t EXTI_Line)
{  
    1e62:	1101                	addi	sp,sp,-32
    1e64:	ce22                	sw	s0,28(sp)
    1e66:	1000                	addi	s0,sp,32
    1e68:	fea42623          	sw	a0,-20(s0)
D:/Desktop/智能车基地/CH32V103_SmartCar_V1.0/4.Demo/Libraries/Device/CH32V10x_p/CH32V10x_Lib/ch32v10x_exti.c:155
  EXTI->INTFR = EXTI_Line;
    1e6c:	400107b7          	lui	a5,0x40010
    1e70:	40078793          	addi	a5,a5,1024 # 40010400 <_eusrstack+0x2000b400>
    1e74:	fec42703          	lw	a4,-20(s0)
    1e78:	cbd8                	sw	a4,20(a5)
D:/Desktop/智能车基地/CH32V103_SmartCar_V1.0/4.Demo/Libraries/Device/CH32V10x_p/CH32V10x_Lib/ch32v10x_exti.c:156
}
    1e7a:	0001                	nop
    1e7c:	4472                	lw	s0,28(sp)
    1e7e:	6105                	addi	sp,sp,32
    1e80:	8082                	ret

00001e82 <GPIO_Init>:
GPIO_Init():
D:/Desktop/智能车基地/CH32V103_SmartCar_V1.0/4.Demo/Libraries/Device/CH32V10x_p/CH32V10x_Lib/ch32v10x_gpio.c:88
* Input          : GPIO_InitStruct: pointer to a GPIO_InitTypeDef structure that
*      contains the configuration information for the specified GPIO peripheral.
* Return         : None
*******************************************************************************/
void GPIO_Init(GPIO_TypeDef* GPIOx, GPIO_InitTypeDef* GPIO_InitStruct)
{
    1e82:	7139                	addi	sp,sp,-64
    1e84:	de22                	sw	s0,60(sp)
    1e86:	0080                	addi	s0,sp,64
    1e88:	fca42623          	sw	a0,-52(s0)
    1e8c:	fcb42423          	sw	a1,-56(s0)
D:/Desktop/智能车基地/CH32V103_SmartCar_V1.0/4.Demo/Libraries/Device/CH32V10x_p/CH32V10x_Lib/ch32v10x_gpio.c:89
  uint32_t currentmode = 0x00, currentpin = 0x00, pinpos = 0x00, pos = 0x00;
    1e90:	fe042623          	sw	zero,-20(s0)
    1e94:	fe042023          	sw	zero,-32(s0)
    1e98:	fe042423          	sw	zero,-24(s0)
    1e9c:	fc042e23          	sw	zero,-36(s0)
D:/Desktop/智能车基地/CH32V103_SmartCar_V1.0/4.Demo/Libraries/Device/CH32V10x_p/CH32V10x_Lib/ch32v10x_gpio.c:90
  uint32_t tmpreg = 0x00, pinmask = 0x00;
    1ea0:	fe042223          	sw	zero,-28(s0)
    1ea4:	fc042c23          	sw	zero,-40(s0)
D:/Desktop/智能车基地/CH32V103_SmartCar_V1.0/4.Demo/Libraries/Device/CH32V10x_p/CH32V10x_Lib/ch32v10x_gpio.c:92

  currentmode = ((uint32_t)GPIO_InitStruct->GPIO_Mode) & ((uint32_t)0x0F);
    1ea8:	fc842783          	lw	a5,-56(s0)
    1eac:	479c                	lw	a5,8(a5)
    1eae:	8bbd                	andi	a5,a5,15
    1eb0:	fef42623          	sw	a5,-20(s0)
D:/Desktop/智能车基地/CH32V103_SmartCar_V1.0/4.Demo/Libraries/Device/CH32V10x_p/CH32V10x_Lib/ch32v10x_gpio.c:94
	
  if ((((uint32_t)GPIO_InitStruct->GPIO_Mode) & ((uint32_t)0x10)) != 0x00)
    1eb4:	fc842783          	lw	a5,-56(s0)
    1eb8:	479c                	lw	a5,8(a5)
    1eba:	8bc1                	andi	a5,a5,16
    1ebc:	cb89                	beqz	a5,1ece <GPIO_Init+0x4c>
D:/Desktop/智能车基地/CH32V103_SmartCar_V1.0/4.Demo/Libraries/Device/CH32V10x_p/CH32V10x_Lib/ch32v10x_gpio.c:96
  { 
    currentmode |= (uint32_t)GPIO_InitStruct->GPIO_Speed;
    1ebe:	fc842783          	lw	a5,-56(s0)
    1ec2:	43dc                	lw	a5,4(a5)
    1ec4:	fec42703          	lw	a4,-20(s0)
    1ec8:	8fd9                	or	a5,a5,a4
    1eca:	fef42623          	sw	a5,-20(s0)
D:/Desktop/智能车基地/CH32V103_SmartCar_V1.0/4.Demo/Libraries/Device/CH32V10x_p/CH32V10x_Lib/ch32v10x_gpio.c:99
  }

  if (((uint32_t)GPIO_InitStruct->GPIO_Pin & ((uint32_t)0x00FF)) != 0x00)
    1ece:	fc842783          	lw	a5,-56(s0)
    1ed2:	0007d783          	lhu	a5,0(a5)
    1ed6:	0ff7f793          	andi	a5,a5,255
    1eda:	cff1                	beqz	a5,1fb6 <GPIO_Init+0x134>
D:/Desktop/智能车基地/CH32V103_SmartCar_V1.0/4.Demo/Libraries/Device/CH32V10x_p/CH32V10x_Lib/ch32v10x_gpio.c:101
  {
    tmpreg = GPIOx->CFGLR;
    1edc:	fcc42783          	lw	a5,-52(s0)
    1ee0:	439c                	lw	a5,0(a5)
    1ee2:	fef42223          	sw	a5,-28(s0)
D:/Desktop/智能车基地/CH32V103_SmartCar_V1.0/4.Demo/Libraries/Device/CH32V10x_p/CH32V10x_Lib/ch32v10x_gpio.c:103
		
    for (pinpos = 0x00; pinpos < 0x08; pinpos++)
    1ee6:	fe042423          	sw	zero,-24(s0)
    1eea:	a865                	j	1fa2 <GPIO_Init+0x120>
D:/Desktop/智能车基地/CH32V103_SmartCar_V1.0/4.Demo/Libraries/Device/CH32V10x_p/CH32V10x_Lib/ch32v10x_gpio.c:105
    {
      pos = ((uint32_t)0x01) << pinpos;
    1eec:	fe842783          	lw	a5,-24(s0)
    1ef0:	4705                	li	a4,1
    1ef2:	00f717b3          	sll	a5,a4,a5
    1ef6:	fcf42e23          	sw	a5,-36(s0)
D:/Desktop/智能车基地/CH32V103_SmartCar_V1.0/4.Demo/Libraries/Device/CH32V10x_p/CH32V10x_Lib/ch32v10x_gpio.c:106
      currentpin = (GPIO_InitStruct->GPIO_Pin) & pos;
    1efa:	fc842783          	lw	a5,-56(s0)
    1efe:	0007d783          	lhu	a5,0(a5)
    1f02:	873e                	mv	a4,a5
    1f04:	fdc42783          	lw	a5,-36(s0)
    1f08:	8ff9                	and	a5,a5,a4
    1f0a:	fef42023          	sw	a5,-32(s0)
D:/Desktop/智能车基地/CH32V103_SmartCar_V1.0/4.Demo/Libraries/Device/CH32V10x_p/CH32V10x_Lib/ch32v10x_gpio.c:108
			
      if (currentpin == pos)
    1f0e:	fe042703          	lw	a4,-32(s0)
    1f12:	fdc42783          	lw	a5,-36(s0)
    1f16:	08f71163          	bne	a4,a5,1f98 <GPIO_Init+0x116>
D:/Desktop/智能车基地/CH32V103_SmartCar_V1.0/4.Demo/Libraries/Device/CH32V10x_p/CH32V10x_Lib/ch32v10x_gpio.c:110
      {
        pos = pinpos << 2;
    1f1a:	fe842783          	lw	a5,-24(s0)
    1f1e:	078a                	slli	a5,a5,0x2
    1f20:	fcf42e23          	sw	a5,-36(s0)
D:/Desktop/智能车基地/CH32V103_SmartCar_V1.0/4.Demo/Libraries/Device/CH32V10x_p/CH32V10x_Lib/ch32v10x_gpio.c:111
        pinmask = ((uint32_t)0x0F) << pos;
    1f24:	fdc42783          	lw	a5,-36(s0)
    1f28:	473d                	li	a4,15
    1f2a:	00f717b3          	sll	a5,a4,a5
    1f2e:	fcf42c23          	sw	a5,-40(s0)
D:/Desktop/智能车基地/CH32V103_SmartCar_V1.0/4.Demo/Libraries/Device/CH32V10x_p/CH32V10x_Lib/ch32v10x_gpio.c:112
        tmpreg &= ~pinmask;
    1f32:	fd842783          	lw	a5,-40(s0)
    1f36:	fff7c793          	not	a5,a5
    1f3a:	fe442703          	lw	a4,-28(s0)
    1f3e:	8ff9                	and	a5,a5,a4
    1f40:	fef42223          	sw	a5,-28(s0)
D:/Desktop/智能车基地/CH32V103_SmartCar_V1.0/4.Demo/Libraries/Device/CH32V10x_p/CH32V10x_Lib/ch32v10x_gpio.c:113
        tmpreg |= (currentmode << pos);
    1f44:	fdc42783          	lw	a5,-36(s0)
    1f48:	fec42703          	lw	a4,-20(s0)
    1f4c:	00f717b3          	sll	a5,a4,a5
    1f50:	fe442703          	lw	a4,-28(s0)
    1f54:	8fd9                	or	a5,a5,a4
    1f56:	fef42223          	sw	a5,-28(s0)
D:/Desktop/智能车基地/CH32V103_SmartCar_V1.0/4.Demo/Libraries/Device/CH32V10x_p/CH32V10x_Lib/ch32v10x_gpio.c:115

        if (GPIO_InitStruct->GPIO_Mode == GPIO_Mode_IPD)
    1f5a:	fc842783          	lw	a5,-56(s0)
    1f5e:	4798                	lw	a4,8(a5)
    1f60:	02800793          	li	a5,40
    1f64:	00f71b63          	bne	a4,a5,1f7a <GPIO_Init+0xf8>
D:/Desktop/智能车基地/CH32V103_SmartCar_V1.0/4.Demo/Libraries/Device/CH32V10x_p/CH32V10x_Lib/ch32v10x_gpio.c:117
        {
          GPIOx->BCR = (((uint32_t)0x01) << pinpos);
    1f68:	fe842783          	lw	a5,-24(s0)
    1f6c:	4705                	li	a4,1
    1f6e:	00f71733          	sll	a4,a4,a5
    1f72:	fcc42783          	lw	a5,-52(s0)
    1f76:	cbd8                	sw	a4,20(a5)
    1f78:	a005                	j	1f98 <GPIO_Init+0x116>
D:/Desktop/智能车基地/CH32V103_SmartCar_V1.0/4.Demo/Libraries/Device/CH32V10x_p/CH32V10x_Lib/ch32v10x_gpio.c:121
        }
        else
        {
          if (GPIO_InitStruct->GPIO_Mode == GPIO_Mode_IPU)
    1f7a:	fc842783          	lw	a5,-56(s0)
    1f7e:	4798                	lw	a4,8(a5)
    1f80:	04800793          	li	a5,72
    1f84:	00f71a63          	bne	a4,a5,1f98 <GPIO_Init+0x116>
D:/Desktop/智能车基地/CH32V103_SmartCar_V1.0/4.Demo/Libraries/Device/CH32V10x_p/CH32V10x_Lib/ch32v10x_gpio.c:123
          {
            GPIOx->BSHR = (((uint32_t)0x01) << pinpos);
    1f88:	fe842783          	lw	a5,-24(s0)
    1f8c:	4705                	li	a4,1
    1f8e:	00f71733          	sll	a4,a4,a5
    1f92:	fcc42783          	lw	a5,-52(s0)
    1f96:	cb98                	sw	a4,16(a5)
D:/Desktop/智能车基地/CH32V103_SmartCar_V1.0/4.Demo/Libraries/Device/CH32V10x_p/CH32V10x_Lib/ch32v10x_gpio.c:103 (discriminator 2)
    for (pinpos = 0x00; pinpos < 0x08; pinpos++)
    1f98:	fe842783          	lw	a5,-24(s0)
    1f9c:	0785                	addi	a5,a5,1
    1f9e:	fef42423          	sw	a5,-24(s0)
D:/Desktop/智能车基地/CH32V103_SmartCar_V1.0/4.Demo/Libraries/Device/CH32V10x_p/CH32V10x_Lib/ch32v10x_gpio.c:103 (discriminator 1)
    1fa2:	fe842703          	lw	a4,-24(s0)
    1fa6:	479d                	li	a5,7
    1fa8:	f4e7f2e3          	bgeu	a5,a4,1eec <GPIO_Init+0x6a>
D:/Desktop/智能车基地/CH32V103_SmartCar_V1.0/4.Demo/Libraries/Device/CH32V10x_p/CH32V10x_Lib/ch32v10x_gpio.c:128
          }
        }
      }
    }
    GPIOx->CFGLR = tmpreg;
    1fac:	fcc42783          	lw	a5,-52(s0)
    1fb0:	fe442703          	lw	a4,-28(s0)
    1fb4:	c398                	sw	a4,0(a5)
D:/Desktop/智能车基地/CH32V103_SmartCar_V1.0/4.Demo/Libraries/Device/CH32V10x_p/CH32V10x_Lib/ch32v10x_gpio.c:131
  }

  if (GPIO_InitStruct->GPIO_Pin > 0x00FF)
    1fb6:	fc842783          	lw	a5,-56(s0)
    1fba:	0007d703          	lhu	a4,0(a5)
    1fbe:	0ff00793          	li	a5,255
    1fc2:	0ee7f163          	bgeu	a5,a4,20a4 <GPIO_Init+0x222>
D:/Desktop/智能车基地/CH32V103_SmartCar_V1.0/4.Demo/Libraries/Device/CH32V10x_p/CH32V10x_Lib/ch32v10x_gpio.c:133
  {
    tmpreg = GPIOx->CFGHR;
    1fc6:	fcc42783          	lw	a5,-52(s0)
    1fca:	43dc                	lw	a5,4(a5)
    1fcc:	fef42223          	sw	a5,-28(s0)
D:/Desktop/智能车基地/CH32V103_SmartCar_V1.0/4.Demo/Libraries/Device/CH32V10x_p/CH32V10x_Lib/ch32v10x_gpio.c:135
		
    for (pinpos = 0x00; pinpos < 0x08; pinpos++)
    1fd0:	fe042423          	sw	zero,-24(s0)
    1fd4:	a875                	j	2090 <GPIO_Init+0x20e>
D:/Desktop/智能车基地/CH32V103_SmartCar_V1.0/4.Demo/Libraries/Device/CH32V10x_p/CH32V10x_Lib/ch32v10x_gpio.c:137
    {
      pos = (((uint32_t)0x01) << (pinpos + 0x08));
    1fd6:	fe842783          	lw	a5,-24(s0)
    1fda:	07a1                	addi	a5,a5,8
    1fdc:	4705                	li	a4,1
    1fde:	00f717b3          	sll	a5,a4,a5
    1fe2:	fcf42e23          	sw	a5,-36(s0)
D:/Desktop/智能车基地/CH32V103_SmartCar_V1.0/4.Demo/Libraries/Device/CH32V10x_p/CH32V10x_Lib/ch32v10x_gpio.c:138
      currentpin = ((GPIO_InitStruct->GPIO_Pin) & pos);
    1fe6:	fc842783          	lw	a5,-56(s0)
    1fea:	0007d783          	lhu	a5,0(a5)
    1fee:	873e                	mv	a4,a5
    1ff0:	fdc42783          	lw	a5,-36(s0)
    1ff4:	8ff9                	and	a5,a5,a4
    1ff6:	fef42023          	sw	a5,-32(s0)
D:/Desktop/智能车基地/CH32V103_SmartCar_V1.0/4.Demo/Libraries/Device/CH32V10x_p/CH32V10x_Lib/ch32v10x_gpio.c:140
			
      if (currentpin == pos)
    1ffa:	fe042703          	lw	a4,-32(s0)
    1ffe:	fdc42783          	lw	a5,-36(s0)
    2002:	08f71263          	bne	a4,a5,2086 <GPIO_Init+0x204>
D:/Desktop/智能车基地/CH32V103_SmartCar_V1.0/4.Demo/Libraries/Device/CH32V10x_p/CH32V10x_Lib/ch32v10x_gpio.c:142
      {
        pos = pinpos << 2;
    2006:	fe842783          	lw	a5,-24(s0)
    200a:	078a                	slli	a5,a5,0x2
    200c:	fcf42e23          	sw	a5,-36(s0)
D:/Desktop/智能车基地/CH32V103_SmartCar_V1.0/4.Demo/Libraries/Device/CH32V10x_p/CH32V10x_Lib/ch32v10x_gpio.c:143
        pinmask = ((uint32_t)0x0F) << pos;
    2010:	fdc42783          	lw	a5,-36(s0)
    2014:	473d                	li	a4,15
    2016:	00f717b3          	sll	a5,a4,a5
    201a:	fcf42c23          	sw	a5,-40(s0)
D:/Desktop/智能车基地/CH32V103_SmartCar_V1.0/4.Demo/Libraries/Device/CH32V10x_p/CH32V10x_Lib/ch32v10x_gpio.c:144
        tmpreg &= ~pinmask;
    201e:	fd842783          	lw	a5,-40(s0)
    2022:	fff7c793          	not	a5,a5
    2026:	fe442703          	lw	a4,-28(s0)
    202a:	8ff9                	and	a5,a5,a4
    202c:	fef42223          	sw	a5,-28(s0)
D:/Desktop/智能车基地/CH32V103_SmartCar_V1.0/4.Demo/Libraries/Device/CH32V10x_p/CH32V10x_Lib/ch32v10x_gpio.c:145
        tmpreg |= (currentmode << pos);
    2030:	fdc42783          	lw	a5,-36(s0)
    2034:	fec42703          	lw	a4,-20(s0)
    2038:	00f717b3          	sll	a5,a4,a5
    203c:	fe442703          	lw	a4,-28(s0)
    2040:	8fd9                	or	a5,a5,a4
    2042:	fef42223          	sw	a5,-28(s0)
D:/Desktop/智能车基地/CH32V103_SmartCar_V1.0/4.Demo/Libraries/Device/CH32V10x_p/CH32V10x_Lib/ch32v10x_gpio.c:147

        if (GPIO_InitStruct->GPIO_Mode == GPIO_Mode_IPD)
    2046:	fc842783          	lw	a5,-56(s0)
    204a:	4798                	lw	a4,8(a5)
    204c:	02800793          	li	a5,40
    2050:	00f71b63          	bne	a4,a5,2066 <GPIO_Init+0x1e4>
D:/Desktop/智能车基地/CH32V103_SmartCar_V1.0/4.Demo/Libraries/Device/CH32V10x_p/CH32V10x_Lib/ch32v10x_gpio.c:149
        {
          GPIOx->BCR = (((uint32_t)0x01) << (pinpos + 0x08));
    2054:	fe842783          	lw	a5,-24(s0)
    2058:	07a1                	addi	a5,a5,8
    205a:	4705                	li	a4,1
    205c:	00f71733          	sll	a4,a4,a5
    2060:	fcc42783          	lw	a5,-52(s0)
    2064:	cbd8                	sw	a4,20(a5)
D:/Desktop/智能车基地/CH32V103_SmartCar_V1.0/4.Demo/Libraries/Device/CH32V10x_p/CH32V10x_Lib/ch32v10x_gpio.c:152
        }

        if (GPIO_InitStruct->GPIO_Mode == GPIO_Mode_IPU)
    2066:	fc842783          	lw	a5,-56(s0)
    206a:	4798                	lw	a4,8(a5)
    206c:	04800793          	li	a5,72
    2070:	00f71b63          	bne	a4,a5,2086 <GPIO_Init+0x204>
D:/Desktop/智能车基地/CH32V103_SmartCar_V1.0/4.Demo/Libraries/Device/CH32V10x_p/CH32V10x_Lib/ch32v10x_gpio.c:154
        {
          GPIOx->BSHR = (((uint32_t)0x01) << (pinpos + 0x08));
    2074:	fe842783          	lw	a5,-24(s0)
    2078:	07a1                	addi	a5,a5,8
    207a:	4705                	li	a4,1
    207c:	00f71733          	sll	a4,a4,a5
    2080:	fcc42783          	lw	a5,-52(s0)
    2084:	cb98                	sw	a4,16(a5)
D:/Desktop/智能车基地/CH32V103_SmartCar_V1.0/4.Demo/Libraries/Device/CH32V10x_p/CH32V10x_Lib/ch32v10x_gpio.c:135 (discriminator 2)
    for (pinpos = 0x00; pinpos < 0x08; pinpos++)
    2086:	fe842783          	lw	a5,-24(s0)
    208a:	0785                	addi	a5,a5,1
    208c:	fef42423          	sw	a5,-24(s0)
D:/Desktop/智能车基地/CH32V103_SmartCar_V1.0/4.Demo/Libraries/Device/CH32V10x_p/CH32V10x_Lib/ch32v10x_gpio.c:135 (discriminator 1)
    2090:	fe842703          	lw	a4,-24(s0)
    2094:	479d                	li	a5,7
    2096:	f4e7f0e3          	bgeu	a5,a4,1fd6 <GPIO_Init+0x154>
D:/Desktop/智能车基地/CH32V103_SmartCar_V1.0/4.Demo/Libraries/Device/CH32V10x_p/CH32V10x_Lib/ch32v10x_gpio.c:158
        }
      }
    }
    GPIOx->CFGHR = tmpreg;
    209a:	fcc42783          	lw	a5,-52(s0)
    209e:	fe442703          	lw	a4,-28(s0)
    20a2:	c3d8                	sw	a4,4(a5)
D:/Desktop/智能车基地/CH32V103_SmartCar_V1.0/4.Demo/Libraries/Device/CH32V10x_p/CH32V10x_Lib/ch32v10x_gpio.c:160
  }
}
    20a4:	0001                	nop
    20a6:	5472                	lw	s0,60(sp)
    20a8:	6121                	addi	sp,sp,64
    20aa:	8082                	ret

000020ac <GPIO_WriteBit>:
GPIO_WriteBit():
D:/Desktop/智能车基地/CH32V103_SmartCar_V1.0/4.Demo/Libraries/Device/CH32V10x_p/CH32V10x_Lib/ch32v10x_gpio.c:282
*                    Bit_SetL: to clear the port pin.
*                    Bit_SetH: to set the port pin.                  
* Return         : None
*******************************************************************************/
void GPIO_WriteBit(GPIO_TypeDef* GPIOx, uint16_t GPIO_Pin, BitAction BitVal)
{
    20ac:	1101                	addi	sp,sp,-32
    20ae:	ce22                	sw	s0,28(sp)
    20b0:	1000                	addi	s0,sp,32
    20b2:	fea42623          	sw	a0,-20(s0)
    20b6:	87ae                	mv	a5,a1
    20b8:	fec42223          	sw	a2,-28(s0)
    20bc:	fef41523          	sh	a5,-22(s0)
D:/Desktop/智能车基地/CH32V103_SmartCar_V1.0/4.Demo/Libraries/Device/CH32V10x_p/CH32V10x_Lib/ch32v10x_gpio.c:283
  if (BitVal != Bit_RESET)
    20c0:	fe442783          	lw	a5,-28(s0)
    20c4:	c799                	beqz	a5,20d2 <GPIO_WriteBit+0x26>
D:/Desktop/智能车基地/CH32V103_SmartCar_V1.0/4.Demo/Libraries/Device/CH32V10x_p/CH32V10x_Lib/ch32v10x_gpio.c:285
  {
    GPIOx->BSHR = GPIO_Pin;
    20c6:	fea45703          	lhu	a4,-22(s0)
    20ca:	fec42783          	lw	a5,-20(s0)
    20ce:	cb98                	sw	a4,16(a5)
D:/Desktop/智能车基地/CH32V103_SmartCar_V1.0/4.Demo/Libraries/Device/CH32V10x_p/CH32V10x_Lib/ch32v10x_gpio.c:291
  }
  else
  {
    GPIOx->BCR = GPIO_Pin;
  }
}
    20d0:	a031                	j	20dc <GPIO_WriteBit+0x30>
D:/Desktop/智能车基地/CH32V103_SmartCar_V1.0/4.Demo/Libraries/Device/CH32V10x_p/CH32V10x_Lib/ch32v10x_gpio.c:289
    GPIOx->BCR = GPIO_Pin;
    20d2:	fea45703          	lhu	a4,-22(s0)
    20d6:	fec42783          	lw	a5,-20(s0)
    20da:	cbd8                	sw	a4,20(a5)
D:/Desktop/智能车基地/CH32V103_SmartCar_V1.0/4.Demo/Libraries/Device/CH32V10x_p/CH32V10x_Lib/ch32v10x_gpio.c:291
}
    20dc:	0001                	nop
    20de:	4472                	lw	s0,28(sp)
    20e0:	6105                	addi	sp,sp,32
    20e2:	8082                	ret

000020e4 <RCC_ADCCLKConfig>:
RCC_ADCCLKConfig():
D:/Desktop/智能车基地/CH32V103_SmartCar_V1.0/4.Demo/Libraries/Device/CH32V10x_p/CH32V10x_Lib/ch32v10x_rcc.c:373
*                    RCC_PCLK2_Div6: ADC clock = PCLK2/6.
*                    RCC_PCLK2_Div8: ADC clock = PCLK2/8.
* Return         : None
********************************************************************************/
void RCC_ADCCLKConfig(uint32_t RCC_PCLK2)
{
    20e4:	7179                	addi	sp,sp,-48
    20e6:	d622                	sw	s0,44(sp)
    20e8:	1800                	addi	s0,sp,48
    20ea:	fca42e23          	sw	a0,-36(s0)
D:/Desktop/智能车基地/CH32V103_SmartCar_V1.0/4.Demo/Libraries/Device/CH32V10x_p/CH32V10x_Lib/ch32v10x_rcc.c:374
  uint32_t tmpreg = 0;
    20ee:	fe042623          	sw	zero,-20(s0)
D:/Desktop/智能车基地/CH32V103_SmartCar_V1.0/4.Demo/Libraries/Device/CH32V10x_p/CH32V10x_Lib/ch32v10x_rcc.c:376

  tmpreg = RCC->CFGR0;
    20f2:	400217b7          	lui	a5,0x40021
    20f6:	43dc                	lw	a5,4(a5)
    20f8:	fef42623          	sw	a5,-20(s0)
D:/Desktop/智能车基地/CH32V103_SmartCar_V1.0/4.Demo/Libraries/Device/CH32V10x_p/CH32V10x_Lib/ch32v10x_rcc.c:377
  tmpreg &= CFGR0_ADCPRE_Reset_Mask;
    20fc:	fec42703          	lw	a4,-20(s0)
    2100:	77d1                	lui	a5,0xffff4
    2102:	17fd                	addi	a5,a5,-1
    2104:	8ff9                	and	a5,a5,a4
    2106:	fef42623          	sw	a5,-20(s0)
D:/Desktop/智能车基地/CH32V103_SmartCar_V1.0/4.Demo/Libraries/Device/CH32V10x_p/CH32V10x_Lib/ch32v10x_rcc.c:378
  tmpreg |= RCC_PCLK2;
    210a:	fec42703          	lw	a4,-20(s0)
    210e:	fdc42783          	lw	a5,-36(s0)
    2112:	8fd9                	or	a5,a5,a4
    2114:	fef42623          	sw	a5,-20(s0)
D:/Desktop/智能车基地/CH32V103_SmartCar_V1.0/4.Demo/Libraries/Device/CH32V10x_p/CH32V10x_Lib/ch32v10x_rcc.c:379
  RCC->CFGR0 = tmpreg;
    2118:	400217b7          	lui	a5,0x40021
    211c:	fec42703          	lw	a4,-20(s0)
    2120:	c3d8                	sw	a4,4(a5)
D:/Desktop/智能车基地/CH32V103_SmartCar_V1.0/4.Demo/Libraries/Device/CH32V10x_p/CH32V10x_Lib/ch32v10x_rcc.c:380
}
    2122:	0001                	nop
    2124:	5432                	lw	s0,44(sp)
    2126:	6145                	addi	sp,sp,48
    2128:	8082                	ret

0000212a <RCC_GetClocksFreq>:
RCC_GetClocksFreq():
D:/Desktop/智能车基地/CH32V103_SmartCar_V1.0/4.Demo/Libraries/Device/CH32V10x_p/CH32V10x_Lib/ch32v10x_rcc.c:469
* Input          : The result of this function could be not correct when using
*      fractional value for HSE crystal.
* Return         : None
********************************************************************************/
void RCC_GetClocksFreq(RCC_ClocksTypeDef* RCC_Clocks)
{
    212a:	7179                	addi	sp,sp,-48
    212c:	d622                	sw	s0,44(sp)
    212e:	1800                	addi	s0,sp,48
    2130:	fca42e23          	sw	a0,-36(s0)
D:/Desktop/智能车基地/CH32V103_SmartCar_V1.0/4.Demo/Libraries/Device/CH32V10x_p/CH32V10x_Lib/ch32v10x_rcc.c:470
  uint32_t tmp = 0, pllmull = 0, pllsource = 0, presc = 0;
    2134:	fe042623          	sw	zero,-20(s0)
    2138:	fe042423          	sw	zero,-24(s0)
    213c:	fe042223          	sw	zero,-28(s0)
    2140:	fe042023          	sw	zero,-32(s0)
D:/Desktop/智能车基地/CH32V103_SmartCar_V1.0/4.Demo/Libraries/Device/CH32V10x_p/CH32V10x_Lib/ch32v10x_rcc.c:472
  
  tmp = RCC->CFGR0 & CFGR0_SWS_Mask;
    2144:	400217b7          	lui	a5,0x40021
    2148:	43dc                	lw	a5,4(a5)
    214a:	8bb1                	andi	a5,a5,12
    214c:	fef42623          	sw	a5,-20(s0)
    2150:	fec42703          	lw	a4,-20(s0)
    2154:	4791                	li	a5,4
    2156:	02f70263          	beq	a4,a5,217a <RCC_GetClocksFreq+0x50>
    215a:	fec42703          	lw	a4,-20(s0)
    215e:	47a1                	li	a5,8
    2160:	02f70563          	beq	a4,a5,218a <RCC_GetClocksFreq+0x60>
    2164:	fec42783          	lw	a5,-20(s0)
    2168:	e7c5                	bnez	a5,2210 <RCC_GetClocksFreq+0xe6>
D:/Desktop/智能车基地/CH32V103_SmartCar_V1.0/4.Demo/Libraries/Device/CH32V10x_p/CH32V10x_Lib/ch32v10x_rcc.c:477
  
  switch (tmp)
  {
    case 0x00: 
      RCC_Clocks->SYSCLK_Frequency = HSI_VALUE;
    216a:	fdc42783          	lw	a5,-36(s0)
    216e:	007a1737          	lui	a4,0x7a1
    2172:	20070713          	addi	a4,a4,512 # 7a1200 <_data_lma+0x79df18>
    2176:	c398                	sw	a4,0(a5)
D:/Desktop/智能车基地/CH32V103_SmartCar_V1.0/4.Demo/Libraries/Device/CH32V10x_p/CH32V10x_Lib/ch32v10x_rcc.c:478
      break;
    2178:	a065                	j	2220 <RCC_GetClocksFreq+0xf6>
D:/Desktop/智能车基地/CH32V103_SmartCar_V1.0/4.Demo/Libraries/Device/CH32V10x_p/CH32V10x_Lib/ch32v10x_rcc.c:481
		
    case 0x04:
      RCC_Clocks->SYSCLK_Frequency = HSE_VALUE;
    217a:	fdc42783          	lw	a5,-36(s0)
    217e:	007a1737          	lui	a4,0x7a1
    2182:	20070713          	addi	a4,a4,512 # 7a1200 <_data_lma+0x79df18>
    2186:	c398                	sw	a4,0(a5)
D:/Desktop/智能车基地/CH32V103_SmartCar_V1.0/4.Demo/Libraries/Device/CH32V10x_p/CH32V10x_Lib/ch32v10x_rcc.c:482
      break;
    2188:	a861                	j	2220 <RCC_GetClocksFreq+0xf6>
D:/Desktop/智能车基地/CH32V103_SmartCar_V1.0/4.Demo/Libraries/Device/CH32V10x_p/CH32V10x_Lib/ch32v10x_rcc.c:485
		
    case 0x08:
      pllmull = RCC->CFGR0 & CFGR0_PLLMull_Mask;
    218a:	400217b7          	lui	a5,0x40021
    218e:	43d8                	lw	a4,4(a5)
    2190:	003c07b7          	lui	a5,0x3c0
    2194:	8ff9                	and	a5,a5,a4
    2196:	fef42423          	sw	a5,-24(s0)
D:/Desktop/智能车基地/CH32V103_SmartCar_V1.0/4.Demo/Libraries/Device/CH32V10x_p/CH32V10x_Lib/ch32v10x_rcc.c:486
      pllsource = RCC->CFGR0 & CFGR0_PLLSRC_Mask;    
    219a:	400217b7          	lui	a5,0x40021
    219e:	43d8                	lw	a4,4(a5)
    21a0:	67c1                	lui	a5,0x10
    21a2:	8ff9                	and	a5,a5,a4
    21a4:	fef42223          	sw	a5,-28(s0)
D:/Desktop/智能车基地/CH32V103_SmartCar_V1.0/4.Demo/Libraries/Device/CH32V10x_p/CH32V10x_Lib/ch32v10x_rcc.c:487
      pllmull = ( pllmull >> 18) + 2;
    21a8:	fe842783          	lw	a5,-24(s0)
    21ac:	83c9                	srli	a5,a5,0x12
    21ae:	0789                	addi	a5,a5,2
    21b0:	fef42423          	sw	a5,-24(s0)
D:/Desktop/智能车基地/CH32V103_SmartCar_V1.0/4.Demo/Libraries/Device/CH32V10x_p/CH32V10x_Lib/ch32v10x_rcc.c:489
      
      if (pllsource == 0x00)
    21b4:	fe442783          	lw	a5,-28(s0)
    21b8:	ef89                	bnez	a5,21d2 <RCC_GetClocksFreq+0xa8>
D:/Desktop/智能车基地/CH32V103_SmartCar_V1.0/4.Demo/Libraries/Device/CH32V10x_p/CH32V10x_Lib/ch32v10x_rcc.c:491
      {
        RCC_Clocks->SYSCLK_Frequency = (HSI_VALUE >> 1) * pllmull;
    21ba:	fe842703          	lw	a4,-24(s0)
    21be:	003d17b7          	lui	a5,0x3d1
    21c2:	90078793          	addi	a5,a5,-1792 # 3d0900 <_data_lma+0x3cd618>
    21c6:	02f70733          	mul	a4,a4,a5
    21ca:	fdc42783          	lw	a5,-36(s0)
    21ce:	c398                	sw	a4,0(a5)
D:/Desktop/智能车基地/CH32V103_SmartCar_V1.0/4.Demo/Libraries/Device/CH32V10x_p/CH32V10x_Lib/ch32v10x_rcc.c:504
        else
        {
          RCC_Clocks->SYSCLK_Frequency = HSE_VALUE * pllmull;
        }
      } 
      break;
    21d0:	a881                	j	2220 <RCC_GetClocksFreq+0xf6>
D:/Desktop/智能车基地/CH32V103_SmartCar_V1.0/4.Demo/Libraries/Device/CH32V10x_p/CH32V10x_Lib/ch32v10x_rcc.c:495
        if ((RCC->CFGR0 & CFGR0_PLLXTPRE_Mask) != (uint32_t)RESET)
    21d2:	400217b7          	lui	a5,0x40021
    21d6:	43d8                	lw	a4,4(a5)
    21d8:	000207b7          	lui	a5,0x20
    21dc:	8ff9                	and	a5,a5,a4
    21de:	cf89                	beqz	a5,21f8 <RCC_GetClocksFreq+0xce>
D:/Desktop/智能车基地/CH32V103_SmartCar_V1.0/4.Demo/Libraries/Device/CH32V10x_p/CH32V10x_Lib/ch32v10x_rcc.c:497
          RCC_Clocks->SYSCLK_Frequency = (HSE_VALUE >> 1) * pllmull;
    21e0:	fe842703          	lw	a4,-24(s0)
    21e4:	003d17b7          	lui	a5,0x3d1
    21e8:	90078793          	addi	a5,a5,-1792 # 3d0900 <_data_lma+0x3cd618>
    21ec:	02f70733          	mul	a4,a4,a5
    21f0:	fdc42783          	lw	a5,-36(s0)
    21f4:	c398                	sw	a4,0(a5)
D:/Desktop/智能车基地/CH32V103_SmartCar_V1.0/4.Demo/Libraries/Device/CH32V10x_p/CH32V10x_Lib/ch32v10x_rcc.c:504
      break;
    21f6:	a02d                	j	2220 <RCC_GetClocksFreq+0xf6>
D:/Desktop/智能车基地/CH32V103_SmartCar_V1.0/4.Demo/Libraries/Device/CH32V10x_p/CH32V10x_Lib/ch32v10x_rcc.c:501
          RCC_Clocks->SYSCLK_Frequency = HSE_VALUE * pllmull;
    21f8:	fe842703          	lw	a4,-24(s0)
    21fc:	007a17b7          	lui	a5,0x7a1
    2200:	20078793          	addi	a5,a5,512 # 7a1200 <_data_lma+0x79df18>
    2204:	02f70733          	mul	a4,a4,a5
    2208:	fdc42783          	lw	a5,-36(s0)
    220c:	c398                	sw	a4,0(a5)
D:/Desktop/智能车基地/CH32V103_SmartCar_V1.0/4.Demo/Libraries/Device/CH32V10x_p/CH32V10x_Lib/ch32v10x_rcc.c:504
      break;
    220e:	a809                	j	2220 <RCC_GetClocksFreq+0xf6>
D:/Desktop/智能车基地/CH32V103_SmartCar_V1.0/4.Demo/Libraries/Device/CH32V10x_p/CH32V10x_Lib/ch32v10x_rcc.c:507

    default:
      RCC_Clocks->SYSCLK_Frequency = HSI_VALUE;
    2210:	fdc42783          	lw	a5,-36(s0)
    2214:	007a1737          	lui	a4,0x7a1
    2218:	20070713          	addi	a4,a4,512 # 7a1200 <_data_lma+0x79df18>
    221c:	c398                	sw	a4,0(a5)
D:/Desktop/智能车基地/CH32V103_SmartCar_V1.0/4.Demo/Libraries/Device/CH32V10x_p/CH32V10x_Lib/ch32v10x_rcc.c:508
      break;
    221e:	0001                	nop
D:/Desktop/智能车基地/CH32V103_SmartCar_V1.0/4.Demo/Libraries/Device/CH32V10x_p/CH32V10x_Lib/ch32v10x_rcc.c:511
  }

  tmp = RCC->CFGR0 & CFGR0_HPRE_Set_Mask;
    2220:	400217b7          	lui	a5,0x40021
    2224:	43dc                	lw	a5,4(a5)
    2226:	0f07f793          	andi	a5,a5,240
    222a:	fef42623          	sw	a5,-20(s0)
D:/Desktop/智能车基地/CH32V103_SmartCar_V1.0/4.Demo/Libraries/Device/CH32V10x_p/CH32V10x_Lib/ch32v10x_rcc.c:512
  tmp = tmp >> 4;
    222e:	fec42783          	lw	a5,-20(s0)
    2232:	8391                	srli	a5,a5,0x4
    2234:	fef42623          	sw	a5,-20(s0)
D:/Desktop/智能车基地/CH32V103_SmartCar_V1.0/4.Demo/Libraries/Device/CH32V10x_p/CH32V10x_Lib/ch32v10x_rcc.c:513
  presc = APBAHBPrescTable[tmp];
    2238:	200007b7          	lui	a5,0x20000
    223c:	00078713          	mv	a4,a5
    2240:	fec42783          	lw	a5,-20(s0)
    2244:	97ba                	add	a5,a5,a4
    2246:	0007c783          	lbu	a5,0(a5) # 20000000 <_data_vma>
    224a:	0ff7f793          	andi	a5,a5,255
    224e:	fef42023          	sw	a5,-32(s0)
D:/Desktop/智能车基地/CH32V103_SmartCar_V1.0/4.Demo/Libraries/Device/CH32V10x_p/CH32V10x_Lib/ch32v10x_rcc.c:514
  RCC_Clocks->HCLK_Frequency = RCC_Clocks->SYSCLK_Frequency >> presc;
    2252:	fdc42783          	lw	a5,-36(s0)
    2256:	4398                	lw	a4,0(a5)
    2258:	fe042783          	lw	a5,-32(s0)
    225c:	00f75733          	srl	a4,a4,a5
    2260:	fdc42783          	lw	a5,-36(s0)
    2264:	c3d8                	sw	a4,4(a5)
D:/Desktop/智能车基地/CH32V103_SmartCar_V1.0/4.Demo/Libraries/Device/CH32V10x_p/CH32V10x_Lib/ch32v10x_rcc.c:515
  tmp = RCC->CFGR0 & CFGR0_PPRE1_Set_Mask;
    2266:	400217b7          	lui	a5,0x40021
    226a:	43dc                	lw	a5,4(a5)
    226c:	7007f793          	andi	a5,a5,1792
    2270:	fef42623          	sw	a5,-20(s0)
D:/Desktop/智能车基地/CH32V103_SmartCar_V1.0/4.Demo/Libraries/Device/CH32V10x_p/CH32V10x_Lib/ch32v10x_rcc.c:516
  tmp = tmp >> 8;
    2274:	fec42783          	lw	a5,-20(s0)
    2278:	83a1                	srli	a5,a5,0x8
    227a:	fef42623          	sw	a5,-20(s0)
D:/Desktop/智能车基地/CH32V103_SmartCar_V1.0/4.Demo/Libraries/Device/CH32V10x_p/CH32V10x_Lib/ch32v10x_rcc.c:517
  presc = APBAHBPrescTable[tmp];
    227e:	200007b7          	lui	a5,0x20000
    2282:	00078713          	mv	a4,a5
    2286:	fec42783          	lw	a5,-20(s0)
    228a:	97ba                	add	a5,a5,a4
    228c:	0007c783          	lbu	a5,0(a5) # 20000000 <_data_vma>
    2290:	0ff7f793          	andi	a5,a5,255
    2294:	fef42023          	sw	a5,-32(s0)
D:/Desktop/智能车基地/CH32V103_SmartCar_V1.0/4.Demo/Libraries/Device/CH32V10x_p/CH32V10x_Lib/ch32v10x_rcc.c:518
  RCC_Clocks->PCLK1_Frequency = RCC_Clocks->HCLK_Frequency >> presc;
    2298:	fdc42783          	lw	a5,-36(s0)
    229c:	43d8                	lw	a4,4(a5)
    229e:	fe042783          	lw	a5,-32(s0)
    22a2:	00f75733          	srl	a4,a4,a5
    22a6:	fdc42783          	lw	a5,-36(s0)
    22aa:	c798                	sw	a4,8(a5)
D:/Desktop/智能车基地/CH32V103_SmartCar_V1.0/4.Demo/Libraries/Device/CH32V10x_p/CH32V10x_Lib/ch32v10x_rcc.c:519
  tmp = RCC->CFGR0 & CFGR0_PPRE2_Set_Mask;
    22ac:	400217b7          	lui	a5,0x40021
    22b0:	43d8                	lw	a4,4(a5)
    22b2:	6791                	lui	a5,0x4
    22b4:	80078793          	addi	a5,a5,-2048 # 3800 <_data_lma+0x518>
    22b8:	8ff9                	and	a5,a5,a4
    22ba:	fef42623          	sw	a5,-20(s0)
D:/Desktop/智能车基地/CH32V103_SmartCar_V1.0/4.Demo/Libraries/Device/CH32V10x_p/CH32V10x_Lib/ch32v10x_rcc.c:520
  tmp = tmp >> 11;
    22be:	fec42783          	lw	a5,-20(s0)
    22c2:	83ad                	srli	a5,a5,0xb
    22c4:	fef42623          	sw	a5,-20(s0)
D:/Desktop/智能车基地/CH32V103_SmartCar_V1.0/4.Demo/Libraries/Device/CH32V10x_p/CH32V10x_Lib/ch32v10x_rcc.c:521
  presc = APBAHBPrescTable[tmp];
    22c8:	200007b7          	lui	a5,0x20000
    22cc:	00078713          	mv	a4,a5
    22d0:	fec42783          	lw	a5,-20(s0)
    22d4:	97ba                	add	a5,a5,a4
    22d6:	0007c783          	lbu	a5,0(a5) # 20000000 <_data_vma>
    22da:	0ff7f793          	andi	a5,a5,255
    22de:	fef42023          	sw	a5,-32(s0)
D:/Desktop/智能车基地/CH32V103_SmartCar_V1.0/4.Demo/Libraries/Device/CH32V10x_p/CH32V10x_Lib/ch32v10x_rcc.c:522
  RCC_Clocks->PCLK2_Frequency = RCC_Clocks->HCLK_Frequency >> presc;
    22e2:	fdc42783          	lw	a5,-36(s0)
    22e6:	43d8                	lw	a4,4(a5)
    22e8:	fe042783          	lw	a5,-32(s0)
    22ec:	00f75733          	srl	a4,a4,a5
    22f0:	fdc42783          	lw	a5,-36(s0)
    22f4:	c7d8                	sw	a4,12(a5)
D:/Desktop/智能车基地/CH32V103_SmartCar_V1.0/4.Demo/Libraries/Device/CH32V10x_p/CH32V10x_Lib/ch32v10x_rcc.c:523
  tmp = RCC->CFGR0 & CFGR0_ADCPRE_Set_Mask;
    22f6:	400217b7          	lui	a5,0x40021
    22fa:	43d8                	lw	a4,4(a5)
    22fc:	67b1                	lui	a5,0xc
    22fe:	8ff9                	and	a5,a5,a4
    2300:	fef42623          	sw	a5,-20(s0)
D:/Desktop/智能车基地/CH32V103_SmartCar_V1.0/4.Demo/Libraries/Device/CH32V10x_p/CH32V10x_Lib/ch32v10x_rcc.c:524
  tmp = tmp >> 14;
    2304:	fec42783          	lw	a5,-20(s0)
    2308:	83b9                	srli	a5,a5,0xe
    230a:	fef42623          	sw	a5,-20(s0)
D:/Desktop/智能车基地/CH32V103_SmartCar_V1.0/4.Demo/Libraries/Device/CH32V10x_p/CH32V10x_Lib/ch32v10x_rcc.c:525
  presc = ADCPrescTable[tmp];
    230e:	200007b7          	lui	a5,0x20000
    2312:	01078713          	addi	a4,a5,16 # 20000010 <ADCPrescTable>
    2316:	fec42783          	lw	a5,-20(s0)
    231a:	97ba                	add	a5,a5,a4
    231c:	0007c783          	lbu	a5,0(a5)
    2320:	0ff7f793          	andi	a5,a5,255
    2324:	fef42023          	sw	a5,-32(s0)
D:/Desktop/智能车基地/CH32V103_SmartCar_V1.0/4.Demo/Libraries/Device/CH32V10x_p/CH32V10x_Lib/ch32v10x_rcc.c:526
  RCC_Clocks->ADCCLK_Frequency = RCC_Clocks->PCLK2_Frequency / presc;
    2328:	fdc42783          	lw	a5,-36(s0)
    232c:	47d8                	lw	a4,12(a5)
    232e:	fe042783          	lw	a5,-32(s0)
    2332:	02f75733          	divu	a4,a4,a5
    2336:	fdc42783          	lw	a5,-36(s0)
    233a:	cb98                	sw	a4,16(a5)
D:/Desktop/智能车基地/CH32V103_SmartCar_V1.0/4.Demo/Libraries/Device/CH32V10x_p/CH32V10x_Lib/ch32v10x_rcc.c:527
}
    233c:	0001                	nop
    233e:	5432                	lw	s0,44(sp)
    2340:	6145                	addi	sp,sp,48
    2342:	8082                	ret

00002344 <RCC_APB2PeriphClockCmd>:
RCC_APB2PeriphClockCmd():
D:/Desktop/智能车基地/CH32V103_SmartCar_V1.0/4.Demo/Libraries/Device/CH32V10x_p/CH32V10x_Lib/ch32v10x_rcc.c:570
*                    RCC_APB2Periph_USART1.
*                  NewState: ENABLE or DISABLE
* Return         : None
*******************************************************************************/	
void RCC_APB2PeriphClockCmd(uint32_t RCC_APB2Periph, FunctionalState NewState)
{
    2344:	1101                	addi	sp,sp,-32
    2346:	ce22                	sw	s0,28(sp)
    2348:	1000                	addi	s0,sp,32
    234a:	fea42623          	sw	a0,-20(s0)
    234e:	feb42423          	sw	a1,-24(s0)
D:/Desktop/智能车基地/CH32V103_SmartCar_V1.0/4.Demo/Libraries/Device/CH32V10x_p/CH32V10x_Lib/ch32v10x_rcc.c:571
  if (NewState != DISABLE)
    2352:	fe842783          	lw	a5,-24(s0)
    2356:	cb99                	beqz	a5,236c <RCC_APB2PeriphClockCmd+0x28>
D:/Desktop/智能车基地/CH32V103_SmartCar_V1.0/4.Demo/Libraries/Device/CH32V10x_p/CH32V10x_Lib/ch32v10x_rcc.c:573
  {
    RCC->APB2PCENR |= RCC_APB2Periph;
    2358:	400217b7          	lui	a5,0x40021
    235c:	4f94                	lw	a3,24(a5)
    235e:	400217b7          	lui	a5,0x40021
    2362:	fec42703          	lw	a4,-20(s0)
    2366:	8f55                	or	a4,a4,a3
    2368:	cf98                	sw	a4,24(a5)
D:/Desktop/智能车基地/CH32V103_SmartCar_V1.0/4.Demo/Libraries/Device/CH32V10x_p/CH32V10x_Lib/ch32v10x_rcc.c:579
  }
  else
  {
    RCC->APB2PCENR &= ~RCC_APB2Periph;
  }
}
    236a:	a821                	j	2382 <RCC_APB2PeriphClockCmd+0x3e>
D:/Desktop/智能车基地/CH32V103_SmartCar_V1.0/4.Demo/Libraries/Device/CH32V10x_p/CH32V10x_Lib/ch32v10x_rcc.c:577
    RCC->APB2PCENR &= ~RCC_APB2Periph;
    236c:	400217b7          	lui	a5,0x40021
    2370:	4f94                	lw	a3,24(a5)
    2372:	fec42783          	lw	a5,-20(s0)
    2376:	fff7c713          	not	a4,a5
    237a:	400217b7          	lui	a5,0x40021
    237e:	8f75                	and	a4,a4,a3
    2380:	cf98                	sw	a4,24(a5)
D:/Desktop/智能车基地/CH32V103_SmartCar_V1.0/4.Demo/Libraries/Device/CH32V10x_p/CH32V10x_Lib/ch32v10x_rcc.c:579
}
    2382:	0001                	nop
    2384:	4472                	lw	s0,28(sp)
    2386:	6105                	addi	sp,sp,32
    2388:	8082                	ret

0000238a <RCC_APB1PeriphClockCmd>:
RCC_APB1PeriphClockCmd():
D:/Desktop/智能车基地/CH32V103_SmartCar_V1.0/4.Demo/Libraries/Device/CH32V10x_p/CH32V10x_Lib/ch32v10x_rcc.c:603
*                    RCC_APB1Periph_DAC.                
*                  NewState: ENABLE or DISABLE.
* Return         : None
*******************************************************************************/	
void RCC_APB1PeriphClockCmd(uint32_t RCC_APB1Periph, FunctionalState NewState)
{
    238a:	1101                	addi	sp,sp,-32
    238c:	ce22                	sw	s0,28(sp)
    238e:	1000                	addi	s0,sp,32
    2390:	fea42623          	sw	a0,-20(s0)
    2394:	feb42423          	sw	a1,-24(s0)
D:/Desktop/智能车基地/CH32V103_SmartCar_V1.0/4.Demo/Libraries/Device/CH32V10x_p/CH32V10x_Lib/ch32v10x_rcc.c:604
  if (NewState != DISABLE)
    2398:	fe842783          	lw	a5,-24(s0)
    239c:	cb99                	beqz	a5,23b2 <RCC_APB1PeriphClockCmd+0x28>
D:/Desktop/智能车基地/CH32V103_SmartCar_V1.0/4.Demo/Libraries/Device/CH32V10x_p/CH32V10x_Lib/ch32v10x_rcc.c:606
  {
    RCC->APB1PCENR |= RCC_APB1Periph;
    239e:	400217b7          	lui	a5,0x40021
    23a2:	4fd4                	lw	a3,28(a5)
    23a4:	400217b7          	lui	a5,0x40021
    23a8:	fec42703          	lw	a4,-20(s0)
    23ac:	8f55                	or	a4,a4,a3
    23ae:	cfd8                	sw	a4,28(a5)
D:/Desktop/智能车基地/CH32V103_SmartCar_V1.0/4.Demo/Libraries/Device/CH32V10x_p/CH32V10x_Lib/ch32v10x_rcc.c:612
  }
  else
  {
    RCC->APB1PCENR &= ~RCC_APB1Periph;
  }
}
    23b0:	a821                	j	23c8 <RCC_APB1PeriphClockCmd+0x3e>
D:/Desktop/智能车基地/CH32V103_SmartCar_V1.0/4.Demo/Libraries/Device/CH32V10x_p/CH32V10x_Lib/ch32v10x_rcc.c:610
    RCC->APB1PCENR &= ~RCC_APB1Periph;
    23b2:	400217b7          	lui	a5,0x40021
    23b6:	4fd4                	lw	a3,28(a5)
    23b8:	fec42783          	lw	a5,-20(s0)
    23bc:	fff7c713          	not	a4,a5
    23c0:	400217b7          	lui	a5,0x40021
    23c4:	8f75                	and	a4,a4,a3
    23c6:	cfd8                	sw	a4,28(a5)
D:/Desktop/智能车基地/CH32V103_SmartCar_V1.0/4.Demo/Libraries/Device/CH32V10x_p/CH32V10x_Lib/ch32v10x_rcc.c:612
}
    23c8:	0001                	nop
    23ca:	4472                	lw	s0,28(sp)
    23cc:	6105                	addi	sp,sp,32
    23ce:	8082                	ret

000023d0 <RCC_APB2PeriphResetCmd>:
RCC_APB2PeriphResetCmd():
D:/Desktop/智能车基地/CH32V103_SmartCar_V1.0/4.Demo/Libraries/Device/CH32V10x_p/CH32V10x_Lib/ch32v10x_rcc.c:631
*                    RCC_APB2Periph_USART1.                
*                  NewState: ENABLE or DISABLE.
* Return         : None
*******************************************************************************/	
void RCC_APB2PeriphResetCmd(uint32_t RCC_APB2Periph, FunctionalState NewState)
{
    23d0:	1101                	addi	sp,sp,-32
    23d2:	ce22                	sw	s0,28(sp)
    23d4:	1000                	addi	s0,sp,32
    23d6:	fea42623          	sw	a0,-20(s0)
    23da:	feb42423          	sw	a1,-24(s0)
D:/Desktop/智能车基地/CH32V103_SmartCar_V1.0/4.Demo/Libraries/Device/CH32V10x_p/CH32V10x_Lib/ch32v10x_rcc.c:632
  if (NewState != DISABLE)
    23de:	fe842783          	lw	a5,-24(s0)
    23e2:	cb99                	beqz	a5,23f8 <RCC_APB2PeriphResetCmd+0x28>
D:/Desktop/智能车基地/CH32V103_SmartCar_V1.0/4.Demo/Libraries/Device/CH32V10x_p/CH32V10x_Lib/ch32v10x_rcc.c:634
  {
    RCC->APB2PRSTR |= RCC_APB2Periph;
    23e4:	400217b7          	lui	a5,0x40021
    23e8:	47d4                	lw	a3,12(a5)
    23ea:	400217b7          	lui	a5,0x40021
    23ee:	fec42703          	lw	a4,-20(s0)
    23f2:	8f55                	or	a4,a4,a3
    23f4:	c7d8                	sw	a4,12(a5)
D:/Desktop/智能车基地/CH32V103_SmartCar_V1.0/4.Demo/Libraries/Device/CH32V10x_p/CH32V10x_Lib/ch32v10x_rcc.c:640
  }
  else
  {
    RCC->APB2PRSTR &= ~RCC_APB2Periph;
  }
}
    23f6:	a821                	j	240e <RCC_APB2PeriphResetCmd+0x3e>
D:/Desktop/智能车基地/CH32V103_SmartCar_V1.0/4.Demo/Libraries/Device/CH32V10x_p/CH32V10x_Lib/ch32v10x_rcc.c:638
    RCC->APB2PRSTR &= ~RCC_APB2Periph;
    23f8:	400217b7          	lui	a5,0x40021
    23fc:	47d4                	lw	a3,12(a5)
    23fe:	fec42783          	lw	a5,-20(s0)
    2402:	fff7c713          	not	a4,a5
    2406:	400217b7          	lui	a5,0x40021
    240a:	8f75                	and	a4,a4,a3
    240c:	c7d8                	sw	a4,12(a5)
D:/Desktop/智能车基地/CH32V103_SmartCar_V1.0/4.Demo/Libraries/Device/CH32V10x_p/CH32V10x_Lib/ch32v10x_rcc.c:640
}
    240e:	0001                	nop
    2410:	4472                	lw	s0,28(sp)
    2412:	6105                	addi	sp,sp,32
    2414:	8082                	ret

00002416 <TIM_TimeBaseInit>:
TIM_TimeBaseInit():
D:/Desktop/智能车基地/CH32V103_SmartCar_V1.0/4.Demo/Libraries/Device/CH32V10x_p/CH32V10x_Lib/ch32v10x_tim.c:67
*                  TIM_TimeBaseInitStruct: pointer to a TIM_TimeBaseInitTypeDef
*      structure.
* Return         : None
*******************************************************************************/
void TIM_TimeBaseInit(TIM_TypeDef* TIMx, TIM_TimeBaseInitTypeDef* TIM_TimeBaseInitStruct)
{
    2416:	7179                	addi	sp,sp,-48
    2418:	d622                	sw	s0,44(sp)
    241a:	1800                	addi	s0,sp,48
    241c:	fca42e23          	sw	a0,-36(s0)
    2420:	fcb42c23          	sw	a1,-40(s0)
D:/Desktop/智能车基地/CH32V103_SmartCar_V1.0/4.Demo/Libraries/Device/CH32V10x_p/CH32V10x_Lib/ch32v10x_tim.c:68
  uint16_t tmpcr1 = 0;
    2424:	fe041723          	sh	zero,-18(s0)
D:/Desktop/智能车基地/CH32V103_SmartCar_V1.0/4.Demo/Libraries/Device/CH32V10x_p/CH32V10x_Lib/ch32v10x_tim.c:70

  tmpcr1 = TIMx->CTLR1;  
    2428:	fdc42783          	lw	a5,-36(s0)
    242c:	0007d783          	lhu	a5,0(a5) # 40021000 <_eusrstack+0x2001c000>
    2430:	fef41723          	sh	a5,-18(s0)
D:/Desktop/智能车基地/CH32V103_SmartCar_V1.0/4.Demo/Libraries/Device/CH32V10x_p/CH32V10x_Lib/ch32v10x_tim.c:72

  if((TIMx == TIM1) || (TIMx == TIM2) || (TIMx == TIM3)|| (TIMx == TIM4)) 
    2434:	fdc42703          	lw	a4,-36(s0)
    2438:	400137b7          	lui	a5,0x40013
    243c:	c0078793          	addi	a5,a5,-1024 # 40012c00 <_eusrstack+0x2000dc00>
    2440:	02f70863          	beq	a4,a5,2470 <TIM_TimeBaseInit+0x5a>
D:/Desktop/智能车基地/CH32V103_SmartCar_V1.0/4.Demo/Libraries/Device/CH32V10x_p/CH32V10x_Lib/ch32v10x_tim.c:72 (discriminator 1)
    2444:	fdc42703          	lw	a4,-36(s0)
    2448:	400007b7          	lui	a5,0x40000
    244c:	02f70263          	beq	a4,a5,2470 <TIM_TimeBaseInit+0x5a>
D:/Desktop/智能车基地/CH32V103_SmartCar_V1.0/4.Demo/Libraries/Device/CH32V10x_p/CH32V10x_Lib/ch32v10x_tim.c:72 (discriminator 2)
    2450:	fdc42703          	lw	a4,-36(s0)
    2454:	400007b7          	lui	a5,0x40000
    2458:	40078793          	addi	a5,a5,1024 # 40000400 <_eusrstack+0x1fffb400>
    245c:	00f70a63          	beq	a4,a5,2470 <TIM_TimeBaseInit+0x5a>
D:/Desktop/智能车基地/CH32V103_SmartCar_V1.0/4.Demo/Libraries/Device/CH32V10x_p/CH32V10x_Lib/ch32v10x_tim.c:72 (discriminator 3)
    2460:	fdc42703          	lw	a4,-36(s0)
    2464:	400017b7          	lui	a5,0x40001
    2468:	80078793          	addi	a5,a5,-2048 # 40000800 <_eusrstack+0x1fffb800>
    246c:	02f71163          	bne	a4,a5,248e <TIM_TimeBaseInit+0x78>
D:/Desktop/智能车基地/CH32V103_SmartCar_V1.0/4.Demo/Libraries/Device/CH32V10x_p/CH32V10x_Lib/ch32v10x_tim.c:74
  {
    tmpcr1 &= (uint16_t)(~((uint16_t)(TIM_DIR | TIM_CMS)));
    2470:	fee45783          	lhu	a5,-18(s0)
    2474:	f8f7f793          	andi	a5,a5,-113
    2478:	fef41723          	sh	a5,-18(s0)
D:/Desktop/智能车基地/CH32V103_SmartCar_V1.0/4.Demo/Libraries/Device/CH32V10x_p/CH32V10x_Lib/ch32v10x_tim.c:75
    tmpcr1 |= (uint32_t)TIM_TimeBaseInitStruct->TIM_CounterMode;
    247c:	fd842783          	lw	a5,-40(s0)
    2480:	0027d703          	lhu	a4,2(a5)
    2484:	fee45783          	lhu	a5,-18(s0)
    2488:	8fd9                	or	a5,a5,a4
    248a:	fef41723          	sh	a5,-18(s0)
D:/Desktop/智能车基地/CH32V103_SmartCar_V1.0/4.Demo/Libraries/Device/CH32V10x_p/CH32V10x_Lib/ch32v10x_tim.c:78
  }

  tmpcr1 &= (uint16_t)(~((uint16_t)TIM_CTLR1_CKD));
    248e:	fee45783          	lhu	a5,-18(s0)
    2492:	cff7f793          	andi	a5,a5,-769
    2496:	fef41723          	sh	a5,-18(s0)
D:/Desktop/智能车基地/CH32V103_SmartCar_V1.0/4.Demo/Libraries/Device/CH32V10x_p/CH32V10x_Lib/ch32v10x_tim.c:79
  tmpcr1 |= (uint32_t)TIM_TimeBaseInitStruct->TIM_ClockDivision;
    249a:	fd842783          	lw	a5,-40(s0)
    249e:	0067d703          	lhu	a4,6(a5)
    24a2:	fee45783          	lhu	a5,-18(s0)
    24a6:	8fd9                	or	a5,a5,a4
    24a8:	fef41723          	sh	a5,-18(s0)
D:/Desktop/智能车基地/CH32V103_SmartCar_V1.0/4.Demo/Libraries/Device/CH32V10x_p/CH32V10x_Lib/ch32v10x_tim.c:81

  TIMx->CTLR1 = tmpcr1;
    24ac:	fdc42783          	lw	a5,-36(s0)
    24b0:	fee45703          	lhu	a4,-18(s0)
    24b4:	00e79023          	sh	a4,0(a5)
D:/Desktop/智能车基地/CH32V103_SmartCar_V1.0/4.Demo/Libraries/Device/CH32V10x_p/CH32V10x_Lib/ch32v10x_tim.c:82
  TIMx->ATRLR = TIM_TimeBaseInitStruct->TIM_Period ;
    24b8:	fd842783          	lw	a5,-40(s0)
    24bc:	0047d703          	lhu	a4,4(a5)
    24c0:	fdc42783          	lw	a5,-36(s0)
    24c4:	02e79623          	sh	a4,44(a5)
D:/Desktop/智能车基地/CH32V103_SmartCar_V1.0/4.Demo/Libraries/Device/CH32V10x_p/CH32V10x_Lib/ch32v10x_tim.c:83
  TIMx->PSC = TIM_TimeBaseInitStruct->TIM_Prescaler;
    24c8:	fd842783          	lw	a5,-40(s0)
    24cc:	0007d703          	lhu	a4,0(a5)
    24d0:	fdc42783          	lw	a5,-36(s0)
    24d4:	02e79423          	sh	a4,40(a5)
D:/Desktop/智能车基地/CH32V103_SmartCar_V1.0/4.Demo/Libraries/Device/CH32V10x_p/CH32V10x_Lib/ch32v10x_tim.c:85
    
  if (TIMx == TIM1)  
    24d8:	fdc42703          	lw	a4,-36(s0)
    24dc:	400137b7          	lui	a5,0x40013
    24e0:	c0078793          	addi	a5,a5,-1024 # 40012c00 <_eusrstack+0x2000dc00>
    24e4:	00f71d63          	bne	a4,a5,24fe <TIM_TimeBaseInit+0xe8>
D:/Desktop/智能车基地/CH32V103_SmartCar_V1.0/4.Demo/Libraries/Device/CH32V10x_p/CH32V10x_Lib/ch32v10x_tim.c:87
  {
    TIMx->RPTCR = TIM_TimeBaseInitStruct->TIM_RepetitionCounter;
    24e8:	fd842783          	lw	a5,-40(s0)
    24ec:	0087c783          	lbu	a5,8(a5)
    24f0:	01079713          	slli	a4,a5,0x10
    24f4:	8341                	srli	a4,a4,0x10
    24f6:	fdc42783          	lw	a5,-36(s0)
    24fa:	02e79823          	sh	a4,48(a5)
D:/Desktop/智能车基地/CH32V103_SmartCar_V1.0/4.Demo/Libraries/Device/CH32V10x_p/CH32V10x_Lib/ch32v10x_tim.c:90
  }

  TIMx->SWEVGR = TIM_PSCReloadMode_Immediate;           
    24fe:	fdc42783          	lw	a5,-36(s0)
    2502:	4705                	li	a4,1
    2504:	00e79a23          	sh	a4,20(a5)
D:/Desktop/智能车基地/CH32V103_SmartCar_V1.0/4.Demo/Libraries/Device/CH32V10x_p/CH32V10x_Lib/ch32v10x_tim.c:91
}
    2508:	0001                	nop
    250a:	5432                	lw	s0,44(sp)
    250c:	6145                	addi	sp,sp,48
    250e:	8082                	ret

00002510 <TIM_OC1Init>:
TIM_OC1Init():
D:/Desktop/智能车基地/CH32V103_SmartCar_V1.0/4.Demo/Libraries/Device/CH32V10x_p/CH32V10x_Lib/ch32v10x_tim.c:102
* Input          : TIMx: where x can be 1 to 4 to select the TIM peripheral.
*                  TIM_OCInitStruct: pointer to a TIM_OCInitTypeDef structure.
* Return         : None
*******************************************************************************/
void TIM_OC1Init(TIM_TypeDef* TIMx, TIM_OCInitTypeDef* TIM_OCInitStruct)
{
    2510:	7179                	addi	sp,sp,-48
    2512:	d622                	sw	s0,44(sp)
    2514:	1800                	addi	s0,sp,48
    2516:	fca42e23          	sw	a0,-36(s0)
    251a:	fcb42c23          	sw	a1,-40(s0)
D:/Desktop/智能车基地/CH32V103_SmartCar_V1.0/4.Demo/Libraries/Device/CH32V10x_p/CH32V10x_Lib/ch32v10x_tim.c:103
  uint16_t tmpccmrx = 0, tmpccer = 0, tmpcr2 = 0;
    251e:	fe041523          	sh	zero,-22(s0)
    2522:	fe041723          	sh	zero,-18(s0)
    2526:	fe041623          	sh	zero,-20(s0)
D:/Desktop/智能车基地/CH32V103_SmartCar_V1.0/4.Demo/Libraries/Device/CH32V10x_p/CH32V10x_Lib/ch32v10x_tim.c:105
     
  TIMx->CCER &= (uint16_t)(~(uint16_t)TIM_CC1E);
    252a:	fdc42783          	lw	a5,-36(s0)
    252e:	0207d783          	lhu	a5,32(a5)
    2532:	07c2                	slli	a5,a5,0x10
    2534:	83c1                	srli	a5,a5,0x10
    2536:	9bf9                	andi	a5,a5,-2
    2538:	01079713          	slli	a4,a5,0x10
    253c:	8341                	srli	a4,a4,0x10
    253e:	fdc42783          	lw	a5,-36(s0)
    2542:	02e79023          	sh	a4,32(a5)
D:/Desktop/智能车基地/CH32V103_SmartCar_V1.0/4.Demo/Libraries/Device/CH32V10x_p/CH32V10x_Lib/ch32v10x_tim.c:106
  tmpccer = TIMx->CCER;
    2546:	fdc42783          	lw	a5,-36(s0)
    254a:	0207d783          	lhu	a5,32(a5)
    254e:	fef41723          	sh	a5,-18(s0)
D:/Desktop/智能车基地/CH32V103_SmartCar_V1.0/4.Demo/Libraries/Device/CH32V10x_p/CH32V10x_Lib/ch32v10x_tim.c:107
  tmpcr2 =  TIMx->CTLR2;
    2552:	fdc42783          	lw	a5,-36(s0)
    2556:	0047d783          	lhu	a5,4(a5)
    255a:	fef41623          	sh	a5,-20(s0)
D:/Desktop/智能车基地/CH32V103_SmartCar_V1.0/4.Demo/Libraries/Device/CH32V10x_p/CH32V10x_Lib/ch32v10x_tim.c:108
  tmpccmrx = TIMx->CHCTLR1;
    255e:	fdc42783          	lw	a5,-36(s0)
    2562:	0187d783          	lhu	a5,24(a5)
    2566:	fef41523          	sh	a5,-22(s0)
D:/Desktop/智能车基地/CH32V103_SmartCar_V1.0/4.Demo/Libraries/Device/CH32V10x_p/CH32V10x_Lib/ch32v10x_tim.c:109
  tmpccmrx &= (uint16_t)(~((uint16_t)TIM_OC1M));
    256a:	fea45783          	lhu	a5,-22(s0)
    256e:	f8f7f793          	andi	a5,a5,-113
    2572:	fef41523          	sh	a5,-22(s0)
D:/Desktop/智能车基地/CH32V103_SmartCar_V1.0/4.Demo/Libraries/Device/CH32V10x_p/CH32V10x_Lib/ch32v10x_tim.c:110
  tmpccmrx &= (uint16_t)(~((uint16_t)TIM_CC1S));
    2576:	fea45783          	lhu	a5,-22(s0)
    257a:	9bf1                	andi	a5,a5,-4
    257c:	fef41523          	sh	a5,-22(s0)
D:/Desktop/智能车基地/CH32V103_SmartCar_V1.0/4.Demo/Libraries/Device/CH32V10x_p/CH32V10x_Lib/ch32v10x_tim.c:111
  tmpccmrx |= TIM_OCInitStruct->TIM_OCMode;
    2580:	fd842783          	lw	a5,-40(s0)
    2584:	0007d703          	lhu	a4,0(a5)
    2588:	fea45783          	lhu	a5,-22(s0)
    258c:	8fd9                	or	a5,a5,a4
    258e:	fef41523          	sh	a5,-22(s0)
D:/Desktop/智能车基地/CH32V103_SmartCar_V1.0/4.Demo/Libraries/Device/CH32V10x_p/CH32V10x_Lib/ch32v10x_tim.c:112
  tmpccer &= (uint16_t)(~((uint16_t)TIM_CC1P));
    2592:	fee45783          	lhu	a5,-18(s0)
    2596:	9bf5                	andi	a5,a5,-3
    2598:	fef41723          	sh	a5,-18(s0)
D:/Desktop/智能车基地/CH32V103_SmartCar_V1.0/4.Demo/Libraries/Device/CH32V10x_p/CH32V10x_Lib/ch32v10x_tim.c:113
  tmpccer |= TIM_OCInitStruct->TIM_OCPolarity;
    259c:	fd842783          	lw	a5,-40(s0)
    25a0:	0087d703          	lhu	a4,8(a5)
    25a4:	fee45783          	lhu	a5,-18(s0)
    25a8:	8fd9                	or	a5,a5,a4
    25aa:	fef41723          	sh	a5,-18(s0)
D:/Desktop/智能车基地/CH32V103_SmartCar_V1.0/4.Demo/Libraries/Device/CH32V10x_p/CH32V10x_Lib/ch32v10x_tim.c:114
  tmpccer |= TIM_OCInitStruct->TIM_OutputState;
    25ae:	fd842783          	lw	a5,-40(s0)
    25b2:	0027d703          	lhu	a4,2(a5)
    25b6:	fee45783          	lhu	a5,-18(s0)
    25ba:	8fd9                	or	a5,a5,a4
    25bc:	fef41723          	sh	a5,-18(s0)
D:/Desktop/智能车基地/CH32V103_SmartCar_V1.0/4.Demo/Libraries/Device/CH32V10x_p/CH32V10x_Lib/ch32v10x_tim.c:116
    
  if(TIMx == TIM1)
    25c0:	fdc42703          	lw	a4,-36(s0)
    25c4:	400137b7          	lui	a5,0x40013
    25c8:	c0078793          	addi	a5,a5,-1024 # 40012c00 <_eusrstack+0x2000dc00>
    25cc:	06f71c63          	bne	a4,a5,2644 <TIM_OC1Init+0x134>
D:/Desktop/智能车基地/CH32V103_SmartCar_V1.0/4.Demo/Libraries/Device/CH32V10x_p/CH32V10x_Lib/ch32v10x_tim.c:118
  {
    tmpccer &= (uint16_t)(~((uint16_t)TIM_CC1NP));
    25d0:	fee45783          	lhu	a5,-18(s0)
    25d4:	9bdd                	andi	a5,a5,-9
    25d6:	fef41723          	sh	a5,-18(s0)
D:/Desktop/智能车基地/CH32V103_SmartCar_V1.0/4.Demo/Libraries/Device/CH32V10x_p/CH32V10x_Lib/ch32v10x_tim.c:119
    tmpccer |= TIM_OCInitStruct->TIM_OCNPolarity;
    25da:	fd842783          	lw	a5,-40(s0)
    25de:	00a7d703          	lhu	a4,10(a5)
    25e2:	fee45783          	lhu	a5,-18(s0)
    25e6:	8fd9                	or	a5,a5,a4
    25e8:	fef41723          	sh	a5,-18(s0)
D:/Desktop/智能车基地/CH32V103_SmartCar_V1.0/4.Demo/Libraries/Device/CH32V10x_p/CH32V10x_Lib/ch32v10x_tim.c:121
 
    tmpccer &= (uint16_t)(~((uint16_t)TIM_CC1NE));    
    25ec:	fee45783          	lhu	a5,-18(s0)
    25f0:	9bed                	andi	a5,a5,-5
    25f2:	fef41723          	sh	a5,-18(s0)
D:/Desktop/智能车基地/CH32V103_SmartCar_V1.0/4.Demo/Libraries/Device/CH32V10x_p/CH32V10x_Lib/ch32v10x_tim.c:122
    tmpccer |= TIM_OCInitStruct->TIM_OutputNState;
    25f6:	fd842783          	lw	a5,-40(s0)
    25fa:	0047d703          	lhu	a4,4(a5)
    25fe:	fee45783          	lhu	a5,-18(s0)
    2602:	8fd9                	or	a5,a5,a4
    2604:	fef41723          	sh	a5,-18(s0)
D:/Desktop/智能车基地/CH32V103_SmartCar_V1.0/4.Demo/Libraries/Device/CH32V10x_p/CH32V10x_Lib/ch32v10x_tim.c:124
    
    tmpcr2 &= (uint16_t)(~((uint16_t)TIM_OIS1));
    2608:	fec45783          	lhu	a5,-20(s0)
    260c:	eff7f793          	andi	a5,a5,-257
    2610:	fef41623          	sh	a5,-20(s0)
D:/Desktop/智能车基地/CH32V103_SmartCar_V1.0/4.Demo/Libraries/Device/CH32V10x_p/CH32V10x_Lib/ch32v10x_tim.c:125
    tmpcr2 &= (uint16_t)(~((uint16_t)TIM_OIS1N));
    2614:	fec45783          	lhu	a5,-20(s0)
    2618:	dff7f793          	andi	a5,a5,-513
    261c:	fef41623          	sh	a5,-20(s0)
D:/Desktop/智能车基地/CH32V103_SmartCar_V1.0/4.Demo/Libraries/Device/CH32V10x_p/CH32V10x_Lib/ch32v10x_tim.c:127
    
    tmpcr2 |= TIM_OCInitStruct->TIM_OCIdleState;
    2620:	fd842783          	lw	a5,-40(s0)
    2624:	00c7d703          	lhu	a4,12(a5)
    2628:	fec45783          	lhu	a5,-20(s0)
    262c:	8fd9                	or	a5,a5,a4
    262e:	fef41623          	sh	a5,-20(s0)
D:/Desktop/智能车基地/CH32V103_SmartCar_V1.0/4.Demo/Libraries/Device/CH32V10x_p/CH32V10x_Lib/ch32v10x_tim.c:128
    tmpcr2 |= TIM_OCInitStruct->TIM_OCNIdleState;
    2632:	fd842783          	lw	a5,-40(s0)
    2636:	00e7d703          	lhu	a4,14(a5)
    263a:	fec45783          	lhu	a5,-20(s0)
    263e:	8fd9                	or	a5,a5,a4
    2640:	fef41623          	sh	a5,-20(s0)
D:/Desktop/智能车基地/CH32V103_SmartCar_V1.0/4.Demo/Libraries/Device/CH32V10x_p/CH32V10x_Lib/ch32v10x_tim.c:131
  }

  TIMx->CTLR2 = tmpcr2;
    2644:	fdc42783          	lw	a5,-36(s0)
    2648:	fec45703          	lhu	a4,-20(s0)
    264c:	00e79223          	sh	a4,4(a5)
D:/Desktop/智能车基地/CH32V103_SmartCar_V1.0/4.Demo/Libraries/Device/CH32V10x_p/CH32V10x_Lib/ch32v10x_tim.c:132
  TIMx->CHCTLR1 = tmpccmrx;
    2650:	fdc42783          	lw	a5,-36(s0)
    2654:	fea45703          	lhu	a4,-22(s0)
    2658:	00e79c23          	sh	a4,24(a5)
D:/Desktop/智能车基地/CH32V103_SmartCar_V1.0/4.Demo/Libraries/Device/CH32V10x_p/CH32V10x_Lib/ch32v10x_tim.c:133
  TIMx->CH1CVR = TIM_OCInitStruct->TIM_Pulse; 
    265c:	fd842783          	lw	a5,-40(s0)
    2660:	0067d703          	lhu	a4,6(a5)
    2664:	fdc42783          	lw	a5,-36(s0)
    2668:	02e79a23          	sh	a4,52(a5)
D:/Desktop/智能车基地/CH32V103_SmartCar_V1.0/4.Demo/Libraries/Device/CH32V10x_p/CH32V10x_Lib/ch32v10x_tim.c:134
  TIMx->CCER = tmpccer;
    266c:	fdc42783          	lw	a5,-36(s0)
    2670:	fee45703          	lhu	a4,-18(s0)
    2674:	02e79023          	sh	a4,32(a5)
D:/Desktop/智能车基地/CH32V103_SmartCar_V1.0/4.Demo/Libraries/Device/CH32V10x_p/CH32V10x_Lib/ch32v10x_tim.c:135
}
    2678:	0001                	nop
    267a:	5432                	lw	s0,44(sp)
    267c:	6145                	addi	sp,sp,48
    267e:	8082                	ret

00002680 <TIM_OC2Init>:
TIM_OC2Init():
D:/Desktop/智能车基地/CH32V103_SmartCar_V1.0/4.Demo/Libraries/Device/CH32V10x_p/CH32V10x_Lib/ch32v10x_tim.c:146
* Input          : TIMx: where x can be 1 to 4 to select the TIM peripheral.
*                  TIM_OCInitStruct: pointer to a TIM_OCInitTypeDef structure.
* Return         : None
*******************************************************************************/
void TIM_OC2Init(TIM_TypeDef* TIMx, TIM_OCInitTypeDef* TIM_OCInitStruct)
{
    2680:	7179                	addi	sp,sp,-48
    2682:	d622                	sw	s0,44(sp)
    2684:	1800                	addi	s0,sp,48
    2686:	fca42e23          	sw	a0,-36(s0)
    268a:	fcb42c23          	sw	a1,-40(s0)
D:/Desktop/智能车基地/CH32V103_SmartCar_V1.0/4.Demo/Libraries/Device/CH32V10x_p/CH32V10x_Lib/ch32v10x_tim.c:147
  uint16_t tmpccmrx = 0, tmpccer = 0, tmpcr2 = 0;
    268e:	fe041523          	sh	zero,-22(s0)
    2692:	fe041723          	sh	zero,-18(s0)
    2696:	fe041623          	sh	zero,-20(s0)
D:/Desktop/智能车基地/CH32V103_SmartCar_V1.0/4.Demo/Libraries/Device/CH32V10x_p/CH32V10x_Lib/ch32v10x_tim.c:149
   
  TIMx->CCER &= (uint16_t)(~((uint16_t)TIM_CC2E)); 
    269a:	fdc42783          	lw	a5,-36(s0)
    269e:	0207d783          	lhu	a5,32(a5)
    26a2:	07c2                	slli	a5,a5,0x10
    26a4:	83c1                	srli	a5,a5,0x10
    26a6:	9bbd                	andi	a5,a5,-17
    26a8:	01079713          	slli	a4,a5,0x10
    26ac:	8341                	srli	a4,a4,0x10
    26ae:	fdc42783          	lw	a5,-36(s0)
    26b2:	02e79023          	sh	a4,32(a5)
D:/Desktop/智能车基地/CH32V103_SmartCar_V1.0/4.Demo/Libraries/Device/CH32V10x_p/CH32V10x_Lib/ch32v10x_tim.c:150
  tmpccer = TIMx->CCER;
    26b6:	fdc42783          	lw	a5,-36(s0)
    26ba:	0207d783          	lhu	a5,32(a5)
    26be:	fef41723          	sh	a5,-18(s0)
D:/Desktop/智能车基地/CH32V103_SmartCar_V1.0/4.Demo/Libraries/Device/CH32V10x_p/CH32V10x_Lib/ch32v10x_tim.c:151
  tmpcr2 =  TIMx->CTLR2;
    26c2:	fdc42783          	lw	a5,-36(s0)
    26c6:	0047d783          	lhu	a5,4(a5)
    26ca:	fef41623          	sh	a5,-20(s0)
D:/Desktop/智能车基地/CH32V103_SmartCar_V1.0/4.Demo/Libraries/Device/CH32V10x_p/CH32V10x_Lib/ch32v10x_tim.c:152
  tmpccmrx = TIMx->CHCTLR1;
    26ce:	fdc42783          	lw	a5,-36(s0)
    26d2:	0187d783          	lhu	a5,24(a5)
    26d6:	fef41523          	sh	a5,-22(s0)
D:/Desktop/智能车基地/CH32V103_SmartCar_V1.0/4.Demo/Libraries/Device/CH32V10x_p/CH32V10x_Lib/ch32v10x_tim.c:153
  tmpccmrx &= (uint16_t)(~((uint16_t)TIM_OC2M));
    26da:	fea45703          	lhu	a4,-22(s0)
    26de:	77e5                	lui	a5,0xffff9
    26e0:	17fd                	addi	a5,a5,-1
    26e2:	8ff9                	and	a5,a5,a4
    26e4:	fef41523          	sh	a5,-22(s0)
D:/Desktop/智能车基地/CH32V103_SmartCar_V1.0/4.Demo/Libraries/Device/CH32V10x_p/CH32V10x_Lib/ch32v10x_tim.c:154
  tmpccmrx &= (uint16_t)(~((uint16_t)TIM_CC2S));
    26e8:	fea45783          	lhu	a5,-22(s0)
    26ec:	cff7f793          	andi	a5,a5,-769
    26f0:	fef41523          	sh	a5,-22(s0)
D:/Desktop/智能车基地/CH32V103_SmartCar_V1.0/4.Demo/Libraries/Device/CH32V10x_p/CH32V10x_Lib/ch32v10x_tim.c:155
  tmpccmrx |= (uint16_t)(TIM_OCInitStruct->TIM_OCMode << 8);
    26f4:	fd842783          	lw	a5,-40(s0)
    26f8:	0007d783          	lhu	a5,0(a5) # ffff9000 <_eusrstack+0xdfff4000>
    26fc:	07a2                	slli	a5,a5,0x8
    26fe:	01079713          	slli	a4,a5,0x10
    2702:	8341                	srli	a4,a4,0x10
    2704:	fea45783          	lhu	a5,-22(s0)
    2708:	8fd9                	or	a5,a5,a4
    270a:	fef41523          	sh	a5,-22(s0)
D:/Desktop/智能车基地/CH32V103_SmartCar_V1.0/4.Demo/Libraries/Device/CH32V10x_p/CH32V10x_Lib/ch32v10x_tim.c:156
  tmpccer &= (uint16_t)(~((uint16_t)TIM_CC2P));
    270e:	fee45783          	lhu	a5,-18(s0)
    2712:	fdf7f793          	andi	a5,a5,-33
    2716:	fef41723          	sh	a5,-18(s0)
D:/Desktop/智能车基地/CH32V103_SmartCar_V1.0/4.Demo/Libraries/Device/CH32V10x_p/CH32V10x_Lib/ch32v10x_tim.c:157
  tmpccer |= (uint16_t)(TIM_OCInitStruct->TIM_OCPolarity << 4);
    271a:	fd842783          	lw	a5,-40(s0)
    271e:	0087d783          	lhu	a5,8(a5)
    2722:	0792                	slli	a5,a5,0x4
    2724:	01079713          	slli	a4,a5,0x10
    2728:	8341                	srli	a4,a4,0x10
    272a:	fee45783          	lhu	a5,-18(s0)
    272e:	8fd9                	or	a5,a5,a4
    2730:	fef41723          	sh	a5,-18(s0)
D:/Desktop/智能车基地/CH32V103_SmartCar_V1.0/4.Demo/Libraries/Device/CH32V10x_p/CH32V10x_Lib/ch32v10x_tim.c:158
  tmpccer |= (uint16_t)(TIM_OCInitStruct->TIM_OutputState << 4);
    2734:	fd842783          	lw	a5,-40(s0)
    2738:	0027d783          	lhu	a5,2(a5)
    273c:	0792                	slli	a5,a5,0x4
    273e:	01079713          	slli	a4,a5,0x10
    2742:	8341                	srli	a4,a4,0x10
    2744:	fee45783          	lhu	a5,-18(s0)
    2748:	8fd9                	or	a5,a5,a4
    274a:	fef41723          	sh	a5,-18(s0)
D:/Desktop/智能车基地/CH32V103_SmartCar_V1.0/4.Demo/Libraries/Device/CH32V10x_p/CH32V10x_Lib/ch32v10x_tim.c:160
    
  if(TIMx == TIM1)
    274e:	fdc42703          	lw	a4,-36(s0)
    2752:	400137b7          	lui	a5,0x40013
    2756:	c0078793          	addi	a5,a5,-1024 # 40012c00 <_eusrstack+0x2000dc00>
    275a:	0af71063          	bne	a4,a5,27fa <TIM_OC2Init+0x17a>
D:/Desktop/智能车基地/CH32V103_SmartCar_V1.0/4.Demo/Libraries/Device/CH32V10x_p/CH32V10x_Lib/ch32v10x_tim.c:162
  {
    tmpccer &= (uint16_t)(~((uint16_t)TIM_CC2NP));
    275e:	fee45783          	lhu	a5,-18(s0)
    2762:	f7f7f793          	andi	a5,a5,-129
    2766:	fef41723          	sh	a5,-18(s0)
D:/Desktop/智能车基地/CH32V103_SmartCar_V1.0/4.Demo/Libraries/Device/CH32V10x_p/CH32V10x_Lib/ch32v10x_tim.c:163
    tmpccer |= (uint16_t)(TIM_OCInitStruct->TIM_OCNPolarity << 4);
    276a:	fd842783          	lw	a5,-40(s0)
    276e:	00a7d783          	lhu	a5,10(a5)
    2772:	0792                	slli	a5,a5,0x4
    2774:	01079713          	slli	a4,a5,0x10
    2778:	8341                	srli	a4,a4,0x10
    277a:	fee45783          	lhu	a5,-18(s0)
    277e:	8fd9                	or	a5,a5,a4
    2780:	fef41723          	sh	a5,-18(s0)
D:/Desktop/智能车基地/CH32V103_SmartCar_V1.0/4.Demo/Libraries/Device/CH32V10x_p/CH32V10x_Lib/ch32v10x_tim.c:164
    tmpccer &= (uint16_t)(~((uint16_t)TIM_CC2NE));    
    2784:	fee45783          	lhu	a5,-18(s0)
    2788:	fbf7f793          	andi	a5,a5,-65
    278c:	fef41723          	sh	a5,-18(s0)
D:/Desktop/智能车基地/CH32V103_SmartCar_V1.0/4.Demo/Libraries/Device/CH32V10x_p/CH32V10x_Lib/ch32v10x_tim.c:165
    tmpccer |= (uint16_t)(TIM_OCInitStruct->TIM_OutputNState << 4);
    2790:	fd842783          	lw	a5,-40(s0)
    2794:	0047d783          	lhu	a5,4(a5)
    2798:	0792                	slli	a5,a5,0x4
    279a:	01079713          	slli	a4,a5,0x10
    279e:	8341                	srli	a4,a4,0x10
    27a0:	fee45783          	lhu	a5,-18(s0)
    27a4:	8fd9                	or	a5,a5,a4
    27a6:	fef41723          	sh	a5,-18(s0)
D:/Desktop/智能车基地/CH32V103_SmartCar_V1.0/4.Demo/Libraries/Device/CH32V10x_p/CH32V10x_Lib/ch32v10x_tim.c:167
    
    tmpcr2 &= (uint16_t)(~((uint16_t)TIM_OIS2));
    27aa:	fec45783          	lhu	a5,-20(s0)
    27ae:	bff7f793          	andi	a5,a5,-1025
    27b2:	fef41623          	sh	a5,-20(s0)
D:/Desktop/智能车基地/CH32V103_SmartCar_V1.0/4.Demo/Libraries/Device/CH32V10x_p/CH32V10x_Lib/ch32v10x_tim.c:168
    tmpcr2 &= (uint16_t)(~((uint16_t)TIM_OIS2N));
    27b6:	fec45703          	lhu	a4,-20(s0)
    27ba:	77fd                	lui	a5,0xfffff
    27bc:	7ff78793          	addi	a5,a5,2047 # fffff7ff <_eusrstack+0xdfffa7ff>
    27c0:	8ff9                	and	a5,a5,a4
    27c2:	fef41623          	sh	a5,-20(s0)
D:/Desktop/智能车基地/CH32V103_SmartCar_V1.0/4.Demo/Libraries/Device/CH32V10x_p/CH32V10x_Lib/ch32v10x_tim.c:169
    tmpcr2 |= (uint16_t)(TIM_OCInitStruct->TIM_OCIdleState << 2);
    27c6:	fd842783          	lw	a5,-40(s0)
    27ca:	00c7d783          	lhu	a5,12(a5)
    27ce:	078a                	slli	a5,a5,0x2
    27d0:	01079713          	slli	a4,a5,0x10
    27d4:	8341                	srli	a4,a4,0x10
    27d6:	fec45783          	lhu	a5,-20(s0)
    27da:	8fd9                	or	a5,a5,a4
    27dc:	fef41623          	sh	a5,-20(s0)
D:/Desktop/智能车基地/CH32V103_SmartCar_V1.0/4.Demo/Libraries/Device/CH32V10x_p/CH32V10x_Lib/ch32v10x_tim.c:170
    tmpcr2 |= (uint16_t)(TIM_OCInitStruct->TIM_OCNIdleState << 2);
    27e0:	fd842783          	lw	a5,-40(s0)
    27e4:	00e7d783          	lhu	a5,14(a5)
    27e8:	078a                	slli	a5,a5,0x2
    27ea:	01079713          	slli	a4,a5,0x10
    27ee:	8341                	srli	a4,a4,0x10
    27f0:	fec45783          	lhu	a5,-20(s0)
    27f4:	8fd9                	or	a5,a5,a4
    27f6:	fef41623          	sh	a5,-20(s0)
D:/Desktop/智能车基地/CH32V103_SmartCar_V1.0/4.Demo/Libraries/Device/CH32V10x_p/CH32V10x_Lib/ch32v10x_tim.c:173
  }

  TIMx->CTLR2 = tmpcr2;
    27fa:	fdc42783          	lw	a5,-36(s0)
    27fe:	fec45703          	lhu	a4,-20(s0)
    2802:	00e79223          	sh	a4,4(a5)
D:/Desktop/智能车基地/CH32V103_SmartCar_V1.0/4.Demo/Libraries/Device/CH32V10x_p/CH32V10x_Lib/ch32v10x_tim.c:174
  TIMx->CHCTLR1 = tmpccmrx;
    2806:	fdc42783          	lw	a5,-36(s0)
    280a:	fea45703          	lhu	a4,-22(s0)
    280e:	00e79c23          	sh	a4,24(a5)
D:/Desktop/智能车基地/CH32V103_SmartCar_V1.0/4.Demo/Libraries/Device/CH32V10x_p/CH32V10x_Lib/ch32v10x_tim.c:175
  TIMx->CH2CVR = TIM_OCInitStruct->TIM_Pulse;
    2812:	fd842783          	lw	a5,-40(s0)
    2816:	0067d703          	lhu	a4,6(a5)
    281a:	fdc42783          	lw	a5,-36(s0)
    281e:	02e79c23          	sh	a4,56(a5)
D:/Desktop/智能车基地/CH32V103_SmartCar_V1.0/4.Demo/Libraries/Device/CH32V10x_p/CH32V10x_Lib/ch32v10x_tim.c:176
  TIMx->CCER = tmpccer;
    2822:	fdc42783          	lw	a5,-36(s0)
    2826:	fee45703          	lhu	a4,-18(s0)
    282a:	02e79023          	sh	a4,32(a5)
D:/Desktop/智能车基地/CH32V103_SmartCar_V1.0/4.Demo/Libraries/Device/CH32V10x_p/CH32V10x_Lib/ch32v10x_tim.c:177
}
    282e:	0001                	nop
    2830:	5432                	lw	s0,44(sp)
    2832:	6145                	addi	sp,sp,48
    2834:	8082                	ret

00002836 <TIM_OC3Init>:
TIM_OC3Init():
D:/Desktop/智能车基地/CH32V103_SmartCar_V1.0/4.Demo/Libraries/Device/CH32V10x_p/CH32V10x_Lib/ch32v10x_tim.c:188
* Input          : TIMx: where x can be 1 to 4 to select the TIM peripheral.
*                  TIM_OCInitStruct: pointer to a TIM_OCInitTypeDef structure.
* Return         : None
*******************************************************************************/
void TIM_OC3Init(TIM_TypeDef* TIMx, TIM_OCInitTypeDef* TIM_OCInitStruct)
{
    2836:	7179                	addi	sp,sp,-48
    2838:	d622                	sw	s0,44(sp)
    283a:	1800                	addi	s0,sp,48
    283c:	fca42e23          	sw	a0,-36(s0)
    2840:	fcb42c23          	sw	a1,-40(s0)
D:/Desktop/智能车基地/CH32V103_SmartCar_V1.0/4.Demo/Libraries/Device/CH32V10x_p/CH32V10x_Lib/ch32v10x_tim.c:189
  uint16_t tmpccmrx = 0, tmpccer = 0, tmpcr2 = 0;
    2844:	fe041523          	sh	zero,-22(s0)
    2848:	fe041723          	sh	zero,-18(s0)
    284c:	fe041623          	sh	zero,-20(s0)
D:/Desktop/智能车基地/CH32V103_SmartCar_V1.0/4.Demo/Libraries/Device/CH32V10x_p/CH32V10x_Lib/ch32v10x_tim.c:191
   
  TIMx->CCER &= (uint16_t)(~((uint16_t)TIM_CC3E));
    2850:	fdc42783          	lw	a5,-36(s0)
    2854:	0207d783          	lhu	a5,32(a5)
    2858:	07c2                	slli	a5,a5,0x10
    285a:	83c1                	srli	a5,a5,0x10
    285c:	eff7f793          	andi	a5,a5,-257
    2860:	01079713          	slli	a4,a5,0x10
    2864:	8341                	srli	a4,a4,0x10
    2866:	fdc42783          	lw	a5,-36(s0)
    286a:	02e79023          	sh	a4,32(a5)
D:/Desktop/智能车基地/CH32V103_SmartCar_V1.0/4.Demo/Libraries/Device/CH32V10x_p/CH32V10x_Lib/ch32v10x_tim.c:192
  tmpccer = TIMx->CCER;
    286e:	fdc42783          	lw	a5,-36(s0)
    2872:	0207d783          	lhu	a5,32(a5)
    2876:	fef41723          	sh	a5,-18(s0)
D:/Desktop/智能车基地/CH32V103_SmartCar_V1.0/4.Demo/Libraries/Device/CH32V10x_p/CH32V10x_Lib/ch32v10x_tim.c:193
  tmpcr2 =  TIMx->CTLR2;
    287a:	fdc42783          	lw	a5,-36(s0)
    287e:	0047d783          	lhu	a5,4(a5)
    2882:	fef41623          	sh	a5,-20(s0)
D:/Desktop/智能车基地/CH32V103_SmartCar_V1.0/4.Demo/Libraries/Device/CH32V10x_p/CH32V10x_Lib/ch32v10x_tim.c:194
  tmpccmrx = TIMx->CHCTLR2;
    2886:	fdc42783          	lw	a5,-36(s0)
    288a:	01c7d783          	lhu	a5,28(a5)
    288e:	fef41523          	sh	a5,-22(s0)
D:/Desktop/智能车基地/CH32V103_SmartCar_V1.0/4.Demo/Libraries/Device/CH32V10x_p/CH32V10x_Lib/ch32v10x_tim.c:195
  tmpccmrx &= (uint16_t)(~((uint16_t)TIM_OC3M));
    2892:	fea45783          	lhu	a5,-22(s0)
    2896:	f8f7f793          	andi	a5,a5,-113
    289a:	fef41523          	sh	a5,-22(s0)
D:/Desktop/智能车基地/CH32V103_SmartCar_V1.0/4.Demo/Libraries/Device/CH32V10x_p/CH32V10x_Lib/ch32v10x_tim.c:196
  tmpccmrx &= (uint16_t)(~((uint16_t)TIM_CC3S));  
    289e:	fea45783          	lhu	a5,-22(s0)
    28a2:	9bf1                	andi	a5,a5,-4
    28a4:	fef41523          	sh	a5,-22(s0)
D:/Desktop/智能车基地/CH32V103_SmartCar_V1.0/4.Demo/Libraries/Device/CH32V10x_p/CH32V10x_Lib/ch32v10x_tim.c:197
  tmpccmrx |= TIM_OCInitStruct->TIM_OCMode;
    28a8:	fd842783          	lw	a5,-40(s0)
    28ac:	0007d703          	lhu	a4,0(a5)
    28b0:	fea45783          	lhu	a5,-22(s0)
    28b4:	8fd9                	or	a5,a5,a4
    28b6:	fef41523          	sh	a5,-22(s0)
D:/Desktop/智能车基地/CH32V103_SmartCar_V1.0/4.Demo/Libraries/Device/CH32V10x_p/CH32V10x_Lib/ch32v10x_tim.c:198
  tmpccer &= (uint16_t)(~((uint16_t)TIM_CC3P));
    28ba:	fee45783          	lhu	a5,-18(s0)
    28be:	dff7f793          	andi	a5,a5,-513
    28c2:	fef41723          	sh	a5,-18(s0)
D:/Desktop/智能车基地/CH32V103_SmartCar_V1.0/4.Demo/Libraries/Device/CH32V10x_p/CH32V10x_Lib/ch32v10x_tim.c:199
  tmpccer |= (uint16_t)(TIM_OCInitStruct->TIM_OCPolarity << 8);
    28c6:	fd842783          	lw	a5,-40(s0)
    28ca:	0087d783          	lhu	a5,8(a5)
    28ce:	07a2                	slli	a5,a5,0x8
    28d0:	01079713          	slli	a4,a5,0x10
    28d4:	8341                	srli	a4,a4,0x10
    28d6:	fee45783          	lhu	a5,-18(s0)
    28da:	8fd9                	or	a5,a5,a4
    28dc:	fef41723          	sh	a5,-18(s0)
D:/Desktop/智能车基地/CH32V103_SmartCar_V1.0/4.Demo/Libraries/Device/CH32V10x_p/CH32V10x_Lib/ch32v10x_tim.c:200
  tmpccer |= (uint16_t)(TIM_OCInitStruct->TIM_OutputState << 8);
    28e0:	fd842783          	lw	a5,-40(s0)
    28e4:	0027d783          	lhu	a5,2(a5)
    28e8:	07a2                	slli	a5,a5,0x8
    28ea:	01079713          	slli	a4,a5,0x10
    28ee:	8341                	srli	a4,a4,0x10
    28f0:	fee45783          	lhu	a5,-18(s0)
    28f4:	8fd9                	or	a5,a5,a4
    28f6:	fef41723          	sh	a5,-18(s0)
D:/Desktop/智能车基地/CH32V103_SmartCar_V1.0/4.Demo/Libraries/Device/CH32V10x_p/CH32V10x_Lib/ch32v10x_tim.c:202
    
  if(TIMx == TIM1)
    28fa:	fdc42703          	lw	a4,-36(s0)
    28fe:	400137b7          	lui	a5,0x40013
    2902:	c0078793          	addi	a5,a5,-1024 # 40012c00 <_eusrstack+0x2000dc00>
    2906:	0af71263          	bne	a4,a5,29aa <TIM_OC3Init+0x174>
D:/Desktop/智能车基地/CH32V103_SmartCar_V1.0/4.Demo/Libraries/Device/CH32V10x_p/CH32V10x_Lib/ch32v10x_tim.c:204
  {
    tmpccer &= (uint16_t)(~((uint16_t)TIM_CC3NP));
    290a:	fee45703          	lhu	a4,-18(s0)
    290e:	77fd                	lui	a5,0xfffff
    2910:	7ff78793          	addi	a5,a5,2047 # fffff7ff <_eusrstack+0xdfffa7ff>
    2914:	8ff9                	and	a5,a5,a4
    2916:	fef41723          	sh	a5,-18(s0)
D:/Desktop/智能车基地/CH32V103_SmartCar_V1.0/4.Demo/Libraries/Device/CH32V10x_p/CH32V10x_Lib/ch32v10x_tim.c:205
    tmpccer |= (uint16_t)(TIM_OCInitStruct->TIM_OCNPolarity << 8);
    291a:	fd842783          	lw	a5,-40(s0)
    291e:	00a7d783          	lhu	a5,10(a5)
    2922:	07a2                	slli	a5,a5,0x8
    2924:	01079713          	slli	a4,a5,0x10
    2928:	8341                	srli	a4,a4,0x10
    292a:	fee45783          	lhu	a5,-18(s0)
    292e:	8fd9                	or	a5,a5,a4
    2930:	fef41723          	sh	a5,-18(s0)
D:/Desktop/智能车基地/CH32V103_SmartCar_V1.0/4.Demo/Libraries/Device/CH32V10x_p/CH32V10x_Lib/ch32v10x_tim.c:206
    tmpccer &= (uint16_t)(~((uint16_t)TIM_CC3NE));
    2934:	fee45783          	lhu	a5,-18(s0)
    2938:	bff7f793          	andi	a5,a5,-1025
    293c:	fef41723          	sh	a5,-18(s0)
D:/Desktop/智能车基地/CH32V103_SmartCar_V1.0/4.Demo/Libraries/Device/CH32V10x_p/CH32V10x_Lib/ch32v10x_tim.c:207
    tmpccer |= (uint16_t)(TIM_OCInitStruct->TIM_OutputNState << 8);
    2940:	fd842783          	lw	a5,-40(s0)
    2944:	0047d783          	lhu	a5,4(a5)
    2948:	07a2                	slli	a5,a5,0x8
    294a:	01079713          	slli	a4,a5,0x10
    294e:	8341                	srli	a4,a4,0x10
    2950:	fee45783          	lhu	a5,-18(s0)
    2954:	8fd9                	or	a5,a5,a4
    2956:	fef41723          	sh	a5,-18(s0)
D:/Desktop/智能车基地/CH32V103_SmartCar_V1.0/4.Demo/Libraries/Device/CH32V10x_p/CH32V10x_Lib/ch32v10x_tim.c:208
    tmpcr2 &= (uint16_t)(~((uint16_t)TIM_OIS3));
    295a:	fec45703          	lhu	a4,-20(s0)
    295e:	77fd                	lui	a5,0xfffff
    2960:	17fd                	addi	a5,a5,-1
    2962:	8ff9                	and	a5,a5,a4
    2964:	fef41623          	sh	a5,-20(s0)
D:/Desktop/智能车基地/CH32V103_SmartCar_V1.0/4.Demo/Libraries/Device/CH32V10x_p/CH32V10x_Lib/ch32v10x_tim.c:209
    tmpcr2 &= (uint16_t)(~((uint16_t)TIM_OIS3N));
    2968:	fec45703          	lhu	a4,-20(s0)
    296c:	77f9                	lui	a5,0xffffe
    296e:	17fd                	addi	a5,a5,-1
    2970:	8ff9                	and	a5,a5,a4
    2972:	fef41623          	sh	a5,-20(s0)
D:/Desktop/智能车基地/CH32V103_SmartCar_V1.0/4.Demo/Libraries/Device/CH32V10x_p/CH32V10x_Lib/ch32v10x_tim.c:210
    tmpcr2 |= (uint16_t)(TIM_OCInitStruct->TIM_OCIdleState << 4);
    2976:	fd842783          	lw	a5,-40(s0)
    297a:	00c7d783          	lhu	a5,12(a5) # ffffe00c <_eusrstack+0xdfff900c>
    297e:	0792                	slli	a5,a5,0x4
    2980:	01079713          	slli	a4,a5,0x10
    2984:	8341                	srli	a4,a4,0x10
    2986:	fec45783          	lhu	a5,-20(s0)
    298a:	8fd9                	or	a5,a5,a4
    298c:	fef41623          	sh	a5,-20(s0)
D:/Desktop/智能车基地/CH32V103_SmartCar_V1.0/4.Demo/Libraries/Device/CH32V10x_p/CH32V10x_Lib/ch32v10x_tim.c:211
    tmpcr2 |= (uint16_t)(TIM_OCInitStruct->TIM_OCNIdleState << 4);
    2990:	fd842783          	lw	a5,-40(s0)
    2994:	00e7d783          	lhu	a5,14(a5)
    2998:	0792                	slli	a5,a5,0x4
    299a:	01079713          	slli	a4,a5,0x10
    299e:	8341                	srli	a4,a4,0x10
    29a0:	fec45783          	lhu	a5,-20(s0)
    29a4:	8fd9                	or	a5,a5,a4
    29a6:	fef41623          	sh	a5,-20(s0)
D:/Desktop/智能车基地/CH32V103_SmartCar_V1.0/4.Demo/Libraries/Device/CH32V10x_p/CH32V10x_Lib/ch32v10x_tim.c:214
  }

  TIMx->CTLR2 = tmpcr2;
    29aa:	fdc42783          	lw	a5,-36(s0)
    29ae:	fec45703          	lhu	a4,-20(s0)
    29b2:	00e79223          	sh	a4,4(a5)
D:/Desktop/智能车基地/CH32V103_SmartCar_V1.0/4.Demo/Libraries/Device/CH32V10x_p/CH32V10x_Lib/ch32v10x_tim.c:215
  TIMx->CHCTLR2 = tmpccmrx;
    29b6:	fdc42783          	lw	a5,-36(s0)
    29ba:	fea45703          	lhu	a4,-22(s0)
    29be:	00e79e23          	sh	a4,28(a5)
D:/Desktop/智能车基地/CH32V103_SmartCar_V1.0/4.Demo/Libraries/Device/CH32V10x_p/CH32V10x_Lib/ch32v10x_tim.c:216
  TIMx->CH3CVR = TIM_OCInitStruct->TIM_Pulse;
    29c2:	fd842783          	lw	a5,-40(s0)
    29c6:	0067d703          	lhu	a4,6(a5)
    29ca:	fdc42783          	lw	a5,-36(s0)
    29ce:	02e79e23          	sh	a4,60(a5)
D:/Desktop/智能车基地/CH32V103_SmartCar_V1.0/4.Demo/Libraries/Device/CH32V10x_p/CH32V10x_Lib/ch32v10x_tim.c:217
  TIMx->CCER = tmpccer;
    29d2:	fdc42783          	lw	a5,-36(s0)
    29d6:	fee45703          	lhu	a4,-18(s0)
    29da:	02e79023          	sh	a4,32(a5)
D:/Desktop/智能车基地/CH32V103_SmartCar_V1.0/4.Demo/Libraries/Device/CH32V10x_p/CH32V10x_Lib/ch32v10x_tim.c:218
}
    29de:	0001                	nop
    29e0:	5432                	lw	s0,44(sp)
    29e2:	6145                	addi	sp,sp,48
    29e4:	8082                	ret

000029e6 <TIM_OC4Init>:
TIM_OC4Init():
D:/Desktop/智能车基地/CH32V103_SmartCar_V1.0/4.Demo/Libraries/Device/CH32V10x_p/CH32V10x_Lib/ch32v10x_tim.c:229
* Input          : TIMx: where x can be 1 to 4 to select the TIM peripheral.
*                  TIM_OCInitStruct: pointer to a TIM_OCInitTypeDef structure.
* Return         : None
*******************************************************************************/
void TIM_OC4Init(TIM_TypeDef* TIMx, TIM_OCInitTypeDef* TIM_OCInitStruct)
{
    29e6:	7179                	addi	sp,sp,-48
    29e8:	d622                	sw	s0,44(sp)
    29ea:	1800                	addi	s0,sp,48
    29ec:	fca42e23          	sw	a0,-36(s0)
    29f0:	fcb42c23          	sw	a1,-40(s0)
D:/Desktop/智能车基地/CH32V103_SmartCar_V1.0/4.Demo/Libraries/Device/CH32V10x_p/CH32V10x_Lib/ch32v10x_tim.c:230
  uint16_t tmpccmrx = 0, tmpccer = 0, tmpcr2 = 0;
    29f4:	fe041623          	sh	zero,-20(s0)
    29f8:	fe041523          	sh	zero,-22(s0)
    29fc:	fe041723          	sh	zero,-18(s0)
D:/Desktop/智能车基地/CH32V103_SmartCar_V1.0/4.Demo/Libraries/Device/CH32V10x_p/CH32V10x_Lib/ch32v10x_tim.c:232

  TIMx->CCER &= (uint16_t)(~((uint16_t)TIM_CC4E));
    2a00:	fdc42783          	lw	a5,-36(s0)
    2a04:	0207d783          	lhu	a5,32(a5)
    2a08:	01079713          	slli	a4,a5,0x10
    2a0c:	8341                	srli	a4,a4,0x10
    2a0e:	77fd                	lui	a5,0xfffff
    2a10:	17fd                	addi	a5,a5,-1
    2a12:	8ff9                	and	a5,a5,a4
    2a14:	01079713          	slli	a4,a5,0x10
    2a18:	8341                	srli	a4,a4,0x10
    2a1a:	fdc42783          	lw	a5,-36(s0)
    2a1e:	02e79023          	sh	a4,32(a5) # fffff020 <_eusrstack+0xdfffa020>
D:/Desktop/智能车基地/CH32V103_SmartCar_V1.0/4.Demo/Libraries/Device/CH32V10x_p/CH32V10x_Lib/ch32v10x_tim.c:233
  tmpccer = TIMx->CCER;
    2a22:	fdc42783          	lw	a5,-36(s0)
    2a26:	0207d783          	lhu	a5,32(a5)
    2a2a:	fef41523          	sh	a5,-22(s0)
D:/Desktop/智能车基地/CH32V103_SmartCar_V1.0/4.Demo/Libraries/Device/CH32V10x_p/CH32V10x_Lib/ch32v10x_tim.c:234
  tmpcr2 =  TIMx->CTLR2;
    2a2e:	fdc42783          	lw	a5,-36(s0)
    2a32:	0047d783          	lhu	a5,4(a5)
    2a36:	fef41723          	sh	a5,-18(s0)
D:/Desktop/智能车基地/CH32V103_SmartCar_V1.0/4.Demo/Libraries/Device/CH32V10x_p/CH32V10x_Lib/ch32v10x_tim.c:235
  tmpccmrx = TIMx->CHCTLR2;
    2a3a:	fdc42783          	lw	a5,-36(s0)
    2a3e:	01c7d783          	lhu	a5,28(a5)
    2a42:	fef41623          	sh	a5,-20(s0)
D:/Desktop/智能车基地/CH32V103_SmartCar_V1.0/4.Demo/Libraries/Device/CH32V10x_p/CH32V10x_Lib/ch32v10x_tim.c:236
  tmpccmrx &= (uint16_t)(~((uint16_t)TIM_OC4M));
    2a46:	fec45703          	lhu	a4,-20(s0)
    2a4a:	77e5                	lui	a5,0xffff9
    2a4c:	17fd                	addi	a5,a5,-1
    2a4e:	8ff9                	and	a5,a5,a4
    2a50:	fef41623          	sh	a5,-20(s0)
D:/Desktop/智能车基地/CH32V103_SmartCar_V1.0/4.Demo/Libraries/Device/CH32V10x_p/CH32V10x_Lib/ch32v10x_tim.c:237
  tmpccmrx &= (uint16_t)(~((uint16_t)TIM_CC4S));
    2a54:	fec45783          	lhu	a5,-20(s0)
    2a58:	cff7f793          	andi	a5,a5,-769
    2a5c:	fef41623          	sh	a5,-20(s0)
D:/Desktop/智能车基地/CH32V103_SmartCar_V1.0/4.Demo/Libraries/Device/CH32V10x_p/CH32V10x_Lib/ch32v10x_tim.c:238
  tmpccmrx |= (uint16_t)(TIM_OCInitStruct->TIM_OCMode << 8);
    2a60:	fd842783          	lw	a5,-40(s0)
    2a64:	0007d783          	lhu	a5,0(a5) # ffff9000 <_eusrstack+0xdfff4000>
    2a68:	07a2                	slli	a5,a5,0x8
    2a6a:	01079713          	slli	a4,a5,0x10
    2a6e:	8341                	srli	a4,a4,0x10
    2a70:	fec45783          	lhu	a5,-20(s0)
    2a74:	8fd9                	or	a5,a5,a4
    2a76:	fef41623          	sh	a5,-20(s0)
D:/Desktop/智能车基地/CH32V103_SmartCar_V1.0/4.Demo/Libraries/Device/CH32V10x_p/CH32V10x_Lib/ch32v10x_tim.c:239
  tmpccer &= (uint16_t)(~((uint16_t)TIM_CC4P));
    2a7a:	fea45703          	lhu	a4,-22(s0)
    2a7e:	77f9                	lui	a5,0xffffe
    2a80:	17fd                	addi	a5,a5,-1
    2a82:	8ff9                	and	a5,a5,a4
    2a84:	fef41523          	sh	a5,-22(s0)
D:/Desktop/智能车基地/CH32V103_SmartCar_V1.0/4.Demo/Libraries/Device/CH32V10x_p/CH32V10x_Lib/ch32v10x_tim.c:240
  tmpccer |= (uint16_t)(TIM_OCInitStruct->TIM_OCPolarity << 12);
    2a88:	fd842783          	lw	a5,-40(s0)
    2a8c:	0087d783          	lhu	a5,8(a5) # ffffe008 <_eusrstack+0xdfff9008>
    2a90:	07b2                	slli	a5,a5,0xc
    2a92:	01079713          	slli	a4,a5,0x10
    2a96:	8341                	srli	a4,a4,0x10
    2a98:	fea45783          	lhu	a5,-22(s0)
    2a9c:	8fd9                	or	a5,a5,a4
    2a9e:	fef41523          	sh	a5,-22(s0)
D:/Desktop/智能车基地/CH32V103_SmartCar_V1.0/4.Demo/Libraries/Device/CH32V10x_p/CH32V10x_Lib/ch32v10x_tim.c:241
  tmpccer |= (uint16_t)(TIM_OCInitStruct->TIM_OutputState << 12);
    2aa2:	fd842783          	lw	a5,-40(s0)
    2aa6:	0027d783          	lhu	a5,2(a5)
    2aaa:	07b2                	slli	a5,a5,0xc
    2aac:	01079713          	slli	a4,a5,0x10
    2ab0:	8341                	srli	a4,a4,0x10
    2ab2:	fea45783          	lhu	a5,-22(s0)
    2ab6:	8fd9                	or	a5,a5,a4
    2ab8:	fef41523          	sh	a5,-22(s0)
D:/Desktop/智能车基地/CH32V103_SmartCar_V1.0/4.Demo/Libraries/Device/CH32V10x_p/CH32V10x_Lib/ch32v10x_tim.c:243
    
  if(TIMx == TIM1)
    2abc:	fdc42703          	lw	a4,-36(s0)
    2ac0:	400137b7          	lui	a5,0x40013
    2ac4:	c0078793          	addi	a5,a5,-1024 # 40012c00 <_eusrstack+0x2000dc00>
    2ac8:	02f71663          	bne	a4,a5,2af4 <TIM_OC4Init+0x10e>
D:/Desktop/智能车基地/CH32V103_SmartCar_V1.0/4.Demo/Libraries/Device/CH32V10x_p/CH32V10x_Lib/ch32v10x_tim.c:245
  {
    tmpcr2 &= (uint16_t)(~((uint16_t)TIM_OIS4));
    2acc:	fee45703          	lhu	a4,-18(s0)
    2ad0:	77f1                	lui	a5,0xffffc
    2ad2:	17fd                	addi	a5,a5,-1
    2ad4:	8ff9                	and	a5,a5,a4
    2ad6:	fef41723          	sh	a5,-18(s0)
D:/Desktop/智能车基地/CH32V103_SmartCar_V1.0/4.Demo/Libraries/Device/CH32V10x_p/CH32V10x_Lib/ch32v10x_tim.c:246
    tmpcr2 |= (uint16_t)(TIM_OCInitStruct->TIM_OCIdleState << 6);
    2ada:	fd842783          	lw	a5,-40(s0)
    2ade:	00c7d783          	lhu	a5,12(a5) # ffffc00c <_eusrstack+0xdfff700c>
    2ae2:	079a                	slli	a5,a5,0x6
    2ae4:	01079713          	slli	a4,a5,0x10
    2ae8:	8341                	srli	a4,a4,0x10
    2aea:	fee45783          	lhu	a5,-18(s0)
    2aee:	8fd9                	or	a5,a5,a4
    2af0:	fef41723          	sh	a5,-18(s0)
D:/Desktop/智能车基地/CH32V103_SmartCar_V1.0/4.Demo/Libraries/Device/CH32V10x_p/CH32V10x_Lib/ch32v10x_tim.c:249
  }

  TIMx->CTLR2 = tmpcr2; 
    2af4:	fdc42783          	lw	a5,-36(s0)
    2af8:	fee45703          	lhu	a4,-18(s0)
    2afc:	00e79223          	sh	a4,4(a5)
D:/Desktop/智能车基地/CH32V103_SmartCar_V1.0/4.Demo/Libraries/Device/CH32V10x_p/CH32V10x_Lib/ch32v10x_tim.c:250
  TIMx->CHCTLR2 = tmpccmrx;
    2b00:	fdc42783          	lw	a5,-36(s0)
    2b04:	fec45703          	lhu	a4,-20(s0)
    2b08:	00e79e23          	sh	a4,28(a5)
D:/Desktop/智能车基地/CH32V103_SmartCar_V1.0/4.Demo/Libraries/Device/CH32V10x_p/CH32V10x_Lib/ch32v10x_tim.c:251
  TIMx->CH4CVR = TIM_OCInitStruct->TIM_Pulse;
    2b0c:	fd842783          	lw	a5,-40(s0)
    2b10:	0067d703          	lhu	a4,6(a5)
    2b14:	fdc42783          	lw	a5,-36(s0)
    2b18:	04e79023          	sh	a4,64(a5)
D:/Desktop/智能车基地/CH32V103_SmartCar_V1.0/4.Demo/Libraries/Device/CH32V10x_p/CH32V10x_Lib/ch32v10x_tim.c:252
  TIMx->CCER = tmpccer;
    2b1c:	fdc42783          	lw	a5,-36(s0)
    2b20:	fea45703          	lhu	a4,-22(s0)
    2b24:	02e79023          	sh	a4,32(a5)
D:/Desktop/智能车基地/CH32V103_SmartCar_V1.0/4.Demo/Libraries/Device/CH32V10x_p/CH32V10x_Lib/ch32v10x_tim.c:253
}
    2b28:	0001                	nop
    2b2a:	5432                	lw	s0,44(sp)
    2b2c:	6145                	addi	sp,sp,48
    2b2e:	8082                	ret

00002b30 <TIM_Cmd>:
TIM_Cmd():
D:/Desktop/智能车基地/CH32V103_SmartCar_V1.0/4.Demo/Libraries/Device/CH32V10x_p/CH32V10x_Lib/ch32v10x_tim.c:433
* Input          : TIMx: where x can be 1 to 4 to select the TIM peripheral.
*                  NewState: ENABLE or DISABLE.
* Return         : None
*******************************************************************************/
void TIM_Cmd(TIM_TypeDef* TIMx, FunctionalState NewState)
{ 
    2b30:	1101                	addi	sp,sp,-32
    2b32:	ce22                	sw	s0,28(sp)
    2b34:	1000                	addi	s0,sp,32
    2b36:	fea42623          	sw	a0,-20(s0)
    2b3a:	feb42423          	sw	a1,-24(s0)
D:/Desktop/智能车基地/CH32V103_SmartCar_V1.0/4.Demo/Libraries/Device/CH32V10x_p/CH32V10x_Lib/ch32v10x_tim.c:434
  if (NewState != DISABLE)
    2b3e:	fe842783          	lw	a5,-24(s0)
    2b42:	c38d                	beqz	a5,2b64 <TIM_Cmd+0x34>
D:/Desktop/智能车基地/CH32V103_SmartCar_V1.0/4.Demo/Libraries/Device/CH32V10x_p/CH32V10x_Lib/ch32v10x_tim.c:436
  {
    TIMx->CTLR1 |= TIM_CEN;
    2b44:	fec42783          	lw	a5,-20(s0)
    2b48:	0007d783          	lhu	a5,0(a5)
    2b4c:	07c2                	slli	a5,a5,0x10
    2b4e:	83c1                	srli	a5,a5,0x10
    2b50:	0017e793          	ori	a5,a5,1
    2b54:	01079713          	slli	a4,a5,0x10
    2b58:	8341                	srli	a4,a4,0x10
    2b5a:	fec42783          	lw	a5,-20(s0)
    2b5e:	00e79023          	sh	a4,0(a5)
D:/Desktop/智能车基地/CH32V103_SmartCar_V1.0/4.Demo/Libraries/Device/CH32V10x_p/CH32V10x_Lib/ch32v10x_tim.c:442
  }
  else
  {
    TIMx->CTLR1 &= (uint16_t)(~((uint16_t)TIM_CEN));
  }
}
    2b62:	a839                	j	2b80 <TIM_Cmd+0x50>
D:/Desktop/智能车基地/CH32V103_SmartCar_V1.0/4.Demo/Libraries/Device/CH32V10x_p/CH32V10x_Lib/ch32v10x_tim.c:440
    TIMx->CTLR1 &= (uint16_t)(~((uint16_t)TIM_CEN));
    2b64:	fec42783          	lw	a5,-20(s0)
    2b68:	0007d783          	lhu	a5,0(a5)
    2b6c:	07c2                	slli	a5,a5,0x10
    2b6e:	83c1                	srli	a5,a5,0x10
    2b70:	9bf9                	andi	a5,a5,-2
    2b72:	01079713          	slli	a4,a5,0x10
    2b76:	8341                	srli	a4,a4,0x10
    2b78:	fec42783          	lw	a5,-20(s0)
    2b7c:	00e79023          	sh	a4,0(a5)
D:/Desktop/智能车基地/CH32V103_SmartCar_V1.0/4.Demo/Libraries/Device/CH32V10x_p/CH32V10x_Lib/ch32v10x_tim.c:442
}
    2b80:	0001                	nop
    2b82:	4472                	lw	s0,28(sp)
    2b84:	6105                	addi	sp,sp,32
    2b86:	8082                	ret

00002b88 <TIM_CtrlPWMOutputs>:
TIM_CtrlPWMOutputs():
D:/Desktop/智能车基地/CH32V103_SmartCar_V1.0/4.Demo/Libraries/Device/CH32V10x_p/CH32V10x_Lib/ch32v10x_tim.c:452
* Input          : TIMx: where x can be 1 to 4 to select the TIM peripheral.
*                  NewState: ENABLE or DISABLE.
* Return         : None
*******************************************************************************/
void TIM_CtrlPWMOutputs(TIM_TypeDef* TIMx, FunctionalState NewState)
{
    2b88:	1101                	addi	sp,sp,-32
    2b8a:	ce22                	sw	s0,28(sp)
    2b8c:	1000                	addi	s0,sp,32
    2b8e:	fea42623          	sw	a0,-20(s0)
    2b92:	feb42423          	sw	a1,-24(s0)
D:/Desktop/智能车基地/CH32V103_SmartCar_V1.0/4.Demo/Libraries/Device/CH32V10x_p/CH32V10x_Lib/ch32v10x_tim.c:453
  if (NewState != DISABLE)
    2b96:	fe842783          	lw	a5,-24(s0)
    2b9a:	c395                	beqz	a5,2bbe <TIM_CtrlPWMOutputs+0x36>
D:/Desktop/智能车基地/CH32V103_SmartCar_V1.0/4.Demo/Libraries/Device/CH32V10x_p/CH32V10x_Lib/ch32v10x_tim.c:455
  {
    TIMx->BDTR |= TIM_MOE;
    2b9c:	fec42783          	lw	a5,-20(s0)
    2ba0:	0447d783          	lhu	a5,68(a5)
    2ba4:	01079713          	slli	a4,a5,0x10
    2ba8:	8341                	srli	a4,a4,0x10
    2baa:	77e1                	lui	a5,0xffff8
    2bac:	8fd9                	or	a5,a5,a4
    2bae:	01079713          	slli	a4,a5,0x10
    2bb2:	8341                	srli	a4,a4,0x10
    2bb4:	fec42783          	lw	a5,-20(s0)
    2bb8:	04e79223          	sh	a4,68(a5) # ffff8044 <_eusrstack+0xdfff3044>
D:/Desktop/智能车基地/CH32V103_SmartCar_V1.0/4.Demo/Libraries/Device/CH32V10x_p/CH32V10x_Lib/ch32v10x_tim.c:461
  }
  else
  {
    TIMx->BDTR &= (uint16_t)(~((uint16_t)TIM_MOE));
  }  
}
    2bbc:	a015                	j	2be0 <TIM_CtrlPWMOutputs+0x58>
D:/Desktop/智能车基地/CH32V103_SmartCar_V1.0/4.Demo/Libraries/Device/CH32V10x_p/CH32V10x_Lib/ch32v10x_tim.c:459
    TIMx->BDTR &= (uint16_t)(~((uint16_t)TIM_MOE));
    2bbe:	fec42783          	lw	a5,-20(s0)
    2bc2:	0447d783          	lhu	a5,68(a5)
    2bc6:	01079713          	slli	a4,a5,0x10
    2bca:	8341                	srli	a4,a4,0x10
    2bcc:	67a1                	lui	a5,0x8
    2bce:	17fd                	addi	a5,a5,-1
    2bd0:	8ff9                	and	a5,a5,a4
    2bd2:	01079713          	slli	a4,a5,0x10
    2bd6:	8341                	srli	a4,a4,0x10
    2bd8:	fec42783          	lw	a5,-20(s0)
    2bdc:	04e79223          	sh	a4,68(a5) # 8044 <_data_lma+0x4d5c>
D:/Desktop/智能车基地/CH32V103_SmartCar_V1.0/4.Demo/Libraries/Device/CH32V10x_p/CH32V10x_Lib/ch32v10x_tim.c:461
}
    2be0:	0001                	nop
    2be2:	4472                	lw	s0,28(sp)
    2be4:	6105                	addi	sp,sp,32
    2be6:	8082                	ret

00002be8 <TIM_OC1PreloadConfig>:
TIM_OC1PreloadConfig():
D:/Desktop/智能车基地/CH32V103_SmartCar_V1.0/4.Demo/Libraries/Device/CH32V10x_p/CH32V10x_Lib/ch32v10x_tim.c:981
*                    TIM_OCPreload_Enable.
*                    TIM_OCPreload_Disable.
* Return         : None
*******************************************************************************/
void TIM_OC1PreloadConfig(TIM_TypeDef* TIMx, uint16_t TIM_OCPreload)
{
    2be8:	7179                	addi	sp,sp,-48
    2bea:	d622                	sw	s0,44(sp)
    2bec:	1800                	addi	s0,sp,48
    2bee:	fca42e23          	sw	a0,-36(s0)
    2bf2:	87ae                	mv	a5,a1
    2bf4:	fcf41d23          	sh	a5,-38(s0)
D:/Desktop/智能车基地/CH32V103_SmartCar_V1.0/4.Demo/Libraries/Device/CH32V10x_p/CH32V10x_Lib/ch32v10x_tim.c:982
  uint16_t tmpccmr1 = 0;
    2bf8:	fe041723          	sh	zero,-18(s0)
D:/Desktop/智能车基地/CH32V103_SmartCar_V1.0/4.Demo/Libraries/Device/CH32V10x_p/CH32V10x_Lib/ch32v10x_tim.c:984

  tmpccmr1 = TIMx->CHCTLR1;
    2bfc:	fdc42783          	lw	a5,-36(s0)
    2c00:	0187d783          	lhu	a5,24(a5)
    2c04:	fef41723          	sh	a5,-18(s0)
D:/Desktop/智能车基地/CH32V103_SmartCar_V1.0/4.Demo/Libraries/Device/CH32V10x_p/CH32V10x_Lib/ch32v10x_tim.c:985
  tmpccmr1 &= (uint16_t)~((uint16_t)TIM_OC1PE);
    2c08:	fee45783          	lhu	a5,-18(s0)
    2c0c:	9bdd                	andi	a5,a5,-9
    2c0e:	fef41723          	sh	a5,-18(s0)
D:/Desktop/智能车基地/CH32V103_SmartCar_V1.0/4.Demo/Libraries/Device/CH32V10x_p/CH32V10x_Lib/ch32v10x_tim.c:986
  tmpccmr1 |= TIM_OCPreload;
    2c12:	fee45703          	lhu	a4,-18(s0)
    2c16:	fda45783          	lhu	a5,-38(s0)
    2c1a:	8fd9                	or	a5,a5,a4
    2c1c:	fef41723          	sh	a5,-18(s0)
D:/Desktop/智能车基地/CH32V103_SmartCar_V1.0/4.Demo/Libraries/Device/CH32V10x_p/CH32V10x_Lib/ch32v10x_tim.c:987
  TIMx->CHCTLR1 = tmpccmr1;
    2c20:	fdc42783          	lw	a5,-36(s0)
    2c24:	fee45703          	lhu	a4,-18(s0)
    2c28:	00e79c23          	sh	a4,24(a5)
D:/Desktop/智能车基地/CH32V103_SmartCar_V1.0/4.Demo/Libraries/Device/CH32V10x_p/CH32V10x_Lib/ch32v10x_tim.c:988
}
    2c2c:	0001                	nop
    2c2e:	5432                	lw	s0,44(sp)
    2c30:	6145                	addi	sp,sp,48
    2c32:	8082                	ret

00002c34 <TIM_OC2PreloadConfig>:
TIM_OC2PreloadConfig():
D:/Desktop/智能车基地/CH32V103_SmartCar_V1.0/4.Demo/Libraries/Device/CH32V10x_p/CH32V10x_Lib/ch32v10x_tim.c:1000
*                    TIM_OCPreload_Enable.
*                    TIM_OCPreload_Disable.
* Return         : None
*******************************************************************************/
void TIM_OC2PreloadConfig(TIM_TypeDef* TIMx, uint16_t TIM_OCPreload)
{
    2c34:	7179                	addi	sp,sp,-48
    2c36:	d622                	sw	s0,44(sp)
    2c38:	1800                	addi	s0,sp,48
    2c3a:	fca42e23          	sw	a0,-36(s0)
    2c3e:	87ae                	mv	a5,a1
    2c40:	fcf41d23          	sh	a5,-38(s0)
D:/Desktop/智能车基地/CH32V103_SmartCar_V1.0/4.Demo/Libraries/Device/CH32V10x_p/CH32V10x_Lib/ch32v10x_tim.c:1001
  uint16_t tmpccmr1 = 0;
    2c44:	fe041723          	sh	zero,-18(s0)
D:/Desktop/智能车基地/CH32V103_SmartCar_V1.0/4.Demo/Libraries/Device/CH32V10x_p/CH32V10x_Lib/ch32v10x_tim.c:1003

  tmpccmr1 = TIMx->CHCTLR1;
    2c48:	fdc42783          	lw	a5,-36(s0)
    2c4c:	0187d783          	lhu	a5,24(a5)
    2c50:	fef41723          	sh	a5,-18(s0)
D:/Desktop/智能车基地/CH32V103_SmartCar_V1.0/4.Demo/Libraries/Device/CH32V10x_p/CH32V10x_Lib/ch32v10x_tim.c:1004
  tmpccmr1 &= (uint16_t)~((uint16_t)TIM_OC2PE);
    2c54:	fee45703          	lhu	a4,-18(s0)
    2c58:	77fd                	lui	a5,0xfffff
    2c5a:	7ff78793          	addi	a5,a5,2047 # fffff7ff <_eusrstack+0xdfffa7ff>
    2c5e:	8ff9                	and	a5,a5,a4
    2c60:	fef41723          	sh	a5,-18(s0)
D:/Desktop/智能车基地/CH32V103_SmartCar_V1.0/4.Demo/Libraries/Device/CH32V10x_p/CH32V10x_Lib/ch32v10x_tim.c:1005
  tmpccmr1 |= (uint16_t)(TIM_OCPreload << 8);	
    2c64:	fda45783          	lhu	a5,-38(s0)
    2c68:	07a2                	slli	a5,a5,0x8
    2c6a:	01079713          	slli	a4,a5,0x10
    2c6e:	8341                	srli	a4,a4,0x10
    2c70:	fee45783          	lhu	a5,-18(s0)
    2c74:	8fd9                	or	a5,a5,a4
    2c76:	fef41723          	sh	a5,-18(s0)
D:/Desktop/智能车基地/CH32V103_SmartCar_V1.0/4.Demo/Libraries/Device/CH32V10x_p/CH32V10x_Lib/ch32v10x_tim.c:1006
  TIMx->CHCTLR1 = tmpccmr1;
    2c7a:	fdc42783          	lw	a5,-36(s0)
    2c7e:	fee45703          	lhu	a4,-18(s0)
    2c82:	00e79c23          	sh	a4,24(a5)
D:/Desktop/智能车基地/CH32V103_SmartCar_V1.0/4.Demo/Libraries/Device/CH32V10x_p/CH32V10x_Lib/ch32v10x_tim.c:1007
}
    2c86:	0001                	nop
    2c88:	5432                	lw	s0,44(sp)
    2c8a:	6145                	addi	sp,sp,48
    2c8c:	8082                	ret

00002c8e <TIM_OC3PreloadConfig>:
TIM_OC3PreloadConfig():
D:/Desktop/智能车基地/CH32V103_SmartCar_V1.0/4.Demo/Libraries/Device/CH32V10x_p/CH32V10x_Lib/ch32v10x_tim.c:1019
*                    TIM_OCPreload_Enable.
*                    TIM_OCPreload_Disable.
* Return         : None
*******************************************************************************/
void TIM_OC3PreloadConfig(TIM_TypeDef* TIMx, uint16_t TIM_OCPreload)
{
    2c8e:	7179                	addi	sp,sp,-48
    2c90:	d622                	sw	s0,44(sp)
    2c92:	1800                	addi	s0,sp,48
    2c94:	fca42e23          	sw	a0,-36(s0)
    2c98:	87ae                	mv	a5,a1
    2c9a:	fcf41d23          	sh	a5,-38(s0)
D:/Desktop/智能车基地/CH32V103_SmartCar_V1.0/4.Demo/Libraries/Device/CH32V10x_p/CH32V10x_Lib/ch32v10x_tim.c:1020
  uint16_t tmpccmr2 = 0;
    2c9e:	fe041723          	sh	zero,-18(s0)
D:/Desktop/智能车基地/CH32V103_SmartCar_V1.0/4.Demo/Libraries/Device/CH32V10x_p/CH32V10x_Lib/ch32v10x_tim.c:1022

  tmpccmr2 = TIMx->CHCTLR2;
    2ca2:	fdc42783          	lw	a5,-36(s0)
    2ca6:	01c7d783          	lhu	a5,28(a5)
    2caa:	fef41723          	sh	a5,-18(s0)
D:/Desktop/智能车基地/CH32V103_SmartCar_V1.0/4.Demo/Libraries/Device/CH32V10x_p/CH32V10x_Lib/ch32v10x_tim.c:1023
  tmpccmr2 &= (uint16_t)~((uint16_t)TIM_OC3PE);
    2cae:	fee45783          	lhu	a5,-18(s0)
    2cb2:	9bdd                	andi	a5,a5,-9
    2cb4:	fef41723          	sh	a5,-18(s0)
D:/Desktop/智能车基地/CH32V103_SmartCar_V1.0/4.Demo/Libraries/Device/CH32V10x_p/CH32V10x_Lib/ch32v10x_tim.c:1024
  tmpccmr2 |= TIM_OCPreload;
    2cb8:	fee45703          	lhu	a4,-18(s0)
    2cbc:	fda45783          	lhu	a5,-38(s0)
    2cc0:	8fd9                	or	a5,a5,a4
    2cc2:	fef41723          	sh	a5,-18(s0)
D:/Desktop/智能车基地/CH32V103_SmartCar_V1.0/4.Demo/Libraries/Device/CH32V10x_p/CH32V10x_Lib/ch32v10x_tim.c:1025
  TIMx->CHCTLR2 = tmpccmr2;
    2cc6:	fdc42783          	lw	a5,-36(s0)
    2cca:	fee45703          	lhu	a4,-18(s0)
    2cce:	00e79e23          	sh	a4,28(a5)
D:/Desktop/智能车基地/CH32V103_SmartCar_V1.0/4.Demo/Libraries/Device/CH32V10x_p/CH32V10x_Lib/ch32v10x_tim.c:1026
}
    2cd2:	0001                	nop
    2cd4:	5432                	lw	s0,44(sp)
    2cd6:	6145                	addi	sp,sp,48
    2cd8:	8082                	ret

00002cda <TIM_OC4PreloadConfig>:
TIM_OC4PreloadConfig():
D:/Desktop/智能车基地/CH32V103_SmartCar_V1.0/4.Demo/Libraries/Device/CH32V10x_p/CH32V10x_Lib/ch32v10x_tim.c:1038
*                    TIM_OCPreload_Enable.
*                    TIM_OCPreload_Disable.
* Return         : None
*******************************************************************************/
void TIM_OC4PreloadConfig(TIM_TypeDef* TIMx, uint16_t TIM_OCPreload)
{
    2cda:	7179                	addi	sp,sp,-48
    2cdc:	d622                	sw	s0,44(sp)
    2cde:	1800                	addi	s0,sp,48
    2ce0:	fca42e23          	sw	a0,-36(s0)
    2ce4:	87ae                	mv	a5,a1
    2ce6:	fcf41d23          	sh	a5,-38(s0)
D:/Desktop/智能车基地/CH32V103_SmartCar_V1.0/4.Demo/Libraries/Device/CH32V10x_p/CH32V10x_Lib/ch32v10x_tim.c:1039
  uint16_t tmpccmr2 = 0;
    2cea:	fe041723          	sh	zero,-18(s0)
D:/Desktop/智能车基地/CH32V103_SmartCar_V1.0/4.Demo/Libraries/Device/CH32V10x_p/CH32V10x_Lib/ch32v10x_tim.c:1041

  tmpccmr2 = TIMx->CHCTLR2;
    2cee:	fdc42783          	lw	a5,-36(s0)
    2cf2:	01c7d783          	lhu	a5,28(a5)
    2cf6:	fef41723          	sh	a5,-18(s0)
D:/Desktop/智能车基地/CH32V103_SmartCar_V1.0/4.Demo/Libraries/Device/CH32V10x_p/CH32V10x_Lib/ch32v10x_tim.c:1042
  tmpccmr2 &= (uint16_t)~((uint16_t)TIM_OC4PE);
    2cfa:	fee45703          	lhu	a4,-18(s0)
    2cfe:	77fd                	lui	a5,0xfffff
    2d00:	7ff78793          	addi	a5,a5,2047 # fffff7ff <_eusrstack+0xdfffa7ff>
    2d04:	8ff9                	and	a5,a5,a4
    2d06:	fef41723          	sh	a5,-18(s0)
D:/Desktop/智能车基地/CH32V103_SmartCar_V1.0/4.Demo/Libraries/Device/CH32V10x_p/CH32V10x_Lib/ch32v10x_tim.c:1043
  tmpccmr2 |= (uint16_t)(TIM_OCPreload << 8);
    2d0a:	fda45783          	lhu	a5,-38(s0)
    2d0e:	07a2                	slli	a5,a5,0x8
    2d10:	01079713          	slli	a4,a5,0x10
    2d14:	8341                	srli	a4,a4,0x10
    2d16:	fee45783          	lhu	a5,-18(s0)
    2d1a:	8fd9                	or	a5,a5,a4
    2d1c:	fef41723          	sh	a5,-18(s0)
D:/Desktop/智能车基地/CH32V103_SmartCar_V1.0/4.Demo/Libraries/Device/CH32V10x_p/CH32V10x_Lib/ch32v10x_tim.c:1044
  TIMx->CHCTLR2 = tmpccmr2;
    2d20:	fdc42783          	lw	a5,-36(s0)
    2d24:	fee45703          	lhu	a4,-18(s0)
    2d28:	00e79e23          	sh	a4,28(a5)
D:/Desktop/智能车基地/CH32V103_SmartCar_V1.0/4.Demo/Libraries/Device/CH32V10x_p/CH32V10x_Lib/ch32v10x_tim.c:1045
}
    2d2c:	0001                	nop
    2d2e:	5432                	lw	s0,44(sp)
    2d30:	6145                	addi	sp,sp,48
    2d32:	8082                	ret

00002d34 <TIM_OC2PolarityConfig>:
TIM_OC2PolarityConfig():
D:/Desktop/智能车基地/CH32V103_SmartCar_V1.0/4.Demo/Libraries/Device/CH32V10x_p/CH32V10x_Lib/ch32v10x_tim.c:1247
*                    TIM_OCPolarity_High: Output Compare active high.
*                    TIM_OCPolarity_Low: Output Compare active low.
* Return         : None
*******************************************************************************/
void TIM_OC2PolarityConfig(TIM_TypeDef* TIMx, uint16_t TIM_OCPolarity)
{
    2d34:	7179                	addi	sp,sp,-48
    2d36:	d622                	sw	s0,44(sp)
    2d38:	1800                	addi	s0,sp,48
    2d3a:	fca42e23          	sw	a0,-36(s0)
    2d3e:	87ae                	mv	a5,a1
    2d40:	fcf41d23          	sh	a5,-38(s0)
D:/Desktop/智能车基地/CH32V103_SmartCar_V1.0/4.Demo/Libraries/Device/CH32V10x_p/CH32V10x_Lib/ch32v10x_tim.c:1248
  uint16_t tmpccer = 0;
    2d44:	fe041723          	sh	zero,-18(s0)
D:/Desktop/智能车基地/CH32V103_SmartCar_V1.0/4.Demo/Libraries/Device/CH32V10x_p/CH32V10x_Lib/ch32v10x_tim.c:1250

  tmpccer = TIMx->CCER;
    2d48:	fdc42783          	lw	a5,-36(s0)
    2d4c:	0207d783          	lhu	a5,32(a5)
    2d50:	fef41723          	sh	a5,-18(s0)
D:/Desktop/智能车基地/CH32V103_SmartCar_V1.0/4.Demo/Libraries/Device/CH32V10x_p/CH32V10x_Lib/ch32v10x_tim.c:1251
  tmpccer &= (uint16_t)~((uint16_t)TIM_CC2P);
    2d54:	fee45783          	lhu	a5,-18(s0)
    2d58:	fdf7f793          	andi	a5,a5,-33
    2d5c:	fef41723          	sh	a5,-18(s0)
D:/Desktop/智能车基地/CH32V103_SmartCar_V1.0/4.Demo/Libraries/Device/CH32V10x_p/CH32V10x_Lib/ch32v10x_tim.c:1252
  tmpccer |= (uint16_t)(TIM_OCPolarity << 4);
    2d60:	fda45783          	lhu	a5,-38(s0)
    2d64:	0792                	slli	a5,a5,0x4
    2d66:	01079713          	slli	a4,a5,0x10
    2d6a:	8341                	srli	a4,a4,0x10
    2d6c:	fee45783          	lhu	a5,-18(s0)
    2d70:	8fd9                	or	a5,a5,a4
    2d72:	fef41723          	sh	a5,-18(s0)
D:/Desktop/智能车基地/CH32V103_SmartCar_V1.0/4.Demo/Libraries/Device/CH32V10x_p/CH32V10x_Lib/ch32v10x_tim.c:1253
  TIMx->CCER = tmpccer;
    2d76:	fdc42783          	lw	a5,-36(s0)
    2d7a:	fee45703          	lhu	a4,-18(s0)
    2d7e:	02e79023          	sh	a4,32(a5)
D:/Desktop/智能车基地/CH32V103_SmartCar_V1.0/4.Demo/Libraries/Device/CH32V10x_p/CH32V10x_Lib/ch32v10x_tim.c:1254
}
    2d82:	0001                	nop
    2d84:	5432                	lw	s0,44(sp)
    2d86:	6145                	addi	sp,sp,48
    2d88:	8082                	ret

00002d8a <TIM_SetCounter>:
TIM_SetCounter():
D:/Desktop/智能车基地/CH32V103_SmartCar_V1.0/4.Demo/Libraries/Device/CH32V10x_p/CH32V10x_Lib/ch32v10x_tim.c:1564
* Input          : TIMx: where x can be 1 to 4 select the TIM peripheral.
*                  Counter: specifies the Counter register new value.
* Return         : None
*******************************************************************************/
void TIM_SetCounter(TIM_TypeDef* TIMx, uint16_t Counter)
{
    2d8a:	1101                	addi	sp,sp,-32
    2d8c:	ce22                	sw	s0,28(sp)
    2d8e:	1000                	addi	s0,sp,32
    2d90:	fea42623          	sw	a0,-20(s0)
    2d94:	87ae                	mv	a5,a1
    2d96:	fef41523          	sh	a5,-22(s0)
D:/Desktop/智能车基地/CH32V103_SmartCar_V1.0/4.Demo/Libraries/Device/CH32V10x_p/CH32V10x_Lib/ch32v10x_tim.c:1565
  TIMx->CNT = Counter;
    2d9a:	fec42783          	lw	a5,-20(s0)
    2d9e:	fea45703          	lhu	a4,-22(s0)
    2da2:	02e79223          	sh	a4,36(a5)
D:/Desktop/智能车基地/CH32V103_SmartCar_V1.0/4.Demo/Libraries/Device/CH32V10x_p/CH32V10x_Lib/ch32v10x_tim.c:1566
}
    2da6:	0001                	nop
    2da8:	4472                	lw	s0,28(sp)
    2daa:	6105                	addi	sp,sp,32
    2dac:	8082                	ret

00002dae <TIM_GetFlagStatus>:
TIM_GetFlagStatus():
D:/Desktop/智能车基地/CH32V103_SmartCar_V1.0/4.Demo/Libraries/Device/CH32V10x_p/CH32V10x_Lib/ch32v10x_tim.c:1798
*                    TIM_FLAG_CC3OF: TIM Capture Compare 3 overcapture Flag.
*                    TIM_FLAG_CC4OF: TIM Capture Compare 4 overcapture Flag.
* Return         : bitstatus: SET or RESET.
*******************************************************************************/
FlagStatus TIM_GetFlagStatus(TIM_TypeDef* TIMx, uint16_t TIM_FLAG)
{ 
    2dae:	7179                	addi	sp,sp,-48
    2db0:	d622                	sw	s0,44(sp)
    2db2:	1800                	addi	s0,sp,48
    2db4:	fca42e23          	sw	a0,-36(s0)
    2db8:	87ae                	mv	a5,a1
    2dba:	fcf41d23          	sh	a5,-38(s0)
D:/Desktop/智能车基地/CH32V103_SmartCar_V1.0/4.Demo/Libraries/Device/CH32V10x_p/CH32V10x_Lib/ch32v10x_tim.c:1799
  ITStatus bitstatus = RESET;  
    2dbe:	fe042623          	sw	zero,-20(s0)
D:/Desktop/智能车基地/CH32V103_SmartCar_V1.0/4.Demo/Libraries/Device/CH32V10x_p/CH32V10x_Lib/ch32v10x_tim.c:1801
  
  if ((TIMx->INTFR & TIM_FLAG) != (uint16_t)RESET)
    2dc2:	fdc42783          	lw	a5,-36(s0)
    2dc6:	0107d783          	lhu	a5,16(a5)
    2dca:	01079713          	slli	a4,a5,0x10
    2dce:	8341                	srli	a4,a4,0x10
    2dd0:	fda45783          	lhu	a5,-38(s0)
    2dd4:	8ff9                	and	a5,a5,a4
    2dd6:	07c2                	slli	a5,a5,0x10
    2dd8:	83c1                	srli	a5,a5,0x10
    2dda:	c789                	beqz	a5,2de4 <TIM_GetFlagStatus+0x36>
D:/Desktop/智能车基地/CH32V103_SmartCar_V1.0/4.Demo/Libraries/Device/CH32V10x_p/CH32V10x_Lib/ch32v10x_tim.c:1803
  {
    bitstatus = SET;
    2ddc:	4785                	li	a5,1
    2dde:	fef42623          	sw	a5,-20(s0)
    2de2:	a019                	j	2de8 <TIM_GetFlagStatus+0x3a>
D:/Desktop/智能车基地/CH32V103_SmartCar_V1.0/4.Demo/Libraries/Device/CH32V10x_p/CH32V10x_Lib/ch32v10x_tim.c:1807
  }
  else
  {
    bitstatus = RESET;
    2de4:	fe042623          	sw	zero,-20(s0)
D:/Desktop/智能车基地/CH32V103_SmartCar_V1.0/4.Demo/Libraries/Device/CH32V10x_p/CH32V10x_Lib/ch32v10x_tim.c:1810
  }
	
  return bitstatus;
    2de8:	fec42783          	lw	a5,-20(s0)
D:/Desktop/智能车基地/CH32V103_SmartCar_V1.0/4.Demo/Libraries/Device/CH32V10x_p/CH32V10x_Lib/ch32v10x_tim.c:1811
}
    2dec:	853e                	mv	a0,a5
    2dee:	5432                	lw	s0,44(sp)
    2df0:	6145                	addi	sp,sp,48
    2df2:	8082                	ret

00002df4 <TIM_ClearFlag>:
TIM_ClearFlag():
D:/Desktop/智能车基地/CH32V103_SmartCar_V1.0/4.Demo/Libraries/Device/CH32V10x_p/CH32V10x_Lib/ch32v10x_tim.c:1833
*                    TIM_FLAG_CC3OF: TIM Capture Compare 3 overcapture Flag.
*                    TIM_FLAG_CC4OF: TIM Capture Compare 4 overcapture Flag.
* Return         : None
*******************************************************************************/
void TIM_ClearFlag(TIM_TypeDef* TIMx, uint16_t TIM_FLAG)
{  
    2df4:	1101                	addi	sp,sp,-32
    2df6:	ce22                	sw	s0,28(sp)
    2df8:	1000                	addi	s0,sp,32
    2dfa:	fea42623          	sw	a0,-20(s0)
    2dfe:	87ae                	mv	a5,a1
    2e00:	fef41523          	sh	a5,-22(s0)
D:/Desktop/智能车基地/CH32V103_SmartCar_V1.0/4.Demo/Libraries/Device/CH32V10x_p/CH32V10x_Lib/ch32v10x_tim.c:1834
  TIMx->INTFR = (uint16_t)~TIM_FLAG;
    2e04:	fea45783          	lhu	a5,-22(s0)
    2e08:	fff7c793          	not	a5,a5
    2e0c:	01079713          	slli	a4,a5,0x10
    2e10:	8341                	srli	a4,a4,0x10
    2e12:	fec42783          	lw	a5,-20(s0)
    2e16:	00e79823          	sh	a4,16(a5)
D:/Desktop/智能车基地/CH32V103_SmartCar_V1.0/4.Demo/Libraries/Device/CH32V10x_p/CH32V10x_Lib/ch32v10x_tim.c:1835
}
    2e1a:	0001                	nop
    2e1c:	4472                	lw	s0,28(sp)
    2e1e:	6105                	addi	sp,sp,32
    2e20:	8082                	ret

00002e22 <TIM_GetITStatus>:
TIM_GetITStatus():
D:/Desktop/智能车基地/CH32V103_SmartCar_V1.0/4.Demo/Libraries/Device/CH32V10x_p/CH32V10x_Lib/ch32v10x_tim.c:1853
*                    TIM_IT_Trigger: TIM Trigger Interrupt source.
*                    TIM_IT_Break: TIM Break Interrupt source.
* Return         : bitstatus: SET or RESET.
*******************************************************************************/
ITStatus TIM_GetITStatus(TIM_TypeDef* TIMx, uint16_t TIM_IT)
{
    2e22:	7179                	addi	sp,sp,-48
    2e24:	d622                	sw	s0,44(sp)
    2e26:	1800                	addi	s0,sp,48
    2e28:	fca42e23          	sw	a0,-36(s0)
    2e2c:	87ae                	mv	a5,a1
    2e2e:	fcf41d23          	sh	a5,-38(s0)
D:/Desktop/智能车基地/CH32V103_SmartCar_V1.0/4.Demo/Libraries/Device/CH32V10x_p/CH32V10x_Lib/ch32v10x_tim.c:1854
  ITStatus bitstatus = RESET;  
    2e32:	fe042623          	sw	zero,-20(s0)
D:/Desktop/智能车基地/CH32V103_SmartCar_V1.0/4.Demo/Libraries/Device/CH32V10x_p/CH32V10x_Lib/ch32v10x_tim.c:1855
  uint16_t itstatus = 0x0, itenable = 0x0;
    2e36:	fe041523          	sh	zero,-22(s0)
    2e3a:	fe041423          	sh	zero,-24(s0)
D:/Desktop/智能车基地/CH32V103_SmartCar_V1.0/4.Demo/Libraries/Device/CH32V10x_p/CH32V10x_Lib/ch32v10x_tim.c:1857
   
  itstatus = TIMx->INTFR & TIM_IT;
    2e3e:	fdc42783          	lw	a5,-36(s0)
    2e42:	0107d783          	lhu	a5,16(a5)
    2e46:	01079713          	slli	a4,a5,0x10
    2e4a:	8341                	srli	a4,a4,0x10
    2e4c:	fda45783          	lhu	a5,-38(s0)
    2e50:	8ff9                	and	a5,a5,a4
    2e52:	fef41523          	sh	a5,-22(s0)
D:/Desktop/智能车基地/CH32V103_SmartCar_V1.0/4.Demo/Libraries/Device/CH32V10x_p/CH32V10x_Lib/ch32v10x_tim.c:1859
  
  itenable = TIMx->DMAINTENR & TIM_IT;
    2e56:	fdc42783          	lw	a5,-36(s0)
    2e5a:	00c7d783          	lhu	a5,12(a5)
    2e5e:	01079713          	slli	a4,a5,0x10
    2e62:	8341                	srli	a4,a4,0x10
    2e64:	fda45783          	lhu	a5,-38(s0)
    2e68:	8ff9                	and	a5,a5,a4
    2e6a:	fef41423          	sh	a5,-24(s0)
D:/Desktop/智能车基地/CH32V103_SmartCar_V1.0/4.Demo/Libraries/Device/CH32V10x_p/CH32V10x_Lib/ch32v10x_tim.c:1860
  if ((itstatus != (uint16_t)RESET) && (itenable != (uint16_t)RESET))
    2e6e:	fea45783          	lhu	a5,-22(s0)
    2e72:	cb81                	beqz	a5,2e82 <TIM_GetITStatus+0x60>
D:/Desktop/智能车基地/CH32V103_SmartCar_V1.0/4.Demo/Libraries/Device/CH32V10x_p/CH32V10x_Lib/ch32v10x_tim.c:1860 (discriminator 1)
    2e74:	fe845783          	lhu	a5,-24(s0)
    2e78:	c789                	beqz	a5,2e82 <TIM_GetITStatus+0x60>
D:/Desktop/智能车基地/CH32V103_SmartCar_V1.0/4.Demo/Libraries/Device/CH32V10x_p/CH32V10x_Lib/ch32v10x_tim.c:1862
  {
    bitstatus = SET;
    2e7a:	4785                	li	a5,1
    2e7c:	fef42623          	sw	a5,-20(s0)
    2e80:	a019                	j	2e86 <TIM_GetITStatus+0x64>
D:/Desktop/智能车基地/CH32V103_SmartCar_V1.0/4.Demo/Libraries/Device/CH32V10x_p/CH32V10x_Lib/ch32v10x_tim.c:1866
  }
  else
  {
    bitstatus = RESET;
    2e82:	fe042623          	sw	zero,-20(s0)
D:/Desktop/智能车基地/CH32V103_SmartCar_V1.0/4.Demo/Libraries/Device/CH32V10x_p/CH32V10x_Lib/ch32v10x_tim.c:1869
  }
	
  return bitstatus;
    2e86:	fec42783          	lw	a5,-20(s0)
D:/Desktop/智能车基地/CH32V103_SmartCar_V1.0/4.Demo/Libraries/Device/CH32V10x_p/CH32V10x_Lib/ch32v10x_tim.c:1870
}
    2e8a:	853e                	mv	a0,a5
    2e8c:	5432                	lw	s0,44(sp)
    2e8e:	6145                	addi	sp,sp,48
    2e90:	8082                	ret

00002e92 <TIM_ClearITPendingBit>:
TIM_ClearITPendingBit():
D:/Desktop/智能车基地/CH32V103_SmartCar_V1.0/4.Demo/Libraries/Device/CH32V10x_p/CH32V10x_Lib/ch32v10x_tim.c:1888
*                    TIM_IT_Trigger: TIM Trigger Interrupt source.
*                    TIM_IT_Break: TIM Break Interrupt source.
* Return         : None
*******************************************************************************/
void TIM_ClearITPendingBit(TIM_TypeDef* TIMx, uint16_t TIM_IT)
{
    2e92:	1101                	addi	sp,sp,-32
    2e94:	ce22                	sw	s0,28(sp)
    2e96:	1000                	addi	s0,sp,32
    2e98:	fea42623          	sw	a0,-20(s0)
    2e9c:	87ae                	mv	a5,a1
    2e9e:	fef41523          	sh	a5,-22(s0)
D:/Desktop/智能车基地/CH32V103_SmartCar_V1.0/4.Demo/Libraries/Device/CH32V10x_p/CH32V10x_Lib/ch32v10x_tim.c:1889
  TIMx->INTFR = (uint16_t)~TIM_IT;
    2ea2:	fea45783          	lhu	a5,-22(s0)
    2ea6:	fff7c793          	not	a5,a5
    2eaa:	01079713          	slli	a4,a5,0x10
    2eae:	8341                	srli	a4,a4,0x10
    2eb0:	fec42783          	lw	a5,-20(s0)
    2eb4:	00e79823          	sh	a4,16(a5)
D:/Desktop/智能车基地/CH32V103_SmartCar_V1.0/4.Demo/Libraries/Device/CH32V10x_p/CH32V10x_Lib/ch32v10x_tim.c:1890
}
    2eb8:	0001                	nop
    2eba:	4472                	lw	s0,28(sp)
    2ebc:	6105                	addi	sp,sp,32
    2ebe:	8082                	ret

00002ec0 <USART_Init>:
USART_Init():
D:/Desktop/智能车基地/CH32V103_SmartCar_V1.0/4.Demo/Libraries/Device/CH32V10x_p/CH32V10x_Lib/ch32v10x_usart.c:105
*                  USART_InitStruct: pointer to a USART_InitTypeDef structure
*      that contains the configuration information for the specified USART peripheral. 
* Return         : None
*******************************************************************************/
void USART_Init(USART_TypeDef* USARTx, USART_InitTypeDef* USART_InitStruct)
{
    2ec0:	715d                	addi	sp,sp,-80
    2ec2:	c686                	sw	ra,76(sp)
    2ec4:	c4a2                	sw	s0,72(sp)
    2ec6:	0880                	addi	s0,sp,80
    2ec8:	faa42e23          	sw	a0,-68(s0)
    2ecc:	fab42c23          	sw	a1,-72(s0)
D:/Desktop/智能车基地/CH32V103_SmartCar_V1.0/4.Demo/Libraries/Device/CH32V10x_p/CH32V10x_Lib/ch32v10x_usart.c:106
  uint32_t tmpreg = 0x00, apbclock = 0x00;
    2ed0:	fe042623          	sw	zero,-20(s0)
    2ed4:	fe042423          	sw	zero,-24(s0)
D:/Desktop/智能车基地/CH32V103_SmartCar_V1.0/4.Demo/Libraries/Device/CH32V10x_p/CH32V10x_Lib/ch32v10x_usart.c:107
  uint32_t integerdivider = 0x00;
    2ed8:	fe042223          	sw	zero,-28(s0)
D:/Desktop/智能车基地/CH32V103_SmartCar_V1.0/4.Demo/Libraries/Device/CH32V10x_p/CH32V10x_Lib/ch32v10x_usart.c:108
  uint32_t fractionaldivider = 0x00;
    2edc:	fe042023          	sw	zero,-32(s0)
D:/Desktop/智能车基地/CH32V103_SmartCar_V1.0/4.Demo/Libraries/Device/CH32V10x_p/CH32V10x_Lib/ch32v10x_usart.c:109
  uint32_t usartxbase = 0;
    2ee0:	fc042e23          	sw	zero,-36(s0)
D:/Desktop/智能车基地/CH32V103_SmartCar_V1.0/4.Demo/Libraries/Device/CH32V10x_p/CH32V10x_Lib/ch32v10x_usart.c:116

  if (USART_InitStruct->USART_HardwareFlowControl != USART_HardwareFlowControl_None)
  {
  }

  usartxbase = (uint32_t)USARTx;
    2ee4:	fbc42783          	lw	a5,-68(s0)
    2ee8:	fcf42e23          	sw	a5,-36(s0)
D:/Desktop/智能车基地/CH32V103_SmartCar_V1.0/4.Demo/Libraries/Device/CH32V10x_p/CH32V10x_Lib/ch32v10x_usart.c:117
  tmpreg = USARTx->CTLR2;
    2eec:	fbc42783          	lw	a5,-68(s0)
    2ef0:	0107d783          	lhu	a5,16(a5)
    2ef4:	07c2                	slli	a5,a5,0x10
    2ef6:	83c1                	srli	a5,a5,0x10
    2ef8:	fef42623          	sw	a5,-20(s0)
D:/Desktop/智能车基地/CH32V103_SmartCar_V1.0/4.Demo/Libraries/Device/CH32V10x_p/CH32V10x_Lib/ch32v10x_usart.c:118
  tmpreg &= CTLR2_STOP_CLEAR_Mask;
    2efc:	fec42703          	lw	a4,-20(s0)
    2f00:	67b5                	lui	a5,0xd
    2f02:	17fd                	addi	a5,a5,-1
    2f04:	8ff9                	and	a5,a5,a4
    2f06:	fef42623          	sw	a5,-20(s0)
D:/Desktop/智能车基地/CH32V103_SmartCar_V1.0/4.Demo/Libraries/Device/CH32V10x_p/CH32V10x_Lib/ch32v10x_usart.c:119
  tmpreg |= (uint32_t)USART_InitStruct->USART_StopBits;  
    2f0a:	fb842783          	lw	a5,-72(s0)
    2f0e:	0067d783          	lhu	a5,6(a5) # d006 <_data_lma+0x9d1e>
    2f12:	873e                	mv	a4,a5
    2f14:	fec42783          	lw	a5,-20(s0)
    2f18:	8fd9                	or	a5,a5,a4
    2f1a:	fef42623          	sw	a5,-20(s0)
D:/Desktop/智能车基地/CH32V103_SmartCar_V1.0/4.Demo/Libraries/Device/CH32V10x_p/CH32V10x_Lib/ch32v10x_usart.c:121
	
  USARTx->CTLR2 = (uint16_t)tmpreg;
    2f1e:	fec42783          	lw	a5,-20(s0)
    2f22:	01079713          	slli	a4,a5,0x10
    2f26:	8341                	srli	a4,a4,0x10
    2f28:	fbc42783          	lw	a5,-68(s0)
    2f2c:	00e79823          	sh	a4,16(a5)
D:/Desktop/智能车基地/CH32V103_SmartCar_V1.0/4.Demo/Libraries/Device/CH32V10x_p/CH32V10x_Lib/ch32v10x_usart.c:122
  tmpreg = USARTx->CTLR1;
    2f30:	fbc42783          	lw	a5,-68(s0)
    2f34:	00c7d783          	lhu	a5,12(a5)
    2f38:	07c2                	slli	a5,a5,0x10
    2f3a:	83c1                	srli	a5,a5,0x10
    2f3c:	fef42623          	sw	a5,-20(s0)
D:/Desktop/智能车基地/CH32V103_SmartCar_V1.0/4.Demo/Libraries/Device/CH32V10x_p/CH32V10x_Lib/ch32v10x_usart.c:123
  tmpreg &= CTLR1_CLEAR_Mask;
    2f40:	fec42703          	lw	a4,-20(s0)
    2f44:	67bd                	lui	a5,0xf
    2f46:	9f378793          	addi	a5,a5,-1549 # e9f3 <_data_lma+0xb70b>
    2f4a:	8ff9                	and	a5,a5,a4
    2f4c:	fef42623          	sw	a5,-20(s0)
D:/Desktop/智能车基地/CH32V103_SmartCar_V1.0/4.Demo/Libraries/Device/CH32V10x_p/CH32V10x_Lib/ch32v10x_usart.c:124
  tmpreg |= (uint32_t)USART_InitStruct->USART_WordLength | USART_InitStruct->USART_Parity |
    2f50:	fb842783          	lw	a5,-72(s0)
    2f54:	0047d703          	lhu	a4,4(a5)
    2f58:	fb842783          	lw	a5,-72(s0)
    2f5c:	0087d783          	lhu	a5,8(a5)
    2f60:	8fd9                	or	a5,a5,a4
    2f62:	01079713          	slli	a4,a5,0x10
    2f66:	8341                	srli	a4,a4,0x10
D:/Desktop/智能车基地/CH32V103_SmartCar_V1.0/4.Demo/Libraries/Device/CH32V10x_p/CH32V10x_Lib/ch32v10x_usart.c:125
            USART_InitStruct->USART_Mode;
    2f68:	fb842783          	lw	a5,-72(s0)
    2f6c:	00a7d783          	lhu	a5,10(a5)
D:/Desktop/智能车基地/CH32V103_SmartCar_V1.0/4.Demo/Libraries/Device/CH32V10x_p/CH32V10x_Lib/ch32v10x_usart.c:124
  tmpreg |= (uint32_t)USART_InitStruct->USART_WordLength | USART_InitStruct->USART_Parity |
    2f70:	8fd9                	or	a5,a5,a4
    2f72:	07c2                	slli	a5,a5,0x10
    2f74:	83c1                	srli	a5,a5,0x10
    2f76:	873e                	mv	a4,a5
    2f78:	fec42783          	lw	a5,-20(s0)
    2f7c:	8fd9                	or	a5,a5,a4
    2f7e:	fef42623          	sw	a5,-20(s0)
D:/Desktop/智能车基地/CH32V103_SmartCar_V1.0/4.Demo/Libraries/Device/CH32V10x_p/CH32V10x_Lib/ch32v10x_usart.c:126
  USARTx->CTLR1 = (uint16_t)tmpreg;
    2f82:	fec42783          	lw	a5,-20(s0)
    2f86:	01079713          	slli	a4,a5,0x10
    2f8a:	8341                	srli	a4,a4,0x10
    2f8c:	fbc42783          	lw	a5,-68(s0)
    2f90:	00e79623          	sh	a4,12(a5)
D:/Desktop/智能车基地/CH32V103_SmartCar_V1.0/4.Demo/Libraries/Device/CH32V10x_p/CH32V10x_Lib/ch32v10x_usart.c:128
 
  tmpreg = USARTx->CTLR3;
    2f94:	fbc42783          	lw	a5,-68(s0)
    2f98:	0147d783          	lhu	a5,20(a5)
    2f9c:	07c2                	slli	a5,a5,0x10
    2f9e:	83c1                	srli	a5,a5,0x10
    2fa0:	fef42623          	sw	a5,-20(s0)
D:/Desktop/智能车基地/CH32V103_SmartCar_V1.0/4.Demo/Libraries/Device/CH32V10x_p/CH32V10x_Lib/ch32v10x_usart.c:129
  tmpreg &= CTLR3_CLEAR_Mask;
    2fa4:	fec42703          	lw	a4,-20(s0)
    2fa8:	67c1                	lui	a5,0x10
    2faa:	cff78793          	addi	a5,a5,-769 # fcff <_data_lma+0xca17>
    2fae:	8ff9                	and	a5,a5,a4
    2fb0:	fef42623          	sw	a5,-20(s0)
D:/Desktop/智能车基地/CH32V103_SmartCar_V1.0/4.Demo/Libraries/Device/CH32V10x_p/CH32V10x_Lib/ch32v10x_usart.c:130
  tmpreg |= USART_InitStruct->USART_HardwareFlowControl;
    2fb4:	fb842783          	lw	a5,-72(s0)
    2fb8:	00c7d783          	lhu	a5,12(a5)
    2fbc:	873e                	mv	a4,a5
    2fbe:	fec42783          	lw	a5,-20(s0)
    2fc2:	8fd9                	or	a5,a5,a4
    2fc4:	fef42623          	sw	a5,-20(s0)
D:/Desktop/智能车基地/CH32V103_SmartCar_V1.0/4.Demo/Libraries/Device/CH32V10x_p/CH32V10x_Lib/ch32v10x_usart.c:131
  USARTx->CTLR3 = (uint16_t)tmpreg;
    2fc8:	fec42783          	lw	a5,-20(s0)
    2fcc:	01079713          	slli	a4,a5,0x10
    2fd0:	8341                	srli	a4,a4,0x10
    2fd2:	fbc42783          	lw	a5,-68(s0)
    2fd6:	00e79a23          	sh	a4,20(a5)
D:/Desktop/智能车基地/CH32V103_SmartCar_V1.0/4.Demo/Libraries/Device/CH32V10x_p/CH32V10x_Lib/ch32v10x_usart.c:133

  RCC_GetClocksFreq(&RCC_ClocksStatus);
    2fda:	fc840793          	addi	a5,s0,-56
    2fde:	853e                	mv	a0,a5
    2fe0:	94aff0ef          	jal	ra,212a <RCC_GetClocksFreq>
D:/Desktop/智能车基地/CH32V103_SmartCar_V1.0/4.Demo/Libraries/Device/CH32V10x_p/CH32V10x_Lib/ch32v10x_usart.c:135
	
  if (usartxbase == USART1_BASE)
    2fe4:	fdc42703          	lw	a4,-36(s0)
    2fe8:	400147b7          	lui	a5,0x40014
    2fec:	80078793          	addi	a5,a5,-2048 # 40013800 <_eusrstack+0x2000e800>
    2ff0:	00f71763          	bne	a4,a5,2ffe <USART_Init+0x13e>
D:/Desktop/智能车基地/CH32V103_SmartCar_V1.0/4.Demo/Libraries/Device/CH32V10x_p/CH32V10x_Lib/ch32v10x_usart.c:137
  {
    apbclock = RCC_ClocksStatus.PCLK2_Frequency;
    2ff4:	fd442783          	lw	a5,-44(s0)
    2ff8:	fef42423          	sw	a5,-24(s0)
    2ffc:	a029                	j	3006 <USART_Init+0x146>
D:/Desktop/智能车基地/CH32V103_SmartCar_V1.0/4.Demo/Libraries/Device/CH32V10x_p/CH32V10x_Lib/ch32v10x_usart.c:141
  }
  else
  {
    apbclock = RCC_ClocksStatus.PCLK1_Frequency;
    2ffe:	fd042783          	lw	a5,-48(s0)
    3002:	fef42423          	sw	a5,-24(s0)
D:/Desktop/智能车基地/CH32V103_SmartCar_V1.0/4.Demo/Libraries/Device/CH32V10x_p/CH32V10x_Lib/ch32v10x_usart.c:144
  }
  
  if ((USARTx->CTLR1 & CTLR1_OVER8_Set) != 0)
    3006:	fbc42783          	lw	a5,-68(s0)
    300a:	00c7d783          	lhu	a5,12(a5)
    300e:	07c2                	slli	a5,a5,0x10
    3010:	83c1                	srli	a5,a5,0x10
    3012:	07c2                	slli	a5,a5,0x10
    3014:	87c1                	srai	a5,a5,0x10
    3016:	0207d263          	bgez	a5,303a <USART_Init+0x17a>
D:/Desktop/智能车基地/CH32V103_SmartCar_V1.0/4.Demo/Libraries/Device/CH32V10x_p/CH32V10x_Lib/ch32v10x_usart.c:146
  {
    integerdivider = ((25 * apbclock) / (2 * (USART_InitStruct->USART_BaudRate)));    
    301a:	fe842703          	lw	a4,-24(s0)
    301e:	87ba                	mv	a5,a4
    3020:	0786                	slli	a5,a5,0x1
    3022:	97ba                	add	a5,a5,a4
    3024:	078e                	slli	a5,a5,0x3
    3026:	973e                	add	a4,a4,a5
    3028:	fb842783          	lw	a5,-72(s0)
    302c:	439c                	lw	a5,0(a5)
    302e:	0786                	slli	a5,a5,0x1
    3030:	02f757b3          	divu	a5,a4,a5
    3034:	fef42223          	sw	a5,-28(s0)
    3038:	a005                	j	3058 <USART_Init+0x198>
D:/Desktop/智能车基地/CH32V103_SmartCar_V1.0/4.Demo/Libraries/Device/CH32V10x_p/CH32V10x_Lib/ch32v10x_usart.c:150
  }
  else 
  {
    integerdivider = ((25 * apbclock) / (4 * (USART_InitStruct->USART_BaudRate)));    
    303a:	fe842703          	lw	a4,-24(s0)
    303e:	87ba                	mv	a5,a4
    3040:	0786                	slli	a5,a5,0x1
    3042:	97ba                	add	a5,a5,a4
    3044:	078e                	slli	a5,a5,0x3
    3046:	973e                	add	a4,a4,a5
    3048:	fb842783          	lw	a5,-72(s0)
    304c:	439c                	lw	a5,0(a5)
    304e:	078a                	slli	a5,a5,0x2
    3050:	02f757b3          	divu	a5,a4,a5
    3054:	fef42223          	sw	a5,-28(s0)
D:/Desktop/智能车基地/CH32V103_SmartCar_V1.0/4.Demo/Libraries/Device/CH32V10x_p/CH32V10x_Lib/ch32v10x_usart.c:152
  }
  tmpreg = (integerdivider / 100) << 4;
    3058:	fe442703          	lw	a4,-28(s0)
    305c:	06400793          	li	a5,100
    3060:	02f757b3          	divu	a5,a4,a5
    3064:	0792                	slli	a5,a5,0x4
    3066:	fef42623          	sw	a5,-20(s0)
D:/Desktop/智能车基地/CH32V103_SmartCar_V1.0/4.Demo/Libraries/Device/CH32V10x_p/CH32V10x_Lib/ch32v10x_usart.c:154

  fractionaldivider = integerdivider - (100 * (tmpreg >> 4));
    306a:	fec42783          	lw	a5,-20(s0)
    306e:	0047d713          	srli	a4,a5,0x4
    3072:	06400793          	li	a5,100
    3076:	02f707b3          	mul	a5,a4,a5
    307a:	fe442703          	lw	a4,-28(s0)
    307e:	40f707b3          	sub	a5,a4,a5
    3082:	fef42023          	sw	a5,-32(s0)
D:/Desktop/智能车基地/CH32V103_SmartCar_V1.0/4.Demo/Libraries/Device/CH32V10x_p/CH32V10x_Lib/ch32v10x_usart.c:156

  if ((USARTx->CTLR1 & CTLR1_OVER8_Set) != 0)
    3086:	fbc42783          	lw	a5,-68(s0)
    308a:	00c7d783          	lhu	a5,12(a5)
    308e:	07c2                	slli	a5,a5,0x10
    3090:	83c1                	srli	a5,a5,0x10
    3092:	07c2                	slli	a5,a5,0x10
    3094:	87c1                	srai	a5,a5,0x10
    3096:	0207d263          	bgez	a5,30ba <USART_Init+0x1fa>
D:/Desktop/智能车基地/CH32V103_SmartCar_V1.0/4.Demo/Libraries/Device/CH32V10x_p/CH32V10x_Lib/ch32v10x_usart.c:158
  {
    tmpreg |= ((((fractionaldivider * 8) + 50) / 100)) & ((uint8_t)0x07);
    309a:	fe042783          	lw	a5,-32(s0)
    309e:	078e                	slli	a5,a5,0x3
    30a0:	03278713          	addi	a4,a5,50
    30a4:	06400793          	li	a5,100
    30a8:	02f757b3          	divu	a5,a4,a5
    30ac:	8b9d                	andi	a5,a5,7
    30ae:	fec42703          	lw	a4,-20(s0)
    30b2:	8fd9                	or	a5,a5,a4
    30b4:	fef42623          	sw	a5,-20(s0)
    30b8:	a005                	j	30d8 <USART_Init+0x218>
D:/Desktop/智能车基地/CH32V103_SmartCar_V1.0/4.Demo/Libraries/Device/CH32V10x_p/CH32V10x_Lib/ch32v10x_usart.c:162
  }
  else 
  {
    tmpreg |= ((((fractionaldivider * 16) + 50) / 100)) & ((uint8_t)0x0F);
    30ba:	fe042783          	lw	a5,-32(s0)
    30be:	0792                	slli	a5,a5,0x4
    30c0:	03278713          	addi	a4,a5,50
    30c4:	06400793          	li	a5,100
    30c8:	02f757b3          	divu	a5,a4,a5
    30cc:	8bbd                	andi	a5,a5,15
    30ce:	fec42703          	lw	a4,-20(s0)
    30d2:	8fd9                	or	a5,a5,a4
    30d4:	fef42623          	sw	a5,-20(s0)
D:/Desktop/智能车基地/CH32V103_SmartCar_V1.0/4.Demo/Libraries/Device/CH32V10x_p/CH32V10x_Lib/ch32v10x_usart.c:165
  }
  
  USARTx->BRR = (uint16_t)tmpreg;
    30d8:	fec42783          	lw	a5,-20(s0)
    30dc:	01079713          	slli	a4,a5,0x10
    30e0:	8341                	srli	a4,a4,0x10
    30e2:	fbc42783          	lw	a5,-68(s0)
    30e6:	00e79423          	sh	a4,8(a5)
D:/Desktop/智能车基地/CH32V103_SmartCar_V1.0/4.Demo/Libraries/Device/CH32V10x_p/CH32V10x_Lib/ch32v10x_usart.c:166
}
    30ea:	0001                	nop
    30ec:	40b6                	lw	ra,76(sp)
    30ee:	4426                	lw	s0,72(sp)
    30f0:	6161                	addi	sp,sp,80
    30f2:	8082                	ret

000030f4 <USART_Cmd>:
USART_Cmd():
D:/Desktop/智能车基地/CH32V103_SmartCar_V1.0/4.Demo/Libraries/Device/CH32V10x_p/CH32V10x_Lib/ch32v10x_usart.c:229
* Input          : USARTx: where x can be 1, 2, 3 to select the USART peripheral.
*                  NewState: ENABLE or DISABLE.
* Return         : None
*******************************************************************************/
void USART_Cmd(USART_TypeDef* USARTx, FunctionalState NewState)
{
    30f4:	1101                	addi	sp,sp,-32
    30f6:	ce22                	sw	s0,28(sp)
    30f8:	1000                	addi	s0,sp,32
    30fa:	fea42623          	sw	a0,-20(s0)
    30fe:	feb42423          	sw	a1,-24(s0)
D:/Desktop/智能车基地/CH32V103_SmartCar_V1.0/4.Demo/Libraries/Device/CH32V10x_p/CH32V10x_Lib/ch32v10x_usart.c:230
  if (NewState != DISABLE)
    3102:	fe842783          	lw	a5,-24(s0)
    3106:	c395                	beqz	a5,312a <USART_Cmd+0x36>
D:/Desktop/智能车基地/CH32V103_SmartCar_V1.0/4.Demo/Libraries/Device/CH32V10x_p/CH32V10x_Lib/ch32v10x_usart.c:232
  {
    USARTx->CTLR1 |= CTLR1_UE_Set;
    3108:	fec42783          	lw	a5,-20(s0)
    310c:	00c7d783          	lhu	a5,12(a5)
    3110:	01079713          	slli	a4,a5,0x10
    3114:	8341                	srli	a4,a4,0x10
    3116:	6789                	lui	a5,0x2
    3118:	8fd9                	or	a5,a5,a4
    311a:	01079713          	slli	a4,a5,0x10
    311e:	8341                	srli	a4,a4,0x10
    3120:	fec42783          	lw	a5,-20(s0)
    3124:	00e79623          	sh	a4,12(a5) # 200c <GPIO_Init+0x18a>
D:/Desktop/智能车基地/CH32V103_SmartCar_V1.0/4.Demo/Libraries/Device/CH32V10x_p/CH32V10x_Lib/ch32v10x_usart.c:238
  }
  else
  {
    USARTx->CTLR1 &= CTLR1_UE_Reset;
  }
}
    3128:	a015                	j	314c <USART_Cmd+0x58>
D:/Desktop/智能车基地/CH32V103_SmartCar_V1.0/4.Demo/Libraries/Device/CH32V10x_p/CH32V10x_Lib/ch32v10x_usart.c:236
    USARTx->CTLR1 &= CTLR1_UE_Reset;
    312a:	fec42783          	lw	a5,-20(s0)
    312e:	00c7d783          	lhu	a5,12(a5)
    3132:	01079713          	slli	a4,a5,0x10
    3136:	8341                	srli	a4,a4,0x10
    3138:	77f9                	lui	a5,0xffffe
    313a:	17fd                	addi	a5,a5,-1
    313c:	8ff9                	and	a5,a5,a4
    313e:	01079713          	slli	a4,a5,0x10
    3142:	8341                	srli	a4,a4,0x10
    3144:	fec42783          	lw	a5,-20(s0)
    3148:	00e79623          	sh	a4,12(a5) # ffffe00c <_eusrstack+0xdfff900c>
D:/Desktop/智能车基地/CH32V103_SmartCar_V1.0/4.Demo/Libraries/Device/CH32V10x_p/CH32V10x_Lib/ch32v10x_usart.c:238
}
    314c:	0001                	nop
    314e:	4472                	lw	s0,28(sp)
    3150:	6105                	addi	sp,sp,32
    3152:	8082                	ret

00003154 <USART_GetITStatus>:
USART_GetITStatus():
D:/Desktop/智能车基地/CH32V103_SmartCar_V1.0/4.Demo/Libraries/Device/CH32V10x_p/CH32V10x_Lib/ch32v10x_usart.c:660
*                    USART_IT_FE: Framing Error interrupt.
*                    USART_IT_PE: Parity Error interrupt.
* Return         : bitstatus: SET or RESET.
*******************************************************************************/
ITStatus USART_GetITStatus(USART_TypeDef* USARTx, uint16_t USART_IT)
{
    3154:	7179                	addi	sp,sp,-48
    3156:	d622                	sw	s0,44(sp)
    3158:	1800                	addi	s0,sp,48
    315a:	fca42e23          	sw	a0,-36(s0)
    315e:	87ae                	mv	a5,a1
    3160:	fcf41d23          	sh	a5,-38(s0)
D:/Desktop/智能车基地/CH32V103_SmartCar_V1.0/4.Demo/Libraries/Device/CH32V10x_p/CH32V10x_Lib/ch32v10x_usart.c:661
  uint32_t bitpos = 0x00, itmask = 0x00, usartreg = 0x00;
    3164:	fe042223          	sw	zero,-28(s0)
    3168:	fe042623          	sw	zero,-20(s0)
    316c:	fe042023          	sw	zero,-32(s0)
D:/Desktop/智能车基地/CH32V103_SmartCar_V1.0/4.Demo/Libraries/Device/CH32V10x_p/CH32V10x_Lib/ch32v10x_usart.c:662
  ITStatus bitstatus = RESET;
    3170:	fe042423          	sw	zero,-24(s0)
D:/Desktop/智能车基地/CH32V103_SmartCar_V1.0/4.Demo/Libraries/Device/CH32V10x_p/CH32V10x_Lib/ch32v10x_usart.c:668

  if (USART_IT == USART_IT_CTS)
  {
  }   
  
  usartreg = (((uint8_t)USART_IT) >> 0x05);
    3174:	fda45783          	lhu	a5,-38(s0)
    3178:	0ff7f793          	andi	a5,a5,255
    317c:	8395                	srli	a5,a5,0x5
    317e:	0ff7f793          	andi	a5,a5,255
    3182:	fef42023          	sw	a5,-32(s0)
D:/Desktop/智能车基地/CH32V103_SmartCar_V1.0/4.Demo/Libraries/Device/CH32V10x_p/CH32V10x_Lib/ch32v10x_usart.c:669
  itmask = USART_IT & IT_Mask;
    3186:	fda45783          	lhu	a5,-38(s0)
    318a:	8bfd                	andi	a5,a5,31
    318c:	fef42623          	sw	a5,-20(s0)
D:/Desktop/智能车基地/CH32V103_SmartCar_V1.0/4.Demo/Libraries/Device/CH32V10x_p/CH32V10x_Lib/ch32v10x_usart.c:670
  itmask = (uint32_t)0x01 << itmask;
    3190:	fec42783          	lw	a5,-20(s0)
    3194:	4705                	li	a4,1
    3196:	00f717b3          	sll	a5,a4,a5
    319a:	fef42623          	sw	a5,-20(s0)
D:/Desktop/智能车基地/CH32V103_SmartCar_V1.0/4.Demo/Libraries/Device/CH32V10x_p/CH32V10x_Lib/ch32v10x_usart.c:672
  
  if (usartreg == 0x01) 
    319e:	fe042703          	lw	a4,-32(s0)
    31a2:	4785                	li	a5,1
    31a4:	00f71f63          	bne	a4,a5,31c2 <USART_GetITStatus+0x6e>
D:/Desktop/智能车基地/CH32V103_SmartCar_V1.0/4.Demo/Libraries/Device/CH32V10x_p/CH32V10x_Lib/ch32v10x_usart.c:674
  {
    itmask &= USARTx->CTLR1;
    31a8:	fdc42783          	lw	a5,-36(s0)
    31ac:	00c7d783          	lhu	a5,12(a5)
    31b0:	07c2                	slli	a5,a5,0x10
    31b2:	83c1                	srli	a5,a5,0x10
    31b4:	873e                	mv	a4,a5
    31b6:	fec42783          	lw	a5,-20(s0)
    31ba:	8ff9                	and	a5,a5,a4
    31bc:	fef42623          	sw	a5,-20(s0)
    31c0:	a83d                	j	31fe <USART_GetITStatus+0xaa>
D:/Desktop/智能车基地/CH32V103_SmartCar_V1.0/4.Demo/Libraries/Device/CH32V10x_p/CH32V10x_Lib/ch32v10x_usart.c:676
  }
  else if (usartreg == 0x02) 
    31c2:	fe042703          	lw	a4,-32(s0)
    31c6:	4789                	li	a5,2
    31c8:	00f71f63          	bne	a4,a5,31e6 <USART_GetITStatus+0x92>
D:/Desktop/智能车基地/CH32V103_SmartCar_V1.0/4.Demo/Libraries/Device/CH32V10x_p/CH32V10x_Lib/ch32v10x_usart.c:678
  {
    itmask &= USARTx->CTLR2;
    31cc:	fdc42783          	lw	a5,-36(s0)
    31d0:	0107d783          	lhu	a5,16(a5)
    31d4:	07c2                	slli	a5,a5,0x10
    31d6:	83c1                	srli	a5,a5,0x10
    31d8:	873e                	mv	a4,a5
    31da:	fec42783          	lw	a5,-20(s0)
    31de:	8ff9                	and	a5,a5,a4
    31e0:	fef42623          	sw	a5,-20(s0)
    31e4:	a829                	j	31fe <USART_GetITStatus+0xaa>
D:/Desktop/智能车基地/CH32V103_SmartCar_V1.0/4.Demo/Libraries/Device/CH32V10x_p/CH32V10x_Lib/ch32v10x_usart.c:682
  }
  else 
  {
    itmask &= USARTx->CTLR3;
    31e6:	fdc42783          	lw	a5,-36(s0)
    31ea:	0147d783          	lhu	a5,20(a5)
    31ee:	07c2                	slli	a5,a5,0x10
    31f0:	83c1                	srli	a5,a5,0x10
    31f2:	873e                	mv	a4,a5
    31f4:	fec42783          	lw	a5,-20(s0)
    31f8:	8ff9                	and	a5,a5,a4
    31fa:	fef42623          	sw	a5,-20(s0)
D:/Desktop/智能车基地/CH32V103_SmartCar_V1.0/4.Demo/Libraries/Device/CH32V10x_p/CH32V10x_Lib/ch32v10x_usart.c:685
  }
  
  bitpos = USART_IT >> 0x08;
    31fe:	fda45783          	lhu	a5,-38(s0)
    3202:	83a1                	srli	a5,a5,0x8
    3204:	07c2                	slli	a5,a5,0x10
    3206:	83c1                	srli	a5,a5,0x10
    3208:	fef42223          	sw	a5,-28(s0)
D:/Desktop/智能车基地/CH32V103_SmartCar_V1.0/4.Demo/Libraries/Device/CH32V10x_p/CH32V10x_Lib/ch32v10x_usart.c:686
  bitpos = (uint32_t)0x01 << bitpos;
    320c:	fe442783          	lw	a5,-28(s0)
    3210:	4705                	li	a4,1
    3212:	00f717b3          	sll	a5,a4,a5
    3216:	fef42223          	sw	a5,-28(s0)
D:/Desktop/智能车基地/CH32V103_SmartCar_V1.0/4.Demo/Libraries/Device/CH32V10x_p/CH32V10x_Lib/ch32v10x_usart.c:687
  bitpos &= USARTx->STATR;
    321a:	fdc42783          	lw	a5,-36(s0)
    321e:	0007d783          	lhu	a5,0(a5)
    3222:	07c2                	slli	a5,a5,0x10
    3224:	83c1                	srli	a5,a5,0x10
    3226:	873e                	mv	a4,a5
    3228:	fe442783          	lw	a5,-28(s0)
    322c:	8ff9                	and	a5,a5,a4
    322e:	fef42223          	sw	a5,-28(s0)
D:/Desktop/智能车基地/CH32V103_SmartCar_V1.0/4.Demo/Libraries/Device/CH32V10x_p/CH32V10x_Lib/ch32v10x_usart.c:689
	
  if ((itmask != (uint16_t)RESET)&&(bitpos != (uint16_t)RESET))
    3232:	fec42783          	lw	a5,-20(s0)
    3236:	cb81                	beqz	a5,3246 <USART_GetITStatus+0xf2>
D:/Desktop/智能车基地/CH32V103_SmartCar_V1.0/4.Demo/Libraries/Device/CH32V10x_p/CH32V10x_Lib/ch32v10x_usart.c:689 (discriminator 1)
    3238:	fe442783          	lw	a5,-28(s0)
    323c:	c789                	beqz	a5,3246 <USART_GetITStatus+0xf2>
D:/Desktop/智能车基地/CH32V103_SmartCar_V1.0/4.Demo/Libraries/Device/CH32V10x_p/CH32V10x_Lib/ch32v10x_usart.c:691
  {
    bitstatus = SET;
    323e:	4785                	li	a5,1
    3240:	fef42423          	sw	a5,-24(s0)
    3244:	a019                	j	324a <USART_GetITStatus+0xf6>
D:/Desktop/智能车基地/CH32V103_SmartCar_V1.0/4.Demo/Libraries/Device/CH32V10x_p/CH32V10x_Lib/ch32v10x_usart.c:695
  }
  else
  {
    bitstatus = RESET;
    3246:	fe042423          	sw	zero,-24(s0)
D:/Desktop/智能车基地/CH32V103_SmartCar_V1.0/4.Demo/Libraries/Device/CH32V10x_p/CH32V10x_Lib/ch32v10x_usart.c:698
  }
  
  return bitstatus;  
    324a:	fe842783          	lw	a5,-24(s0)
D:/Desktop/智能车基地/CH32V103_SmartCar_V1.0/4.Demo/Libraries/Device/CH32V10x_p/CH32V10x_Lib/ch32v10x_usart.c:699
}
    324e:	853e                	mv	a0,a5
    3250:	5432                	lw	s0,44(sp)
    3252:	6145                	addi	sp,sp,48
    3254:	8082                	ret

00003256 <USART_ClearITPendingBit>:
USART_ClearITPendingBit():
D:/Desktop/智能车基地/CH32V103_SmartCar_V1.0/4.Demo/Libraries/Device/CH32V10x_p/CH32V10x_Lib/ch32v10x_usart.c:713
*                    USART_IT_TC:   Transmission complete interrupt.
*                    USART_IT_RXNE: Receive Data register not empty interrupt.
* Return         : None
*******************************************************************************/
void USART_ClearITPendingBit(USART_TypeDef* USARTx, uint16_t USART_IT)
{
    3256:	7179                	addi	sp,sp,-48
    3258:	d622                	sw	s0,44(sp)
    325a:	1800                	addi	s0,sp,48
    325c:	fca42e23          	sw	a0,-36(s0)
    3260:	87ae                	mv	a5,a1
    3262:	fcf41d23          	sh	a5,-38(s0)
D:/Desktop/智能车基地/CH32V103_SmartCar_V1.0/4.Demo/Libraries/Device/CH32V10x_p/CH32V10x_Lib/ch32v10x_usart.c:714
  uint16_t bitpos = 0x00, itmask = 0x00;
    3266:	fe041723          	sh	zero,-18(s0)
    326a:	fe041623          	sh	zero,-20(s0)
D:/Desktop/智能车基地/CH32V103_SmartCar_V1.0/4.Demo/Libraries/Device/CH32V10x_p/CH32V10x_Lib/ch32v10x_usart.c:720

  if (USART_IT == USART_IT_CTS)
  {
  }   
  
  bitpos = USART_IT >> 0x08;
    326e:	fda45783          	lhu	a5,-38(s0)
    3272:	83a1                	srli	a5,a5,0x8
    3274:	fef41723          	sh	a5,-18(s0)
D:/Desktop/智能车基地/CH32V103_SmartCar_V1.0/4.Demo/Libraries/Device/CH32V10x_p/CH32V10x_Lib/ch32v10x_usart.c:721
  itmask = ((uint16_t)0x01 << (uint16_t)bitpos);
    3278:	fee45783          	lhu	a5,-18(s0)
    327c:	4705                	li	a4,1
    327e:	00f717b3          	sll	a5,a4,a5
    3282:	fef41623          	sh	a5,-20(s0)
D:/Desktop/智能车基地/CH32V103_SmartCar_V1.0/4.Demo/Libraries/Device/CH32V10x_p/CH32V10x_Lib/ch32v10x_usart.c:722
  USARTx->STATR = (uint16_t)~itmask;
    3286:	fec45783          	lhu	a5,-20(s0)
    328a:	fff7c793          	not	a5,a5
    328e:	01079713          	slli	a4,a5,0x10
    3292:	8341                	srli	a4,a4,0x10
    3294:	fdc42783          	lw	a5,-36(s0)
    3298:	00e79023          	sh	a4,0(a5)
D:/Desktop/智能车基地/CH32V103_SmartCar_V1.0/4.Demo/Libraries/Device/CH32V10x_p/CH32V10x_Lib/ch32v10x_usart.c:723
}
    329c:	0001                	nop
    329e:	5432                	lw	s0,44(sp)
    32a0:	6145                	addi	sp,sp,48
    32a2:	8082                	ret

000032a4 <leddata>:
    32a4:	063f 4f5b 6d66 077d 6f7f 7c77 5e39 7179     ?.[Ofm}..ow|9^yq
    32b4:	0000 0000                                   ....

000032b8 <GPION>:
    32b8:	0800 4001 0c00 4001 1000 4001 1400 4001     ...@...@...@...@

000032c8 <TIMERN>:
    32c8:	2c00 4001 0000 4000 0400 4000 0800 4000     .,.@...@...@...@

000032d8 <UARTN>:
    32d8:	3800 4001 4400 4000 4800 4000 4c00 4000     .8.@.D.@.H.@.L.@
