
Template.elf:     file format elf32-littleriscv
Template.elf
architecture: riscv:rv32, flags 0x00000112:
EXEC_P, HAS_SYMS, D_PAGED
start address 0x00000000

Program Header:
    LOAD off    0x00001000 vaddr 0x00000000 paddr 0x00000000 align 2**12
         filesz 0x00000b70 memsz 0x00000b70 flags r-x
    LOAD off    0x00002000 vaddr 0x20000000 paddr 0x00000b70 align 2**12
         filesz 0x00000018 memsz 0x0000002c flags rw-
    LOAD off    0x00002800 vaddr 0x20004800 paddr 0x20004800 align 2**12
         filesz 0x00000000 memsz 0x00000800 flags rw-

Sections:
Idx Name           Size      VMA       LMA       File off  Algn  Flags
  0 .init          00000038  00000000  00000000  00001000  2**1  CONTENTS, ALLOC, LOAD, READONLY, CODE
  1 .vector        00000108  00000038  00000038  00001038  2**1  CONTENTS, ALLOC, LOAD, READONLY, CODE
  2 .text          00000a30  00000140  00000140  00001140  2**2  CONTENTS, ALLOC, LOAD, READONLY, CODE
  3 .fini          00000000  00000b70  00000b70  00002018  2**0  CONTENTS, ALLOC, LOAD, CODE
  4 .dalign        00000000  20000000  20000000  00002018  2**0  CONTENTS
  5 .dlalign       00000000  00000b70  00000b70  00002018  2**0  CONTENTS
  6 .data          00000018  20000000  00000b70  00002000  2**2  CONTENTS, ALLOC, LOAD, DATA
  7 .bss           00000014  20000018  00000b88  00002018  2**2  ALLOC
  8 .stack         00000800  20004800  20004800  00002800  2**0  ALLOC
  9 .debug_info    0000bfdc  00000000  00000000  00002018  2**0  CONTENTS, READONLY, DEBUGGING
 10 .debug_abbrev  000023b2  00000000  00000000  0000dff4  2**0  CONTENTS, READONLY, DEBUGGING
 11 .debug_aranges 00000878  00000000  00000000  000103a8  2**3  CONTENTS, READONLY, DEBUGGING
 12 .debug_ranges  000007e0  00000000  00000000  00010c20  2**3  CONTENTS, READONLY, DEBUGGING
 13 .debug_line    00009d1b  00000000  00000000  00011400  2**0  CONTENTS, READONLY, DEBUGGING
 14 .debug_str     000031f8  00000000  00000000  0001b11b  2**0  CONTENTS, READONLY, DEBUGGING
 15 .comment       00000033  00000000  00000000  0001e313  2**0  CONTENTS, READONLY
 16 .debug_frame   00001264  00000000  00000000  0001e348  2**2  CONTENTS, READONLY, DEBUGGING
 17 .debug_loc     00003e19  00000000  00000000  0001f5ac  2**0  CONTENTS, READONLY, DEBUGGING
 18 .stabstr       00000183  00000000  00000000  000233c5  2**0  CONTENTS, READONLY, DEBUGGING
SYMBOL TABLE:
00000000 l    d  .init	00000000 .init
00000038 l    d  .vector	00000000 .vector
00000140 l    d  .text	00000000 .text
00000b70 l    d  .fini	00000000 .fini
20000000 l    d  .dalign	00000000 .dalign
00000b70 l    d  .dlalign	00000000 .dlalign
20000000 l    d  .data	00000000 .data
20000018 l    d  .bss	00000000 .bss
20004800 l    d  .stack	00000000 .stack
00000000 l    d  .debug_info	00000000 .debug_info
00000000 l    d  .debug_abbrev	00000000 .debug_abbrev
00000000 l    d  .debug_aranges	00000000 .debug_aranges
00000000 l    d  .debug_ranges	00000000 .debug_ranges
00000000 l    d  .debug_line	00000000 .debug_line
00000000 l    d  .debug_str	00000000 .debug_str
00000000 l    d  .comment	00000000 .comment
00000000 l    d  .debug_frame	00000000 .debug_frame
00000000 l    d  .debug_loc	00000000 .debug_loc
00000000 l    d  .stabstr	00000000 .stabstr
00000000 l    df *ABS*	00000000 ./CH32V10x/CH32V10x_p/Startup/startup_ch32v10x.o
00000038 l       .vector	00000000 _vector_base
00000000 l    df *ABS*	00000000 isr.c
00000000 l    df *ABS*	00000000 main.c
00000000 l    df *ABS*	00000000 board.c
00000000 l    df *ABS*	00000000 clock_config.c
00000000 l    df *ABS*	00000000 delay.c
2000001c l     O .bss	00000002 p_ms
2000001e l     O .bss	00000001 p_us
00000000 l    df *ABS*	00000000 hf_gpio.c
00000000 l    df *ABS*	00000000 hf_nvic.c
00000000 l    df *ABS*	00000000 hf_uart.c
00000000 l    df *ABS*	00000000 ch32v10x_dma.c
00000000 l    df *ABS*	00000000 ch32v10x_exti.c
00000000 l    df *ABS*	00000000 ch32v10x_gpio.c
00000000 l    df *ABS*	00000000 ch32v10x_rcc.c
20000000 l     O .data	00000010 APBAHBPrescTable
20000010 l     O .data	00000004 ADCPrescTable
00000000 l    df *ABS*	00000000 ch32v10x_tim.c
00000000 l    df *ABS*	00000000 ch32v10x_usart.c
00000000 l    df *ABS*	00000000 common.c
00000000 l    df *ABS*	00000000 close.c
00000156 g     F .text	00000008 EXTI2_IRQHandler
20000810 g       .data	00000000 __global_pointer$
0000020a g     F .text	00000074 TIM1_CC_IRQHandler
00000340 g     F .text	00000002 HardFault_Handler
20000018 g     O .bss	00000004 sys_clk
0000033c g     F .text	00000004 NMI_Handler
00000342 g     F .text	00000020 system_init
0000015e g     F .text	00000004 EXTI3_IRQHandler
20000018 g       .bss	00000000 _sbss
00000800 g       *ABS*	00000000 __stack_size
00000140 g     F .text	00000004 EXTI0_IRQHandler
00000038 g       .init	00000000 _einit
000005fa g     F .text	0000001c sys_recover_irq
000009f2 g     F .text	0000000e TIM_ClearITPendingBit
0000099a g     F .text	0000001e RCC_APB2PeriphClockCmd
0000016e g     F .text	00000004 ADC1_2_IRQHandler
0000081a g     F .text	000000c2 GPIO_Init
00000ad8 g     F .text	0000001c USART_Cmd
00000b38 g     F .text	00000016 USART_ClearITPendingBit
000009b8 g     F .text	0000001e RCC_APB1PeriphClockCmd
0000031e g     F .text	00000012 DMA1_Channel4_IRQHandler
000007b8 g     F .text	00000020 DMA_GetFlagStatus
0000030e g     F .text	00000004 USART3_IRQHandler
00000810 g     F .text	0000000a EXTI_ClearITPendingBit
2000002c g       .bss	00000000 _ebss
00000af4 g     F .text	00000044 USART_GetITStatus
00000338 g     F .text	00000004 DMA1_Channel7_IRQHandler
000004be g     F .text	0000002a Delay_Init
00000b60 g     O .text	00000010 UARTN
000002be g     F .text	00000022 TIM4_IRQHandler
000008dc g     F .text	0000000a GPIO_WriteBit
2000002c g       .bss	00000000 end
000009d6 g     F .text	0000001c TIM_GetITStatus
000008e6 g     F .text	000000b4 RCC_GetClocksFreq
00000334 g     F .text	00000004 DMA1_Channel6_IRQHandler
000006ca g     F .text	00000074 uart_init
00000a00 g     F .text	000000d8 USART_Init
00000298 g     F .text	00000026 TIM3_IRQHandler
00000616 g     F .text	0000000a EnableGlobalIRQ
00000620 g     F .text	000000aa uart_gpio_init
000001c2 g     F .text	00000048 TIM1_TRG_COM_IRQHandler
00000312 g     F .text	00000004 DMA1_Channel1_IRQHandler
00000000 g       .init	00000000 _start
000005c0 g     F .text	00000010 close_all_irq
0000016a g     F .text	00000004 EXTI15_10_IRQHandler
00000b50 g     O .text	00000010 GPION
20000000 g       .dalign	00000000 _data_vma
00000166 g     F .text	00000004 EXTI9_5_IRQHandler
00000386 g     F .text	00000036 board_init
000007f2 g     F .text	0000001e EXTI_GetITStatus
00000362 g     F .text	00000024 main
00000330 g     F .text	00000004 DMA1_Channel5_IRQHandler
00000162 g     F .text	00000004 EXTI4_IRQHandler
000005d0 g     F .text	0000002a DisableGlobalIRQ
000003bc g     F .text	00000102 SystemInit
00000000 g       .init	00000000 _sinit
0000031a g     F .text	00000004 DMA1_Channel3_IRQHandler
20000020 g     O .bss	0000000c irq_status
0000019c g     F .text	00000026 TIM1_UP_IRQHandler
0000027e g     F .text	0000001a TIM2_IRQHandler
20005000 g       .stack	00000000 _eusrstack
00000172 g     F .text	0000002a TIM1_BRK_IRQHandler
00000144 g     F .text	00000012 EXTI1_IRQHandler
20000018 g       .data	00000000 _edata
00000b70 g       .dlalign	00000000 _data_lma
000002e4 g     F .text	0000002a USART2_IRQHandler
00000316 g     F .text	00000004 DMA1_Channel2_IRQHandler
000007d8 g     F .text	0000001a DMA_ClearFlag
0000073e  w      .text	00000000 handle_reset
000002e0 g     F .text	00000004 USART1_IRQHandler
000004e8 g     F .text	000000d8 gpio_init



Disassembly of section .init:

00000000 <_sinit>:
_start():
C:/Users/Kanesh's laptop/Desktop/19创新基地/沁恒/例程/Libraries/Device/CH32V10x_p/Startup/startup_ch32v10x.S:13

	.section	.init,"ax",@progbits
	.global	_start
	.align	1
_start:
	j	handle_reset
   0:	73e0006f          	j	73e <handle_reset>
   4:	00000013          	nop
   8:	00000013          	nop
   c:	00000013          	nop
  10:	00000013          	nop
  14:	00000013          	nop
  18:	00000013          	nop
  1c:	00000013          	nop
  20:	00000013          	nop
  24:	00000013          	nop
  28:	00000013          	nop
  2c:	00000013          	nop
  30:	00000013          	nop
  34:	00100073          	ebreak

Disassembly of section .vector:

00000038 <_vector_base>:
_vector_base():
C:/Users/Kanesh's laptop/Desktop/19创新基地/沁恒/例程/Libraries/Device/CH32V10x_p/Startup/startup_ch32v10x.S:31
	.word 0x00100073
    .section    .vector,"ax",@progbits
    .align  1
_vector_base:
    .option norvc;
        j   _start
  38:	fc9ff06f          	j	0 <_sinit>
  3c:	0000                	unimp
  3e:	0000                	unimp
C:/Users/Kanesh's laptop/Desktop/19创新基地/沁恒/例程/Libraries/Device/CH32V10x_p/Startup/startup_ch32v10x.S:33
    .word   0
        j   NMI_Handler                 /* NMI Handler */
  40:	2fc0006f          	j	33c <NMI_Handler>
C:/Users/Kanesh's laptop/Desktop/19创新基地/沁恒/例程/Libraries/Device/CH32V10x_p/Startup/startup_ch32v10x.S:34
        j   HardFault_Handler           /* Hard Fault Handler */
  44:	2fc0006f          	j	340 <HardFault_Handler>
	...
C:/Users/Kanesh's laptop/Desktop/19创新基地/沁恒/例程/Libraries/Device/CH32V10x_p/Startup/startup_ch32v10x.S:43
    .word   0
    .word   0
    .word   0
    .word   0
    .word   0
        j   SysTick_Handler            /* SysTick Handler */
  68:	f99ff06f          	j	0 <_sinit>
  6c:	0000                	unimp
  6e:	0000                	unimp
C:/Users/Kanesh's laptop/Desktop/19创新基地/沁恒/例程/Libraries/Device/CH32V10x_p/Startup/startup_ch32v10x.S:45
    .word   0
        j   SW_handler                 /* SW Handler */
  70:	f91ff06f          	j	0 <_sinit>
  74:	0000                	unimp
  76:	0000                	unimp
C:/Users/Kanesh's laptop/Desktop/19创新基地/沁恒/例程/Libraries/Device/CH32V10x_p/Startup/startup_ch32v10x.S:48
    .word   0
    /* External Interrupts */
        j   WWDG_IRQHandler            /* Window Watchdog */
  78:	f89ff06f          	j	0 <_sinit>
C:/Users/Kanesh's laptop/Desktop/19创新基地/沁恒/例程/Libraries/Device/CH32V10x_p/Startup/startup_ch32v10x.S:49
        j   PVD_IRQHandler             /* PVD through EXTI Line detect */
  7c:	f85ff06f          	j	0 <_sinit>
C:/Users/Kanesh's laptop/Desktop/19创新基地/沁恒/例程/Libraries/Device/CH32V10x_p/Startup/startup_ch32v10x.S:50
        j   TAMPER_IRQHandler          /* TAMPER */
  80:	f81ff06f          	j	0 <_sinit>
C:/Users/Kanesh's laptop/Desktop/19创新基地/沁恒/例程/Libraries/Device/CH32V10x_p/Startup/startup_ch32v10x.S:51
        j   RTC_IRQHandler             /* RTC */
  84:	f7dff06f          	j	0 <_sinit>
C:/Users/Kanesh's laptop/Desktop/19创新基地/沁恒/例程/Libraries/Device/CH32V10x_p/Startup/startup_ch32v10x.S:52
        j   FLASH_IRQHandler           /* Flash */
  88:	f79ff06f          	j	0 <_sinit>
C:/Users/Kanesh's laptop/Desktop/19创新基地/沁恒/例程/Libraries/Device/CH32V10x_p/Startup/startup_ch32v10x.S:53
        j   RCC_IRQHandler             /* RCC */
  8c:	f75ff06f          	j	0 <_sinit>
C:/Users/Kanesh's laptop/Desktop/19创新基地/沁恒/例程/Libraries/Device/CH32V10x_p/Startup/startup_ch32v10x.S:54
        j   EXTI0_IRQHandler           /* EXTI Line 0 */
  90:	0b00006f          	j	140 <EXTI0_IRQHandler>
C:/Users/Kanesh's laptop/Desktop/19创新基地/沁恒/例程/Libraries/Device/CH32V10x_p/Startup/startup_ch32v10x.S:55
        j   EXTI1_IRQHandler           /* EXTI Line 1 */
  94:	0b00006f          	j	144 <EXTI1_IRQHandler>
C:/Users/Kanesh's laptop/Desktop/19创新基地/沁恒/例程/Libraries/Device/CH32V10x_p/Startup/startup_ch32v10x.S:56
        j   EXTI2_IRQHandler           /* EXTI Line 2 */
  98:	0be0006f          	j	156 <EXTI2_IRQHandler>
C:/Users/Kanesh's laptop/Desktop/19创新基地/沁恒/例程/Libraries/Device/CH32V10x_p/Startup/startup_ch32v10x.S:57
        j   EXTI3_IRQHandler           /* EXTI Line 3 */
  9c:	0c20006f          	j	15e <EXTI3_IRQHandler>
C:/Users/Kanesh's laptop/Desktop/19创新基地/沁恒/例程/Libraries/Device/CH32V10x_p/Startup/startup_ch32v10x.S:58
        j   EXTI4_IRQHandler           /* EXTI Line 4 */
  a0:	0c20006f          	j	162 <EXTI4_IRQHandler>
C:/Users/Kanesh's laptop/Desktop/19创新基地/沁恒/例程/Libraries/Device/CH32V10x_p/Startup/startup_ch32v10x.S:59
        j   DMA1_Channel1_IRQHandler   /* DMA1 Channel 1 */
  a4:	26e0006f          	j	312 <DMA1_Channel1_IRQHandler>
C:/Users/Kanesh's laptop/Desktop/19创新基地/沁恒/例程/Libraries/Device/CH32V10x_p/Startup/startup_ch32v10x.S:60
        j   DMA1_Channel2_IRQHandler   /* DMA1 Channel 2 */
  a8:	26e0006f          	j	316 <DMA1_Channel2_IRQHandler>
C:/Users/Kanesh's laptop/Desktop/19创新基地/沁恒/例程/Libraries/Device/CH32V10x_p/Startup/startup_ch32v10x.S:61
        j   DMA1_Channel3_IRQHandler   /* DMA1 Channel 3 */
  ac:	26e0006f          	j	31a <DMA1_Channel3_IRQHandler>
C:/Users/Kanesh's laptop/Desktop/19创新基地/沁恒/例程/Libraries/Device/CH32V10x_p/Startup/startup_ch32v10x.S:62
        j   DMA1_Channel4_IRQHandler   /* DMA1 Channel 4 */
  b0:	26e0006f          	j	31e <DMA1_Channel4_IRQHandler>
C:/Users/Kanesh's laptop/Desktop/19创新基地/沁恒/例程/Libraries/Device/CH32V10x_p/Startup/startup_ch32v10x.S:63
        j   DMA1_Channel5_IRQHandler   /* DMA1 Channel 5 */
  b4:	27c0006f          	j	330 <DMA1_Channel5_IRQHandler>
C:/Users/Kanesh's laptop/Desktop/19创新基地/沁恒/例程/Libraries/Device/CH32V10x_p/Startup/startup_ch32v10x.S:64
        j   DMA1_Channel6_IRQHandler   /* DMA1 Channel 6 */
  b8:	27c0006f          	j	334 <DMA1_Channel6_IRQHandler>
C:/Users/Kanesh's laptop/Desktop/19创新基地/沁恒/例程/Libraries/Device/CH32V10x_p/Startup/startup_ch32v10x.S:65
        j   DMA1_Channel7_IRQHandler   /* DMA1 Channel 7 */
  bc:	27c0006f          	j	338 <DMA1_Channel7_IRQHandler>
C:/Users/Kanesh's laptop/Desktop/19创新基地/沁恒/例程/Libraries/Device/CH32V10x_p/Startup/startup_ch32v10x.S:66
        j   ADC1_2_IRQHandler          /* ADC1_2 */
  c0:	0ae0006f          	j	16e <ADC1_2_IRQHandler>
	...
C:/Users/Kanesh's laptop/Desktop/19创新基地/沁恒/例程/Libraries/Device/CH32V10x_p/Startup/startup_ch32v10x.S:71
        .word   0
        .word   0
        .word   0
        .word   0
        j   EXTI9_5_IRQHandler         /* EXTI Line 9..5 */
  d4:	0920006f          	j	166 <EXTI9_5_IRQHandler>
C:/Users/Kanesh's laptop/Desktop/19创新基地/沁恒/例程/Libraries/Device/CH32V10x_p/Startup/startup_ch32v10x.S:72
        j   TIM1_BRK_IRQHandler        /* TIM1 Break */
  d8:	09a0006f          	j	172 <TIM1_BRK_IRQHandler>
C:/Users/Kanesh's laptop/Desktop/19创新基地/沁恒/例程/Libraries/Device/CH32V10x_p/Startup/startup_ch32v10x.S:73
        j   TIM1_UP_IRQHandler         /* TIM1 Update */
  dc:	0c00006f          	j	19c <TIM1_UP_IRQHandler>
C:/Users/Kanesh's laptop/Desktop/19创新基地/沁恒/例程/Libraries/Device/CH32V10x_p/Startup/startup_ch32v10x.S:74
        j   TIM1_TRG_COM_IRQHandler    /* TIM1 Trigger and Commutation */
  e0:	0e20006f          	j	1c2 <TIM1_TRG_COM_IRQHandler>
C:/Users/Kanesh's laptop/Desktop/19创新基地/沁恒/例程/Libraries/Device/CH32V10x_p/Startup/startup_ch32v10x.S:75
        j   TIM1_CC_IRQHandler         /* TIM1 Capture Compare */
  e4:	1260006f          	j	20a <TIM1_CC_IRQHandler>
C:/Users/Kanesh's laptop/Desktop/19创新基地/沁恒/例程/Libraries/Device/CH32V10x_p/Startup/startup_ch32v10x.S:76
        j   TIM2_IRQHandler            /* TIM2 */
  e8:	1960006f          	j	27e <TIM2_IRQHandler>
C:/Users/Kanesh's laptop/Desktop/19创新基地/沁恒/例程/Libraries/Device/CH32V10x_p/Startup/startup_ch32v10x.S:77
        j   TIM3_IRQHandler            /* TIM3 */
  ec:	1ac0006f          	j	298 <TIM3_IRQHandler>
C:/Users/Kanesh's laptop/Desktop/19创新基地/沁恒/例程/Libraries/Device/CH32V10x_p/Startup/startup_ch32v10x.S:78
        j   TIM4_IRQHandler            /* TIM4 */
  f0:	1ce0006f          	j	2be <TIM4_IRQHandler>
C:/Users/Kanesh's laptop/Desktop/19创新基地/沁恒/例程/Libraries/Device/CH32V10x_p/Startup/startup_ch32v10x.S:79
        j   I2C1_EV_IRQHandler         /* I2C1 Event */
  f4:	f0dff06f          	j	0 <_sinit>
C:/Users/Kanesh's laptop/Desktop/19创新基地/沁恒/例程/Libraries/Device/CH32V10x_p/Startup/startup_ch32v10x.S:80
        j   I2C1_ER_IRQHandler         /* I2C1 Error */
  f8:	f09ff06f          	j	0 <_sinit>
C:/Users/Kanesh's laptop/Desktop/19创新基地/沁恒/例程/Libraries/Device/CH32V10x_p/Startup/startup_ch32v10x.S:81
        j   I2C2_EV_IRQHandler         /* I2C2 Event */
  fc:	f05ff06f          	j	0 <_sinit>
C:/Users/Kanesh's laptop/Desktop/19创新基地/沁恒/例程/Libraries/Device/CH32V10x_p/Startup/startup_ch32v10x.S:82
        j   I2C2_ER_IRQHandler         /* I2C2 Error */
 100:	f01ff06f          	j	0 <_sinit>
C:/Users/Kanesh's laptop/Desktop/19创新基地/沁恒/例程/Libraries/Device/CH32V10x_p/Startup/startup_ch32v10x.S:83
        j   SPI1_IRQHandler            /* SPI1 */
 104:	efdff06f          	j	0 <_sinit>
C:/Users/Kanesh's laptop/Desktop/19创新基地/沁恒/例程/Libraries/Device/CH32V10x_p/Startup/startup_ch32v10x.S:84
        j   SPI2_IRQHandler            /* SPI2 */
 108:	ef9ff06f          	j	0 <_sinit>
C:/Users/Kanesh's laptop/Desktop/19创新基地/沁恒/例程/Libraries/Device/CH32V10x_p/Startup/startup_ch32v10x.S:85
        j   USART1_IRQHandler          /* USART1 */
 10c:	1d40006f          	j	2e0 <USART1_IRQHandler>
C:/Users/Kanesh's laptop/Desktop/19创新基地/沁恒/例程/Libraries/Device/CH32V10x_p/Startup/startup_ch32v10x.S:86
        j   USART2_IRQHandler          /* USART2 */
 110:	1d40006f          	j	2e4 <USART2_IRQHandler>
C:/Users/Kanesh's laptop/Desktop/19创新基地/沁恒/例程/Libraries/Device/CH32V10x_p/Startup/startup_ch32v10x.S:87
        j   USART3_IRQHandler          /* USART3 */
 114:	1fa0006f          	j	30e <USART3_IRQHandler>
C:/Users/Kanesh's laptop/Desktop/19创新基地/沁恒/例程/Libraries/Device/CH32V10x_p/Startup/startup_ch32v10x.S:88
        j   EXTI15_10_IRQHandler       /* EXTI Line 15..10 */
 118:	0520006f          	j	16a <EXTI15_10_IRQHandler>
C:/Users/Kanesh's laptop/Desktop/19创新基地/沁恒/例程/Libraries/Device/CH32V10x_p/Startup/startup_ch32v10x.S:89
        j   RTCAlarm_IRQHandler        /* RTC Alarm through EXTI Line */
 11c:	ee5ff06f          	j	0 <_sinit>
C:/Users/Kanesh's laptop/Desktop/19创新基地/沁恒/例程/Libraries/Device/CH32V10x_p/Startup/startup_ch32v10x.S:90
        j   USBWakeUp_IRQHandler       /* USB Wakeup from suspend */
 120:	ee1ff06f          	j	0 <_sinit>
C:/Users/Kanesh's laptop/Desktop/19创新基地/沁恒/例程/Libraries/Device/CH32V10x_p/Startup/startup_ch32v10x.S:91
        j   USBHD_IRQHandler           /* USBHD */
 124:	eddff06f          	j	0 <_sinit>
	...

Disassembly of section .text:

00000140 <EXTI0_IRQHandler>:
EXTI0_IRQHandler():
 140:	30200073          	mret

00000144 <EXTI1_IRQHandler>:
EXTI1_IRQHandler():
C:/Users/Kanesh's laptop/Desktop/19创新基地/沁恒/例程/00_Template/USER/src/isr.c:57
    ;
}

void EXTI1_IRQHandler(void)
{
    if(SET == EXTI_GetITStatus(EXTI_Line1))
 144:	4509                	li	a0,2
 146:	2575                	jal	7f2 <EXTI_GetITStatus>
 148:	4785                	li	a5,1
 14a:	00f51463          	bne	a0,a5,152 <EXTI1_IRQHandler+0xe>
C:/Users/Kanesh's laptop/Desktop/19创新基地/沁恒/例程/00_Template/USER/src/isr.c:63
    {
//        if(camera_type == CAMERA_BIN_UART)
//            ov7725_uart_vsync();
//        else if(camera_type == CAMERA_GRAYSCALE)
//            mt9v03x_vsync();
        EXTI_ClearITPendingBit(EXTI_Line1);
 14e:	4509                	li	a0,2
 150:	25c1                	jal	810 <EXTI_ClearITPendingBit>
C:/Users/Kanesh's laptop/Desktop/19创新基地/沁恒/例程/00_Template/USER/src/isr.c:66
    }

}
 152:	30200073          	mret

00000156 <EXTI2_IRQHandler>:
EXTI2_IRQHandler():
C:/Users/Kanesh's laptop/Desktop/19创新基地/沁恒/例程/00_Template/USER/src/isr.c:70

void EXTI2_IRQHandler(void)
{
    EXTI_ClearITPendingBit(EXTI_Line2);
 156:	4511                	li	a0,4
 158:	2d65                	jal	810 <EXTI_ClearITPendingBit>
C:/Users/Kanesh's laptop/Desktop/19创新基地/沁恒/例程/00_Template/USER/src/isr.c:71
}
 15a:	30200073          	mret

0000015e <EXTI3_IRQHandler>:
EXTI3_IRQHandler():
 15e:	30200073          	mret

00000162 <EXTI4_IRQHandler>:
EXTI4_IRQHandler():
 162:	30200073          	mret

00000166 <EXTI9_5_IRQHandler>:
EXTI9_5_IRQHandler():
 166:	30200073          	mret

0000016a <EXTI15_10_IRQHandler>:
EXTI15_10_IRQHandler():
 16a:	30200073          	mret

0000016e <ADC1_2_IRQHandler>:
ADC1_2_IRQHandler():
 16e:	30200073          	mret

00000172 <TIM1_BRK_IRQHandler>:
TIM1_BRK_IRQHandler():
C:/Users/Kanesh's laptop/Desktop/19创新基地/沁恒/例程/00_Template/USER/src/isr.c:102


}

void TIM1_BRK_IRQHandler(void)
{
 172:	1141                	addi	sp,sp,-16
 174:	c622                	sw	s0,12(sp)
C:/Users/Kanesh's laptop/Desktop/19创新基地/沁恒/例程/00_Template/USER/src/isr.c:103
    if(TIM_GetITStatus(TIM1, TIM_IT_Break) != RESET)
 176:	40013437          	lui	s0,0x40013
 17a:	08000593          	li	a1,128
 17e:	c0040513          	addi	a0,s0,-1024 # 40012c00 <_eusrstack+0x2000dc00>
 182:	055000ef          	jal	ra,9d6 <TIM_GetITStatus>
 186:	c519                	beqz	a0,194 <TIM1_BRK_IRQHandler+0x22>
C:/Users/Kanesh's laptop/Desktop/19创新基地/沁恒/例程/00_Template/USER/src/isr.c:105
    {
        TIM_ClearITPendingBit(TIM1, TIM_IT_Break);
 188:	08000593          	li	a1,128
 18c:	c0040513          	addi	a0,s0,-1024
 190:	063000ef          	jal	ra,9f2 <TIM_ClearITPendingBit>
C:/Users/Kanesh's laptop/Desktop/19创新基地/沁恒/例程/00_Template/USER/src/isr.c:108

    }
}
 194:	4432                	lw	s0,12(sp)
 196:	0141                	addi	sp,sp,16
 198:	30200073          	mret

0000019c <TIM1_UP_IRQHandler>:
TIM1_UP_IRQHandler():
C:/Users/Kanesh's laptop/Desktop/19创新基地/沁恒/例程/00_Template/USER/src/isr.c:111

void TIM1_UP_IRQHandler(void)
{
 19c:	1141                	addi	sp,sp,-16
 19e:	c622                	sw	s0,12(sp)
C:/Users/Kanesh's laptop/Desktop/19创新基地/沁恒/例程/00_Template/USER/src/isr.c:112
    if(TIM_GetITStatus(TIM1, TIM_IT_Update) != RESET)
 1a0:	40013437          	lui	s0,0x40013
 1a4:	4585                	li	a1,1
 1a6:	c0040513          	addi	a0,s0,-1024 # 40012c00 <_eusrstack+0x2000dc00>
 1aa:	02d000ef          	jal	ra,9d6 <TIM_GetITStatus>
 1ae:	c511                	beqz	a0,1ba <TIM1_UP_IRQHandler+0x1e>
C:/Users/Kanesh's laptop/Desktop/19创新基地/沁恒/例程/00_Template/USER/src/isr.c:114
    {
        TIM_ClearITPendingBit(TIM1, TIM_IT_Update);
 1b0:	4585                	li	a1,1
 1b2:	c0040513          	addi	a0,s0,-1024
 1b6:	03d000ef          	jal	ra,9f2 <TIM_ClearITPendingBit>
C:/Users/Kanesh's laptop/Desktop/19创新基地/沁恒/例程/00_Template/USER/src/isr.c:117

    }
}
 1ba:	4432                	lw	s0,12(sp)
 1bc:	0141                	addi	sp,sp,16
 1be:	30200073          	mret

000001c2 <TIM1_TRG_COM_IRQHandler>:
TIM1_TRG_COM_IRQHandler():
C:/Users/Kanesh's laptop/Desktop/19创新基地/沁恒/例程/00_Template/USER/src/isr.c:120

void TIM1_TRG_COM_IRQHandler(void)
{
 1c2:	1141                	addi	sp,sp,-16
 1c4:	c622                	sw	s0,12(sp)
C:/Users/Kanesh's laptop/Desktop/19创新基地/沁恒/例程/00_Template/USER/src/isr.c:121
    if(TIM_GetITStatus(TIM1, TIM_IT_Trigger) != RESET)
 1c6:	40013437          	lui	s0,0x40013
 1ca:	04000593          	li	a1,64
 1ce:	c0040513          	addi	a0,s0,-1024 # 40012c00 <_eusrstack+0x2000dc00>
 1d2:	005000ef          	jal	ra,9d6 <TIM_GetITStatus>
 1d6:	c519                	beqz	a0,1e4 <TIM1_TRG_COM_IRQHandler+0x22>
C:/Users/Kanesh's laptop/Desktop/19创新基地/沁恒/例程/00_Template/USER/src/isr.c:123
    {
        TIM_ClearITPendingBit(TIM1, TIM_IT_Trigger);
 1d8:	04000593          	li	a1,64
 1dc:	c0040513          	addi	a0,s0,-1024
 1e0:	013000ef          	jal	ra,9f2 <TIM_ClearITPendingBit>
C:/Users/Kanesh's laptop/Desktop/19创新基地/沁恒/例程/00_Template/USER/src/isr.c:126

    }
    if(TIM_GetITStatus(TIM1, TIM_IT_COM) != RESET)
 1e4:	40013437          	lui	s0,0x40013
 1e8:	02000593          	li	a1,32
 1ec:	c0040513          	addi	a0,s0,-1024 # 40012c00 <_eusrstack+0x2000dc00>
 1f0:	7e6000ef          	jal	ra,9d6 <TIM_GetITStatus>
 1f4:	c519                	beqz	a0,202 <TIM1_TRG_COM_IRQHandler+0x40>
C:/Users/Kanesh's laptop/Desktop/19创新基地/沁恒/例程/00_Template/USER/src/isr.c:128
    {
        TIM_ClearITPendingBit(TIM1, TIM_IT_COM);
 1f6:	02000593          	li	a1,32
 1fa:	c0040513          	addi	a0,s0,-1024
 1fe:	7f4000ef          	jal	ra,9f2 <TIM_ClearITPendingBit>
C:/Users/Kanesh's laptop/Desktop/19创新基地/沁恒/例程/00_Template/USER/src/isr.c:131

    }
}
 202:	4432                	lw	s0,12(sp)
 204:	0141                	addi	sp,sp,16
 206:	30200073          	mret

0000020a <TIM1_CC_IRQHandler>:
TIM1_CC_IRQHandler():
C:/Users/Kanesh's laptop/Desktop/19创新基地/沁恒/例程/00_Template/USER/src/isr.c:134

void TIM1_CC_IRQHandler(void)
{
 20a:	1141                	addi	sp,sp,-16
 20c:	c622                	sw	s0,12(sp)
C:/Users/Kanesh's laptop/Desktop/19创新基地/沁恒/例程/00_Template/USER/src/isr.c:135
    if(TIM_GetITStatus(TIM1, TIM_IT_CC1) != RESET)
 20e:	40013437          	lui	s0,0x40013
 212:	4589                	li	a1,2
 214:	c0040513          	addi	a0,s0,-1024 # 40012c00 <_eusrstack+0x2000dc00>
 218:	7be000ef          	jal	ra,9d6 <TIM_GetITStatus>
 21c:	c511                	beqz	a0,228 <TIM1_CC_IRQHandler+0x1e>
C:/Users/Kanesh's laptop/Desktop/19创新基地/沁恒/例程/00_Template/USER/src/isr.c:137
    {
        TIM_ClearITPendingBit(TIM1, TIM_IT_CC1);
 21e:	4589                	li	a1,2
 220:	c0040513          	addi	a0,s0,-1024
 224:	7ce000ef          	jal	ra,9f2 <TIM_ClearITPendingBit>
C:/Users/Kanesh's laptop/Desktop/19创新基地/沁恒/例程/00_Template/USER/src/isr.c:140

    }
    if(TIM_GetITStatus(TIM1, TIM_IT_CC2) != RESET)
 228:	40013437          	lui	s0,0x40013
 22c:	4591                	li	a1,4
 22e:	c0040513          	addi	a0,s0,-1024 # 40012c00 <_eusrstack+0x2000dc00>
 232:	7a4000ef          	jal	ra,9d6 <TIM_GetITStatus>
 236:	c511                	beqz	a0,242 <TIM1_CC_IRQHandler+0x38>
C:/Users/Kanesh's laptop/Desktop/19创新基地/沁恒/例程/00_Template/USER/src/isr.c:142
    {
        TIM_ClearITPendingBit(TIM1, TIM_IT_CC2);
 238:	4591                	li	a1,4
 23a:	c0040513          	addi	a0,s0,-1024
 23e:	7b4000ef          	jal	ra,9f2 <TIM_ClearITPendingBit>
C:/Users/Kanesh's laptop/Desktop/19创新基地/沁恒/例程/00_Template/USER/src/isr.c:145

    }
    if(TIM_GetITStatus(TIM1, TIM_IT_CC3) != RESET)
 242:	40013437          	lui	s0,0x40013
 246:	45a1                	li	a1,8
 248:	c0040513          	addi	a0,s0,-1024 # 40012c00 <_eusrstack+0x2000dc00>
 24c:	78a000ef          	jal	ra,9d6 <TIM_GetITStatus>
 250:	c511                	beqz	a0,25c <TIM1_CC_IRQHandler+0x52>
C:/Users/Kanesh's laptop/Desktop/19创新基地/沁恒/例程/00_Template/USER/src/isr.c:147
    {
        TIM_ClearITPendingBit(TIM1, TIM_IT_CC3);
 252:	45a1                	li	a1,8
 254:	c0040513          	addi	a0,s0,-1024
 258:	79a000ef          	jal	ra,9f2 <TIM_ClearITPendingBit>
C:/Users/Kanesh's laptop/Desktop/19创新基地/沁恒/例程/00_Template/USER/src/isr.c:150

    }
    if(TIM_GetITStatus(TIM1, TIM_IT_CC4) != RESET)
 25c:	40013437          	lui	s0,0x40013
 260:	45c1                	li	a1,16
 262:	c0040513          	addi	a0,s0,-1024 # 40012c00 <_eusrstack+0x2000dc00>
 266:	770000ef          	jal	ra,9d6 <TIM_GetITStatus>
 26a:	c511                	beqz	a0,276 <TIM1_CC_IRQHandler+0x6c>
C:/Users/Kanesh's laptop/Desktop/19创新基地/沁恒/例程/00_Template/USER/src/isr.c:152
    {
        TIM_ClearITPendingBit(TIM1, TIM_IT_CC4);
 26c:	45c1                	li	a1,16
 26e:	c0040513          	addi	a0,s0,-1024
 272:	780000ef          	jal	ra,9f2 <TIM_ClearITPendingBit>
C:/Users/Kanesh's laptop/Desktop/19创新基地/沁恒/例程/00_Template/USER/src/isr.c:155

    }
}
 276:	4432                	lw	s0,12(sp)
 278:	0141                	addi	sp,sp,16
 27a:	30200073          	mret

0000027e <TIM2_IRQHandler>:
TIM2_IRQHandler():
C:/Users/Kanesh's laptop/Desktop/19创新基地/沁恒/例程/00_Template/USER/src/isr.c:160

void TIM2_IRQHandler(void)
{

    if(TIM_GetITStatus(TIM2, TIM_IT_Update) != RESET)
 27e:	4585                	li	a1,1
 280:	40000537          	lui	a0,0x40000
 284:	752000ef          	jal	ra,9d6 <TIM_GetITStatus>
 288:	c511                	beqz	a0,294 <TIM2_IRQHandler+0x16>
C:/Users/Kanesh's laptop/Desktop/19创新基地/沁恒/例程/00_Template/USER/src/isr.c:162
    {
        TIM_ClearITPendingBit(TIM2, TIM_IT_Update );
 28a:	4585                	li	a1,1
 28c:	40000537          	lui	a0,0x40000
 290:	762000ef          	jal	ra,9f2 <TIM_ClearITPendingBit>
C:/Users/Kanesh's laptop/Desktop/19创新基地/沁恒/例程/00_Template/USER/src/isr.c:168
        //ccd_collect();//CCD数据采集
        //gpio_toggle(B5);
        //GPIO_PIN_RESET(B5);
        //GPIO_PIN_SET(B5);
    }
}
 294:	30200073          	mret

00000298 <TIM3_IRQHandler>:
TIM3_IRQHandler():
C:/Users/Kanesh's laptop/Desktop/19创新基地/沁恒/例程/00_Template/USER/src/isr.c:171

void TIM3_IRQHandler(void)
{
 298:	1141                	addi	sp,sp,-16
 29a:	c622                	sw	s0,12(sp)
C:/Users/Kanesh's laptop/Desktop/19创新基地/沁恒/例程/00_Template/USER/src/isr.c:172
    if(TIM_GetITStatus(TIM3, TIM_IT_Update) != RESET)
 29c:	40000437          	lui	s0,0x40000
 2a0:	4585                	li	a1,1
 2a2:	40040513          	addi	a0,s0,1024 # 40000400 <_eusrstack+0x1fffb400>
 2a6:	730000ef          	jal	ra,9d6 <TIM_GetITStatus>
 2aa:	c511                	beqz	a0,2b6 <TIM3_IRQHandler+0x1e>
C:/Users/Kanesh's laptop/Desktop/19创新基地/沁恒/例程/00_Template/USER/src/isr.c:174
    {
        TIM_ClearITPendingBit(TIM3, TIM_IT_Update );
 2ac:	4585                	li	a1,1
 2ae:	40040513          	addi	a0,s0,1024
 2b2:	740000ef          	jal	ra,9f2 <TIM_ClearITPendingBit>
C:/Users/Kanesh's laptop/Desktop/19创新基地/沁恒/例程/00_Template/USER/src/isr.c:177

    }
}
 2b6:	4432                	lw	s0,12(sp)
 2b8:	0141                	addi	sp,sp,16
 2ba:	30200073          	mret

000002be <TIM4_IRQHandler>:
TIM4_IRQHandler():
C:/Users/Kanesh's laptop/Desktop/19创新基地/沁恒/例程/00_Template/USER/src/isr.c:180

void TIM4_IRQHandler(void)
{
 2be:	1141                	addi	sp,sp,-16
 2c0:	c622                	sw	s0,12(sp)
C:/Users/Kanesh's laptop/Desktop/19创新基地/沁恒/例程/00_Template/USER/src/isr.c:181
    if(TIM_GetITStatus(TIM4, TIM_IT_Update) != RESET)
 2c2:	40001437          	lui	s0,0x40001
 2c6:	4585                	li	a1,1
 2c8:	80040513          	addi	a0,s0,-2048 # 40000800 <_eusrstack+0x1fffb800>
 2cc:	2729                	jal	9d6 <TIM_GetITStatus>
 2ce:	c509                	beqz	a0,2d8 <TIM4_IRQHandler+0x1a>
C:/Users/Kanesh's laptop/Desktop/19创新基地/沁恒/例程/00_Template/USER/src/isr.c:183
    {
        TIM_ClearITPendingBit(TIM4, TIM_IT_Update );
 2d0:	4585                	li	a1,1
 2d2:	80040513          	addi	a0,s0,-2048
 2d6:	2f31                	jal	9f2 <TIM_ClearITPendingBit>
C:/Users/Kanesh's laptop/Desktop/19创新基地/沁恒/例程/00_Template/USER/src/isr.c:186

    }
}
 2d8:	4432                	lw	s0,12(sp)
 2da:	0141                	addi	sp,sp,16
 2dc:	30200073          	mret

000002e0 <USART1_IRQHandler>:
USART1_IRQHandler():
 2e0:	30200073          	mret

000002e4 <USART2_IRQHandler>:
USART2_IRQHandler():
C:/Users/Kanesh's laptop/Desktop/19创新基地/沁恒/例程/00_Template/USER/src/isr.c:194
{

}

void USART2_IRQHandler(void)
{
 2e4:	1141                	addi	sp,sp,-16
 2e6:	c622                	sw	s0,12(sp)
C:/Users/Kanesh's laptop/Desktop/19创新基地/沁恒/例程/00_Template/USER/src/isr.c:195
    if(USART_GetITStatus(USART2, USART_IT_RXNE) != RESET)
 2e8:	40004437          	lui	s0,0x40004
 2ec:	52500593          	li	a1,1317
 2f0:	40040513          	addi	a0,s0,1024 # 40004400 <_eusrstack+0x1ffff400>
 2f4:	001000ef          	jal	ra,af4 <USART_GetITStatus>
 2f8:	c519                	beqz	a0,306 <USART2_IRQHandler+0x22>
C:/Users/Kanesh's laptop/Desktop/19创新基地/沁恒/例程/00_Template/USER/src/isr.c:197
    {
        USART_ClearITPendingBit(USART2, USART_IT_RXNE);
 2fa:	52500593          	li	a1,1317
 2fe:	40040513          	addi	a0,s0,1024
 302:	037000ef          	jal	ra,b38 <USART_ClearITPendingBit>
C:/Users/Kanesh's laptop/Desktop/19创新基地/沁恒/例程/00_Template/USER/src/isr.c:203
//        if(camera_type == CAMERA_BIN_UART)
//            ov7725_cof_uart_interrupt();
//        else if(camera_type == CAMERA_GRAYSCALE)
//            mt9v03x_uart_callback();
    }
}
 306:	4432                	lw	s0,12(sp)
 308:	0141                	addi	sp,sp,16
 30a:	30200073          	mret

0000030e <USART3_IRQHandler>:
USART3_IRQHandler():
 30e:	30200073          	mret

00000312 <DMA1_Channel1_IRQHandler>:
DMA1_Channel1_IRQHandler():
 312:	30200073          	mret

00000316 <DMA1_Channel2_IRQHandler>:
DMA1_Channel2_IRQHandler():
 316:	30200073          	mret

0000031a <DMA1_Channel3_IRQHandler>:
DMA1_Channel3_IRQHandler():
 31a:	30200073          	mret

0000031e <DMA1_Channel4_IRQHandler>:
DMA1_Channel4_IRQHandler():
C:/Users/Kanesh's laptop/Desktop/19创新基地/沁恒/例程/00_Template/USER/src/isr.c:227

}

void DMA1_Channel4_IRQHandler(void)
{
    if(SET == DMA_GetFlagStatus(DMA1_FLAG_TC4))
 31e:	6509                	lui	a0,0x2
 320:	2961                	jal	7b8 <DMA_GetFlagStatus>
 322:	4785                	li	a5,1
 324:	00f51463          	bne	a0,a5,32c <DMA1_Channel4_IRQHandler+0xe>
C:/Users/Kanesh's laptop/Desktop/19创新基地/沁恒/例程/00_Template/USER/src/isr.c:229
    {
        DMA_ClearFlag(DMA1_FLAG_TC4);
 328:	6509                	lui	a0,0x2
 32a:	217d                	jal	7d8 <DMA_ClearFlag>
C:/Users/Kanesh's laptop/Desktop/19创新基地/沁恒/例程/00_Template/USER/src/isr.c:231
    }
}
 32c:	30200073          	mret

00000330 <DMA1_Channel5_IRQHandler>:
DMA1_Channel5_IRQHandler():
 330:	30200073          	mret

00000334 <DMA1_Channel6_IRQHandler>:
DMA1_Channel6_IRQHandler():
 334:	30200073          	mret

00000338 <DMA1_Channel7_IRQHandler>:
DMA1_Channel7_IRQHandler():
 338:	30200073          	mret

0000033c <NMI_Handler>:
NMI_Handler():
C:/Users/Kanesh's laptop/Desktop/19创新基地/沁恒/例程/00_Template/USER/src/isr.c:257
* Return         : None
*******************************************************************************/
void NMI_Handler(void)
{

}
 33c:	30200073          	mret

00000340 <HardFault_Handler>:
HardFault_Handler():
C:/Users/Kanesh's laptop/Desktop/19创新基地/沁恒/例程/00_Template/USER/src/isr.c:270 (discriminator 1)
void HardFault_Handler(void)
{

  while (1)
  {
  }
 340:	a001                	j	340 <HardFault_Handler>

00000342 <system_init>:
system_init():
C:/Users/Kanesh's laptop/Desktop/19创新基地/沁恒/例程/00_Template/USER/src/main.c:43
    }
}

/* 系统初始化函数，用于编写系统各外设的初始化程序 */
void system_init()
{
 342:	1141                	addi	sp,sp,-16
 344:	c606                	sw	ra,12(sp)
C:/Users/Kanesh's laptop/Desktop/19创新基地/沁恒/例程/00_Template/USER/src/main.c:44
    DisableGlobalIRQ();                                         //默认关所有中断
 346:	2469                	jal	5d0 <DisableGlobalIRQ>
C:/Users/Kanesh's laptop/Desktop/19创新基地/沁恒/例程/00_Template/USER/src/main.c:45
    uart_init(UART_1, 115200U, UART1_TX_A9, UART1_RX_A10);      //配置TYPE-C串行通信接口，用于printf打印数据
 348:	65f1                	lui	a1,0x1c
 34a:	4501                	li	a0,0
 34c:	4685                	li	a3,1
 34e:	4601                	li	a2,0
 350:	20058593          	addi	a1,a1,512 # 1c200 <_data_lma+0x1b690>
 354:	2e9d                	jal	6ca <uart_init>
C:/Users/Kanesh's laptop/Desktop/19创新基地/沁恒/例程/00_Template/USER/src/main.c:46
    board_init();                                               //务必保留，本函数用于初始化MPU,时钟/调试串口
 356:	2805                	jal	386 <board_init>
C:/Users/Kanesh's laptop/Desktop/19创新基地/沁恒/例程/00_Template/USER/src/main.c:47
    Delay_Init();                                               //延时函数初始化
 358:	229d                	jal	4be <Delay_Init>
C:/Users/Kanesh's laptop/Desktop/19创新基地/沁恒/例程/00_Template/USER/src/main.c:55
//    car_init();                                                 //智能车初始化


    /* 总中断最后开启 */
    EnableGlobalIRQ(0);
}
 35a:	40b2                	lw	ra,12(sp)
C:/Users/Kanesh's laptop/Desktop/19创新基地/沁恒/例程/00_Template/USER/src/main.c:54
    EnableGlobalIRQ(0);
 35c:	4501                	li	a0,0
C:/Users/Kanesh's laptop/Desktop/19创新基地/沁恒/例程/00_Template/USER/src/main.c:55
}
 35e:	0141                	addi	sp,sp,16
C:/Users/Kanesh's laptop/Desktop/19创新基地/沁恒/例程/00_Template/USER/src/main.c:54
    EnableGlobalIRQ(0);
 360:	ac5d                	j	616 <EnableGlobalIRQ>

00000362 <main>:
main():
C:/Users/Kanesh's laptop/Desktop/19创新基地/沁恒/例程/00_Template/USER/src/main.c:28
{
 362:	1141                	addi	sp,sp,-16
 364:	c606                	sw	ra,12(sp)
C:/Users/Kanesh's laptop/Desktop/19创新基地/沁恒/例程/00_Template/USER/src/main.c:30
    system_init();
 366:	3ff1                	jal	342 <system_init>
C:/Users/Kanesh's laptop/Desktop/19创新基地/沁恒/例程/00_Template/USER/src/main.c:35 (discriminator 1)
        gpio_init(C6, GPO, 0, SPEED_50MHZ | OUT_PP);
 368:	31000693          	li	a3,784
 36c:	4601                	li	a2,0
 36e:	4585                	li	a1,1
 370:	04600513          	li	a0,70
 374:	2a95                	jal	4e8 <gpio_init>
C:/Users/Kanesh's laptop/Desktop/19创新基地/沁恒/例程/00_Template/USER/src/main.c:36 (discriminator 1)
        gpio_init(C7, GPO, 0, SPEED_50MHZ | OUT_PP);
 376:	31000693          	li	a3,784
 37a:	4601                	li	a2,0
 37c:	4585                	li	a1,1
 37e:	04700513          	li	a0,71
 382:	229d                	jal	4e8 <gpio_init>
 384:	b7d5                	j	368 <main+0x6>

00000386 <board_init>:
board_init():
C:/Users/Kanesh's laptop/Desktop/19创新基地/沁恒/例程/Libraries/hefei_libraries/board/board.c:22
//  Sample usage:              board_init();
//-------------------------------------------------------------------------------------------------------------------
void board_init(void)
{
    //获取系统主频
    sys_clk = 8000000 * (((RCC->CFGR0 >> 18)&0x0F) + 2);
 386:	400217b7          	lui	a5,0x40021
 38a:	43dc                	lw	a5,4(a5)
 38c:	007a1737          	lui	a4,0x7a1
 390:	20070713          	addi	a4,a4,512 # 7a1200 <_data_lma+0x7a0690>
 394:	83c9                	srli	a5,a5,0x12
 396:	8bbd                	andi	a5,a5,15
 398:	02e787b3          	mul	a5,a5,a4
 39c:	00f42737          	lui	a4,0xf42
 3a0:	40070713          	addi	a4,a4,1024 # f42400 <_data_lma+0xf41890>
C:/Users/Kanesh's laptop/Desktop/19创新基地/沁恒/例程/Libraries/hefei_libraries/board/board.c:24
    //初始化DEBUG串口
    uart_init(DEBUG_UART, DEBUG_UART_BAUD, DEBUG_UART_TX_PIN, DEBUG_UART_RX_PIN);
 3a4:	65f1                	lui	a1,0x1c
 3a6:	4685                	li	a3,1
 3a8:	4601                	li	a2,0
 3aa:	20058593          	addi	a1,a1,512 # 1c200 <_data_lma+0x1b690>
 3ae:	4501                	li	a0,0
C:/Users/Kanesh's laptop/Desktop/19创新基地/沁恒/例程/Libraries/hefei_libraries/board/board.c:22
    sys_clk = 8000000 * (((RCC->CFGR0 >> 18)&0x0F) + 2);
 3b0:	97ba                	add	a5,a5,a4
 3b2:	20000737          	lui	a4,0x20000
 3b6:	00f72c23          	sw	a5,24(a4) # 20000018 <_edata>
C:/Users/Kanesh's laptop/Desktop/19创新基地/沁恒/例程/Libraries/hefei_libraries/board/board.c:24
    uart_init(DEBUG_UART, DEBUG_UART_BAUD, DEBUG_UART_TX_PIN, DEBUG_UART_RX_PIN);
 3ba:	ae01                	j	6ca <uart_init>

000003bc <SystemInit>:
SystemInit():
C:/Users/Kanesh's laptop/Desktop/19创新基地/沁恒/例程/Libraries/hefei_libraries/board/clock_config.c:94
* Input          : None
* Return         : None
*******************************************************************************************/
void SystemInit (void)
{
    RCC->CTLR |= (uint32_t)0x00000001;
 3bc:	400217b7          	lui	a5,0x40021
 3c0:	4398                	lw	a4,0(a5)
C:/Users/Kanesh's laptop/Desktop/19创新基地/沁恒/例程/Libraries/hefei_libraries/board/clock_config.c:95
    RCC->CFGR0 &= (uint32_t)0xF8FF0000;
 3c2:	f8ff06b7          	lui	a3,0xf8ff0
C:/Users/Kanesh's laptop/Desktop/19创新基地/沁恒/例程/Libraries/hefei_libraries/board/clock_config.c:93
{
 3c6:	1141                	addi	sp,sp,-16
C:/Users/Kanesh's laptop/Desktop/19创新基地/沁恒/例程/Libraries/hefei_libraries/board/clock_config.c:94
    RCC->CTLR |= (uint32_t)0x00000001;
 3c8:	00176713          	ori	a4,a4,1
 3cc:	c398                	sw	a4,0(a5)
C:/Users/Kanesh's laptop/Desktop/19创新基地/沁恒/例程/Libraries/hefei_libraries/board/clock_config.c:95
    RCC->CFGR0 &= (uint32_t)0xF8FF0000;
 3ce:	43d8                	lw	a4,4(a5)
SetSysClock():
C:/Users/Kanesh's laptop/Desktop/19创新基地/沁恒/例程/Libraries/hefei_libraries/board/clock_config.c:28
        HSEStatus = RCC->CTLR & RCC_HSERDY;
 3d0:	00020637          	lui	a2,0x20
SystemInit():
C:/Users/Kanesh's laptop/Desktop/19创新基地/沁恒/例程/Libraries/hefei_libraries/board/clock_config.c:95
    RCC->CFGR0 &= (uint32_t)0xF8FF0000;
 3d4:	8f75                	and	a4,a4,a3
 3d6:	c3d8                	sw	a4,4(a5)
C:/Users/Kanesh's laptop/Desktop/19创新基地/沁恒/例程/Libraries/hefei_libraries/board/clock_config.c:96
    RCC->CTLR &= (uint32_t)0xFEF6FFFF;
 3d8:	4398                	lw	a4,0(a5)
 3da:	fef706b7          	lui	a3,0xfef70
 3de:	16fd                	addi	a3,a3,-1
 3e0:	8f75                	and	a4,a4,a3
 3e2:	c398                	sw	a4,0(a5)
C:/Users/Kanesh's laptop/Desktop/19创新基地/沁恒/例程/Libraries/hefei_libraries/board/clock_config.c:97
    RCC->CTLR &= (uint32_t)0xFFFBFFFF;
 3e4:	4398                	lw	a4,0(a5)
 3e6:	fffc06b7          	lui	a3,0xfffc0
 3ea:	16fd                	addi	a3,a3,-1
 3ec:	8f75                	and	a4,a4,a3
 3ee:	c398                	sw	a4,0(a5)
C:/Users/Kanesh's laptop/Desktop/19创新基地/沁恒/例程/Libraries/hefei_libraries/board/clock_config.c:98
    RCC->CFGR0 &= (uint32_t)0xFF80FFFF;
 3f0:	43d8                	lw	a4,4(a5)
 3f2:	ff8106b7          	lui	a3,0xff810
 3f6:	16fd                	addi	a3,a3,-1
 3f8:	8f75                	and	a4,a4,a3
 3fa:	c3d8                	sw	a4,4(a5)
C:/Users/Kanesh's laptop/Desktop/19创新基地/沁恒/例程/Libraries/hefei_libraries/board/clock_config.c:99
    RCC->INTR = 0x009F0000;
 3fc:	009f0737          	lui	a4,0x9f0
 400:	c798                	sw	a4,8(a5)
SetSysClock():
C:/Users/Kanesh's laptop/Desktop/19创新基地/沁恒/例程/Libraries/hefei_libraries/board/clock_config.c:21
    __IO uint32_t StartUpCounter = 0, HSEStatus = 0;
 402:	c402                	sw	zero,8(sp)
 404:	c602                	sw	zero,12(sp)
C:/Users/Kanesh's laptop/Desktop/19创新基地/沁恒/例程/Libraries/hefei_libraries/board/clock_config.c:23
    RCC->CTLR |= ((uint32_t)RCC_HSEON);
 406:	4398                	lw	a4,0(a5)
 408:	66c1                	lui	a3,0x10
 40a:	8f55                	or	a4,a4,a3
 40c:	c398                	sw	a4,0(a5)
C:/Users/Kanesh's laptop/Desktop/19创新基地/沁恒/例程/Libraries/hefei_libraries/board/clock_config.c:28
        HSEStatus = RCC->CTLR & RCC_HSERDY;
 40e:	400216b7          	lui	a3,0x40021
C:/Users/Kanesh's laptop/Desktop/19创新基地/沁恒/例程/Libraries/hefei_libraries/board/clock_config.c:30
    } while((HSEStatus == 0) && (StartUpCounter != HSE_STARTUP_TIMEOUT));
 412:	50000713          	li	a4,1280
C:/Users/Kanesh's laptop/Desktop/19创新基地/沁恒/例程/Libraries/hefei_libraries/board/clock_config.c:28
        HSEStatus = RCC->CTLR & RCC_HSERDY;
 416:	429c                	lw	a5,0(a3)
 418:	8ff1                	and	a5,a5,a2
 41a:	c63e                	sw	a5,12(sp)
C:/Users/Kanesh's laptop/Desktop/19创新基地/沁恒/例程/Libraries/hefei_libraries/board/clock_config.c:29
        StartUpCounter++;
 41c:	47a2                	lw	a5,8(sp)
 41e:	0785                	addi	a5,a5,1
 420:	c43e                	sw	a5,8(sp)
C:/Users/Kanesh's laptop/Desktop/19创新基地/沁恒/例程/Libraries/hefei_libraries/board/clock_config.c:30
    } while((HSEStatus == 0) && (StartUpCounter != HSE_STARTUP_TIMEOUT));
 422:	47b2                	lw	a5,12(sp)
 424:	e781                	bnez	a5,42c <SystemInit+0x70>
 426:	47a2                	lw	a5,8(sp)
 428:	fee797e3          	bne	a5,a4,416 <SystemInit+0x5a>
C:/Users/Kanesh's laptop/Desktop/19创新基地/沁恒/例程/Libraries/hefei_libraries/board/clock_config.c:32
    if ((RCC->CTLR & RCC_HSERDY) != RESET)
 42c:	400217b7          	lui	a5,0x40021
 430:	439c                	lw	a5,0(a5)
 432:	00e79713          	slli	a4,a5,0xe
 436:	08075263          	bgez	a4,4ba <SystemInit+0xfe>
C:/Users/Kanesh's laptop/Desktop/19创新基地/沁恒/例程/Libraries/hefei_libraries/board/clock_config.c:34
        HSEStatus = (uint32_t)0x01;
 43a:	4785                	li	a5,1
 43c:	c63e                	sw	a5,12(sp)
C:/Users/Kanesh's laptop/Desktop/19创新基地/沁恒/例程/Libraries/hefei_libraries/board/clock_config.c:41
    if (HSEStatus == (uint32_t)0x01)
 43e:	4732                	lw	a4,12(sp)
 440:	4785                	li	a5,1
 442:	06f71a63          	bne	a4,a5,4b6 <SystemInit+0xfa>
C:/Users/Kanesh's laptop/Desktop/19创新基地/沁恒/例程/Libraries/hefei_libraries/board/clock_config.c:44
        FLASH->ACTLR |= FLASH_ACTLR_PRFTBE;
 446:	400227b7          	lui	a5,0x40022
 44a:	4398                	lw	a4,0(a5)
C:/Users/Kanesh's laptop/Desktop/19创新基地/沁恒/例程/Libraries/hefei_libraries/board/clock_config.c:58
        RCC->CFGR0 &= (uint32_t)((uint32_t)~(RCC_PLLSRC | RCC_PLLXTPRE |
 44c:	ffc106b7          	lui	a3,0xffc10
 450:	16fd                	addi	a3,a3,-1
C:/Users/Kanesh's laptop/Desktop/19创新基地/沁恒/例程/Libraries/hefei_libraries/board/clock_config.c:44
        FLASH->ACTLR |= FLASH_ACTLR_PRFTBE;
 452:	01076713          	ori	a4,a4,16
 456:	c398                	sw	a4,0(a5)
C:/Users/Kanesh's laptop/Desktop/19创新基地/沁恒/例程/Libraries/hefei_libraries/board/clock_config.c:47
        FLASH->ACTLR &= (uint32_t)((uint32_t)~FLASH_ACTLR_LATENCY);
 458:	4398                	lw	a4,0(a5)
 45a:	9b71                	andi	a4,a4,-4
 45c:	c398                	sw	a4,0(a5)
C:/Users/Kanesh's laptop/Desktop/19创新基地/沁恒/例程/Libraries/hefei_libraries/board/clock_config.c:48
        FLASH->ACTLR |= (uint32_t)FLASH_ACTLR_LATENCY_2;
 45e:	4398                	lw	a4,0(a5)
 460:	00276713          	ori	a4,a4,2
 464:	c398                	sw	a4,0(a5)
C:/Users/Kanesh's laptop/Desktop/19创新基地/沁恒/例程/Libraries/hefei_libraries/board/clock_config.c:51
        RCC->CFGR0 |= (uint32_t)RCC_HPRE_DIV1;
 466:	400217b7          	lui	a5,0x40021
 46a:	43d8                	lw	a4,4(a5)
 46c:	c3d8                	sw	a4,4(a5)
C:/Users/Kanesh's laptop/Desktop/19创新基地/沁恒/例程/Libraries/hefei_libraries/board/clock_config.c:53
        RCC->CFGR0 |= (uint32_t)RCC_PPRE2_DIV1;
 46e:	43d8                	lw	a4,4(a5)
 470:	c3d8                	sw	a4,4(a5)
C:/Users/Kanesh's laptop/Desktop/19创新基地/沁恒/例程/Libraries/hefei_libraries/board/clock_config.c:55
        RCC->CFGR0 |= (uint32_t)RCC_PPRE1_DIV1;
 472:	43d8                	lw	a4,4(a5)
 474:	c3d8                	sw	a4,4(a5)
C:/Users/Kanesh's laptop/Desktop/19创新基地/沁恒/例程/Libraries/hefei_libraries/board/clock_config.c:58
        RCC->CFGR0 &= (uint32_t)((uint32_t)~(RCC_PLLSRC | RCC_PLLXTPRE |
 476:	43d8                	lw	a4,4(a5)
 478:	8f75                	and	a4,a4,a3
 47a:	c3d8                	sw	a4,4(a5)
C:/Users/Kanesh's laptop/Desktop/19创新基地/沁恒/例程/Libraries/hefei_libraries/board/clock_config.c:61
        RCC->CFGR0 |= (uint32_t)(RCC_PLLSRC_HSE | RCC_PLLMULL11);
 47c:	43d8                	lw	a4,4(a5)
 47e:	002506b7          	lui	a3,0x250
 482:	8f55                	or	a4,a4,a3
 484:	c3d8                	sw	a4,4(a5)
C:/Users/Kanesh's laptop/Desktop/19创新基地/沁恒/例程/Libraries/hefei_libraries/board/clock_config.c:63
        RCC->CTLR |= RCC_PLLON;
 486:	4398                	lw	a4,0(a5)
 488:	010006b7          	lui	a3,0x1000
 48c:	8f55                	or	a4,a4,a3
 48e:	c398                	sw	a4,0(a5)
C:/Users/Kanesh's laptop/Desktop/19创新基地/沁恒/例程/Libraries/hefei_libraries/board/clock_config.c:65
        while((RCC->CTLR & RCC_PLLRDY) == 0)
 490:	4398                	lw	a4,0(a5)
 492:	00671693          	slli	a3,a4,0x6
 496:	fe06dde3          	bgez	a3,490 <SystemInit+0xd4>
C:/Users/Kanesh's laptop/Desktop/19创新基地/沁恒/例程/Libraries/hefei_libraries/board/clock_config.c:69
        RCC->CFGR0 &= (uint32_t)((uint32_t)~(RCC_SW));
 49a:	43d8                	lw	a4,4(a5)
C:/Users/Kanesh's laptop/Desktop/19创新基地/沁恒/例程/Libraries/hefei_libraries/board/clock_config.c:72
        while ((RCC->CFGR0 & (uint32_t)RCC_SWS) != (uint32_t)0x08)
 49c:	400216b7          	lui	a3,0x40021
C:/Users/Kanesh's laptop/Desktop/19创新基地/沁恒/例程/Libraries/hefei_libraries/board/clock_config.c:69
        RCC->CFGR0 &= (uint32_t)((uint32_t)~(RCC_SW));
 4a0:	9b71                	andi	a4,a4,-4
 4a2:	c3d8                	sw	a4,4(a5)
C:/Users/Kanesh's laptop/Desktop/19创新基地/沁恒/例程/Libraries/hefei_libraries/board/clock_config.c:70
        RCC->CFGR0 |= (uint32_t)RCC_SW_PLL;
 4a4:	43d8                	lw	a4,4(a5)
 4a6:	00276713          	ori	a4,a4,2
 4aa:	c3d8                	sw	a4,4(a5)
C:/Users/Kanesh's laptop/Desktop/19创新基地/沁恒/例程/Libraries/hefei_libraries/board/clock_config.c:72
        while ((RCC->CFGR0 & (uint32_t)RCC_SWS) != (uint32_t)0x08)
 4ac:	4721                	li	a4,8
 4ae:	42dc                	lw	a5,4(a3)
 4b0:	8bb1                	andi	a5,a5,12
 4b2:	fee79ee3          	bne	a5,a4,4ae <SystemInit+0xf2>
SystemInit():
C:/Users/Kanesh's laptop/Desktop/19创新基地/沁恒/例程/Libraries/hefei_libraries/board/clock_config.c:101
    SetSysClock();
}
 4b6:	0141                	addi	sp,sp,16
 4b8:	8082                	ret
SetSysClock():
C:/Users/Kanesh's laptop/Desktop/19创新基地/沁恒/例程/Libraries/hefei_libraries/board/clock_config.c:38
        HSEStatus = (uint32_t)0x00;
 4ba:	c602                	sw	zero,12(sp)
 4bc:	b749                	j	43e <SystemInit+0x82>

000004be <Delay_Init>:
Delay_Init():
C:/Users/Kanesh's laptop/Desktop/19创新基地/沁恒/例程/Libraries/hefei_libraries/delay.c:24
//  @return     void
//  Sample usage:           Delay_Init();
//-------------------------------------------------------------------------------------------------------------------
void Delay_Init(void)
{
    p_us=sys_clk/8000000;
 4be:	200007b7          	lui	a5,0x20000
 4c2:	0187a783          	lw	a5,24(a5) # 20000018 <_edata>
 4c6:	007a1737          	lui	a4,0x7a1
 4ca:	20070713          	addi	a4,a4,512 # 7a1200 <_data_lma+0x7a0690>
 4ce:	02e7d7b3          	divu	a5,a5,a4
 4d2:	0ff7f793          	andi	a5,a5,255
 4d6:	80f18723          	sb	a5,-2034(gp) # 2000001e <p_us>
C:/Users/Kanesh's laptop/Desktop/19创新基地/沁恒/例程/Libraries/hefei_libraries/delay.c:25
    p_ms=(uint16_t)p_us*1000;
 4da:	3e800713          	li	a4,1000
 4de:	02e787b3          	mul	a5,a5,a4
 4e2:	80f19623          	sh	a5,-2036(gp) # 2000001c <p_ms>
C:/Users/Kanesh's laptop/Desktop/19创新基地/沁恒/例程/Libraries/hefei_libraries/delay.c:26
}
 4e6:	8082                	ret

000004e8 <gpio_init>:
gpio_init():
C:/Users/Kanesh's laptop/Desktop/19创新基地/沁恒/例程/Libraries/hefei_libraries/hf_gpio.c:31
    GPIO_InitTypeDef GPIO_InitStructure;
    uint8 io_group = (pin & 0xE0) >> 5;
    uint8 io_pin = pin & 0x1F;


    if(PIN_NULL == pin) return;
 4e8:	08000713          	li	a4,128
 4ec:	0ce50963          	beq	a0,a4,5be <gpio_init+0xd6>
C:/Users/Kanesh's laptop/Desktop/19创新基地/沁恒/例程/Libraries/hefei_libraries/hf_gpio.c:25
{
 4f0:	7179                	addi	sp,sp,-48
 4f2:	d422                	sw	s0,40(sp)
 4f4:	d226                	sw	s1,36(sp)
 4f6:	d04a                	sw	s2,32(sp)
 4f8:	ce4e                	sw	s3,28(sp)
 4fa:	cc52                	sw	s4,24(sp)
 4fc:	00555793          	srli	a5,a0,0x5
 500:	d606                	sw	ra,44(sp)
 502:	0077fa13          	andi	s4,a5,7
 506:	01f57413          	andi	s0,a0,31
 50a:	84b6                	mv	s1,a3
 50c:	89b2                	mv	s3,a2
 50e:	892e                	mv	s2,a1
C:/Users/Kanesh's laptop/Desktop/19创新基地/沁恒/例程/Libraries/hefei_libraries/hf_gpio.c:33
    //GPIO总线使能
    if(0 == (pin >> 5))      RCC_APB2PeriphClockCmd(RCC_APB2Periph_GPIOA, ENABLE);
 510:	efb9                	bnez	a5,56e <gpio_init+0x86>
C:/Users/Kanesh's laptop/Desktop/19创新基地/沁恒/例程/Libraries/hefei_libraries/hf_gpio.c:33 (discriminator 1)
 512:	4585                	li	a1,1
 514:	4511                	li	a0,4
C:/Users/Kanesh's laptop/Desktop/19创新基地/沁恒/例程/Libraries/hefei_libraries/hf_gpio.c:39 (discriminator 1)
    else if(1 == (pin >> 5)) RCC_APB2PeriphClockCmd(RCC_APB2Periph_GPIOB, ENABLE);
    else if(2 == (pin >> 5)) RCC_APB2PeriphClockCmd(RCC_APB2Periph_GPIOC, ENABLE);
    else if(3 == (pin >> 5)) RCC_APB2PeriphClockCmd(RCC_APB2Periph_GPIOD, ENABLE);
    else if(4 == (pin >> 5)) RCC_APB2PeriphClockCmd(RCC_APB2Periph_GPIOE, ENABLE);
    else if(5 == (pin >> 5)) RCC_APB2PeriphClockCmd(RCC_APB2Periph_GPIOF, ENABLE);
    else if(6 == (pin >> 5)) RCC_APB2PeriphClockCmd(RCC_APB2Periph_GPIOG, ENABLE);
 516:	2151                	jal	99a <RCC_APB2PeriphClockCmd>
C:/Users/Kanesh's laptop/Desktop/19创新基地/沁恒/例程/Libraries/hefei_libraries/hf_gpio.c:43


    //设置引脚号
    GPIO_InitStructure.GPIO_Pin = (uint16)(1 << io_pin);
 518:	4785                	li	a5,1
 51a:	00879433          	sll	s0,a5,s0
 51e:	0442                	slli	s0,s0,0x10
 520:	8041                	srli	s0,s0,0x10
 522:	00811223          	sh	s0,4(sp)
C:/Users/Kanesh's laptop/Desktop/19创新基地/沁恒/例程/Libraries/hefei_libraries/hf_gpio.c:45

    if(GPO == dir)
 526:	00f91963          	bne	s2,a5,538 <gpio_init+0x50>
C:/Users/Kanesh's laptop/Desktop/19创新基地/沁恒/例程/Libraries/hefei_libraries/hf_gpio.c:48
    {
        //只有输出需要设置速度
        if((uint16)pinconf >> 8 == 0) GPIO_InitStructure.GPIO_Speed = (GPIOSpeed_TypeDef)(GPIO_Speed_50MHz);  //防止没有填写这个参数,默认设置50Mhz
 52a:	01049793          	slli	a5,s1,0x10
 52e:	83c1                	srli	a5,a5,0x10
 530:	83a1                	srli	a5,a5,0x8
 532:	e391                	bnez	a5,536 <gpio_init+0x4e>
C:/Users/Kanesh's laptop/Desktop/19创新基地/沁恒/例程/Libraries/hefei_libraries/hf_gpio.c:48 (discriminator 1)
 534:	478d                	li	a5,3
C:/Users/Kanesh's laptop/Desktop/19创新基地/沁恒/例程/Libraries/hefei_libraries/hf_gpio.c:49
        else GPIO_InitStructure.GPIO_Speed = (GPIOSpeed_TypeDef)((uint16)pinconf >> 8);                       //已经填写了该参数。根据值来设置
 536:	c43e                	sw	a5,8(sp)
C:/Users/Kanesh's laptop/Desktop/19创新基地/沁恒/例程/Libraries/hefei_libraries/hf_gpio.c:54
    }

    //设置模式
    GPIO_InitStructure.GPIO_Mode = (GPIOMode_TypeDef)((uint16)pinconf & 0xff);
    GPIO_Init((GPIO_TypeDef *)(GPION[io_group]), &GPIO_InitStructure);
 538:	6785                	lui	a5,0x1
 53a:	0a0a                	slli	s4,s4,0x2
 53c:	b5078793          	addi	a5,a5,-1200 # b50 <GPION>
 540:	97d2                	add	a5,a5,s4
C:/Users/Kanesh's laptop/Desktop/19创新基地/沁恒/例程/Libraries/hefei_libraries/hf_gpio.c:53
    GPIO_InitStructure.GPIO_Mode = (GPIOMode_TypeDef)((uint16)pinconf & 0xff);
 542:	0ff4f493          	andi	s1,s1,255
 546:	c626                	sw	s1,12(sp)
C:/Users/Kanesh's laptop/Desktop/19创新基地/沁恒/例程/Libraries/hefei_libraries/hf_gpio.c:54
    GPIO_Init((GPIO_TypeDef *)(GPION[io_group]), &GPIO_InitStructure);
 548:	4384                	lw	s1,0(a5)
 54a:	004c                	addi	a1,sp,4
 54c:	8526                	mv	a0,s1
 54e:	24f1                	jal	81a <GPIO_Init>
C:/Users/Kanesh's laptop/Desktop/19创新基地/沁恒/例程/Libraries/hefei_libraries/hf_gpio.c:56

    if(GPO == dir)
 550:	4785                	li	a5,1
 552:	00f91663          	bne	s2,a5,55e <gpio_init+0x76>
C:/Users/Kanesh's laptop/Desktop/19创新基地/沁恒/例程/Libraries/hefei_libraries/hf_gpio.c:59
    {
        //只有输出需要设置引脚状态
        GPIO_WriteBit((GPIO_TypeDef *)(GPION[io_group]), (uint16)(1 << io_pin), dat);
 556:	864e                	mv	a2,s3
 558:	85a2                	mv	a1,s0
 55a:	8526                	mv	a0,s1
 55c:	2641                	jal	8dc <GPIO_WriteBit>
C:/Users/Kanesh's laptop/Desktop/19创新基地/沁恒/例程/Libraries/hefei_libraries/hf_gpio.c:61
    }
}
 55e:	50b2                	lw	ra,44(sp)
 560:	5422                	lw	s0,40(sp)
 562:	5492                	lw	s1,36(sp)
 564:	5902                	lw	s2,32(sp)
 566:	49f2                	lw	s3,28(sp)
 568:	4a62                	lw	s4,24(sp)
 56a:	6145                	addi	sp,sp,48
 56c:	8082                	ret
C:/Users/Kanesh's laptop/Desktop/19创新基地/沁恒/例程/Libraries/hefei_libraries/hf_gpio.c:34
    else if(1 == (pin >> 5)) RCC_APB2PeriphClockCmd(RCC_APB2Periph_GPIOB, ENABLE);
 56e:	4705                	li	a4,1
 570:	00e79563          	bne	a5,a4,57a <gpio_init+0x92>
C:/Users/Kanesh's laptop/Desktop/19创新基地/沁恒/例程/Libraries/hefei_libraries/hf_gpio.c:34 (discriminator 1)
 574:	4585                	li	a1,1
 576:	4521                	li	a0,8
 578:	bf79                	j	516 <gpio_init+0x2e>
C:/Users/Kanesh's laptop/Desktop/19创新基地/沁恒/例程/Libraries/hefei_libraries/hf_gpio.c:35
    else if(2 == (pin >> 5)) RCC_APB2PeriphClockCmd(RCC_APB2Periph_GPIOC, ENABLE);
 57a:	4709                	li	a4,2
 57c:	00e79563          	bne	a5,a4,586 <gpio_init+0x9e>
C:/Users/Kanesh's laptop/Desktop/19创新基地/沁恒/例程/Libraries/hefei_libraries/hf_gpio.c:35 (discriminator 1)
 580:	4585                	li	a1,1
 582:	4541                	li	a0,16
 584:	bf49                	j	516 <gpio_init+0x2e>
C:/Users/Kanesh's laptop/Desktop/19创新基地/沁恒/例程/Libraries/hefei_libraries/hf_gpio.c:36
    else if(3 == (pin >> 5)) RCC_APB2PeriphClockCmd(RCC_APB2Periph_GPIOD, ENABLE);
 586:	470d                	li	a4,3
 588:	00e79663          	bne	a5,a4,594 <gpio_init+0xac>
C:/Users/Kanesh's laptop/Desktop/19创新基地/沁恒/例程/Libraries/hefei_libraries/hf_gpio.c:36 (discriminator 1)
 58c:	4585                	li	a1,1
 58e:	02000513          	li	a0,32
 592:	b751                	j	516 <gpio_init+0x2e>
C:/Users/Kanesh's laptop/Desktop/19创新基地/沁恒/例程/Libraries/hefei_libraries/hf_gpio.c:37
    else if(4 == (pin >> 5)) RCC_APB2PeriphClockCmd(RCC_APB2Periph_GPIOE, ENABLE);
 594:	4711                	li	a4,4
 596:	00e79663          	bne	a5,a4,5a2 <gpio_init+0xba>
C:/Users/Kanesh's laptop/Desktop/19创新基地/沁恒/例程/Libraries/hefei_libraries/hf_gpio.c:37 (discriminator 1)
 59a:	4585                	li	a1,1
 59c:	04000513          	li	a0,64
 5a0:	bf9d                	j	516 <gpio_init+0x2e>
C:/Users/Kanesh's laptop/Desktop/19创新基地/沁恒/例程/Libraries/hefei_libraries/hf_gpio.c:38
    else if(5 == (pin >> 5)) RCC_APB2PeriphClockCmd(RCC_APB2Periph_GPIOF, ENABLE);
 5a2:	4715                	li	a4,5
 5a4:	00e79663          	bne	a5,a4,5b0 <gpio_init+0xc8>
C:/Users/Kanesh's laptop/Desktop/19创新基地/沁恒/例程/Libraries/hefei_libraries/hf_gpio.c:38 (discriminator 1)
 5a8:	4585                	li	a1,1
 5aa:	08000513          	li	a0,128
 5ae:	b7a5                	j	516 <gpio_init+0x2e>
C:/Users/Kanesh's laptop/Desktop/19创新基地/沁恒/例程/Libraries/hefei_libraries/hf_gpio.c:39
    else if(6 == (pin >> 5)) RCC_APB2PeriphClockCmd(RCC_APB2Periph_GPIOG, ENABLE);
 5b0:	4719                	li	a4,6
 5b2:	f6e793e3          	bne	a5,a4,518 <gpio_init+0x30>
C:/Users/Kanesh's laptop/Desktop/19创新基地/沁恒/例程/Libraries/hefei_libraries/hf_gpio.c:39 (discriminator 1)
 5b6:	4585                	li	a1,1
 5b8:	10000513          	li	a0,256
 5bc:	bfa9                	j	516 <gpio_init+0x2e>
 5be:	8082                	ret

000005c0 <close_all_irq>:
close_all_irq():
C:/Users/Kanesh's laptop/Desktop/19创新基地/沁恒/例程/Libraries/hefei_libraries/hf_nvic.c:82
//  Sample usage:       内部使用  用户无需关心
//-------------------------------------------------------------------------------------------------------------------
void close_all_irq(void)
{
    /* 写1，清空状态 */
    PFIC->IRER[0] = 0xffffffff;
 5c0:	e000e7b7          	lui	a5,0xe000e
 5c4:	577d                	li	a4,-1
 5c6:	18e7a023          	sw	a4,384(a5) # e000e180 <_eusrstack+0xc0009180>
C:/Users/Kanesh's laptop/Desktop/19创新基地/沁恒/例程/Libraries/hefei_libraries/hf_nvic.c:83
    PFIC->IRER[1] = 0xffffffff;
 5ca:	18e7a223          	sw	a4,388(a5)
C:/Users/Kanesh's laptop/Desktop/19创新基地/沁恒/例程/Libraries/hefei_libraries/hf_nvic.c:84
}
 5ce:	8082                	ret

000005d0 <DisableGlobalIRQ>:
DisableGlobalIRQ():
C:/Users/Kanesh's laptop/Desktop/19创新基地/沁恒/例程/Libraries/hefei_libraries/hf_nvic.c:48
{
 5d0:	1101                	addi	sp,sp,-32
C:/Users/Kanesh's laptop/Desktop/19创新基地/沁恒/例程/Libraries/hefei_libraries/hf_nvic.c:50
    irq_status.flag = 1;
 5d2:	20000737          	lui	a4,0x20000
C:/Users/Kanesh's laptop/Desktop/19创新基地/沁恒/例程/Libraries/hefei_libraries/hf_nvic.c:48
{
 5d6:	ce06                	sw	ra,28(sp)
C:/Users/Kanesh's laptop/Desktop/19创新基地/沁恒/例程/Libraries/hefei_libraries/hf_nvic.c:50
    irq_status.flag = 1;
 5d8:	02070793          	addi	a5,a4,32 # 20000020 <irq_status>
 5dc:	4685                	li	a3,1
 5de:	00d78423          	sb	a3,8(a5)
C:/Users/Kanesh's laptop/Desktop/19创新基地/沁恒/例程/Libraries/hefei_libraries/hf_nvic.c:51
    if((irq_status.ienr0 == 0) && (irq_status.ienr1 == 0))   state = 0;  //没有就返回0
 5e2:	02072503          	lw	a0,32(a4)
 5e6:	43dc                	lw	a5,4(a5)
 5e8:	8d5d                	or	a0,a0,a5
 5ea:	00a03533          	snez	a0,a0
 5ee:	c62a                	sw	a0,12(sp)
C:/Users/Kanesh's laptop/Desktop/19创新基地/沁恒/例程/Libraries/hefei_libraries/hf_nvic.c:53
    close_all_irq();
 5f0:	3fc1                	jal	5c0 <close_all_irq>
C:/Users/Kanesh's laptop/Desktop/19创新基地/沁恒/例程/Libraries/hefei_libraries/hf_nvic.c:55
}
 5f2:	40f2                	lw	ra,28(sp)
 5f4:	4532                	lw	a0,12(sp)
 5f6:	6105                	addi	sp,sp,32
 5f8:	8082                	ret

000005fa <sys_recover_irq>:
sys_recover_irq():
C:/Users/Kanesh's laptop/Desktop/19创新基地/沁恒/例程/Libraries/hefei_libraries/hf_nvic.c:95
//  @since      v1.0
//  Sample usage:       内部使用  用户无需关心
//-------------------------------------------------------------------------------------------------------------------
void sys_recover_irq(void)
{
    PFIC->IENR[0] = irq_status.ienr0;
 5fa:	200007b7          	lui	a5,0x20000
 5fe:	0207a683          	lw	a3,32(a5) # 20000020 <irq_status>
 602:	e000e737          	lui	a4,0xe000e
C:/Users/Kanesh's laptop/Desktop/19创新基地/沁恒/例程/Libraries/hefei_libraries/hf_nvic.c:96
    PFIC->IENR[1] = irq_status.ienr1;
 606:	02078793          	addi	a5,a5,32
C:/Users/Kanesh's laptop/Desktop/19创新基地/沁恒/例程/Libraries/hefei_libraries/hf_nvic.c:95
    PFIC->IENR[0] = irq_status.ienr0;
 60a:	10d72023          	sw	a3,256(a4) # e000e100 <_eusrstack+0xc0009100>
C:/Users/Kanesh's laptop/Desktop/19创新基地/沁恒/例程/Libraries/hefei_libraries/hf_nvic.c:96
    PFIC->IENR[1] = irq_status.ienr1;
 60e:	43dc                	lw	a5,4(a5)
 610:	10f72223          	sw	a5,260(a4)
C:/Users/Kanesh's laptop/Desktop/19创新基地/沁恒/例程/Libraries/hefei_libraries/hf_nvic.c:97
}
 614:	8082                	ret

00000616 <EnableGlobalIRQ>:
EnableGlobalIRQ():
C:/Users/Kanesh's laptop/Desktop/19创新基地/沁恒/例程/Libraries/hefei_libraries/hf_nvic.c:66
    if(state == 0)
 616:	e501                	bnez	a0,61e <EnableGlobalIRQ+0x8>
C:/Users/Kanesh's laptop/Desktop/19创新基地/沁恒/例程/Libraries/hefei_libraries/hf_nvic.c:68
        irq_status.flag = 0;
 618:	80018c23          	sb	zero,-2024(gp) # 20000028 <irq_status+0x8>
C:/Users/Kanesh's laptop/Desktop/19创新基地/沁恒/例程/Libraries/hefei_libraries/hf_nvic.c:69
        sys_recover_irq();
 61c:	bff9                	j	5fa <sys_recover_irq>
C:/Users/Kanesh's laptop/Desktop/19创新基地/沁恒/例程/Libraries/hefei_libraries/hf_nvic.c:71
}
 61e:	8082                	ret

00000620 <uart_gpio_init>:
uart_gpio_init():
C:/Users/Kanesh's laptop/Desktop/19创新基地/沁恒/例程/Libraries/hefei_libraries/hf_uart.c:164
//  @param      rx_pin      串口接收引脚号
//  @return     void
//  Sample usage:           内部使用，用户无需关心
//-------------------------------------------------------------------------------------------------------------------
void uart_gpio_init(UARTPIN_enum tx_pin, UARTPIN_enum rx_pin)
{
 620:	1141                	addi	sp,sp,-16
 622:	c606                	sw	ra,12(sp)
C:/Users/Kanesh's laptop/Desktop/19创新基地/沁恒/例程/Libraries/hefei_libraries/hf_uart.c:165
    if(tx_pin == UART1_TX_A9 && rx_pin == UART1_RX_A10)
 624:	e105                	bnez	a0,644 <uart_gpio_init+0x24>
C:/Users/Kanesh's laptop/Desktop/19创新基地/沁恒/例程/Libraries/hefei_libraries/hf_uart.c:165 (discriminator 1)
 626:	4785                	li	a5,1
 628:	08f59e63          	bne	a1,a5,6c4 <uart_gpio_init+0xa4>
C:/Users/Kanesh's laptop/Desktop/19创新基地/沁恒/例程/Libraries/hefei_libraries/hf_uart.c:167
    {
        gpio_init(A9, GPO, 0, SPEED_50MHZ|OUT_AF_PP);
 62c:	31800693          	li	a3,792
 630:	4601                	li	a2,0
 632:	4525                	li	a0,9
 634:	3d55                	jal	4e8 <gpio_init>
C:/Users/Kanesh's laptop/Desktop/19创新基地/沁恒/例程/Libraries/hefei_libraries/hf_uart.c:168
        gpio_init(A10, GPI, 0, IN_FLOAT);
 636:	4691                	li	a3,4
 638:	4601                	li	a2,0
 63a:	4581                	li	a1,0
 63c:	4529                	li	a0,10
C:/Users/Kanesh's laptop/Desktop/19创新基地/沁恒/例程/Libraries/hefei_libraries/hf_uart.c:193
    else if(tx_pin == UART3_TX_C10)
    {
        gpio_init(C10, GPO, 0, SPEED_50MHZ|OUT_PP);
        gpio_init(C11, GPI, 0, IN_FLOAT);
    }
}
 63e:	40b2                	lw	ra,12(sp)
 640:	0141                	addi	sp,sp,16
C:/Users/Kanesh's laptop/Desktop/19创新基地/沁恒/例程/Libraries/hefei_libraries/hf_uart.c:191
        gpio_init(C11, GPI, 0, IN_FLOAT);
 642:	b55d                	j	4e8 <gpio_init>
C:/Users/Kanesh's laptop/Desktop/19创新基地/沁恒/例程/Libraries/hefei_libraries/hf_uart.c:170
    else if(tx_pin == UART1_TX_B6)
 644:	4789                	li	a5,2
 646:	00f51f63          	bne	a0,a5,664 <uart_gpio_init+0x44>
C:/Users/Kanesh's laptop/Desktop/19创新基地/沁恒/例程/Libraries/hefei_libraries/hf_uart.c:172
        gpio_init(B6, GPO, 0, SPEED_50MHZ|OUT_AF_PP);
 64a:	31800693          	li	a3,792
 64e:	4601                	li	a2,0
 650:	4585                	li	a1,1
 652:	02600513          	li	a0,38
 656:	3d49                	jal	4e8 <gpio_init>
C:/Users/Kanesh's laptop/Desktop/19创新基地/沁恒/例程/Libraries/hefei_libraries/hf_uart.c:173
        gpio_init(B7, GPI, 0, IN_FLOAT);
 658:	4691                	li	a3,4
 65a:	4601                	li	a2,0
 65c:	4581                	li	a1,0
 65e:	02700513          	li	a0,39
 662:	bff1                	j	63e <uart_gpio_init+0x1e>
C:/Users/Kanesh's laptop/Desktop/19创新基地/沁恒/例程/Libraries/hefei_libraries/hf_uart.c:176
    else if(tx_pin == UART2_TX_A2)
 664:	47c1                	li	a5,16
 666:	00f51d63          	bne	a0,a5,680 <uart_gpio_init+0x60>
C:/Users/Kanesh's laptop/Desktop/19创新基地/沁恒/例程/Libraries/hefei_libraries/hf_uart.c:178
        gpio_init(A2, GPO, 0, SPEED_50MHZ|OUT_AF_PP);
 66a:	31800693          	li	a3,792
 66e:	4601                	li	a2,0
 670:	4585                	li	a1,1
 672:	4509                	li	a0,2
 674:	3d95                	jal	4e8 <gpio_init>
C:/Users/Kanesh's laptop/Desktop/19创新基地/沁恒/例程/Libraries/hefei_libraries/hf_uart.c:179
        gpio_init(A3, GPI, 0, IN_FLOAT);
 676:	4691                	li	a3,4
 678:	4601                	li	a2,0
 67a:	4581                	li	a1,0
 67c:	450d                	li	a0,3
 67e:	b7c1                	j	63e <uart_gpio_init+0x1e>
C:/Users/Kanesh's laptop/Desktop/19创新基地/沁恒/例程/Libraries/hefei_libraries/hf_uart.c:182
    else if(tx_pin == UART3_TX_B10)
 680:	02000793          	li	a5,32
 684:	00f51f63          	bne	a0,a5,6a2 <uart_gpio_init+0x82>
C:/Users/Kanesh's laptop/Desktop/19创新基地/沁恒/例程/Libraries/hefei_libraries/hf_uart.c:184
        gpio_init(B10, GPO, 0, SPEED_50MHZ|OUT_AF_PP);
 688:	31800693          	li	a3,792
 68c:	4601                	li	a2,0
 68e:	4585                	li	a1,1
 690:	02a00513          	li	a0,42
 694:	3d91                	jal	4e8 <gpio_init>
C:/Users/Kanesh's laptop/Desktop/19创新基地/沁恒/例程/Libraries/hefei_libraries/hf_uart.c:185
        gpio_init(B11, GPI, 0, IN_FLOAT);
 696:	4691                	li	a3,4
 698:	4601                	li	a2,0
 69a:	4581                	li	a1,0
 69c:	02b00513          	li	a0,43
 6a0:	bf79                	j	63e <uart_gpio_init+0x1e>
C:/Users/Kanesh's laptop/Desktop/19创新基地/沁恒/例程/Libraries/hefei_libraries/hf_uart.c:188
    else if(tx_pin == UART3_TX_C10)
 6a2:	02200793          	li	a5,34
 6a6:	00f51f63          	bne	a0,a5,6c4 <uart_gpio_init+0xa4>
C:/Users/Kanesh's laptop/Desktop/19创新基地/沁恒/例程/Libraries/hefei_libraries/hf_uart.c:190
        gpio_init(C10, GPO, 0, SPEED_50MHZ|OUT_PP);
 6aa:	31000693          	li	a3,784
 6ae:	4601                	li	a2,0
 6b0:	4585                	li	a1,1
 6b2:	04a00513          	li	a0,74
 6b6:	3d0d                	jal	4e8 <gpio_init>
C:/Users/Kanesh's laptop/Desktop/19创新基地/沁恒/例程/Libraries/hefei_libraries/hf_uart.c:191
        gpio_init(C11, GPI, 0, IN_FLOAT);
 6b8:	4691                	li	a3,4
 6ba:	4601                	li	a2,0
 6bc:	4581                	li	a1,0
 6be:	04b00513          	li	a0,75
 6c2:	bfb5                	j	63e <uart_gpio_init+0x1e>
C:/Users/Kanesh's laptop/Desktop/19创新基地/沁恒/例程/Libraries/hefei_libraries/hf_uart.c:193
}
 6c4:	40b2                	lw	ra,12(sp)
 6c6:	0141                	addi	sp,sp,16
 6c8:	8082                	ret

000006ca <uart_init>:
uart_init():
C:/Users/Kanesh's laptop/Desktop/19创新基地/沁恒/例程/Libraries/hefei_libraries/hf_uart.c:25
{
 6ca:	7179                	addi	sp,sp,-48
 6cc:	d422                	sw	s0,40(sp)
 6ce:	d226                	sw	s1,36(sp)
 6d0:	d04a                	sw	s2,32(sp)
 6d2:	ce4e                	sw	s3,28(sp)
 6d4:	d606                	sw	ra,44(sp)
 6d6:	842a                	mv	s0,a0
 6d8:	84ae                	mv	s1,a1
 6da:	8932                	mv	s2,a2
 6dc:	89b6                	mv	s3,a3
C:/Users/Kanesh's laptop/Desktop/19创新基地/沁恒/例程/Libraries/hefei_libraries/hf_uart.c:29
    if(UART_1 == UART_x) RCC_APB2PeriphClockCmd(RCC_APB2Periph_USART1, ENABLE);
 6de:	e129                	bnez	a0,720 <uart_init+0x56>
C:/Users/Kanesh's laptop/Desktop/19创新基地/沁恒/例程/Libraries/hefei_libraries/hf_uart.c:29 (discriminator 1)
 6e0:	4585                	li	a1,1
 6e2:	6511                	lui	a0,0x4
 6e4:	2c5d                	jal	99a <RCC_APB2PeriphClockCmd>
C:/Users/Kanesh's laptop/Desktop/19创新基地/沁恒/例程/Libraries/hefei_libraries/hf_uart.c:34
    uart_gpio_init(tx_pin, rx_pin);
 6e6:	85ce                	mv	a1,s3
 6e8:	854a                	mv	a0,s2
 6ea:	3f1d                	jal	620 <uart_gpio_init>
C:/Users/Kanesh's laptop/Desktop/19创新基地/沁恒/例程/Libraries/hefei_libraries/hf_uart.c:40
    USART_InitStructure.USART_Parity = USART_Parity_No;
 6ec:	000c07b7          	lui	a5,0xc0
 6f0:	c43e                	sw	a5,8(sp)
C:/Users/Kanesh's laptop/Desktop/19创新基地/沁恒/例程/Libraries/hefei_libraries/hf_uart.c:45
    USART_Init((USART_TypeDef*)UARTN[UART_x], &USART_InitStructure);
 6f2:	6785                	lui	a5,0x1
 6f4:	b6078793          	addi	a5,a5,-1184 # b60 <UARTN>
 6f8:	040a                	slli	s0,s0,0x2
 6fa:	943e                	add	s0,s0,a5
 6fc:	4000                	lw	s0,0(s0)
 6fe:	858a                	mv	a1,sp
C:/Users/Kanesh's laptop/Desktop/19创新基地/沁恒/例程/Libraries/hefei_libraries/hf_uart.c:37
    USART_InitStructure.USART_BaudRate = baud;
 700:	c026                	sw	s1,0(sp)
C:/Users/Kanesh's laptop/Desktop/19创新基地/沁恒/例程/Libraries/hefei_libraries/hf_uart.c:45
    USART_Init((USART_TypeDef*)UARTN[UART_x], &USART_InitStructure);
 702:	8522                	mv	a0,s0
C:/Users/Kanesh's laptop/Desktop/19创新基地/沁恒/例程/Libraries/hefei_libraries/hf_uart.c:38
    USART_InitStructure.USART_WordLength = USART_WordLength_8b;
 704:	c202                	sw	zero,4(sp)
C:/Users/Kanesh's laptop/Desktop/19创新基地/沁恒/例程/Libraries/hefei_libraries/hf_uart.c:41
    USART_InitStructure.USART_HardwareFlowControl = USART_HardwareFlowControl_None;
 706:	00011623          	sh	zero,12(sp)
C:/Users/Kanesh's laptop/Desktop/19创新基地/沁恒/例程/Libraries/hefei_libraries/hf_uart.c:45
    USART_Init((USART_TypeDef*)UARTN[UART_x], &USART_InitStructure);
 70a:	2cdd                	jal	a00 <USART_Init>
C:/Users/Kanesh's laptop/Desktop/19创新基地/沁恒/例程/Libraries/hefei_libraries/hf_uart.c:46
    USART_Cmd((USART_TypeDef*)UARTN[UART_x], ENABLE);
 70c:	8522                	mv	a0,s0
 70e:	4585                	li	a1,1
 710:	26e1                	jal	ad8 <USART_Cmd>
C:/Users/Kanesh's laptop/Desktop/19创新基地/沁恒/例程/Libraries/hefei_libraries/hf_uart.c:48
}
 712:	50b2                	lw	ra,44(sp)
 714:	5422                	lw	s0,40(sp)
 716:	5492                	lw	s1,36(sp)
 718:	5902                	lw	s2,32(sp)
 71a:	49f2                	lw	s3,28(sp)
 71c:	6145                	addi	sp,sp,48
 71e:	8082                	ret
C:/Users/Kanesh's laptop/Desktop/19创新基地/沁恒/例程/Libraries/hefei_libraries/hf_uart.c:30
    else if(UART_2 == UART_x) RCC_APB1PeriphClockCmd(RCC_APB1Periph_USART2, ENABLE);
 720:	4785                	li	a5,1
 722:	00f51763          	bne	a0,a5,730 <uart_init+0x66>
C:/Users/Kanesh's laptop/Desktop/19创新基地/沁恒/例程/Libraries/hefei_libraries/hf_uart.c:30 (discriminator 1)
 726:	4585                	li	a1,1
 728:	00020537          	lui	a0,0x20
C:/Users/Kanesh's laptop/Desktop/19创新基地/沁恒/例程/Libraries/hefei_libraries/hf_uart.c:31 (discriminator 1)
    else if(UART_3 == UART_x) RCC_APB1PeriphClockCmd(RCC_APB1Periph_USART3, ENABLE);
 72c:	2471                	jal	9b8 <RCC_APB1PeriphClockCmd>
 72e:	bf65                	j	6e6 <uart_init+0x1c>
C:/Users/Kanesh's laptop/Desktop/19创新基地/沁恒/例程/Libraries/hefei_libraries/hf_uart.c:31
 730:	4789                	li	a5,2
 732:	faf51ae3          	bne	a0,a5,6e6 <uart_init+0x1c>
C:/Users/Kanesh's laptop/Desktop/19创新基地/沁恒/例程/Libraries/hefei_libraries/hf_uart.c:31 (discriminator 1)
 736:	4585                	li	a1,1
 738:	00040537          	lui	a0,0x40
 73c:	bfc5                	j	72c <uart_init+0x62>

0000073e <handle_reset>:
handle_reset():
C:/Users/Kanesh's laptop/Desktop/19创新基地/沁恒/例程/Libraries/Device/CH32V10x_p/Startup/startup_ch32v10x.S:147
	.weak	handle_reset
	.align	1
handle_reset:
.option push 
.option	norelax 
	la gp, __global_pointer$
 73e:	20000197          	auipc	gp,0x20000
 742:	0d218193          	addi	gp,gp,210 # 20000810 <__global_pointer$>
C:/Users/Kanesh's laptop/Desktop/19创新基地/沁恒/例程/Libraries/Device/CH32V10x_p/Startup/startup_ch32v10x.S:150
.option	pop 
1:
	la sp, _eusrstack 
 746:	20005117          	auipc	sp,0x20005
 74a:	8ba10113          	addi	sp,sp,-1862 # 20005000 <_eusrstack>
C:/Users/Kanesh's laptop/Desktop/19创新基地/沁恒/例程/Libraries/Device/CH32V10x_p/Startup/startup_ch32v10x.S:153
2:
	/* Load data section from flash to RAM */
	la a0, _data_lma
 74e:	00000517          	auipc	a0,0x0
 752:	42250513          	addi	a0,a0,1058 # b70 <_data_lma>
C:/Users/Kanesh's laptop/Desktop/19创新基地/沁恒/例程/Libraries/Device/CH32V10x_p/Startup/startup_ch32v10x.S:154
	la a1, _data_vma
 756:	20000597          	auipc	a1,0x20000
 75a:	8aa58593          	addi	a1,a1,-1878 # 20000000 <_data_vma>
C:/Users/Kanesh's laptop/Desktop/19创新基地/沁恒/例程/Libraries/Device/CH32V10x_p/Startup/startup_ch32v10x.S:155
	la a2, _edata
 75e:	80818613          	addi	a2,gp,-2040 # 20000018 <_edata>
C:/Users/Kanesh's laptop/Desktop/19创新基地/沁恒/例程/Libraries/Device/CH32V10x_p/Startup/startup_ch32v10x.S:156
	bgeu a1, a2, 2f
 762:	00c5fa63          	bgeu	a1,a2,776 <handle_reset+0x38>
C:/Users/Kanesh's laptop/Desktop/19创新基地/沁恒/例程/Libraries/Device/CH32V10x_p/Startup/startup_ch32v10x.S:158
1:
	lw t0, (a0)
 766:	00052283          	lw	t0,0(a0)
C:/Users/Kanesh's laptop/Desktop/19创新基地/沁恒/例程/Libraries/Device/CH32V10x_p/Startup/startup_ch32v10x.S:159
	sw t0, (a1)
 76a:	0055a023          	sw	t0,0(a1)
C:/Users/Kanesh's laptop/Desktop/19创新基地/沁恒/例程/Libraries/Device/CH32V10x_p/Startup/startup_ch32v10x.S:160
	addi a0, a0, 4
 76e:	0511                	addi	a0,a0,4
C:/Users/Kanesh's laptop/Desktop/19创新基地/沁恒/例程/Libraries/Device/CH32V10x_p/Startup/startup_ch32v10x.S:161
	addi a1, a1, 4
 770:	0591                	addi	a1,a1,4
C:/Users/Kanesh's laptop/Desktop/19创新基地/沁恒/例程/Libraries/Device/CH32V10x_p/Startup/startup_ch32v10x.S:162
	bltu a1, a2, 1b
 772:	fec5eae3          	bltu	a1,a2,766 <handle_reset+0x28>
C:/Users/Kanesh's laptop/Desktop/19创新基地/沁恒/例程/Libraries/Device/CH32V10x_p/Startup/startup_ch32v10x.S:165
2:
	/* clear bss section */
	la a0, _sbss
 776:	80818513          	addi	a0,gp,-2040 # 20000018 <_edata>
C:/Users/Kanesh's laptop/Desktop/19创新基地/沁恒/例程/Libraries/Device/CH32V10x_p/Startup/startup_ch32v10x.S:166
	la a1, _ebss
 77a:	81c18593          	addi	a1,gp,-2020 # 2000002c <_ebss>
C:/Users/Kanesh's laptop/Desktop/19创新基地/沁恒/例程/Libraries/Device/CH32V10x_p/Startup/startup_ch32v10x.S:167
	bgeu a0, a1, 2f
 77e:	00b57763          	bgeu	a0,a1,78c <handle_reset+0x4e>
C:/Users/Kanesh's laptop/Desktop/19创新基地/沁恒/例程/Libraries/Device/CH32V10x_p/Startup/startup_ch32v10x.S:169
1:
	sw zero, (a0)
 782:	00052023          	sw	zero,0(a0)
C:/Users/Kanesh's laptop/Desktop/19创新基地/沁恒/例程/Libraries/Device/CH32V10x_p/Startup/startup_ch32v10x.S:170
	addi a0, a0, 4
 786:	0511                	addi	a0,a0,4
C:/Users/Kanesh's laptop/Desktop/19创新基地/沁恒/例程/Libraries/Device/CH32V10x_p/Startup/startup_ch32v10x.S:171
	bltu a0, a1, 1b
 788:	feb56de3          	bltu	a0,a1,782 <handle_reset+0x44>
C:/Users/Kanesh's laptop/Desktop/19创新基地/沁恒/例程/Libraries/Device/CH32V10x_p/Startup/startup_ch32v10x.S:174
2:
	/* enable all interrupt */
  li t0, 0x88
 78c:	08800293          	li	t0,136
C:/Users/Kanesh's laptop/Desktop/19创新基地/沁恒/例程/Libraries/Device/CH32V10x_p/Startup/startup_ch32v10x.S:175
  csrs mstatus, t0
 790:	3002a073          	csrs	mstatus,t0
C:/Users/Kanesh's laptop/Desktop/19创新基地/沁恒/例程/Libraries/Device/CH32V10x_p/Startup/startup_ch32v10x.S:176
	la t0, _vector_base
 794:	00000297          	auipc	t0,0x0
 798:	8a428293          	addi	t0,t0,-1884 # 38 <_einit>
C:/Users/Kanesh's laptop/Desktop/19创新基地/沁恒/例程/Libraries/Device/CH32V10x_p/Startup/startup_ch32v10x.S:177
  ori t0, t0, 1
 79c:	0012e293          	ori	t0,t0,1
C:/Users/Kanesh's laptop/Desktop/19创新基地/沁恒/例程/Libraries/Device/CH32V10x_p/Startup/startup_ch32v10x.S:178
	csrw mtvec, t0
 7a0:	30529073          	csrw	mtvec,t0
C:/Users/Kanesh's laptop/Desktop/19创新基地/沁恒/例程/Libraries/Device/CH32V10x_p/Startup/startup_ch32v10x.S:180

  jal  SystemInit
 7a4:	c19ff0ef          	jal	ra,3bc <SystemInit>
C:/Users/Kanesh's laptop/Desktop/19创新基地/沁恒/例程/Libraries/Device/CH32V10x_p/Startup/startup_ch32v10x.S:181
	la t0, main
 7a8:	00000297          	auipc	t0,0x0
 7ac:	bba28293          	addi	t0,t0,-1094 # 362 <main>
C:/Users/Kanesh's laptop/Desktop/19创新基地/沁恒/例程/Libraries/Device/CH32V10x_p/Startup/startup_ch32v10x.S:182
	csrw mepc, t0
 7b0:	34129073          	csrw	mepc,t0
C:/Users/Kanesh's laptop/Desktop/19创新基地/沁恒/例程/Libraries/Device/CH32V10x_p/Startup/startup_ch32v10x.S:183
	mret
 7b4:	30200073          	mret

000007b8 <DMA_GetFlagStatus>:
DMA_GetFlagStatus():
C:/Users/Kanesh's laptop/Desktop/19创新基地/沁恒/例程/Libraries/Device/CH32V10x_p/CH32V10x_Lib/ch32v10x_dma.c:294
FlagStatus DMA_GetFlagStatus(uint32_t DMAy_FLAG)
{
  FlagStatus bitstatus = RESET;
  uint32_t tmpreg = 0;
  
  if ((DMAy_FLAG & FLAG_Mask) != (uint32_t)RESET)
 7b8:	00351793          	slli	a5,a0,0x3
 7bc:	0007da63          	bgez	a5,7d0 <DMA_GetFlagStatus+0x18>
C:/Users/Kanesh's laptop/Desktop/19创新基地/沁恒/例程/Libraries/Device/CH32V10x_p/CH32V10x_Lib/ch32v10x_dma.c:296
  {
    tmpreg = DMA2->INTFR ;
 7c0:	400207b7          	lui	a5,0x40020
 7c4:	4007a783          	lw	a5,1024(a5) # 40020400 <_eusrstack+0x2001b400>
C:/Users/Kanesh's laptop/Desktop/19创新基地/沁恒/例程/Libraries/Device/CH32V10x_p/CH32V10x_Lib/ch32v10x_dma.c:303
  else
  {
    tmpreg = DMA1->INTFR ;
  }

  if ((tmpreg & DMAy_FLAG) != (uint32_t)RESET)
 7c8:	8d7d                	and	a0,a0,a5
C:/Users/Kanesh's laptop/Desktop/19创新基地/沁恒/例程/Libraries/Device/CH32V10x_p/CH32V10x_Lib/ch32v10x_dma.c:313
  {
    bitstatus = RESET;
  }
  
  return  bitstatus;
}
 7ca:	00a03533          	snez	a0,a0
 7ce:	8082                	ret
C:/Users/Kanesh's laptop/Desktop/19创新基地/沁恒/例程/Libraries/Device/CH32V10x_p/CH32V10x_Lib/ch32v10x_dma.c:300
    tmpreg = DMA1->INTFR ;
 7d0:	400207b7          	lui	a5,0x40020
 7d4:	439c                	lw	a5,0(a5)
 7d6:	bfcd                	j	7c8 <DMA_GetFlagStatus+0x10>

000007d8 <DMA_ClearFlag>:
DMA_ClearFlag():
C:/Users/Kanesh's laptop/Desktop/19创新基地/沁恒/例程/Libraries/Device/CH32V10x_p/CH32V10x_Lib/ch32v10x_dma.c:372
*                      DMA2_FLAG_TE5: DMA2 Channel5 transfer error flag.
* Return         : None 
*********************************************************************************/
void DMA_ClearFlag(uint32_t DMAy_FLAG)
{
  if ((DMAy_FLAG & FLAG_Mask) != (uint32_t)RESET)
 7d8:	00351793          	slli	a5,a0,0x3
 7dc:	0007d763          	bgez	a5,7ea <DMA_ClearFlag+0x12>
C:/Users/Kanesh's laptop/Desktop/19创新基地/沁恒/例程/Libraries/Device/CH32V10x_p/CH32V10x_Lib/ch32v10x_dma.c:374
  {
    DMA2->INTFCR = DMAy_FLAG;
 7e0:	400207b7          	lui	a5,0x40020
 7e4:	40a7a223          	sw	a0,1028(a5) # 40020404 <_eusrstack+0x2001b404>
 7e8:	8082                	ret
C:/Users/Kanesh's laptop/Desktop/19创新基地/沁恒/例程/Libraries/Device/CH32V10x_p/CH32V10x_Lib/ch32v10x_dma.c:378
  }
  else
  {
    DMA1->INTFCR = DMAy_FLAG;
 7ea:	400207b7          	lui	a5,0x40020
 7ee:	c3c8                	sw	a0,4(a5)
C:/Users/Kanesh's laptop/Desktop/19创新基地/沁恒/例程/Libraries/Device/CH32V10x_p/CH32V10x_Lib/ch32v10x_dma.c:380
  }
}
 7f0:	8082                	ret

000007f2 <EXTI_GetITStatus>:
EXTI_GetITStatus():
C:/Users/Kanesh's laptop/Desktop/19创新基地/沁恒/例程/Libraries/Device/CH32V10x_p/CH32V10x_Lib/ch32v10x_exti.c:135
ITStatus EXTI_GetITStatus(uint32_t EXTI_Line)
{
  ITStatus bitstatus = RESET;
  uint32_t enablestatus = 0;
  
  enablestatus =  EXTI->INTENR & EXTI_Line;
 7f2:	400107b7          	lui	a5,0x40010
 7f6:	40078713          	addi	a4,a5,1024 # 40010400 <_eusrstack+0x2000b400>
 7fa:	4007a783          	lw	a5,1024(a5)
C:/Users/Kanesh's laptop/Desktop/19创新基地/沁恒/例程/Libraries/Device/CH32V10x_p/CH32V10x_Lib/ch32v10x_exti.c:136
  if (((EXTI->INTFR & EXTI_Line) != (uint32_t)RESET) && (enablestatus != (uint32_t)RESET))
 7fe:	4b58                	lw	a4,20(a4)
 800:	8f69                	and	a4,a4,a0
 802:	c709                	beqz	a4,80c <__stack_size+0xc>
C:/Users/Kanesh's laptop/Desktop/19创新基地/沁恒/例程/Libraries/Device/CH32V10x_p/CH32V10x_Lib/ch32v10x_exti.c:135 (discriminator 1)
  enablestatus =  EXTI->INTENR & EXTI_Line;
 804:	8d7d                	and	a0,a0,a5
C:/Users/Kanesh's laptop/Desktop/19创新基地/沁恒/例程/Libraries/Device/CH32V10x_p/CH32V10x_Lib/ch32v10x_exti.c:136 (discriminator 1)
  if (((EXTI->INTFR & EXTI_Line) != (uint32_t)RESET) && (enablestatus != (uint32_t)RESET))
 806:	00a03533          	snez	a0,a0
 80a:	8082                	ret
C:/Users/Kanesh's laptop/Desktop/19创新基地/沁恒/例程/Libraries/Device/CH32V10x_p/CH32V10x_Lib/ch32v10x_exti.c:142
  {
    bitstatus = SET;
  }
  else
  {
    bitstatus = RESET;
 80c:	4501                	li	a0,0
C:/Users/Kanesh's laptop/Desktop/19创新基地/沁恒/例程/Libraries/Device/CH32V10x_p/CH32V10x_Lib/ch32v10x_exti.c:145
  }
  return bitstatus;
}
 80e:	8082                	ret

00000810 <EXTI_ClearITPendingBit>:
EXTI_ClearITPendingBit():
 810:	400107b7          	lui	a5,0x40010
 814:	40a7aa23          	sw	a0,1044(a5) # 40010414 <_eusrstack+0x2000b414>
 818:	8082                	ret

0000081a <GPIO_Init>:
GPIO_Init():
C:/Users/Kanesh's laptop/Desktop/19创新基地/沁恒/例程/Libraries/Device/CH32V10x_p/CH32V10x_Lib/ch32v10x_gpio.c:92
void GPIO_Init(GPIO_TypeDef* GPIOx, GPIO_InitTypeDef* GPIO_InitStruct)
{
  uint32_t currentmode = 0x00, currentpin = 0x00, pinpos = 0x00, pos = 0x00;
  uint32_t tmpreg = 0x00, pinmask = 0x00;

  currentmode = ((uint32_t)GPIO_InitStruct->GPIO_Mode) & ((uint32_t)0x0F);
 81a:	459c                	lw	a5,8(a1)
C:/Users/Kanesh's laptop/Desktop/19创新基地/沁恒/例程/Libraries/Device/CH32V10x_p/CH32V10x_Lib/ch32v10x_gpio.c:94
	
  if ((((uint32_t)GPIO_InitStruct->GPIO_Mode) & ((uint32_t)0x10)) != 0x00)
 81c:	0107f713          	andi	a4,a5,16
C:/Users/Kanesh's laptop/Desktop/19创新基地/沁恒/例程/Libraries/Device/CH32V10x_p/CH32V10x_Lib/ch32v10x_gpio.c:92
  currentmode = ((uint32_t)GPIO_InitStruct->GPIO_Mode) & ((uint32_t)0x0F);
 820:	00f7f813          	andi	a6,a5,15
C:/Users/Kanesh's laptop/Desktop/19创新基地/沁恒/例程/Libraries/Device/CH32V10x_p/CH32V10x_Lib/ch32v10x_gpio.c:94
  if ((((uint32_t)GPIO_InitStruct->GPIO_Mode) & ((uint32_t)0x10)) != 0x00)
 824:	c701                	beqz	a4,82c <GPIO_Init+0x12>
C:/Users/Kanesh's laptop/Desktop/19创新基地/沁恒/例程/Libraries/Device/CH32V10x_p/CH32V10x_Lib/ch32v10x_gpio.c:96
  { 
    currentmode |= (uint32_t)GPIO_InitStruct->GPIO_Speed;
 826:	41d8                	lw	a4,4(a1)
 828:	00e86833          	or	a6,a6,a4
C:/Users/Kanesh's laptop/Desktop/19创新基地/沁恒/例程/Libraries/Device/CH32V10x_p/CH32V10x_Lib/ch32v10x_gpio.c:99
  }

  if (((uint32_t)GPIO_InitStruct->GPIO_Pin & ((uint32_t)0x00FF)) != 0x00)
 82c:	0005d583          	lhu	a1,0(a1)
 830:	0ff5f713          	andi	a4,a1,255
 834:	c339                	beqz	a4,87a <GPIO_Init+0x60>
C:/Users/Kanesh's laptop/Desktop/19创新基地/沁恒/例程/Libraries/Device/CH32V10x_p/CH32V10x_Lib/ch32v10x_gpio.c:101
  {
    tmpreg = GPIOx->CFGLR;
 836:	4118                	lw	a4,0(a0)
C:/Users/Kanesh's laptop/Desktop/19创新基地/沁恒/例程/Libraries/Device/CH32V10x_p/CH32V10x_Lib/ch32v10x_gpio.c:103
		
    for (pinpos = 0x00; pinpos < 0x08; pinpos++)
 838:	4681                	li	a3,0
C:/Users/Kanesh's laptop/Desktop/19创新基地/沁恒/例程/Libraries/Device/CH32V10x_p/CH32V10x_Lib/ch32v10x_gpio.c:105
    {
      pos = ((uint32_t)0x01) << pinpos;
 83a:	4e85                	li	t4,1
C:/Users/Kanesh's laptop/Desktop/19创新基地/沁恒/例程/Libraries/Device/CH32V10x_p/CH32V10x_Lib/ch32v10x_gpio.c:111
      currentpin = (GPIO_InitStruct->GPIO_Pin) & pos;
			
      if (currentpin == pos)
      {
        pos = pinpos << 2;
        pinmask = ((uint32_t)0x0F) << pos;
 83c:	4f3d                	li	t5,15
C:/Users/Kanesh's laptop/Desktop/19创新基地/沁恒/例程/Libraries/Device/CH32V10x_p/CH32V10x_Lib/ch32v10x_gpio.c:115
        tmpreg &= ~pinmask;
        tmpreg |= (currentmode << pos);

        if (GPIO_InitStruct->GPIO_Mode == GPIO_Mode_IPD)
 83e:	02800f93          	li	t6,40
C:/Users/Kanesh's laptop/Desktop/19创新基地/沁恒/例程/Libraries/Device/CH32V10x_p/CH32V10x_Lib/ch32v10x_gpio.c:121
        {
          GPIOx->BCR = (((uint32_t)0x01) << pinpos);
        }
        else
        {
          if (GPIO_InitStruct->GPIO_Mode == GPIO_Mode_IPU)
 842:	04800293          	li	t0,72
C:/Users/Kanesh's laptop/Desktop/19创新基地/沁恒/例程/Libraries/Device/CH32V10x_p/CH32V10x_Lib/ch32v10x_gpio.c:103
    for (pinpos = 0x00; pinpos < 0x08; pinpos++)
 846:	4e21                	li	t3,8
C:/Users/Kanesh's laptop/Desktop/19创新基地/沁恒/例程/Libraries/Device/CH32V10x_p/CH32V10x_Lib/ch32v10x_gpio.c:105
      pos = ((uint32_t)0x01) << pinpos;
 848:	00de9633          	sll	a2,t4,a3
C:/Users/Kanesh's laptop/Desktop/19创新基地/沁恒/例程/Libraries/Device/CH32V10x_p/CH32V10x_Lib/ch32v10x_gpio.c:106
      currentpin = (GPIO_InitStruct->GPIO_Pin) & pos;
 84c:	00c5f8b3          	and	a7,a1,a2
C:/Users/Kanesh's laptop/Desktop/19创新基地/沁恒/例程/Libraries/Device/CH32V10x_p/CH32V10x_Lib/ch32v10x_gpio.c:108
      if (currentpin == pos)
 850:	03161163          	bne	a2,a7,872 <GPIO_Init+0x58>
C:/Users/Kanesh's laptop/Desktop/19创新基地/沁恒/例程/Libraries/Device/CH32V10x_p/CH32V10x_Lib/ch32v10x_gpio.c:110
        pos = pinpos << 2;
 854:	00269893          	slli	a7,a3,0x2
C:/Users/Kanesh's laptop/Desktop/19创新基地/沁恒/例程/Libraries/Device/CH32V10x_p/CH32V10x_Lib/ch32v10x_gpio.c:111
        pinmask = ((uint32_t)0x0F) << pos;
 858:	011f1333          	sll	t1,t5,a7
C:/Users/Kanesh's laptop/Desktop/19创新基地/沁恒/例程/Libraries/Device/CH32V10x_p/CH32V10x_Lib/ch32v10x_gpio.c:112
        tmpreg &= ~pinmask;
 85c:	fff34313          	not	t1,t1
 860:	00e37733          	and	a4,t1,a4
C:/Users/Kanesh's laptop/Desktop/19创新基地/沁恒/例程/Libraries/Device/CH32V10x_p/CH32V10x_Lib/ch32v10x_gpio.c:113
        tmpreg |= (currentmode << pos);
 864:	011818b3          	sll	a7,a6,a7
 868:	00e8e733          	or	a4,a7,a4
C:/Users/Kanesh's laptop/Desktop/19创新基地/沁恒/例程/Libraries/Device/CH32V10x_p/CH32V10x_Lib/ch32v10x_gpio.c:115
        if (GPIO_InitStruct->GPIO_Mode == GPIO_Mode_IPD)
 86c:	05f79f63          	bne	a5,t6,8ca <GPIO_Init+0xb0>
C:/Users/Kanesh's laptop/Desktop/19创新基地/沁恒/例程/Libraries/Device/CH32V10x_p/CH32V10x_Lib/ch32v10x_gpio.c:117
          GPIOx->BCR = (((uint32_t)0x01) << pinpos);
 870:	c950                	sw	a2,20(a0)
C:/Users/Kanesh's laptop/Desktop/19创新基地/沁恒/例程/Libraries/Device/CH32V10x_p/CH32V10x_Lib/ch32v10x_gpio.c:103 (discriminator 2)
    for (pinpos = 0x00; pinpos < 0x08; pinpos++)
 872:	0685                	addi	a3,a3,1
 874:	fdc69ae3          	bne	a3,t3,848 <GPIO_Init+0x2e>
C:/Users/Kanesh's laptop/Desktop/19创新基地/沁恒/例程/Libraries/Device/CH32V10x_p/CH32V10x_Lib/ch32v10x_gpio.c:128
            GPIOx->BSHR = (((uint32_t)0x01) << pinpos);
          }
        }
      }
    }
    GPIOx->CFGLR = tmpreg;
 878:	c118                	sw	a4,0(a0)
C:/Users/Kanesh's laptop/Desktop/19创新基地/沁恒/例程/Libraries/Device/CH32V10x_p/CH32V10x_Lib/ch32v10x_gpio.c:131
  }

  if (GPIO_InitStruct->GPIO_Pin > 0x00FF)
 87a:	0ff00713          	li	a4,255
 87e:	04b77563          	bgeu	a4,a1,8c8 <GPIO_Init+0xae>
C:/Users/Kanesh's laptop/Desktop/19创新基地/沁恒/例程/Libraries/Device/CH32V10x_p/CH32V10x_Lib/ch32v10x_gpio.c:133
  {
    tmpreg = GPIOx->CFGHR;
 882:	4154                	lw	a3,4(a0)
 884:	4621                	li	a2,8
C:/Users/Kanesh's laptop/Desktop/19创新基地/沁恒/例程/Libraries/Device/CH32V10x_p/CH32V10x_Lib/ch32v10x_gpio.c:137
		
    for (pinpos = 0x00; pinpos < 0x08; pinpos++)
    {
      pos = (((uint32_t)0x01) << (pinpos + 0x08));
 886:	4e85                	li	t4,1
C:/Users/Kanesh's laptop/Desktop/19创新基地/沁恒/例程/Libraries/Device/CH32V10x_p/CH32V10x_Lib/ch32v10x_gpio.c:143
      currentpin = ((GPIO_InitStruct->GPIO_Pin) & pos);
			
      if (currentpin == pos)
      {
        pos = pinpos << 2;
        pinmask = ((uint32_t)0x0F) << pos;
 888:	4f3d                	li	t5,15
C:/Users/Kanesh's laptop/Desktop/19创新基地/沁恒/例程/Libraries/Device/CH32V10x_p/CH32V10x_Lib/ch32v10x_gpio.c:147
        tmpreg &= ~pinmask;
        tmpreg |= (currentmode << pos);

        if (GPIO_InitStruct->GPIO_Mode == GPIO_Mode_IPD)
 88a:	02800f93          	li	t6,40
C:/Users/Kanesh's laptop/Desktop/19创新基地/沁恒/例程/Libraries/Device/CH32V10x_p/CH32V10x_Lib/ch32v10x_gpio.c:152
        {
          GPIOx->BCR = (((uint32_t)0x01) << (pinpos + 0x08));
        }

        if (GPIO_InitStruct->GPIO_Mode == GPIO_Mode_IPU)
 88e:	04800293          	li	t0,72
C:/Users/Kanesh's laptop/Desktop/19创新基地/沁恒/例程/Libraries/Device/CH32V10x_p/CH32V10x_Lib/ch32v10x_gpio.c:135
    for (pinpos = 0x00; pinpos < 0x08; pinpos++)
 892:	4e41                	li	t3,16
C:/Users/Kanesh's laptop/Desktop/19创新基地/沁恒/例程/Libraries/Device/CH32V10x_p/CH32V10x_Lib/ch32v10x_gpio.c:137
      pos = (((uint32_t)0x01) << (pinpos + 0x08));
 894:	00ce98b3          	sll	a7,t4,a2
C:/Users/Kanesh's laptop/Desktop/19创新基地/沁恒/例程/Libraries/Device/CH32V10x_p/CH32V10x_Lib/ch32v10x_gpio.c:138
      currentpin = ((GPIO_InitStruct->GPIO_Pin) & pos);
 898:	0115f733          	and	a4,a1,a7
C:/Users/Kanesh's laptop/Desktop/19创新基地/沁恒/例程/Libraries/Device/CH32V10x_p/CH32V10x_Lib/ch32v10x_gpio.c:140
      if (currentpin == pos)
 89c:	02e89263          	bne	a7,a4,8c0 <GPIO_Init+0xa6>
C:/Users/Kanesh's laptop/Desktop/19创新基地/沁恒/例程/Libraries/Device/CH32V10x_p/CH32V10x_Lib/ch32v10x_gpio.c:142
        pos = pinpos << 2;
 8a0:	00261713          	slli	a4,a2,0x2
 8a4:	1701                	addi	a4,a4,-32
C:/Users/Kanesh's laptop/Desktop/19创新基地/沁恒/例程/Libraries/Device/CH32V10x_p/CH32V10x_Lib/ch32v10x_gpio.c:143
        pinmask = ((uint32_t)0x0F) << pos;
 8a6:	00ef1333          	sll	t1,t5,a4
C:/Users/Kanesh's laptop/Desktop/19创新基地/沁恒/例程/Libraries/Device/CH32V10x_p/CH32V10x_Lib/ch32v10x_gpio.c:144
        tmpreg &= ~pinmask;
 8aa:	fff34313          	not	t1,t1
 8ae:	00d376b3          	and	a3,t1,a3
C:/Users/Kanesh's laptop/Desktop/19创新基地/沁恒/例程/Libraries/Device/CH32V10x_p/CH32V10x_Lib/ch32v10x_gpio.c:145
        tmpreg |= (currentmode << pos);
 8b2:	00e81733          	sll	a4,a6,a4
 8b6:	8ed9                	or	a3,a3,a4
C:/Users/Kanesh's laptop/Desktop/19创新基地/沁恒/例程/Libraries/Device/CH32V10x_p/CH32V10x_Lib/ch32v10x_gpio.c:147
        if (GPIO_InitStruct->GPIO_Mode == GPIO_Mode_IPD)
 8b8:	01f79d63          	bne	a5,t6,8d2 <GPIO_Init+0xb8>
C:/Users/Kanesh's laptop/Desktop/19创新基地/沁恒/例程/Libraries/Device/CH32V10x_p/CH32V10x_Lib/ch32v10x_gpio.c:149
          GPIOx->BCR = (((uint32_t)0x01) << (pinpos + 0x08));
 8bc:	01152a23          	sw	a7,20(a0)
C:/Users/Kanesh's laptop/Desktop/19创新基地/沁恒/例程/Libraries/Device/CH32V10x_p/CH32V10x_Lib/ch32v10x_gpio.c:152
        if (GPIO_InitStruct->GPIO_Mode == GPIO_Mode_IPU)
 8c0:	0605                	addi	a2,a2,1
C:/Users/Kanesh's laptop/Desktop/19创新基地/沁恒/例程/Libraries/Device/CH32V10x_p/CH32V10x_Lib/ch32v10x_gpio.c:135 (discriminator 2)
    for (pinpos = 0x00; pinpos < 0x08; pinpos++)
 8c2:	fdc619e3          	bne	a2,t3,894 <GPIO_Init+0x7a>
C:/Users/Kanesh's laptop/Desktop/19创新基地/沁恒/例程/Libraries/Device/CH32V10x_p/CH32V10x_Lib/ch32v10x_gpio.c:158
        {
          GPIOx->BSHR = (((uint32_t)0x01) << (pinpos + 0x08));
        }
      }
    }
    GPIOx->CFGHR = tmpreg;
 8c6:	c154                	sw	a3,4(a0)
C:/Users/Kanesh's laptop/Desktop/19创新基地/沁恒/例程/Libraries/Device/CH32V10x_p/CH32V10x_Lib/ch32v10x_gpio.c:160
  }
}
 8c8:	8082                	ret
C:/Users/Kanesh's laptop/Desktop/19创新基地/沁恒/例程/Libraries/Device/CH32V10x_p/CH32V10x_Lib/ch32v10x_gpio.c:121
          if (GPIO_InitStruct->GPIO_Mode == GPIO_Mode_IPU)
 8ca:	fa5794e3          	bne	a5,t0,872 <GPIO_Init+0x58>
C:/Users/Kanesh's laptop/Desktop/19创新基地/沁恒/例程/Libraries/Device/CH32V10x_p/CH32V10x_Lib/ch32v10x_gpio.c:123
            GPIOx->BSHR = (((uint32_t)0x01) << pinpos);
 8ce:	c910                	sw	a2,16(a0)
 8d0:	b74d                	j	872 <GPIO_Init+0x58>
C:/Users/Kanesh's laptop/Desktop/19创新基地/沁恒/例程/Libraries/Device/CH32V10x_p/CH32V10x_Lib/ch32v10x_gpio.c:152
        if (GPIO_InitStruct->GPIO_Mode == GPIO_Mode_IPU)
 8d2:	fe5797e3          	bne	a5,t0,8c0 <GPIO_Init+0xa6>
C:/Users/Kanesh's laptop/Desktop/19创新基地/沁恒/例程/Libraries/Device/CH32V10x_p/CH32V10x_Lib/ch32v10x_gpio.c:154
          GPIOx->BSHR = (((uint32_t)0x01) << (pinpos + 0x08));
 8d6:	01152823          	sw	a7,16(a0)
 8da:	b7dd                	j	8c0 <GPIO_Init+0xa6>

000008dc <GPIO_WriteBit>:
GPIO_WriteBit():
C:/Users/Kanesh's laptop/Desktop/19创新基地/沁恒/例程/Libraries/Device/CH32V10x_p/CH32V10x_Lib/ch32v10x_gpio.c:283
*                    Bit_SetH: to set the port pin.                  
* Return         : None
*******************************************************************************/
void GPIO_WriteBit(GPIO_TypeDef* GPIOx, uint16_t GPIO_Pin, BitAction BitVal)
{
  if (BitVal != Bit_RESET)
 8dc:	c219                	beqz	a2,8e2 <GPIO_WriteBit+0x6>
C:/Users/Kanesh's laptop/Desktop/19创新基地/沁恒/例程/Libraries/Device/CH32V10x_p/CH32V10x_Lib/ch32v10x_gpio.c:285
  {
    GPIOx->BSHR = GPIO_Pin;
 8de:	c90c                	sw	a1,16(a0)
 8e0:	8082                	ret
C:/Users/Kanesh's laptop/Desktop/19创新基地/沁恒/例程/Libraries/Device/CH32V10x_p/CH32V10x_Lib/ch32v10x_gpio.c:289
  }
  else
  {
    GPIOx->BCR = GPIO_Pin;
 8e2:	c94c                	sw	a1,20(a0)
C:/Users/Kanesh's laptop/Desktop/19创新基地/沁恒/例程/Libraries/Device/CH32V10x_p/CH32V10x_Lib/ch32v10x_gpio.c:291
  }
}
 8e4:	8082                	ret

000008e6 <RCC_GetClocksFreq>:
RCC_GetClocksFreq():
C:/Users/Kanesh's laptop/Desktop/19创新基地/沁恒/例程/Libraries/Device/CH32V10x_p/CH32V10x_Lib/ch32v10x_rcc.c:472
********************************************************************************/
void RCC_GetClocksFreq(RCC_ClocksTypeDef* RCC_Clocks)
{
  uint32_t tmp = 0, pllmull = 0, pllsource = 0, presc = 0;
  
  tmp = RCC->CFGR0 & CFGR0_SWS_Mask;
 8e6:	40021737          	lui	a4,0x40021
 8ea:	435c                	lw	a5,4(a4)
 8ec:	4691                	li	a3,4
 8ee:	8bb1                	andi	a5,a5,12
C:/Users/Kanesh's laptop/Desktop/19创新基地/沁恒/例程/Libraries/Device/CH32V10x_p/CH32V10x_Lib/ch32v10x_rcc.c:474
  
  switch (tmp)
 8f0:	00d78563          	beq	a5,a3,8fa <RCC_GetClocksFreq+0x14>
 8f4:	46a1                	li	a3,8
 8f6:	06d78863          	beq	a5,a3,966 <RCC_GetClocksFreq+0x80>
C:/Users/Kanesh's laptop/Desktop/19创新基地/沁恒/例程/Libraries/Device/CH32V10x_p/CH32V10x_Lib/ch32v10x_rcc.c:477
  {
    case 0x00: 
      RCC_Clocks->SYSCLK_Frequency = HSI_VALUE;
 8fa:	007a17b7          	lui	a5,0x7a1
 8fe:	20078793          	addi	a5,a5,512 # 7a1200 <_data_lma+0x7a0690>
C:/Users/Kanesh's laptop/Desktop/19创新基地/沁恒/例程/Libraries/Device/CH32V10x_p/CH32V10x_Lib/ch32v10x_rcc.c:501
        {
          RCC_Clocks->SYSCLK_Frequency = (HSE_VALUE >> 1) * pllmull;
        }
        else
        {
          RCC_Clocks->SYSCLK_Frequency = HSE_VALUE * pllmull;
 902:	c11c                	sw	a5,0(a0)
C:/Users/Kanesh's laptop/Desktop/19创新基地/沁恒/例程/Libraries/Device/CH32V10x_p/CH32V10x_Lib/ch32v10x_rcc.c:511
    default:
      RCC_Clocks->SYSCLK_Frequency = HSI_VALUE;
      break;
  }

  tmp = RCC->CFGR0 & CFGR0_HPRE_Set_Mask;
 904:	40021637          	lui	a2,0x40021
 908:	425c                	lw	a5,4(a2)
C:/Users/Kanesh's laptop/Desktop/19创新基地/沁恒/例程/Libraries/Device/CH32V10x_p/CH32V10x_Lib/ch32v10x_rcc.c:513
  tmp = tmp >> 4;
  presc = APBAHBPrescTable[tmp];
 90a:	20000737          	lui	a4,0x20000
 90e:	00070713          	mv	a4,a4
C:/Users/Kanesh's laptop/Desktop/19创新基地/沁恒/例程/Libraries/Device/CH32V10x_p/CH32V10x_Lib/ch32v10x_rcc.c:512
  tmp = tmp >> 4;
 912:	8391                	srli	a5,a5,0x4
 914:	8bbd                	andi	a5,a5,15
C:/Users/Kanesh's laptop/Desktop/19创新基地/沁恒/例程/Libraries/Device/CH32V10x_p/CH32V10x_Lib/ch32v10x_rcc.c:513
  presc = APBAHBPrescTable[tmp];
 916:	97ba                	add	a5,a5,a4
 918:	0007c683          	lbu	a3,0(a5)
C:/Users/Kanesh's laptop/Desktop/19创新基地/沁恒/例程/Libraries/Device/CH32V10x_p/CH32V10x_Lib/ch32v10x_rcc.c:514
  RCC_Clocks->HCLK_Frequency = RCC_Clocks->SYSCLK_Frequency >> presc;
 91c:	411c                	lw	a5,0(a0)
 91e:	00d7d7b3          	srl	a5,a5,a3
 922:	c15c                	sw	a5,4(a0)
C:/Users/Kanesh's laptop/Desktop/19创新基地/沁恒/例程/Libraries/Device/CH32V10x_p/CH32V10x_Lib/ch32v10x_rcc.c:515
  tmp = RCC->CFGR0 & CFGR0_PPRE1_Set_Mask;
 924:	4254                	lw	a3,4(a2)
C:/Users/Kanesh's laptop/Desktop/19创新基地/沁恒/例程/Libraries/Device/CH32V10x_p/CH32V10x_Lib/ch32v10x_rcc.c:516
  tmp = tmp >> 8;
 926:	82a1                	srli	a3,a3,0x8
 928:	8a9d                	andi	a3,a3,7
C:/Users/Kanesh's laptop/Desktop/19创新基地/沁恒/例程/Libraries/Device/CH32V10x_p/CH32V10x_Lib/ch32v10x_rcc.c:517
  presc = APBAHBPrescTable[tmp];
 92a:	96ba                	add	a3,a3,a4
 92c:	0006c683          	lbu	a3,0(a3) # 40021000 <_eusrstack+0x2001c000>
C:/Users/Kanesh's laptop/Desktop/19创新基地/沁恒/例程/Libraries/Device/CH32V10x_p/CH32V10x_Lib/ch32v10x_rcc.c:518
  RCC_Clocks->PCLK1_Frequency = RCC_Clocks->HCLK_Frequency >> presc;
 930:	00d7d6b3          	srl	a3,a5,a3
 934:	c514                	sw	a3,8(a0)
C:/Users/Kanesh's laptop/Desktop/19创新基地/沁恒/例程/Libraries/Device/CH32V10x_p/CH32V10x_Lib/ch32v10x_rcc.c:519
  tmp = RCC->CFGR0 & CFGR0_PPRE2_Set_Mask;
 936:	4254                	lw	a3,4(a2)
C:/Users/Kanesh's laptop/Desktop/19创新基地/沁恒/例程/Libraries/Device/CH32V10x_p/CH32V10x_Lib/ch32v10x_rcc.c:520
  tmp = tmp >> 11;
 938:	82ad                	srli	a3,a3,0xb
 93a:	8a9d                	andi	a3,a3,7
C:/Users/Kanesh's laptop/Desktop/19创新基地/沁恒/例程/Libraries/Device/CH32V10x_p/CH32V10x_Lib/ch32v10x_rcc.c:521
  presc = APBAHBPrescTable[tmp];
 93c:	9736                	add	a4,a4,a3
 93e:	00074703          	lbu	a4,0(a4) # 20000000 <_data_vma>
C:/Users/Kanesh's laptop/Desktop/19创新基地/沁恒/例程/Libraries/Device/CH32V10x_p/CH32V10x_Lib/ch32v10x_rcc.c:522
  RCC_Clocks->PCLK2_Frequency = RCC_Clocks->HCLK_Frequency >> presc;
 942:	00e7d7b3          	srl	a5,a5,a4
 946:	c55c                	sw	a5,12(a0)
C:/Users/Kanesh's laptop/Desktop/19创新基地/沁恒/例程/Libraries/Device/CH32V10x_p/CH32V10x_Lib/ch32v10x_rcc.c:523
  tmp = RCC->CFGR0 & CFGR0_ADCPRE_Set_Mask;
 948:	4258                	lw	a4,4(a2)
C:/Users/Kanesh's laptop/Desktop/19创新基地/沁恒/例程/Libraries/Device/CH32V10x_p/CH32V10x_Lib/ch32v10x_rcc.c:524
  tmp = tmp >> 14;
 94a:	8339                	srli	a4,a4,0xe
 94c:	00377693          	andi	a3,a4,3
C:/Users/Kanesh's laptop/Desktop/19创新基地/沁恒/例程/Libraries/Device/CH32V10x_p/CH32V10x_Lib/ch32v10x_rcc.c:525
  presc = ADCPrescTable[tmp];
 950:	20000737          	lui	a4,0x20000
 954:	01070713          	addi	a4,a4,16 # 20000010 <ADCPrescTable>
 958:	9736                	add	a4,a4,a3
 95a:	00074703          	lbu	a4,0(a4)
C:/Users/Kanesh's laptop/Desktop/19创新基地/沁恒/例程/Libraries/Device/CH32V10x_p/CH32V10x_Lib/ch32v10x_rcc.c:526
  RCC_Clocks->ADCCLK_Frequency = RCC_Clocks->PCLK2_Frequency / presc;
 95e:	02e7d7b3          	divu	a5,a5,a4
 962:	c91c                	sw	a5,16(a0)
C:/Users/Kanesh's laptop/Desktop/19创新基地/沁恒/例程/Libraries/Device/CH32V10x_p/CH32V10x_Lib/ch32v10x_rcc.c:527
}
 964:	8082                	ret
C:/Users/Kanesh's laptop/Desktop/19创新基地/沁恒/例程/Libraries/Device/CH32V10x_p/CH32V10x_Lib/ch32v10x_rcc.c:485
      pllmull = RCC->CFGR0 & CFGR0_PLLMull_Mask;
 966:	435c                	lw	a5,4(a4)
C:/Users/Kanesh's laptop/Desktop/19创新基地/沁恒/例程/Libraries/Device/CH32V10x_p/CH32V10x_Lib/ch32v10x_rcc.c:486
      pllsource = RCC->CFGR0 & CFGR0_PLLSRC_Mask;    
 968:	4354                	lw	a3,4(a4)
C:/Users/Kanesh's laptop/Desktop/19创新基地/沁恒/例程/Libraries/Device/CH32V10x_p/CH32V10x_Lib/ch32v10x_rcc.c:487
      pllmull = ( pllmull >> 18) + 2;
 96a:	83c9                	srli	a5,a5,0x12
 96c:	8bbd                	andi	a5,a5,15
C:/Users/Kanesh's laptop/Desktop/19创新基地/沁恒/例程/Libraries/Device/CH32V10x_p/CH32V10x_Lib/ch32v10x_rcc.c:489
      if (pllsource == 0x00)
 96e:	00f69613          	slli	a2,a3,0xf
C:/Users/Kanesh's laptop/Desktop/19创新基地/沁恒/例程/Libraries/Device/CH32V10x_p/CH32V10x_Lib/ch32v10x_rcc.c:487
      pllmull = ( pllmull >> 18) + 2;
 972:	0789                	addi	a5,a5,2
C:/Users/Kanesh's laptop/Desktop/19创新基地/沁恒/例程/Libraries/Device/CH32V10x_p/CH32V10x_Lib/ch32v10x_rcc.c:489
      if (pllsource == 0x00)
 974:	00064963          	bltz	a2,986 <RCC_GetClocksFreq+0xa0>
C:/Users/Kanesh's laptop/Desktop/19创新基地/沁恒/例程/Libraries/Device/CH32V10x_p/CH32V10x_Lib/ch32v10x_rcc.c:497
          RCC_Clocks->SYSCLK_Frequency = (HSE_VALUE >> 1) * pllmull;
 978:	003d1737          	lui	a4,0x3d1
 97c:	90070713          	addi	a4,a4,-1792 # 3d0900 <_data_lma+0x3cfd90>
C:/Users/Kanesh's laptop/Desktop/19创新基地/沁恒/例程/Libraries/Device/CH32V10x_p/CH32V10x_Lib/ch32v10x_rcc.c:501
          RCC_Clocks->SYSCLK_Frequency = HSE_VALUE * pllmull;
 980:	02e787b3          	mul	a5,a5,a4
 984:	bfbd                	j	902 <RCC_GetClocksFreq+0x1c>
C:/Users/Kanesh's laptop/Desktop/19创新基地/沁恒/例程/Libraries/Device/CH32V10x_p/CH32V10x_Lib/ch32v10x_rcc.c:495
        if ((RCC->CFGR0 & CFGR0_PLLXTPRE_Mask) != (uint32_t)RESET)
 986:	4358                	lw	a4,4(a4)
 988:	00e71693          	slli	a3,a4,0xe
 98c:	fe06c6e3          	bltz	a3,978 <RCC_GetClocksFreq+0x92>
C:/Users/Kanesh's laptop/Desktop/19创新基地/沁恒/例程/Libraries/Device/CH32V10x_p/CH32V10x_Lib/ch32v10x_rcc.c:501
          RCC_Clocks->SYSCLK_Frequency = HSE_VALUE * pllmull;
 990:	007a1737          	lui	a4,0x7a1
 994:	20070713          	addi	a4,a4,512 # 7a1200 <_data_lma+0x7a0690>
 998:	b7e5                	j	980 <RCC_GetClocksFreq+0x9a>

0000099a <RCC_APB2PeriphClockCmd>:
RCC_APB2PeriphClockCmd():
C:/Users/Kanesh's laptop/Desktop/19创新基地/沁恒/例程/Libraries/Device/CH32V10x_p/CH32V10x_Lib/ch32v10x_rcc.c:571
*                  NewState: ENABLE or DISABLE
* Return         : None
*******************************************************************************/	
void RCC_APB2PeriphClockCmd(uint32_t RCC_APB2Periph, FunctionalState NewState)
{
  if (NewState != DISABLE)
 99a:	c599                	beqz	a1,9a8 <RCC_APB2PeriphClockCmd+0xe>
C:/Users/Kanesh's laptop/Desktop/19创新基地/沁恒/例程/Libraries/Device/CH32V10x_p/CH32V10x_Lib/ch32v10x_rcc.c:573
  {
    RCC->APB2PCENR |= RCC_APB2Periph;
 99c:	40021737          	lui	a4,0x40021
 9a0:	4f1c                	lw	a5,24(a4)
 9a2:	8d5d                	or	a0,a0,a5
 9a4:	cf08                	sw	a0,24(a4)
 9a6:	8082                	ret
C:/Users/Kanesh's laptop/Desktop/19创新基地/沁恒/例程/Libraries/Device/CH32V10x_p/CH32V10x_Lib/ch32v10x_rcc.c:577
  }
  else
  {
    RCC->APB2PCENR &= ~RCC_APB2Periph;
 9a8:	400217b7          	lui	a5,0x40021
 9ac:	4f98                	lw	a4,24(a5)
 9ae:	fff54513          	not	a0,a0
 9b2:	8d79                	and	a0,a0,a4
 9b4:	cf88                	sw	a0,24(a5)
C:/Users/Kanesh's laptop/Desktop/19创新基地/沁恒/例程/Libraries/Device/CH32V10x_p/CH32V10x_Lib/ch32v10x_rcc.c:579
  }
}
 9b6:	8082                	ret

000009b8 <RCC_APB1PeriphClockCmd>:
RCC_APB1PeriphClockCmd():
C:/Users/Kanesh's laptop/Desktop/19创新基地/沁恒/例程/Libraries/Device/CH32V10x_p/CH32V10x_Lib/ch32v10x_rcc.c:604
*                  NewState: ENABLE or DISABLE.
* Return         : None
*******************************************************************************/	
void RCC_APB1PeriphClockCmd(uint32_t RCC_APB1Periph, FunctionalState NewState)
{
  if (NewState != DISABLE)
 9b8:	c599                	beqz	a1,9c6 <RCC_APB1PeriphClockCmd+0xe>
C:/Users/Kanesh's laptop/Desktop/19创新基地/沁恒/例程/Libraries/Device/CH32V10x_p/CH32V10x_Lib/ch32v10x_rcc.c:606
  {
    RCC->APB1PCENR |= RCC_APB1Periph;
 9ba:	40021737          	lui	a4,0x40021
 9be:	4f5c                	lw	a5,28(a4)
 9c0:	8d5d                	or	a0,a0,a5
 9c2:	cf48                	sw	a0,28(a4)
 9c4:	8082                	ret
C:/Users/Kanesh's laptop/Desktop/19创新基地/沁恒/例程/Libraries/Device/CH32V10x_p/CH32V10x_Lib/ch32v10x_rcc.c:610
  }
  else
  {
    RCC->APB1PCENR &= ~RCC_APB1Periph;
 9c6:	400217b7          	lui	a5,0x40021
 9ca:	4fd8                	lw	a4,28(a5)
 9cc:	fff54513          	not	a0,a0
 9d0:	8d79                	and	a0,a0,a4
 9d2:	cfc8                	sw	a0,28(a5)
C:/Users/Kanesh's laptop/Desktop/19创新基地/沁恒/例程/Libraries/Device/CH32V10x_p/CH32V10x_Lib/ch32v10x_rcc.c:612
  }
}
 9d4:	8082                	ret

000009d6 <TIM_GetITStatus>:
TIM_GetITStatus():
C:/Users/Kanesh's laptop/Desktop/19创新基地/沁恒/例程/Libraries/Device/CH32V10x_p/CH32V10x_Lib/ch32v10x_tim.c:1857
ITStatus TIM_GetITStatus(TIM_TypeDef* TIMx, uint16_t TIM_IT)
{
  ITStatus bitstatus = RESET;  
  uint16_t itstatus = 0x0, itenable = 0x0;
   
  itstatus = TIMx->INTFR & TIM_IT;
 9d6:	01055783          	lhu	a5,16(a0)
C:/Users/Kanesh's laptop/Desktop/19创新基地/沁恒/例程/Libraries/Device/CH32V10x_p/CH32V10x_Lib/ch32v10x_tim.c:1859
  
  itenable = TIMx->DMAINTENR & TIM_IT;
 9da:	00c55503          	lhu	a0,12(a0)
C:/Users/Kanesh's laptop/Desktop/19创新基地/沁恒/例程/Libraries/Device/CH32V10x_p/CH32V10x_Lib/ch32v10x_tim.c:1860
  if ((itstatus != (uint16_t)RESET) && (itenable != (uint16_t)RESET))
 9de:	8fed                	and	a5,a5,a1
C:/Users/Kanesh's laptop/Desktop/19创新基地/沁恒/例程/Libraries/Device/CH32V10x_p/CH32V10x_Lib/ch32v10x_tim.c:1859
  itenable = TIMx->DMAINTENR & TIM_IT;
 9e0:	0542                	slli	a0,a0,0x10
 9e2:	8141                	srli	a0,a0,0x10
C:/Users/Kanesh's laptop/Desktop/19创新基地/沁恒/例程/Libraries/Device/CH32V10x_p/CH32V10x_Lib/ch32v10x_tim.c:1860
  if ((itstatus != (uint16_t)RESET) && (itenable != (uint16_t)RESET))
 9e4:	c789                	beqz	a5,9ee <TIM_GetITStatus+0x18>
C:/Users/Kanesh's laptop/Desktop/19创新基地/沁恒/例程/Libraries/Device/CH32V10x_p/CH32V10x_Lib/ch32v10x_tim.c:1860 (discriminator 1)
 9e6:	8d6d                	and	a0,a0,a1
 9e8:	00a03533          	snez	a0,a0
 9ec:	8082                	ret
C:/Users/Kanesh's laptop/Desktop/19创新基地/沁恒/例程/Libraries/Device/CH32V10x_p/CH32V10x_Lib/ch32v10x_tim.c:1866
  {
    bitstatus = SET;
  }
  else
  {
    bitstatus = RESET;
 9ee:	4501                	li	a0,0
C:/Users/Kanesh's laptop/Desktop/19创新基地/沁恒/例程/Libraries/Device/CH32V10x_p/CH32V10x_Lib/ch32v10x_tim.c:1870
  }
	
  return bitstatus;
}
 9f0:	8082                	ret

000009f2 <TIM_ClearITPendingBit>:
TIM_ClearITPendingBit():
 9f2:	fff5c593          	not	a1,a1
 9f6:	05c2                	slli	a1,a1,0x10
 9f8:	81c1                	srli	a1,a1,0x10
 9fa:	00b51823          	sh	a1,16(a0)
 9fe:	8082                	ret

00000a00 <USART_Init>:
USART_Init():
C:/Users/Kanesh's laptop/Desktop/19创新基地/沁恒/例程/Libraries/Device/CH32V10x_p/CH32V10x_Lib/ch32v10x_usart.c:117
  if (USART_InitStruct->USART_HardwareFlowControl != USART_HardwareFlowControl_None)
  {
  }

  usartxbase = (uint32_t)USARTx;
  tmpreg = USARTx->CTLR2;
 a00:	01055683          	lhu	a3,16(a0)
 a04:	77f5                	lui	a5,0xffffd
 a06:	17fd                	addi	a5,a5,-1
 a08:	8ff5                	and	a5,a5,a3
 a0a:	0065d683          	lhu	a3,6(a1)
C:/Users/Kanesh's laptop/Desktop/19创新基地/沁恒/例程/Libraries/Device/CH32V10x_p/CH32V10x_Lib/ch32v10x_usart.c:105
{
 a0e:	7139                	addi	sp,sp,-64
 a10:	dc22                	sw	s0,56(sp)
 a12:	de06                	sw	ra,60(sp)
 a14:	8fd5                	or	a5,a5,a3
C:/Users/Kanesh's laptop/Desktop/19创新基地/沁恒/例程/Libraries/Device/CH32V10x_p/CH32V10x_Lib/ch32v10x_usart.c:112
  if (USART_InitStruct->USART_HardwareFlowControl != USART_HardwareFlowControl_None)
 a16:	00c5d703          	lhu	a4,12(a1)
C:/Users/Kanesh's laptop/Desktop/19创新基地/沁恒/例程/Libraries/Device/CH32V10x_p/CH32V10x_Lib/ch32v10x_usart.c:121
  tmpreg &= CTLR2_STOP_CLEAR_Mask;
  tmpreg |= (uint32_t)USART_InitStruct->USART_StopBits;  
	
  USARTx->CTLR2 = (uint16_t)tmpreg;
 a1a:	00f51823          	sh	a5,16(a0)
C:/Users/Kanesh's laptop/Desktop/19创新基地/沁恒/例程/Libraries/Device/CH32V10x_p/CH32V10x_Lib/ch32v10x_usart.c:122
  tmpreg = USARTx->CTLR1;
 a1e:	00c55683          	lhu	a3,12(a0)
C:/Users/Kanesh's laptop/Desktop/19创新基地/沁恒/例程/Libraries/Device/CH32V10x_p/CH32V10x_Lib/ch32v10x_usart.c:124
  tmpreg &= CTLR1_CLEAR_Mask;
  tmpreg |= (uint32_t)USART_InitStruct->USART_WordLength | USART_InitStruct->USART_Parity |
 a22:	77fd                	lui	a5,0xfffff
 a24:	9f378793          	addi	a5,a5,-1549 # ffffe9f3 <_eusrstack+0xdfff99f3>
 a28:	8ff5                	and	a5,a5,a3
 a2a:	0045d683          	lhu	a3,4(a1)
C:/Users/Kanesh's laptop/Desktop/19创新基地/沁恒/例程/Libraries/Device/CH32V10x_p/CH32V10x_Lib/ch32v10x_usart.c:105
{
 a2e:	842a                	mv	s0,a0
 a30:	c62e                	sw	a1,12(sp)
 a32:	8fd5                	or	a5,a5,a3
 a34:	0085d683          	lhu	a3,8(a1)
 a38:	8fd5                	or	a5,a5,a3
 a3a:	00a5d683          	lhu	a3,10(a1)
 a3e:	8fd5                	or	a5,a5,a3
C:/Users/Kanesh's laptop/Desktop/19创新基地/沁恒/例程/Libraries/Device/CH32V10x_p/CH32V10x_Lib/ch32v10x_usart.c:126
            USART_InitStruct->USART_Mode;
  USARTx->CTLR1 = (uint16_t)tmpreg;
 a40:	00f51623          	sh	a5,12(a0)
C:/Users/Kanesh's laptop/Desktop/19创新基地/沁恒/例程/Libraries/Device/CH32V10x_p/CH32V10x_Lib/ch32v10x_usart.c:128
 
  tmpreg = USARTx->CTLR3;
 a44:	01455783          	lhu	a5,20(a0)
 a48:	07c2                	slli	a5,a5,0x10
 a4a:	83c1                	srli	a5,a5,0x10
C:/Users/Kanesh's laptop/Desktop/19创新基地/沁恒/例程/Libraries/Device/CH32V10x_p/CH32V10x_Lib/ch32v10x_usart.c:130
  tmpreg &= CTLR3_CLEAR_Mask;
  tmpreg |= USART_InitStruct->USART_HardwareFlowControl;
 a4c:	cff7f793          	andi	a5,a5,-769
 a50:	8fd9                	or	a5,a5,a4
C:/Users/Kanesh's laptop/Desktop/19创新基地/沁恒/例程/Libraries/Device/CH32V10x_p/CH32V10x_Lib/ch32v10x_usart.c:131
  USARTx->CTLR3 = (uint16_t)tmpreg;
 a52:	00f51a23          	sh	a5,20(a0)
C:/Users/Kanesh's laptop/Desktop/19创新基地/沁恒/例程/Libraries/Device/CH32V10x_p/CH32V10x_Lib/ch32v10x_usart.c:133

  RCC_GetClocksFreq(&RCC_ClocksStatus);
 a56:	0868                	addi	a0,sp,28
 a58:	3579                	jal	8e6 <RCC_GetClocksFreq>
C:/Users/Kanesh's laptop/Desktop/19创新基地/沁恒/例程/Libraries/Device/CH32V10x_p/CH32V10x_Lib/ch32v10x_usart.c:135
	
  if (usartxbase == USART1_BASE)
 a5a:	400147b7          	lui	a5,0x40014
 a5e:	80078793          	addi	a5,a5,-2048 # 40013800 <_eusrstack+0x2000e800>
 a62:	45b2                	lw	a1,12(sp)
 a64:	04f41e63          	bne	s0,a5,ac0 <USART_Init+0xc0>
C:/Users/Kanesh's laptop/Desktop/19创新基地/沁恒/例程/Libraries/Device/CH32V10x_p/CH32V10x_Lib/ch32v10x_usart.c:137
  {
    apbclock = RCC_ClocksStatus.PCLK2_Frequency;
 a68:	57a2                	lw	a5,40(sp)
C:/Users/Kanesh's laptop/Desktop/19创新基地/沁恒/例程/Libraries/Device/CH32V10x_p/CH32V10x_Lib/ch32v10x_usart.c:144
  else
  {
    apbclock = RCC_ClocksStatus.PCLK1_Frequency;
  }
  
  if ((USARTx->CTLR1 & CTLR1_OVER8_Set) != 0)
 a6a:	00c45683          	lhu	a3,12(s0)
 a6e:	4765                	li	a4,25
 a70:	02e787b3          	mul	a5,a5,a4
 a74:	06c2                	slli	a3,a3,0x10
 a76:	86c1                	srai	a3,a3,0x10
 a78:	4198                	lw	a4,0(a1)
 a7a:	0406d563          	bgez	a3,ac4 <USART_Init+0xc4>
C:/Users/Kanesh's laptop/Desktop/19创新基地/沁恒/例程/Libraries/Device/CH32V10x_p/CH32V10x_Lib/ch32v10x_usart.c:146
  {
    integerdivider = ((25 * apbclock) / (2 * (USART_InitStruct->USART_BaudRate)));    
 a7e:	0706                	slli	a4,a4,0x1
C:/Users/Kanesh's laptop/Desktop/19创新基地/沁恒/例程/Libraries/Device/CH32V10x_p/CH32V10x_Lib/ch32v10x_usart.c:156
  }
  tmpreg = (integerdivider / 100) << 4;

  fractionaldivider = integerdivider - (100 * (tmpreg >> 4));

  if ((USARTx->CTLR1 & CTLR1_OVER8_Set) != 0)
 a80:	00c45603          	lhu	a2,12(s0)
 a84:	0642                	slli	a2,a2,0x10
C:/Users/Kanesh's laptop/Desktop/19创新基地/沁恒/例程/Libraries/Device/CH32V10x_p/CH32V10x_Lib/ch32v10x_usart.c:150
    integerdivider = ((25 * apbclock) / (4 * (USART_InitStruct->USART_BaudRate)));    
 a86:	02e7d7b3          	divu	a5,a5,a4
C:/Users/Kanesh's laptop/Desktop/19创新基地/沁恒/例程/Libraries/Device/CH32V10x_p/CH32V10x_Lib/ch32v10x_usart.c:152
  tmpreg = (integerdivider / 100) << 4;
 a8a:	06400713          	li	a4,100
C:/Users/Kanesh's laptop/Desktop/19创新基地/沁恒/例程/Libraries/Device/CH32V10x_p/CH32V10x_Lib/ch32v10x_usart.c:156
  if ((USARTx->CTLR1 & CTLR1_OVER8_Set) != 0)
 a8e:	8641                	srai	a2,a2,0x10
C:/Users/Kanesh's laptop/Desktop/19创新基地/沁恒/例程/Libraries/Device/CH32V10x_p/CH32V10x_Lib/ch32v10x_usart.c:152
  tmpreg = (integerdivider / 100) << 4;
 a90:	02e7d6b3          	divu	a3,a5,a4
 a94:	02e7f7b3          	remu	a5,a5,a4
 a98:	0692                	slli	a3,a3,0x4
C:/Users/Kanesh's laptop/Desktop/19创新基地/沁恒/例程/Libraries/Device/CH32V10x_p/CH32V10x_Lib/ch32v10x_usart.c:156
  if ((USARTx->CTLR1 & CTLR1_OVER8_Set) != 0)
 a9a:	02065763          	bgez	a2,ac8 <USART_Init+0xc8>
C:/Users/Kanesh's laptop/Desktop/19创新基地/沁恒/例程/Libraries/Device/CH32V10x_p/CH32V10x_Lib/ch32v10x_usart.c:158
  {
    tmpreg |= ((((fractionaldivider * 8) + 50) / 100)) & ((uint8_t)0x07);
 a9e:	078e                	slli	a5,a5,0x3
 aa0:	03278793          	addi	a5,a5,50
 aa4:	02e7d7b3          	divu	a5,a5,a4
 aa8:	0077f713          	andi	a4,a5,7
 aac:	00d767b3          	or	a5,a4,a3
C:/Users/Kanesh's laptop/Desktop/19创新基地/沁恒/例程/Libraries/Device/CH32V10x_p/CH32V10x_Lib/ch32v10x_usart.c:165
  else 
  {
    tmpreg |= ((((fractionaldivider * 16) + 50) / 100)) & ((uint8_t)0x0F);
  }
  
  USARTx->BRR = (uint16_t)tmpreg;
 ab0:	07c2                	slli	a5,a5,0x10
 ab2:	83c1                	srli	a5,a5,0x10
 ab4:	00f41423          	sh	a5,8(s0)
C:/Users/Kanesh's laptop/Desktop/19创新基地/沁恒/例程/Libraries/Device/CH32V10x_p/CH32V10x_Lib/ch32v10x_usart.c:166
}
 ab8:	50f2                	lw	ra,60(sp)
 aba:	5462                	lw	s0,56(sp)
 abc:	6121                	addi	sp,sp,64
 abe:	8082                	ret
C:/Users/Kanesh's laptop/Desktop/19创新基地/沁恒/例程/Libraries/Device/CH32V10x_p/CH32V10x_Lib/ch32v10x_usart.c:141
    apbclock = RCC_ClocksStatus.PCLK1_Frequency;
 ac0:	5792                	lw	a5,36(sp)
 ac2:	b765                	j	a6a <USART_Init+0x6a>
C:/Users/Kanesh's laptop/Desktop/19创新基地/沁恒/例程/Libraries/Device/CH32V10x_p/CH32V10x_Lib/ch32v10x_usart.c:150
    integerdivider = ((25 * apbclock) / (4 * (USART_InitStruct->USART_BaudRate)));    
 ac4:	070a                	slli	a4,a4,0x2
 ac6:	bf6d                	j	a80 <USART_Init+0x80>
C:/Users/Kanesh's laptop/Desktop/19创新基地/沁恒/例程/Libraries/Device/CH32V10x_p/CH32V10x_Lib/ch32v10x_usart.c:162
    tmpreg |= ((((fractionaldivider * 16) + 50) / 100)) & ((uint8_t)0x0F);
 ac8:	0792                	slli	a5,a5,0x4
 aca:	03278793          	addi	a5,a5,50
 ace:	02e7d7b3          	divu	a5,a5,a4
 ad2:	8bbd                	andi	a5,a5,15
 ad4:	8fd5                	or	a5,a5,a3
 ad6:	bfe9                	j	ab0 <USART_Init+0xb0>

00000ad8 <USART_Cmd>:
USART_Cmd():
C:/Users/Kanesh's laptop/Desktop/19创新基地/沁恒/例程/Libraries/Device/CH32V10x_p/CH32V10x_Lib/ch32v10x_usart.c:230
*                  NewState: ENABLE or DISABLE.
* Return         : None
*******************************************************************************/
void USART_Cmd(USART_TypeDef* USARTx, FunctionalState NewState)
{
  if (NewState != DISABLE)
 ad8:	c981                	beqz	a1,ae8 <USART_Cmd+0x10>
C:/Users/Kanesh's laptop/Desktop/19创新基地/沁恒/例程/Libraries/Device/CH32V10x_p/CH32V10x_Lib/ch32v10x_usart.c:232
  {
    USARTx->CTLR1 |= CTLR1_UE_Set;
 ada:	00c55783          	lhu	a5,12(a0)
 ade:	6709                	lui	a4,0x2
 ae0:	8fd9                	or	a5,a5,a4
C:/Users/Kanesh's laptop/Desktop/19创新基地/沁恒/例程/Libraries/Device/CH32V10x_p/CH32V10x_Lib/ch32v10x_usart.c:236
  }
  else
  {
    USARTx->CTLR1 &= CTLR1_UE_Reset;
 ae2:	00f51623          	sh	a5,12(a0)
C:/Users/Kanesh's laptop/Desktop/19创新基地/沁恒/例程/Libraries/Device/CH32V10x_p/CH32V10x_Lib/ch32v10x_usart.c:238
  }
}
 ae6:	8082                	ret
C:/Users/Kanesh's laptop/Desktop/19创新基地/沁恒/例程/Libraries/Device/CH32V10x_p/CH32V10x_Lib/ch32v10x_usart.c:236
    USARTx->CTLR1 &= CTLR1_UE_Reset;
 ae8:	00c55703          	lhu	a4,12(a0)
 aec:	77f9                	lui	a5,0xffffe
 aee:	17fd                	addi	a5,a5,-1
 af0:	8ff9                	and	a5,a5,a4
 af2:	bfc5                	j	ae2 <USART_Cmd+0xa>

00000af4 <USART_GetITStatus>:
USART_GetITStatus():
C:/Users/Kanesh's laptop/Desktop/19创新基地/沁恒/例程/Libraries/Device/CH32V10x_p/CH32V10x_Lib/ch32v10x_usart.c:668

  if (USART_IT == USART_IT_CTS)
  {
  }   
  
  usartreg = (((uint8_t)USART_IT) >> 0x05);
 af4:	0ff5f713          	andi	a4,a1,255
C:/Users/Kanesh's laptop/Desktop/19创新基地/沁恒/例程/Libraries/Device/CH32V10x_p/CH32V10x_Lib/ch32v10x_usart.c:670
  itmask = USART_IT & IT_Mask;
  itmask = (uint32_t)0x01 << itmask;
 af8:	4685                	li	a3,1
C:/Users/Kanesh's laptop/Desktop/19创新基地/沁恒/例程/Libraries/Device/CH32V10x_p/CH32V10x_Lib/ch32v10x_usart.c:668
  usartreg = (((uint8_t)USART_IT) >> 0x05);
 afa:	8315                	srli	a4,a4,0x5
C:/Users/Kanesh's laptop/Desktop/19创新基地/沁恒/例程/Libraries/Device/CH32V10x_p/CH32V10x_Lib/ch32v10x_usart.c:670
  itmask = (uint32_t)0x01 << itmask;
 afc:	00b697b3          	sll	a5,a3,a1
C:/Users/Kanesh's laptop/Desktop/19创新基地/沁恒/例程/Libraries/Device/CH32V10x_p/CH32V10x_Lib/ch32v10x_usart.c:672
  
  if (usartreg == 0x01) 
 b00:	02d71363          	bne	a4,a3,b26 <USART_GetITStatus+0x32>
C:/Users/Kanesh's laptop/Desktop/19创新基地/沁恒/例程/Libraries/Device/CH32V10x_p/CH32V10x_Lib/ch32v10x_usart.c:674
  {
    itmask &= USARTx->CTLR1;
 b04:	00c55703          	lhu	a4,12(a0)
C:/Users/Kanesh's laptop/Desktop/19创新基地/沁恒/例程/Libraries/Device/CH32V10x_p/CH32V10x_Lib/ch32v10x_usart.c:682
  {
    itmask &= USARTx->CTLR2;
  }
  else 
  {
    itmask &= USARTx->CTLR3;
 b08:	8ff9                	and	a5,a5,a4
C:/Users/Kanesh's laptop/Desktop/19创新基地/沁恒/例程/Libraries/Device/CH32V10x_p/CH32V10x_Lib/ch32v10x_usart.c:687
  }
  
  bitpos = USART_IT >> 0x08;
  bitpos = (uint32_t)0x01 << bitpos;
  bitpos &= USARTx->STATR;
 b0a:	00055703          	lhu	a4,0(a0)
C:/Users/Kanesh's laptop/Desktop/19创新基地/沁恒/例程/Libraries/Device/CH32V10x_p/CH32V10x_Lib/ch32v10x_usart.c:695
  {
    bitstatus = SET;
  }
  else
  {
    bitstatus = RESET;
 b0e:	4501                	li	a0,0
C:/Users/Kanesh's laptop/Desktop/19创新基地/沁恒/例程/Libraries/Device/CH32V10x_p/CH32V10x_Lib/ch32v10x_usart.c:687
  bitpos &= USARTx->STATR;
 b10:	0742                	slli	a4,a4,0x10
 b12:	8341                	srli	a4,a4,0x10
C:/Users/Kanesh's laptop/Desktop/19创新基地/沁恒/例程/Libraries/Device/CH32V10x_p/CH32V10x_Lib/ch32v10x_usart.c:689
  if ((itmask != (uint16_t)RESET)&&(bitpos != (uint16_t)RESET))
 b14:	cb81                	beqz	a5,b24 <USART_GetITStatus+0x30>
C:/Users/Kanesh's laptop/Desktop/19创新基地/沁恒/例程/Libraries/Device/CH32V10x_p/CH32V10x_Lib/ch32v10x_usart.c:686 (discriminator 1)
  bitpos = (uint32_t)0x01 << bitpos;
 b16:	4505                	li	a0,1
C:/Users/Kanesh's laptop/Desktop/19创新基地/沁恒/例程/Libraries/Device/CH32V10x_p/CH32V10x_Lib/ch32v10x_usart.c:685 (discriminator 1)
  bitpos = USART_IT >> 0x08;
 b18:	81a1                	srli	a1,a1,0x8
C:/Users/Kanesh's laptop/Desktop/19创新基地/沁恒/例程/Libraries/Device/CH32V10x_p/CH32V10x_Lib/ch32v10x_usart.c:686 (discriminator 1)
  bitpos = (uint32_t)0x01 << bitpos;
 b1a:	00b515b3          	sll	a1,a0,a1
C:/Users/Kanesh's laptop/Desktop/19创新基地/沁恒/例程/Libraries/Device/CH32V10x_p/CH32V10x_Lib/ch32v10x_usart.c:687 (discriminator 1)
  bitpos &= USARTx->STATR;
 b1e:	8f6d                	and	a4,a4,a1
C:/Users/Kanesh's laptop/Desktop/19创新基地/沁恒/例程/Libraries/Device/CH32V10x_p/CH32V10x_Lib/ch32v10x_usart.c:689 (discriminator 1)
  if ((itmask != (uint16_t)RESET)&&(bitpos != (uint16_t)RESET))
 b20:	00e03533          	snez	a0,a4
C:/Users/Kanesh's laptop/Desktop/19创新基地/沁恒/例程/Libraries/Device/CH32V10x_p/CH32V10x_Lib/ch32v10x_usart.c:699
  }
  
  return bitstatus;  
}
 b24:	8082                	ret
C:/Users/Kanesh's laptop/Desktop/19创新基地/沁恒/例程/Libraries/Device/CH32V10x_p/CH32V10x_Lib/ch32v10x_usart.c:676
  else if (usartreg == 0x02) 
 b26:	4689                	li	a3,2
 b28:	00d71563          	bne	a4,a3,b32 <USART_GetITStatus+0x3e>
C:/Users/Kanesh's laptop/Desktop/19创新基地/沁恒/例程/Libraries/Device/CH32V10x_p/CH32V10x_Lib/ch32v10x_usart.c:678
    itmask &= USARTx->CTLR2;
 b2c:	01055703          	lhu	a4,16(a0)
 b30:	bfe1                	j	b08 <USART_GetITStatus+0x14>
C:/Users/Kanesh's laptop/Desktop/19创新基地/沁恒/例程/Libraries/Device/CH32V10x_p/CH32V10x_Lib/ch32v10x_usart.c:682
    itmask &= USARTx->CTLR3;
 b32:	01455703          	lhu	a4,20(a0)
 b36:	bfc9                	j	b08 <USART_GetITStatus+0x14>

00000b38 <USART_ClearITPendingBit>:
USART_ClearITPendingBit():
C:/Users/Kanesh's laptop/Desktop/19创新基地/沁恒/例程/Libraries/Device/CH32V10x_p/CH32V10x_Lib/ch32v10x_usart.c:721
  if (USART_IT == USART_IT_CTS)
  {
  }   
  
  bitpos = USART_IT >> 0x08;
  itmask = ((uint16_t)0x01 << (uint16_t)bitpos);
 b38:	81a1                	srli	a1,a1,0x8
 b3a:	4785                	li	a5,1
 b3c:	00b797b3          	sll	a5,a5,a1
C:/Users/Kanesh's laptop/Desktop/19创新基地/沁恒/例程/Libraries/Device/CH32V10x_p/CH32V10x_Lib/ch32v10x_usart.c:722
  USARTx->STATR = (uint16_t)~itmask;
 b40:	fff7c793          	not	a5,a5
 b44:	07c2                	slli	a5,a5,0x10
 b46:	83c1                	srli	a5,a5,0x10
 b48:	00f51023          	sh	a5,0(a0)
C:/Users/Kanesh's laptop/Desktop/19创新基地/沁恒/例程/Libraries/Device/CH32V10x_p/CH32V10x_Lib/ch32v10x_usart.c:723
}
 b4c:	8082                	ret
	...

00000b50 <GPION>:
 b50:	0800 4001 0c00 4001 1000 4001 1400 4001     ...@...@...@...@

00000b60 <UARTN>:
 b60:	3800 4001 4400 4000 4800 4000 4c00 4000     .8.@.D.@.H.@.L.@
