
Template.elf:     file format elf32-littleriscv
Template.elf
architecture: riscv:rv32, flags 0x00000112:
EXEC_P, HAS_SYMS, D_PAGED
start address 0x00000000

Program Header:
    LOAD off    0x00001000 vaddr 0x00000000 paddr 0x00000000 align 2**12
         filesz 0x00001404 memsz 0x00001404 flags r-x
    LOAD off    0x00003000 vaddr 0x20000000 paddr 0x00001404 align 2**12
         filesz 0x00000018 memsz 0x0000002c flags rw-
    LOAD off    0x00003800 vaddr 0x20004800 paddr 0x20004800 align 2**12
         filesz 0x00000000 memsz 0x00000800 flags rw-

Sections:
Idx Name           Size      VMA       LMA       File off  Algn  Flags
  0 .init          00000038  00000000  00000000  00001000  2**1  CONTENTS, ALLOC, LOAD, READONLY, CODE
  1 .vector        00000108  00000038  00000038  00001038  2**1  CONTENTS, ALLOC, LOAD, READONLY, CODE
  2 .text          000012c4  00000140  00000140  00001140  2**2  CONTENTS, ALLOC, LOAD, READONLY, CODE
  3 .fini          00000000  00001404  00001404  00003018  2**0  CONTENTS, ALLOC, LOAD, CODE
  4 .dalign        00000000  20000000  20000000  00003018  2**0  CONTENTS
  5 .dlalign       00000000  00001404  00001404  00003018  2**0  CONTENTS
  6 .data          00000018  20000000  00001404  00003000  2**2  CONTENTS, ALLOC, LOAD, DATA
  7 .bss           00000014  20000018  0000141c  00003018  2**2  ALLOC
  8 .stack         00000800  20004800  20004800  00003800  2**0  ALLOC
  9 .debug_info    0000f90c  00000000  00000000  00003018  2**0  CONTENTS, READONLY, DEBUGGING
 10 .debug_abbrev  00002daa  00000000  00000000  00012924  2**0  CONTENTS, READONLY, DEBUGGING
 11 .debug_aranges 00000928  00000000  00000000  000156d0  2**3  CONTENTS, READONLY, DEBUGGING
 12 .debug_ranges  00000850  00000000  00000000  00015ff8  2**3  CONTENTS, READONLY, DEBUGGING
 13 .debug_line    0000af29  00000000  00000000  00016848  2**0  CONTENTS, READONLY, DEBUGGING
 14 .debug_str     00003374  00000000  00000000  00021771  2**0  CONTENTS, READONLY, DEBUGGING
 15 .comment       00000033  00000000  00000000  00024ae5  2**0  CONTENTS, READONLY
 16 .debug_frame   00001384  00000000  00000000  00024b18  2**2  CONTENTS, READONLY, DEBUGGING
 17 .debug_loc     000045f4  00000000  00000000  00025e9c  2**0  CONTENTS, READONLY, DEBUGGING
 18 .stabstr       00000183  00000000  00000000  0002a490  2**0  CONTENTS, READONLY, DEBUGGING
SYMBOL TABLE:
00000000 l    d  .init	00000000 .init
00000038 l    d  .vector	00000000 .vector
00000140 l    d  .text	00000000 .text
00001404 l    d  .fini	00000000 .fini
20000000 l    d  .dalign	00000000 .dalign
00001404 l    d  .dlalign	00000000 .dlalign
20000000 l    d  .data	00000000 .data
20000018 l    d  .bss	00000000 .bss
20004800 l    d  .stack	00000000 .stack
00000000 l    d  .debug_info	00000000 .debug_info
00000000 l    d  .debug_abbrev	00000000 .debug_abbrev
00000000 l    d  .debug_aranges	00000000 .debug_aranges
00000000 l    d  .debug_ranges	00000000 .debug_ranges
00000000 l    d  .debug_line	00000000 .debug_line
00000000 l    d  .debug_str	00000000 .debug_str
00000000 l    d  .comment	00000000 .comment
00000000 l    d  .debug_frame	00000000 .debug_frame
00000000 l    d  .debug_loc	00000000 .debug_loc
00000000 l    d  .stabstr	00000000 .stabstr
00000000 l    df *ABS*	00000000 ./CH32V10x/CH32V10x_p/Startup/startup_ch32v10x.o
00000038 l       .vector	00000000 _vector_base
00000000 l    df *ABS*	00000000 isr.c
00000000 l    df *ABS*	00000000 main.c
00000000 l    df *ABS*	00000000 board.c
00000000 l    df *ABS*	00000000 clock_config.c
00000000 l    df *ABS*	00000000 delay.c
2000001c l     O .bss	00000002 p_ms
2000001e l     O .bss	00000001 p_us
00000000 l    df *ABS*	00000000 hf_gpio.c
00000000 l    df *ABS*	00000000 hf_nvic.c
00000000 l    df *ABS*	00000000 hf_pwm.c
00000000 l    df *ABS*	00000000 hf_tim.c
00000000 l    df *ABS*	00000000 hf_uart.c
00000000 l    df *ABS*	00000000 car_buzzer.c
00000000 l    df *ABS*	00000000 car_init.c
00000000 l    df *ABS*	00000000 ch32v10x_dma.c
00000000 l    df *ABS*	00000000 ch32v10x_exti.c
00000000 l    df *ABS*	00000000 ch32v10x_gpio.c
00000000 l    df *ABS*	00000000 ch32v10x_rcc.c
20000000 l     O .data	00000010 APBAHBPrescTable
20000010 l     O .data	00000004 ADCPrescTable
00000000 l    df *ABS*	00000000 ch32v10x_tim.c
00000000 l    df *ABS*	00000000 ch32v10x_usart.c
00000000 l    df *ABS*	00000000 common.c
00000000 l    df *ABS*	00000000 close.c
0000015a g     F .text	0000000a EXTI2_IRQHandler
00000c20 g     F .text	0000000c buzzer_duty
20000810 g       .data	00000000 __global_pointer$
00000210 g     F .text	00000074 TIM1_CC_IRQHandler
0000034e g     F .text	00000002 HardFault_Handler
00001204 g     F .text	00000012 TIM_OC1PreloadConfig
20000018 g     O .bss	00000004 sys_clk
0000034a g     F .text	00000004 NMI_Handler
00000a88 g     F .text	0000006a timbase_init
00000164 g     F .text	00000004 EXTI3_IRQHandler
00000c10 g     F .text	0000000a buzzer_init
000013e4 g     O .text	00000010 TIMERN
20000018 g       .bss	00000000 _sbss
00000800 g       *ABS*	00000000 __stack_size
000011ee g     F .text	00000016 TIM_CtrlPWMOutputs
00000140 g     F .text	00000004 EXTI0_IRQHandler
000011d2 g     F .text	0000001c TIM_Cmd
00001242 g     F .text	0000001a TIM_OC4PreloadConfig
00000038 g       .init	00000000 _einit
00000670 g     F .text	0000001c sys_recover_irq
00001278 g     F .text	0000000e TIM_ClearITPendingBit
00000eae g     F .text	0000001e RCC_APB2PeriphClockCmd
00000174 g     F .text	00000004 ADC1_2_IRQHandler
00000d2e g     F .text	000000c2 GPIO_Init
0000135e g     F .text	0000001c USART_Cmd
0000109e g     F .text	000000b2 TIM_OC3Init
000013be g     F .text	00000016 USART_ClearITPendingBit
00000ecc g     F .text	0000001e RCC_APB1PeriphClockCmd
00000328 g     F .text	00000016 DMA1_Channel4_IRQHandler
00000c2c g     F .text	00000026 car_init
00000ccc g     F .text	00000020 DMA_GetFlagStatus
00000318 g     F .text	00000004 USART3_IRQHandler
00000d24 g     F .text	0000000a EXTI_ClearITPendingBit
2000002c g       .bss	00000000 _ebss
0000137a g     F .text	00000044 USART_GetITStatus
00000346 g     F .text	00000004 DMA1_Channel7_IRQHandler
00000f62 g     F .text	00000088 TIM_OC1Init
00001230 g     F .text	00000012 TIM_OC3PreloadConfig
000004fe g     F .text	0000002a Delay_Init
000013f4 g     O .text	00000010 UARTN
0000097c g     F .text	0000010c pwm_init
000002c4 g     F .text	00000026 TIM4_IRQHandler
00000df0 g     F .text	0000000a GPIO_WriteBit
2000002c g       .bss	00000000 end
0000125c g     F .text	0000001c TIM_GetITStatus
00000dfa g     F .text	000000b4 RCC_GetClocksFreq
00000342 g     F .text	00000004 DMA1_Channel6_IRQHandler
00000b9c g     F .text	00000074 uart_init
00001286 g     F .text	000000d8 USART_Init
0000029e g     F .text	00000026 TIM3_IRQHandler
0000068c g     F .text	0000000a EnableGlobalIRQ
00000af2 g     F .text	000000aa uart_gpio_init
000001c8 g     F .text	00000048 TIM1_TRG_COM_IRQHandler
0000031c g     F .text	00000004 DMA1_Channel1_IRQHandler
00000000 g       .init	00000000 _start
00001216 g     F .text	0000001a TIM_OC2PreloadConfig
00000636 g     F .text	00000010 close_all_irq
00000170 g     F .text	00000004 EXTI15_10_IRQHandler
000013d4 g     O .text	00000010 GPION
00000fea g     F .text	000000b4 TIM_OC2Init
20000000 g       .dalign	00000000 _data_vma
00001150 g     F .text	00000082 TIM_OC4Init
0000016c g     F .text	00000004 EXTI9_5_IRQHandler
000003c4 g     F .text	00000038 board_init
00000d06 g     F .text	0000001e EXTI_GetITStatus
00000350 g     F .text	00000074 main
0000033e g     F .text	00000004 DMA1_Channel5_IRQHandler
00000168 g     F .text	00000004 EXTI4_IRQHandler
00000528 g     F .text	00000030 Delay_Ms
00000646 g     F .text	0000002a DisableGlobalIRQ
000003fc g     F .text	00000102 SystemInit
00000000 g       .init	00000000 _sinit
00000324 g     F .text	00000004 DMA1_Channel3_IRQHandler
20000020 g     O .bss	0000000c irq_status
000001a2 g     F .text	00000026 TIM1_UP_IRQHandler
00000706 g     F .text	0000003c pwm_freq
00000284 g     F .text	0000001a TIM2_IRQHandler
20005000 g       .stack	00000000 _eusrstack
00000696 g     F .text	00000070 pwm_duty
00000178 g     F .text	0000002a TIM1_BRK_IRQHandler
00000144 g     F .text	00000016 EXTI1_IRQHandler
20000018 g       .data	00000000 _edata
00000c1a g     F .text	00000006 buzzer_freq
00000eea g     F .text	00000078 TIM_TimeBaseInit
00001404 g       .dlalign	00000000 _data_lma
000002ee g     F .text	0000002a USART2_IRQHandler
00000320 g     F .text	00000004 DMA1_Channel2_IRQHandler
00000cec g     F .text	0000001a DMA_ClearFlag
00000c52  w      .text	00000000 handle_reset
00000742 g     F .text	0000023a pwm_gpio_init
000002ea g     F .text	00000004 USART1_IRQHandler
00000558 g     F .text	000000de gpio_init



Disassembly of section .init:

00000000 <_sinit>:
_start():
C:/flushbonading/MounRiver/EXE/Libraries/Device/CH32V10x_p/Startup/startup_ch32v10x.S:13

	.section	.init,"ax",@progbits
	.global	_start
	.align	1
_start:
	j	handle_reset
   0:	4530006f          	j	c52 <handle_reset>
   4:	00000013          	nop
   8:	00000013          	nop
   c:	00000013          	nop
  10:	00000013          	nop
  14:	00000013          	nop
  18:	00000013          	nop
  1c:	00000013          	nop
  20:	00000013          	nop
  24:	00000013          	nop
  28:	00000013          	nop
  2c:	00000013          	nop
  30:	00000013          	nop
  34:	00100073          	ebreak

Disassembly of section .vector:

00000038 <_vector_base>:
_vector_base():
C:/flushbonading/MounRiver/EXE/Libraries/Device/CH32V10x_p/Startup/startup_ch32v10x.S:31
	.word 0x00100073
    .section    .vector,"ax",@progbits
    .align  1
_vector_base:
    .option norvc;
        j   _start
  38:	fc9ff06f          	j	0 <_sinit>
  3c:	0000                	unimp
  3e:	0000                	unimp
C:/flushbonading/MounRiver/EXE/Libraries/Device/CH32V10x_p/Startup/startup_ch32v10x.S:33
    .word   0
        j   NMI_Handler                 /* NMI Handler */
  40:	30a0006f          	j	34a <NMI_Handler>
C:/flushbonading/MounRiver/EXE/Libraries/Device/CH32V10x_p/Startup/startup_ch32v10x.S:34
        j   HardFault_Handler           /* Hard Fault Handler */
  44:	30a0006f          	j	34e <HardFault_Handler>
	...
C:/flushbonading/MounRiver/EXE/Libraries/Device/CH32V10x_p/Startup/startup_ch32v10x.S:43
    .word   0
    .word   0
    .word   0
    .word   0
    .word   0
        j   SysTick_Handler            /* SysTick Handler */
  68:	f99ff06f          	j	0 <_sinit>
  6c:	0000                	unimp
  6e:	0000                	unimp
C:/flushbonading/MounRiver/EXE/Libraries/Device/CH32V10x_p/Startup/startup_ch32v10x.S:45
    .word   0
        j   SW_handler                 /* SW Handler */
  70:	f91ff06f          	j	0 <_sinit>
  74:	0000                	unimp
  76:	0000                	unimp
C:/flushbonading/MounRiver/EXE/Libraries/Device/CH32V10x_p/Startup/startup_ch32v10x.S:48
    .word   0
    /* External Interrupts */
        j   WWDG_IRQHandler            /* Window Watchdog */
  78:	f89ff06f          	j	0 <_sinit>
C:/flushbonading/MounRiver/EXE/Libraries/Device/CH32V10x_p/Startup/startup_ch32v10x.S:49
        j   PVD_IRQHandler             /* PVD through EXTI Line detect */
  7c:	f85ff06f          	j	0 <_sinit>
C:/flushbonading/MounRiver/EXE/Libraries/Device/CH32V10x_p/Startup/startup_ch32v10x.S:50
        j   TAMPER_IRQHandler          /* TAMPER */
  80:	f81ff06f          	j	0 <_sinit>
C:/flushbonading/MounRiver/EXE/Libraries/Device/CH32V10x_p/Startup/startup_ch32v10x.S:51
        j   RTC_IRQHandler             /* RTC */
  84:	f7dff06f          	j	0 <_sinit>
C:/flushbonading/MounRiver/EXE/Libraries/Device/CH32V10x_p/Startup/startup_ch32v10x.S:52
        j   FLASH_IRQHandler           /* Flash */
  88:	f79ff06f          	j	0 <_sinit>
C:/flushbonading/MounRiver/EXE/Libraries/Device/CH32V10x_p/Startup/startup_ch32v10x.S:53
        j   RCC_IRQHandler             /* RCC */
  8c:	f75ff06f          	j	0 <_sinit>
C:/flushbonading/MounRiver/EXE/Libraries/Device/CH32V10x_p/Startup/startup_ch32v10x.S:54
        j   EXTI0_IRQHandler           /* EXTI Line 0 */
  90:	0b00006f          	j	140 <EXTI0_IRQHandler>
C:/flushbonading/MounRiver/EXE/Libraries/Device/CH32V10x_p/Startup/startup_ch32v10x.S:55
        j   EXTI1_IRQHandler           /* EXTI Line 1 */
  94:	0b00006f          	j	144 <EXTI1_IRQHandler>
C:/flushbonading/MounRiver/EXE/Libraries/Device/CH32V10x_p/Startup/startup_ch32v10x.S:56
        j   EXTI2_IRQHandler           /* EXTI Line 2 */
  98:	0c20006f          	j	15a <EXTI2_IRQHandler>
C:/flushbonading/MounRiver/EXE/Libraries/Device/CH32V10x_p/Startup/startup_ch32v10x.S:57
        j   EXTI3_IRQHandler           /* EXTI Line 3 */
  9c:	0c80006f          	j	164 <EXTI3_IRQHandler>
C:/flushbonading/MounRiver/EXE/Libraries/Device/CH32V10x_p/Startup/startup_ch32v10x.S:58
        j   EXTI4_IRQHandler           /* EXTI Line 4 */
  a0:	0c80006f          	j	168 <EXTI4_IRQHandler>
C:/flushbonading/MounRiver/EXE/Libraries/Device/CH32V10x_p/Startup/startup_ch32v10x.S:59
        j   DMA1_Channel1_IRQHandler   /* DMA1 Channel 1 */
  a4:	2780006f          	j	31c <DMA1_Channel1_IRQHandler>
C:/flushbonading/MounRiver/EXE/Libraries/Device/CH32V10x_p/Startup/startup_ch32v10x.S:60
        j   DMA1_Channel2_IRQHandler   /* DMA1 Channel 2 */
  a8:	2780006f          	j	320 <DMA1_Channel2_IRQHandler>
C:/flushbonading/MounRiver/EXE/Libraries/Device/CH32V10x_p/Startup/startup_ch32v10x.S:61
        j   DMA1_Channel3_IRQHandler   /* DMA1 Channel 3 */
  ac:	2780006f          	j	324 <DMA1_Channel3_IRQHandler>
C:/flushbonading/MounRiver/EXE/Libraries/Device/CH32V10x_p/Startup/startup_ch32v10x.S:62
        j   DMA1_Channel4_IRQHandler   /* DMA1 Channel 4 */
  b0:	2780006f          	j	328 <DMA1_Channel4_IRQHandler>
C:/flushbonading/MounRiver/EXE/Libraries/Device/CH32V10x_p/Startup/startup_ch32v10x.S:63
        j   DMA1_Channel5_IRQHandler   /* DMA1 Channel 5 */
  b4:	28a0006f          	j	33e <DMA1_Channel5_IRQHandler>
C:/flushbonading/MounRiver/EXE/Libraries/Device/CH32V10x_p/Startup/startup_ch32v10x.S:64
        j   DMA1_Channel6_IRQHandler   /* DMA1 Channel 6 */
  b8:	28a0006f          	j	342 <DMA1_Channel6_IRQHandler>
C:/flushbonading/MounRiver/EXE/Libraries/Device/CH32V10x_p/Startup/startup_ch32v10x.S:65
        j   DMA1_Channel7_IRQHandler   /* DMA1 Channel 7 */
  bc:	28a0006f          	j	346 <DMA1_Channel7_IRQHandler>
C:/flushbonading/MounRiver/EXE/Libraries/Device/CH32V10x_p/Startup/startup_ch32v10x.S:66
        j   ADC1_2_IRQHandler          /* ADC1_2 */
  c0:	0b40006f          	j	174 <ADC1_2_IRQHandler>
	...
C:/flushbonading/MounRiver/EXE/Libraries/Device/CH32V10x_p/Startup/startup_ch32v10x.S:71
        .word   0
        .word   0
        .word   0
        .word   0
        j   EXTI9_5_IRQHandler         /* EXTI Line 9..5 */
  d4:	0980006f          	j	16c <EXTI9_5_IRQHandler>
C:/flushbonading/MounRiver/EXE/Libraries/Device/CH32V10x_p/Startup/startup_ch32v10x.S:72
        j   TIM1_BRK_IRQHandler        /* TIM1 Break */
  d8:	0a00006f          	j	178 <TIM1_BRK_IRQHandler>
C:/flushbonading/MounRiver/EXE/Libraries/Device/CH32V10x_p/Startup/startup_ch32v10x.S:73
        j   TIM1_UP_IRQHandler         /* TIM1 Update */
  dc:	0c60006f          	j	1a2 <TIM1_UP_IRQHandler>
C:/flushbonading/MounRiver/EXE/Libraries/Device/CH32V10x_p/Startup/startup_ch32v10x.S:74
        j   TIM1_TRG_COM_IRQHandler    /* TIM1 Trigger and Commutation */
  e0:	0e80006f          	j	1c8 <TIM1_TRG_COM_IRQHandler>
C:/flushbonading/MounRiver/EXE/Libraries/Device/CH32V10x_p/Startup/startup_ch32v10x.S:75
        j   TIM1_CC_IRQHandler         /* TIM1 Capture Compare */
  e4:	12c0006f          	j	210 <TIM1_CC_IRQHandler>
C:/flushbonading/MounRiver/EXE/Libraries/Device/CH32V10x_p/Startup/startup_ch32v10x.S:76
        j   TIM2_IRQHandler            /* TIM2 */
  e8:	19c0006f          	j	284 <TIM2_IRQHandler>
C:/flushbonading/MounRiver/EXE/Libraries/Device/CH32V10x_p/Startup/startup_ch32v10x.S:77
        j   TIM3_IRQHandler            /* TIM3 */
  ec:	1b20006f          	j	29e <TIM3_IRQHandler>
C:/flushbonading/MounRiver/EXE/Libraries/Device/CH32V10x_p/Startup/startup_ch32v10x.S:78
        j   TIM4_IRQHandler            /* TIM4 */
  f0:	1d40006f          	j	2c4 <TIM4_IRQHandler>
C:/flushbonading/MounRiver/EXE/Libraries/Device/CH32V10x_p/Startup/startup_ch32v10x.S:79
        j   I2C1_EV_IRQHandler         /* I2C1 Event */
  f4:	f0dff06f          	j	0 <_sinit>
C:/flushbonading/MounRiver/EXE/Libraries/Device/CH32V10x_p/Startup/startup_ch32v10x.S:80
        j   I2C1_ER_IRQHandler         /* I2C1 Error */
  f8:	f09ff06f          	j	0 <_sinit>
C:/flushbonading/MounRiver/EXE/Libraries/Device/CH32V10x_p/Startup/startup_ch32v10x.S:81
        j   I2C2_EV_IRQHandler         /* I2C2 Event */
  fc:	f05ff06f          	j	0 <_sinit>
C:/flushbonading/MounRiver/EXE/Libraries/Device/CH32V10x_p/Startup/startup_ch32v10x.S:82
        j   I2C2_ER_IRQHandler         /* I2C2 Error */
 100:	f01ff06f          	j	0 <_sinit>
C:/flushbonading/MounRiver/EXE/Libraries/Device/CH32V10x_p/Startup/startup_ch32v10x.S:83
        j   SPI1_IRQHandler            /* SPI1 */
 104:	efdff06f          	j	0 <_sinit>
C:/flushbonading/MounRiver/EXE/Libraries/Device/CH32V10x_p/Startup/startup_ch32v10x.S:84
        j   SPI2_IRQHandler            /* SPI2 */
 108:	ef9ff06f          	j	0 <_sinit>
C:/flushbonading/MounRiver/EXE/Libraries/Device/CH32V10x_p/Startup/startup_ch32v10x.S:85
        j   USART1_IRQHandler          /* USART1 */
 10c:	1de0006f          	j	2ea <USART1_IRQHandler>
C:/flushbonading/MounRiver/EXE/Libraries/Device/CH32V10x_p/Startup/startup_ch32v10x.S:86
        j   USART2_IRQHandler          /* USART2 */
 110:	1de0006f          	j	2ee <USART2_IRQHandler>
C:/flushbonading/MounRiver/EXE/Libraries/Device/CH32V10x_p/Startup/startup_ch32v10x.S:87
        j   USART3_IRQHandler          /* USART3 */
 114:	2040006f          	j	318 <USART3_IRQHandler>
C:/flushbonading/MounRiver/EXE/Libraries/Device/CH32V10x_p/Startup/startup_ch32v10x.S:88
        j   EXTI15_10_IRQHandler       /* EXTI Line 15..10 */
 118:	0580006f          	j	170 <EXTI15_10_IRQHandler>
C:/flushbonading/MounRiver/EXE/Libraries/Device/CH32V10x_p/Startup/startup_ch32v10x.S:89
        j   RTCAlarm_IRQHandler        /* RTC Alarm through EXTI Line */
 11c:	ee5ff06f          	j	0 <_sinit>
C:/flushbonading/MounRiver/EXE/Libraries/Device/CH32V10x_p/Startup/startup_ch32v10x.S:90
        j   USBWakeUp_IRQHandler       /* USB Wakeup from suspend */
 120:	ee1ff06f          	j	0 <_sinit>
C:/flushbonading/MounRiver/EXE/Libraries/Device/CH32V10x_p/Startup/startup_ch32v10x.S:91
        j   USBHD_IRQHandler           /* USBHD */
 124:	eddff06f          	j	0 <_sinit>
	...

Disassembly of section .text:

00000140 <EXTI0_IRQHandler>:
EXTI0_IRQHandler():
     140:	30200073          	mret

00000144 <EXTI1_IRQHandler>:
EXTI1_IRQHandler():
C:/flushbonading/MounRiver/EXE/06-Car_buzzer/USER/src/isr.c:59

}

void EXTI1_IRQHandler(void)
{
    if(SET == EXTI_GetITStatus(EXTI_Line1))
     144:	4509                	li	a0,2
     146:	3c1000ef          	jal	ra,d06 <EXTI_GetITStatus>
     14a:	4785                	li	a5,1
     14c:	00f51563          	bne	a0,a5,156 <EXTI1_IRQHandler+0x12>
C:/flushbonading/MounRiver/EXE/06-Car_buzzer/USER/src/isr.c:65
    {
//        if(camera_type == CAMERA_BIN_UART)
//            ov7725_uart_vsync();
//        else if(camera_type == CAMERA_GRAYSCALE)
//            mt9v03x_vsync();
        EXTI_ClearITPendingBit(EXTI_Line1);
     150:	4509                	li	a0,2
     152:	3d3000ef          	jal	ra,d24 <EXTI_ClearITPendingBit>
C:/flushbonading/MounRiver/EXE/06-Car_buzzer/USER/src/isr.c:68
    }

}
     156:	30200073          	mret

0000015a <EXTI2_IRQHandler>:
EXTI2_IRQHandler():
C:/flushbonading/MounRiver/EXE/06-Car_buzzer/USER/src/isr.c:72

void EXTI2_IRQHandler(void)
{
    EXTI_ClearITPendingBit(EXTI_Line2);
     15a:	4511                	li	a0,4
     15c:	3c9000ef          	jal	ra,d24 <EXTI_ClearITPendingBit>
C:/flushbonading/MounRiver/EXE/06-Car_buzzer/USER/src/isr.c:73
}
     160:	30200073          	mret

00000164 <EXTI3_IRQHandler>:
EXTI3_IRQHandler():
     164:	30200073          	mret

00000168 <EXTI4_IRQHandler>:
EXTI4_IRQHandler():
     168:	30200073          	mret

0000016c <EXTI9_5_IRQHandler>:
EXTI9_5_IRQHandler():
     16c:	30200073          	mret

00000170 <EXTI15_10_IRQHandler>:
EXTI15_10_IRQHandler():
     170:	30200073          	mret

00000174 <ADC1_2_IRQHandler>:
ADC1_2_IRQHandler():
     174:	30200073          	mret

00000178 <TIM1_BRK_IRQHandler>:
TIM1_BRK_IRQHandler():
C:/flushbonading/MounRiver/EXE/06-Car_buzzer/USER/src/isr.c:105


}

void TIM1_BRK_IRQHandler(void)
{
     178:	1141                	addi	sp,sp,-16
     17a:	c622                	sw	s0,12(sp)
C:/flushbonading/MounRiver/EXE/06-Car_buzzer/USER/src/isr.c:106
    if(TIM_GetITStatus(TIM1, TIM_IT_Break) != RESET)
     17c:	40013437          	lui	s0,0x40013
     180:	08000593          	li	a1,128
     184:	c0040513          	addi	a0,s0,-1024 # 40012c00 <_eusrstack+0x2000dc00>
     188:	0d4010ef          	jal	ra,125c <TIM_GetITStatus>
     18c:	c519                	beqz	a0,19a <TIM1_BRK_IRQHandler+0x22>
C:/flushbonading/MounRiver/EXE/06-Car_buzzer/USER/src/isr.c:108
    {
        TIM_ClearITPendingBit(TIM1, TIM_IT_Break);
     18e:	08000593          	li	a1,128
     192:	c0040513          	addi	a0,s0,-1024
     196:	0e2010ef          	jal	ra,1278 <TIM_ClearITPendingBit>
C:/flushbonading/MounRiver/EXE/06-Car_buzzer/USER/src/isr.c:111

    }
}
     19a:	4432                	lw	s0,12(sp)
     19c:	0141                	addi	sp,sp,16
     19e:	30200073          	mret

000001a2 <TIM1_UP_IRQHandler>:
TIM1_UP_IRQHandler():
C:/flushbonading/MounRiver/EXE/06-Car_buzzer/USER/src/isr.c:114

void TIM1_UP_IRQHandler(void)
{
     1a2:	1141                	addi	sp,sp,-16
     1a4:	c622                	sw	s0,12(sp)
C:/flushbonading/MounRiver/EXE/06-Car_buzzer/USER/src/isr.c:115
    if(TIM_GetITStatus(TIM1, TIM_IT_Update) != RESET)
     1a6:	40013437          	lui	s0,0x40013
     1aa:	4585                	li	a1,1
     1ac:	c0040513          	addi	a0,s0,-1024 # 40012c00 <_eusrstack+0x2000dc00>
     1b0:	0ac010ef          	jal	ra,125c <TIM_GetITStatus>
     1b4:	c511                	beqz	a0,1c0 <TIM1_UP_IRQHandler+0x1e>
C:/flushbonading/MounRiver/EXE/06-Car_buzzer/USER/src/isr.c:117
    {
        TIM_ClearITPendingBit(TIM1, TIM_IT_Update);
     1b6:	4585                	li	a1,1
     1b8:	c0040513          	addi	a0,s0,-1024
     1bc:	0bc010ef          	jal	ra,1278 <TIM_ClearITPendingBit>
C:/flushbonading/MounRiver/EXE/06-Car_buzzer/USER/src/isr.c:120

    }
}
     1c0:	4432                	lw	s0,12(sp)
     1c2:	0141                	addi	sp,sp,16
     1c4:	30200073          	mret

000001c8 <TIM1_TRG_COM_IRQHandler>:
TIM1_TRG_COM_IRQHandler():
C:/flushbonading/MounRiver/EXE/06-Car_buzzer/USER/src/isr.c:123

void TIM1_TRG_COM_IRQHandler(void)
{
     1c8:	1141                	addi	sp,sp,-16
     1ca:	c622                	sw	s0,12(sp)
C:/flushbonading/MounRiver/EXE/06-Car_buzzer/USER/src/isr.c:124
    if(TIM_GetITStatus(TIM1, TIM_IT_Trigger) != RESET)
     1cc:	40013437          	lui	s0,0x40013
     1d0:	04000593          	li	a1,64
     1d4:	c0040513          	addi	a0,s0,-1024 # 40012c00 <_eusrstack+0x2000dc00>
     1d8:	084010ef          	jal	ra,125c <TIM_GetITStatus>
     1dc:	c519                	beqz	a0,1ea <TIM1_TRG_COM_IRQHandler+0x22>
C:/flushbonading/MounRiver/EXE/06-Car_buzzer/USER/src/isr.c:126
    {
        TIM_ClearITPendingBit(TIM1, TIM_IT_Trigger);
     1de:	04000593          	li	a1,64
     1e2:	c0040513          	addi	a0,s0,-1024
     1e6:	092010ef          	jal	ra,1278 <TIM_ClearITPendingBit>
C:/flushbonading/MounRiver/EXE/06-Car_buzzer/USER/src/isr.c:129

    }
    if(TIM_GetITStatus(TIM1, TIM_IT_COM) != RESET)
     1ea:	40013437          	lui	s0,0x40013
     1ee:	02000593          	li	a1,32
     1f2:	c0040513          	addi	a0,s0,-1024 # 40012c00 <_eusrstack+0x2000dc00>
     1f6:	066010ef          	jal	ra,125c <TIM_GetITStatus>
     1fa:	c519                	beqz	a0,208 <TIM1_TRG_COM_IRQHandler+0x40>
C:/flushbonading/MounRiver/EXE/06-Car_buzzer/USER/src/isr.c:131
    {
        TIM_ClearITPendingBit(TIM1, TIM_IT_COM);
     1fc:	02000593          	li	a1,32
     200:	c0040513          	addi	a0,s0,-1024
     204:	074010ef          	jal	ra,1278 <TIM_ClearITPendingBit>
C:/flushbonading/MounRiver/EXE/06-Car_buzzer/USER/src/isr.c:134

    }
}
     208:	4432                	lw	s0,12(sp)
     20a:	0141                	addi	sp,sp,16
     20c:	30200073          	mret

00000210 <TIM1_CC_IRQHandler>:
TIM1_CC_IRQHandler():
C:/flushbonading/MounRiver/EXE/06-Car_buzzer/USER/src/isr.c:137

void TIM1_CC_IRQHandler(void)
{
     210:	1141                	addi	sp,sp,-16
     212:	c622                	sw	s0,12(sp)
C:/flushbonading/MounRiver/EXE/06-Car_buzzer/USER/src/isr.c:138
    if(TIM_GetITStatus(TIM1, TIM_IT_CC1) != RESET)
     214:	40013437          	lui	s0,0x40013
     218:	4589                	li	a1,2
     21a:	c0040513          	addi	a0,s0,-1024 # 40012c00 <_eusrstack+0x2000dc00>
     21e:	03e010ef          	jal	ra,125c <TIM_GetITStatus>
     222:	c511                	beqz	a0,22e <TIM1_CC_IRQHandler+0x1e>
C:/flushbonading/MounRiver/EXE/06-Car_buzzer/USER/src/isr.c:140
    {
        TIM_ClearITPendingBit(TIM1, TIM_IT_CC1);
     224:	4589                	li	a1,2
     226:	c0040513          	addi	a0,s0,-1024
     22a:	04e010ef          	jal	ra,1278 <TIM_ClearITPendingBit>
C:/flushbonading/MounRiver/EXE/06-Car_buzzer/USER/src/isr.c:143

    }
    if(TIM_GetITStatus(TIM1, TIM_IT_CC2) != RESET)
     22e:	40013437          	lui	s0,0x40013
     232:	4591                	li	a1,4
     234:	c0040513          	addi	a0,s0,-1024 # 40012c00 <_eusrstack+0x2000dc00>
     238:	024010ef          	jal	ra,125c <TIM_GetITStatus>
     23c:	c511                	beqz	a0,248 <TIM1_CC_IRQHandler+0x38>
C:/flushbonading/MounRiver/EXE/06-Car_buzzer/USER/src/isr.c:145
    {
        TIM_ClearITPendingBit(TIM1, TIM_IT_CC2);
     23e:	4591                	li	a1,4
     240:	c0040513          	addi	a0,s0,-1024
     244:	034010ef          	jal	ra,1278 <TIM_ClearITPendingBit>
C:/flushbonading/MounRiver/EXE/06-Car_buzzer/USER/src/isr.c:148

    }
    if(TIM_GetITStatus(TIM1, TIM_IT_CC3) != RESET)
     248:	40013437          	lui	s0,0x40013
     24c:	45a1                	li	a1,8
     24e:	c0040513          	addi	a0,s0,-1024 # 40012c00 <_eusrstack+0x2000dc00>
     252:	00a010ef          	jal	ra,125c <TIM_GetITStatus>
     256:	c511                	beqz	a0,262 <TIM1_CC_IRQHandler+0x52>
C:/flushbonading/MounRiver/EXE/06-Car_buzzer/USER/src/isr.c:150
    {
        TIM_ClearITPendingBit(TIM1, TIM_IT_CC3);
     258:	45a1                	li	a1,8
     25a:	c0040513          	addi	a0,s0,-1024
     25e:	01a010ef          	jal	ra,1278 <TIM_ClearITPendingBit>
C:/flushbonading/MounRiver/EXE/06-Car_buzzer/USER/src/isr.c:153

    }
    if(TIM_GetITStatus(TIM1, TIM_IT_CC4) != RESET)
     262:	40013437          	lui	s0,0x40013
     266:	45c1                	li	a1,16
     268:	c0040513          	addi	a0,s0,-1024 # 40012c00 <_eusrstack+0x2000dc00>
     26c:	7f1000ef          	jal	ra,125c <TIM_GetITStatus>
     270:	c511                	beqz	a0,27c <TIM1_CC_IRQHandler+0x6c>
C:/flushbonading/MounRiver/EXE/06-Car_buzzer/USER/src/isr.c:155
    {
        TIM_ClearITPendingBit(TIM1, TIM_IT_CC4);
     272:	45c1                	li	a1,16
     274:	c0040513          	addi	a0,s0,-1024
     278:	000010ef          	jal	ra,1278 <TIM_ClearITPendingBit>
C:/flushbonading/MounRiver/EXE/06-Car_buzzer/USER/src/isr.c:158

    }
}
     27c:	4432                	lw	s0,12(sp)
     27e:	0141                	addi	sp,sp,16
     280:	30200073          	mret

00000284 <TIM2_IRQHandler>:
TIM2_IRQHandler():
C:/flushbonading/MounRiver/EXE/06-Car_buzzer/USER/src/isr.c:163

void TIM2_IRQHandler(void)
{

    if(TIM_GetITStatus(TIM2, TIM_IT_Update) != RESET)
     284:	4585                	li	a1,1
     286:	40000537          	lui	a0,0x40000
     28a:	7d3000ef          	jal	ra,125c <TIM_GetITStatus>
     28e:	c511                	beqz	a0,29a <TIM2_IRQHandler+0x16>
C:/flushbonading/MounRiver/EXE/06-Car_buzzer/USER/src/isr.c:165
    {
        TIM_ClearITPendingBit(TIM2, TIM_IT_Update );
     290:	4585                	li	a1,1
     292:	40000537          	lui	a0,0x40000
     296:	7e3000ef          	jal	ra,1278 <TIM_ClearITPendingBit>
C:/flushbonading/MounRiver/EXE/06-Car_buzzer/USER/src/isr.c:171
        //ccd_collect();//CCD数据采集
        //gpio_toggle(B5);
        //GPIO_PIN_RESET(B5);
        //GPIO_PIN_SET(B5);
    }
}
     29a:	30200073          	mret

0000029e <TIM3_IRQHandler>:
TIM3_IRQHandler():
C:/flushbonading/MounRiver/EXE/06-Car_buzzer/USER/src/isr.c:174

void TIM3_IRQHandler(void)
{
     29e:	1141                	addi	sp,sp,-16
     2a0:	c622                	sw	s0,12(sp)
C:/flushbonading/MounRiver/EXE/06-Car_buzzer/USER/src/isr.c:175
    if(TIM_GetITStatus(TIM3, TIM_IT_Update) != RESET)
     2a2:	40000437          	lui	s0,0x40000
     2a6:	4585                	li	a1,1
     2a8:	40040513          	addi	a0,s0,1024 # 40000400 <_eusrstack+0x1fffb400>
     2ac:	7b1000ef          	jal	ra,125c <TIM_GetITStatus>
     2b0:	c511                	beqz	a0,2bc <TIM3_IRQHandler+0x1e>
C:/flushbonading/MounRiver/EXE/06-Car_buzzer/USER/src/isr.c:177
    {
        TIM_ClearITPendingBit(TIM3, TIM_IT_Update );
     2b2:	4585                	li	a1,1
     2b4:	40040513          	addi	a0,s0,1024
     2b8:	7c1000ef          	jal	ra,1278 <TIM_ClearITPendingBit>
C:/flushbonading/MounRiver/EXE/06-Car_buzzer/USER/src/isr.c:180

    }
}
     2bc:	4432                	lw	s0,12(sp)
     2be:	0141                	addi	sp,sp,16
     2c0:	30200073          	mret

000002c4 <TIM4_IRQHandler>:
TIM4_IRQHandler():
C:/flushbonading/MounRiver/EXE/06-Car_buzzer/USER/src/isr.c:183

void TIM4_IRQHandler(void)
{
     2c4:	1141                	addi	sp,sp,-16
     2c6:	c622                	sw	s0,12(sp)
C:/flushbonading/MounRiver/EXE/06-Car_buzzer/USER/src/isr.c:184
    if(TIM_GetITStatus(TIM4, TIM_IT_Update) != RESET)
     2c8:	40001437          	lui	s0,0x40001
     2cc:	4585                	li	a1,1
     2ce:	80040513          	addi	a0,s0,-2048 # 40000800 <_eusrstack+0x1fffb800>
     2d2:	78b000ef          	jal	ra,125c <TIM_GetITStatus>
     2d6:	c511                	beqz	a0,2e2 <TIM4_IRQHandler+0x1e>
C:/flushbonading/MounRiver/EXE/06-Car_buzzer/USER/src/isr.c:186
    {
        TIM_ClearITPendingBit(TIM4, TIM_IT_Update );
     2d8:	4585                	li	a1,1
     2da:	80040513          	addi	a0,s0,-2048
     2de:	79b000ef          	jal	ra,1278 <TIM_ClearITPendingBit>
C:/flushbonading/MounRiver/EXE/06-Car_buzzer/USER/src/isr.c:189

    }
}
     2e2:	4432                	lw	s0,12(sp)
     2e4:	0141                	addi	sp,sp,16
     2e6:	30200073          	mret

000002ea <USART1_IRQHandler>:
USART1_IRQHandler():
     2ea:	30200073          	mret

000002ee <USART2_IRQHandler>:
USART2_IRQHandler():
C:/flushbonading/MounRiver/EXE/06-Car_buzzer/USER/src/isr.c:197
{

}

void USART2_IRQHandler(void)
{
     2ee:	1141                	addi	sp,sp,-16
     2f0:	c622                	sw	s0,12(sp)
C:/flushbonading/MounRiver/EXE/06-Car_buzzer/USER/src/isr.c:198
    if(USART_GetITStatus(USART2, USART_IT_RXNE) != RESET)
     2f2:	40004437          	lui	s0,0x40004
     2f6:	52500593          	li	a1,1317
     2fa:	40040513          	addi	a0,s0,1024 # 40004400 <_eusrstack+0x1ffff400>
     2fe:	07c010ef          	jal	ra,137a <USART_GetITStatus>
     302:	c519                	beqz	a0,310 <USART2_IRQHandler+0x22>
C:/flushbonading/MounRiver/EXE/06-Car_buzzer/USER/src/isr.c:200
    {
        USART_ClearITPendingBit(USART2, USART_IT_RXNE);
     304:	52500593          	li	a1,1317
     308:	40040513          	addi	a0,s0,1024
     30c:	0b2010ef          	jal	ra,13be <USART_ClearITPendingBit>
C:/flushbonading/MounRiver/EXE/06-Car_buzzer/USER/src/isr.c:206
//        if(camera_type == CAMERA_BIN_UART)
//            ov7725_cof_uart_interrupt();
//        else if(camera_type == CAMERA_GRAYSCALE)
//            mt9v03x_uart_callback();
    }
}
     310:	4432                	lw	s0,12(sp)
     312:	0141                	addi	sp,sp,16
     314:	30200073          	mret

00000318 <USART3_IRQHandler>:
USART3_IRQHandler():
     318:	30200073          	mret

0000031c <DMA1_Channel1_IRQHandler>:
DMA1_Channel1_IRQHandler():
     31c:	30200073          	mret

00000320 <DMA1_Channel2_IRQHandler>:
DMA1_Channel2_IRQHandler():
     320:	30200073          	mret

00000324 <DMA1_Channel3_IRQHandler>:
DMA1_Channel3_IRQHandler():
     324:	30200073          	mret

00000328 <DMA1_Channel4_IRQHandler>:
DMA1_Channel4_IRQHandler():
C:/flushbonading/MounRiver/EXE/06-Car_buzzer/USER/src/isr.c:230

}

void DMA1_Channel4_IRQHandler(void)
{
    if(SET == DMA_GetFlagStatus(DMA1_FLAG_TC4))
     328:	6509                	lui	a0,0x2
     32a:	1a3000ef          	jal	ra,ccc <DMA_GetFlagStatus>
     32e:	4785                	li	a5,1
     330:	00f51563          	bne	a0,a5,33a <DMA1_Channel4_IRQHandler+0x12>
C:/flushbonading/MounRiver/EXE/06-Car_buzzer/USER/src/isr.c:232
    {
        DMA_ClearFlag(DMA1_FLAG_TC4);
     334:	6509                	lui	a0,0x2
     336:	1b7000ef          	jal	ra,cec <DMA_ClearFlag>
C:/flushbonading/MounRiver/EXE/06-Car_buzzer/USER/src/isr.c:234
    }
}
     33a:	30200073          	mret

0000033e <DMA1_Channel5_IRQHandler>:
DMA1_Channel5_IRQHandler():
     33e:	30200073          	mret

00000342 <DMA1_Channel6_IRQHandler>:
DMA1_Channel6_IRQHandler():
     342:	30200073          	mret

00000346 <DMA1_Channel7_IRQHandler>:
DMA1_Channel7_IRQHandler():
     346:	30200073          	mret

0000034a <NMI_Handler>:
NMI_Handler():
C:/flushbonading/MounRiver/EXE/06-Car_buzzer/USER/src/isr.c:260
* Return         : None
*******************************************************************************/
void NMI_Handler(void)
{

}
     34a:	30200073          	mret

0000034e <HardFault_Handler>:
HardFault_Handler():
C:/flushbonading/MounRiver/EXE/06-Car_buzzer/USER/src/isr.c:273 (discriminator 1)
void HardFault_Handler(void)
{

  while (1)
  {
  }
     34e:	a001                	j	34e <HardFault_Handler>

00000350 <main>:
main():
C:/flushbonading/MounRiver/EXE/06-Car_buzzer/USER/src/main.c:26
* 5. 如果需要写一些说明性的文档，可以放在doc文件夹的readme中

************************************************************************************************/

int main()
{
     350:	1141                	addi	sp,sp,-16
     352:	c606                	sw	ra,12(sp)
C:/flushbonading/MounRiver/EXE/06-Car_buzzer/USER/src/main.c:30
    /* 此处声明需要用到的局部变量 */

    /* 智能车初始化 */
    car_init();
     354:	0d9000ef          	jal	ra,c2c <car_init>
C:/flushbonading/MounRiver/EXE/06-Car_buzzer/USER/src/main.c:32

    buzzer_duty(50);          //设置占空比为50%
     358:	03200513          	li	a0,50
     35c:	0c5000ef          	jal	ra,c20 <buzzer_duty>
C:/flushbonading/MounRiver/EXE/06-Car_buzzer/USER/src/main.c:38 (discriminator 1)

    /* 此处编写单次运行的代码(例如：初始化代码等) */

    while(1)
    {
        buzzer_freq(DO);      //设置频率为262Hz
     360:	10600513          	li	a0,262
     364:	0b7000ef          	jal	ra,c1a <buzzer_freq>
C:/flushbonading/MounRiver/EXE/06-Car_buzzer/USER/src/main.c:39 (discriminator 1)
        Delay_Ms(1000);
     368:	3e800513          	li	a0,1000
     36c:	2a75                	jal	528 <Delay_Ms>
C:/flushbonading/MounRiver/EXE/06-Car_buzzer/USER/src/main.c:40 (discriminator 1)
        buzzer_freq(RE);      //设置频率为294Hz
     36e:	12600513          	li	a0,294
     372:	0a9000ef          	jal	ra,c1a <buzzer_freq>
C:/flushbonading/MounRiver/EXE/06-Car_buzzer/USER/src/main.c:41 (discriminator 1)
        Delay_Ms(1000);
     376:	3e800513          	li	a0,1000
     37a:	227d                	jal	528 <Delay_Ms>
C:/flushbonading/MounRiver/EXE/06-Car_buzzer/USER/src/main.c:42 (discriminator 1)
        buzzer_freq(MI);      //设置频率为330Hz
     37c:	14a00513          	li	a0,330
     380:	09b000ef          	jal	ra,c1a <buzzer_freq>
C:/flushbonading/MounRiver/EXE/06-Car_buzzer/USER/src/main.c:43 (discriminator 1)
        Delay_Ms(1000);
     384:	3e800513          	li	a0,1000
     388:	2245                	jal	528 <Delay_Ms>
C:/flushbonading/MounRiver/EXE/06-Car_buzzer/USER/src/main.c:44 (discriminator 1)
        buzzer_freq(FA);      //设置频率为370Hz
     38a:	17200513          	li	a0,370
     38e:	08d000ef          	jal	ra,c1a <buzzer_freq>
C:/flushbonading/MounRiver/EXE/06-Car_buzzer/USER/src/main.c:45 (discriminator 1)
        Delay_Ms(1000);
     392:	3e800513          	li	a0,1000
     396:	2a49                	jal	528 <Delay_Ms>
C:/flushbonading/MounRiver/EXE/06-Car_buzzer/USER/src/main.c:46 (discriminator 1)
        buzzer_freq(SO);      //设置频率为415Hz
     398:	19f00513          	li	a0,415
     39c:	07f000ef          	jal	ra,c1a <buzzer_freq>
C:/flushbonading/MounRiver/EXE/06-Car_buzzer/USER/src/main.c:47 (discriminator 1)
        Delay_Ms(1000);
     3a0:	3e800513          	li	a0,1000
     3a4:	2251                	jal	528 <Delay_Ms>
C:/flushbonading/MounRiver/EXE/06-Car_buzzer/USER/src/main.c:48 (discriminator 1)
        buzzer_freq(LA);      //设置频率为466Hz
     3a6:	1d200513          	li	a0,466
     3aa:	071000ef          	jal	ra,c1a <buzzer_freq>
C:/flushbonading/MounRiver/EXE/06-Car_buzzer/USER/src/main.c:49 (discriminator 1)
        Delay_Ms(1000);
     3ae:	3e800513          	li	a0,1000
     3b2:	2a9d                	jal	528 <Delay_Ms>
C:/flushbonading/MounRiver/EXE/06-Car_buzzer/USER/src/main.c:50 (discriminator 1)
        buzzer_freq(SI);      //设置频率为521Hz
     3b4:	20900513          	li	a0,521
     3b8:	063000ef          	jal	ra,c1a <buzzer_freq>
C:/flushbonading/MounRiver/EXE/06-Car_buzzer/USER/src/main.c:51 (discriminator 1)
        Delay_Ms(1000);
     3bc:	3e800513          	li	a0,1000
     3c0:	22a5                	jal	528 <Delay_Ms>
     3c2:	bf79                	j	360 <main+0x10>

000003c4 <board_init>:
board_init():
C:/flushbonading/MounRiver/EXE/Libraries/hefei_libraries/board/board.c:22
//  Sample usage:              board_init();
//-------------------------------------------------------------------------------------------------------------------
void board_init(void)
{
    //获取系统主频
    sys_clk = 8000000 * (((RCC->CFGR0 >> 18)&0x0F) + 2);
     3c4:	400217b7          	lui	a5,0x40021
     3c8:	43dc                	lw	a5,4(a5)
     3ca:	007a1737          	lui	a4,0x7a1
     3ce:	20070713          	addi	a4,a4,512 # 7a1200 <_data_lma+0x79fdfc>
     3d2:	83c9                	srli	a5,a5,0x12
     3d4:	8bbd                	andi	a5,a5,15
     3d6:	02e787b3          	mul	a5,a5,a4
     3da:	00f42737          	lui	a4,0xf42
     3de:	40070713          	addi	a4,a4,1024 # f42400 <_data_lma+0xf40ffc>
C:/flushbonading/MounRiver/EXE/Libraries/hefei_libraries/board/board.c:24
    //初始化DEBUG串口
    uart_init(DEBUG_UART, DEBUG_UART_BAUD, DEBUG_UART_TX_PIN, DEBUG_UART_RX_PIN);
     3e2:	65f1                	lui	a1,0x1c
     3e4:	4685                	li	a3,1
     3e6:	4601                	li	a2,0
     3e8:	20058593          	addi	a1,a1,512 # 1c200 <_data_lma+0x1adfc>
     3ec:	4501                	li	a0,0
C:/flushbonading/MounRiver/EXE/Libraries/hefei_libraries/board/board.c:22
    sys_clk = 8000000 * (((RCC->CFGR0 >> 18)&0x0F) + 2);
     3ee:	97ba                	add	a5,a5,a4
     3f0:	20000737          	lui	a4,0x20000
     3f4:	00f72c23          	sw	a5,24(a4) # 20000018 <_edata>
C:/flushbonading/MounRiver/EXE/Libraries/hefei_libraries/board/board.c:24
    uart_init(DEBUG_UART, DEBUG_UART_BAUD, DEBUG_UART_TX_PIN, DEBUG_UART_RX_PIN);
     3f8:	7a40006f          	j	b9c <uart_init>

000003fc <SystemInit>:
SystemInit():
C:/flushbonading/MounRiver/EXE/Libraries/hefei_libraries/board/clock_config.c:94
* Input          : None
* Return         : None
*******************************************************************************************/
void SystemInit (void)
{
    RCC->CTLR |= (uint32_t)0x00000001;
     3fc:	400217b7          	lui	a5,0x40021
     400:	4398                	lw	a4,0(a5)
C:/flushbonading/MounRiver/EXE/Libraries/hefei_libraries/board/clock_config.c:95
    RCC->CFGR0 &= (uint32_t)0xF8FF0000;
     402:	f8ff06b7          	lui	a3,0xf8ff0
C:/flushbonading/MounRiver/EXE/Libraries/hefei_libraries/board/clock_config.c:93
{
     406:	1141                	addi	sp,sp,-16
C:/flushbonading/MounRiver/EXE/Libraries/hefei_libraries/board/clock_config.c:94
    RCC->CTLR |= (uint32_t)0x00000001;
     408:	00176713          	ori	a4,a4,1
     40c:	c398                	sw	a4,0(a5)
C:/flushbonading/MounRiver/EXE/Libraries/hefei_libraries/board/clock_config.c:95
    RCC->CFGR0 &= (uint32_t)0xF8FF0000;
     40e:	43d8                	lw	a4,4(a5)
SetSysClock():
C:/flushbonading/MounRiver/EXE/Libraries/hefei_libraries/board/clock_config.c:28
        HSEStatus = RCC->CTLR & RCC_HSERDY;
     410:	00020637          	lui	a2,0x20
SystemInit():
C:/flushbonading/MounRiver/EXE/Libraries/hefei_libraries/board/clock_config.c:95
    RCC->CFGR0 &= (uint32_t)0xF8FF0000;
     414:	8f75                	and	a4,a4,a3
     416:	c3d8                	sw	a4,4(a5)
C:/flushbonading/MounRiver/EXE/Libraries/hefei_libraries/board/clock_config.c:96
    RCC->CTLR &= (uint32_t)0xFEF6FFFF;
     418:	4398                	lw	a4,0(a5)
     41a:	fef706b7          	lui	a3,0xfef70
     41e:	16fd                	addi	a3,a3,-1
     420:	8f75                	and	a4,a4,a3
     422:	c398                	sw	a4,0(a5)
C:/flushbonading/MounRiver/EXE/Libraries/hefei_libraries/board/clock_config.c:97
    RCC->CTLR &= (uint32_t)0xFFFBFFFF;
     424:	4398                	lw	a4,0(a5)
     426:	fffc06b7          	lui	a3,0xfffc0
     42a:	16fd                	addi	a3,a3,-1
     42c:	8f75                	and	a4,a4,a3
     42e:	c398                	sw	a4,0(a5)
C:/flushbonading/MounRiver/EXE/Libraries/hefei_libraries/board/clock_config.c:98
    RCC->CFGR0 &= (uint32_t)0xFF80FFFF;
     430:	43d8                	lw	a4,4(a5)
     432:	ff8106b7          	lui	a3,0xff810
     436:	16fd                	addi	a3,a3,-1
     438:	8f75                	and	a4,a4,a3
     43a:	c3d8                	sw	a4,4(a5)
C:/flushbonading/MounRiver/EXE/Libraries/hefei_libraries/board/clock_config.c:99
    RCC->INTR = 0x009F0000;
     43c:	009f0737          	lui	a4,0x9f0
     440:	c798                	sw	a4,8(a5)
SetSysClock():
C:/flushbonading/MounRiver/EXE/Libraries/hefei_libraries/board/clock_config.c:21
    __IO uint32_t StartUpCounter = 0, HSEStatus = 0;
     442:	c402                	sw	zero,8(sp)
     444:	c602                	sw	zero,12(sp)
C:/flushbonading/MounRiver/EXE/Libraries/hefei_libraries/board/clock_config.c:23
    RCC->CTLR |= ((uint32_t)RCC_HSEON);
     446:	4398                	lw	a4,0(a5)
     448:	66c1                	lui	a3,0x10
     44a:	8f55                	or	a4,a4,a3
     44c:	c398                	sw	a4,0(a5)
C:/flushbonading/MounRiver/EXE/Libraries/hefei_libraries/board/clock_config.c:28
        HSEStatus = RCC->CTLR & RCC_HSERDY;
     44e:	400216b7          	lui	a3,0x40021
C:/flushbonading/MounRiver/EXE/Libraries/hefei_libraries/board/clock_config.c:30
    } while((HSEStatus == 0) && (StartUpCounter != HSE_STARTUP_TIMEOUT));
     452:	50000713          	li	a4,1280
C:/flushbonading/MounRiver/EXE/Libraries/hefei_libraries/board/clock_config.c:28
        HSEStatus = RCC->CTLR & RCC_HSERDY;
     456:	429c                	lw	a5,0(a3)
     458:	8ff1                	and	a5,a5,a2
     45a:	c63e                	sw	a5,12(sp)
C:/flushbonading/MounRiver/EXE/Libraries/hefei_libraries/board/clock_config.c:29
        StartUpCounter++;
     45c:	47a2                	lw	a5,8(sp)
     45e:	0785                	addi	a5,a5,1
     460:	c43e                	sw	a5,8(sp)
C:/flushbonading/MounRiver/EXE/Libraries/hefei_libraries/board/clock_config.c:30
    } while((HSEStatus == 0) && (StartUpCounter != HSE_STARTUP_TIMEOUT));
     462:	47b2                	lw	a5,12(sp)
     464:	e781                	bnez	a5,46c <SystemInit+0x70>
     466:	47a2                	lw	a5,8(sp)
     468:	fee797e3          	bne	a5,a4,456 <SystemInit+0x5a>
C:/flushbonading/MounRiver/EXE/Libraries/hefei_libraries/board/clock_config.c:32
    if ((RCC->CTLR & RCC_HSERDY) != RESET)
     46c:	400217b7          	lui	a5,0x40021
     470:	439c                	lw	a5,0(a5)
     472:	00e79713          	slli	a4,a5,0xe
     476:	08075263          	bgez	a4,4fa <SystemInit+0xfe>
C:/flushbonading/MounRiver/EXE/Libraries/hefei_libraries/board/clock_config.c:34
        HSEStatus = (uint32_t)0x01;
     47a:	4785                	li	a5,1
     47c:	c63e                	sw	a5,12(sp)
C:/flushbonading/MounRiver/EXE/Libraries/hefei_libraries/board/clock_config.c:41
    if (HSEStatus == (uint32_t)0x01)
     47e:	4732                	lw	a4,12(sp)
     480:	4785                	li	a5,1
     482:	06f71a63          	bne	a4,a5,4f6 <SystemInit+0xfa>
C:/flushbonading/MounRiver/EXE/Libraries/hefei_libraries/board/clock_config.c:44
        FLASH->ACTLR |= FLASH_ACTLR_PRFTBE;
     486:	400227b7          	lui	a5,0x40022
     48a:	4398                	lw	a4,0(a5)
C:/flushbonading/MounRiver/EXE/Libraries/hefei_libraries/board/clock_config.c:58
        RCC->CFGR0 &= (uint32_t)((uint32_t)~(RCC_PLLSRC | RCC_PLLXTPRE |
     48c:	ffc106b7          	lui	a3,0xffc10
     490:	16fd                	addi	a3,a3,-1
C:/flushbonading/MounRiver/EXE/Libraries/hefei_libraries/board/clock_config.c:44
        FLASH->ACTLR |= FLASH_ACTLR_PRFTBE;
     492:	01076713          	ori	a4,a4,16
     496:	c398                	sw	a4,0(a5)
C:/flushbonading/MounRiver/EXE/Libraries/hefei_libraries/board/clock_config.c:47
        FLASH->ACTLR &= (uint32_t)((uint32_t)~FLASH_ACTLR_LATENCY);
     498:	4398                	lw	a4,0(a5)
     49a:	9b71                	andi	a4,a4,-4
     49c:	c398                	sw	a4,0(a5)
C:/flushbonading/MounRiver/EXE/Libraries/hefei_libraries/board/clock_config.c:48
        FLASH->ACTLR |= (uint32_t)FLASH_ACTLR_LATENCY_2;
     49e:	4398                	lw	a4,0(a5)
     4a0:	00276713          	ori	a4,a4,2
     4a4:	c398                	sw	a4,0(a5)
C:/flushbonading/MounRiver/EXE/Libraries/hefei_libraries/board/clock_config.c:51
        RCC->CFGR0 |= (uint32_t)RCC_HPRE_DIV1;
     4a6:	400217b7          	lui	a5,0x40021
     4aa:	43d8                	lw	a4,4(a5)
     4ac:	c3d8                	sw	a4,4(a5)
C:/flushbonading/MounRiver/EXE/Libraries/hefei_libraries/board/clock_config.c:53
        RCC->CFGR0 |= (uint32_t)RCC_PPRE2_DIV1;
     4ae:	43d8                	lw	a4,4(a5)
     4b0:	c3d8                	sw	a4,4(a5)
C:/flushbonading/MounRiver/EXE/Libraries/hefei_libraries/board/clock_config.c:55
        RCC->CFGR0 |= (uint32_t)RCC_PPRE1_DIV1;
     4b2:	43d8                	lw	a4,4(a5)
     4b4:	c3d8                	sw	a4,4(a5)
C:/flushbonading/MounRiver/EXE/Libraries/hefei_libraries/board/clock_config.c:58
        RCC->CFGR0 &= (uint32_t)((uint32_t)~(RCC_PLLSRC | RCC_PLLXTPRE |
     4b6:	43d8                	lw	a4,4(a5)
     4b8:	8f75                	and	a4,a4,a3
     4ba:	c3d8                	sw	a4,4(a5)
C:/flushbonading/MounRiver/EXE/Libraries/hefei_libraries/board/clock_config.c:61
        RCC->CFGR0 |= (uint32_t)(RCC_PLLSRC_HSE | RCC_PLLMULL11);
     4bc:	43d8                	lw	a4,4(a5)
     4be:	002506b7          	lui	a3,0x250
     4c2:	8f55                	or	a4,a4,a3
     4c4:	c3d8                	sw	a4,4(a5)
C:/flushbonading/MounRiver/EXE/Libraries/hefei_libraries/board/clock_config.c:63
        RCC->CTLR |= RCC_PLLON;
     4c6:	4398                	lw	a4,0(a5)
     4c8:	010006b7          	lui	a3,0x1000
     4cc:	8f55                	or	a4,a4,a3
     4ce:	c398                	sw	a4,0(a5)
C:/flushbonading/MounRiver/EXE/Libraries/hefei_libraries/board/clock_config.c:65
        while((RCC->CTLR & RCC_PLLRDY) == 0)
     4d0:	4398                	lw	a4,0(a5)
     4d2:	00671693          	slli	a3,a4,0x6
     4d6:	fe06dde3          	bgez	a3,4d0 <SystemInit+0xd4>
C:/flushbonading/MounRiver/EXE/Libraries/hefei_libraries/board/clock_config.c:69
        RCC->CFGR0 &= (uint32_t)((uint32_t)~(RCC_SW));
     4da:	43d8                	lw	a4,4(a5)
C:/flushbonading/MounRiver/EXE/Libraries/hefei_libraries/board/clock_config.c:72
        while ((RCC->CFGR0 & (uint32_t)RCC_SWS) != (uint32_t)0x08)
     4dc:	400216b7          	lui	a3,0x40021
C:/flushbonading/MounRiver/EXE/Libraries/hefei_libraries/board/clock_config.c:69
        RCC->CFGR0 &= (uint32_t)((uint32_t)~(RCC_SW));
     4e0:	9b71                	andi	a4,a4,-4
     4e2:	c3d8                	sw	a4,4(a5)
C:/flushbonading/MounRiver/EXE/Libraries/hefei_libraries/board/clock_config.c:70
        RCC->CFGR0 |= (uint32_t)RCC_SW_PLL;
     4e4:	43d8                	lw	a4,4(a5)
     4e6:	00276713          	ori	a4,a4,2
     4ea:	c3d8                	sw	a4,4(a5)
C:/flushbonading/MounRiver/EXE/Libraries/hefei_libraries/board/clock_config.c:72
        while ((RCC->CFGR0 & (uint32_t)RCC_SWS) != (uint32_t)0x08)
     4ec:	4721                	li	a4,8
     4ee:	42dc                	lw	a5,4(a3)
     4f0:	8bb1                	andi	a5,a5,12
     4f2:	fee79ee3          	bne	a5,a4,4ee <SystemInit+0xf2>
SystemInit():
C:/flushbonading/MounRiver/EXE/Libraries/hefei_libraries/board/clock_config.c:101
    SetSysClock();
}
     4f6:	0141                	addi	sp,sp,16
     4f8:	8082                	ret
SetSysClock():
C:/flushbonading/MounRiver/EXE/Libraries/hefei_libraries/board/clock_config.c:38
        HSEStatus = (uint32_t)0x00;
     4fa:	c602                	sw	zero,12(sp)
     4fc:	b749                	j	47e <SystemInit+0x82>

000004fe <Delay_Init>:
Delay_Init():
C:/flushbonading/MounRiver/EXE/Libraries/hefei_libraries/delay.c:24
//  @return     void
//  Sample usage:           Delay_Init();
//-------------------------------------------------------------------------------------------------------------------
void Delay_Init(void)
{
    p_us=sys_clk/8000000;
     4fe:	200007b7          	lui	a5,0x20000
     502:	0187a783          	lw	a5,24(a5) # 20000018 <_edata>
     506:	007a1737          	lui	a4,0x7a1
     50a:	20070713          	addi	a4,a4,512 # 7a1200 <_data_lma+0x79fdfc>
     50e:	02e7d7b3          	divu	a5,a5,a4
     512:	0ff7f793          	andi	a5,a5,255
     516:	80f18723          	sb	a5,-2034(gp) # 2000001e <p_us>
C:/flushbonading/MounRiver/EXE/Libraries/hefei_libraries/delay.c:25
    p_ms=(uint16_t)p_us*1000;
     51a:	3e800713          	li	a4,1000
     51e:	02e787b3          	mul	a5,a5,a4
     522:	80f19623          	sh	a5,-2036(gp) # 2000001c <p_ms>
C:/flushbonading/MounRiver/EXE/Libraries/hefei_libraries/delay.c:26
}
     526:	8082                	ret

00000528 <Delay_Ms>:
Delay_Ms():
C:/flushbonading/MounRiver/EXE/Libraries/hefei_libraries/delay.c:61
//-------------------------------------------------------------------------------------------------------------------
void Delay_Ms (uint32_t n)
{
    uint32_t i;

    SysTick->CTLR = 0;
     528:	e000f7b7          	lui	a5,0xe000f
     52c:	0007a023          	sw	zero,0(a5) # e000f000 <_eusrstack+0xc000a000>
C:/flushbonading/MounRiver/EXE/Libraries/hefei_libraries/delay.c:62
    i = (uint32_t)n*p_ms;
     530:	80c1d703          	lhu	a4,-2036(gp) # 2000001c <p_ms>
C:/flushbonading/MounRiver/EXE/Libraries/hefei_libraries/delay.c:64

    SysTick->CNTL0 = 0;
     534:	00078223          	sb	zero,4(a5)
C:/flushbonading/MounRiver/EXE/Libraries/hefei_libraries/delay.c:65
    SysTick->CNTL1 = 0;
     538:	000782a3          	sb	zero,5(a5)
C:/flushbonading/MounRiver/EXE/Libraries/hefei_libraries/delay.c:66
    SysTick->CNTL2 = 0;
     53c:	00078323          	sb	zero,6(a5)
C:/flushbonading/MounRiver/EXE/Libraries/hefei_libraries/delay.c:62
    i = (uint32_t)n*p_ms;
     540:	02a70533          	mul	a0,a4,a0
C:/flushbonading/MounRiver/EXE/Libraries/hefei_libraries/delay.c:67
    SysTick->CNTL3 = 0;
     544:	000783a3          	sb	zero,7(a5)
C:/flushbonading/MounRiver/EXE/Libraries/hefei_libraries/delay.c:68
    SysTick->CTLR = 1;
     548:	4705                	li	a4,1
     54a:	c398                	sw	a4,0(a5)
C:/flushbonading/MounRiver/EXE/Libraries/hefei_libraries/delay.c:70

  while((*(__IO uint32_t*)0xE000F004) <= i);
     54c:	e000f737          	lui	a4,0xe000f
C:/flushbonading/MounRiver/EXE/Libraries/hefei_libraries/delay.c:70 (discriminator 1)
     550:	435c                	lw	a5,4(a4)
     552:	fef57fe3          	bgeu	a0,a5,550 <Delay_Ms+0x28>
C:/flushbonading/MounRiver/EXE/Libraries/hefei_libraries/delay.c:71
}
     556:	8082                	ret

00000558 <gpio_init>:
gpio_init():
C:/flushbonading/MounRiver/EXE/Libraries/hefei_libraries/hf_gpio.c:31
    GPIO_InitTypeDef GPIO_InitStructure;
    uint8 io_group = (pin & 0xE0) >> 5;
    uint8 io_pin = pin & 0x1F;


    if(PIN_NULL == pin) return;
     558:	08000713          	li	a4,128
     55c:	0ce50c63          	beq	a0,a4,634 <gpio_init+0xdc>
C:/flushbonading/MounRiver/EXE/Libraries/hefei_libraries/hf_gpio.c:25
{
     560:	7179                	addi	sp,sp,-48
     562:	d422                	sw	s0,40(sp)
     564:	d226                	sw	s1,36(sp)
     566:	d04a                	sw	s2,32(sp)
     568:	ce4e                	sw	s3,28(sp)
     56a:	cc52                	sw	s4,24(sp)
     56c:	00555793          	srli	a5,a0,0x5
     570:	d606                	sw	ra,44(sp)
     572:	0077fa13          	andi	s4,a5,7
     576:	01f57413          	andi	s0,a0,31
     57a:	84b6                	mv	s1,a3
     57c:	89b2                	mv	s3,a2
     57e:	892e                	mv	s2,a1
C:/flushbonading/MounRiver/EXE/Libraries/hefei_libraries/hf_gpio.c:33
    //GPIO总线使能
    if(0 == (pin >> 5))      RCC_APB2PeriphClockCmd(RCC_APB2Periph_GPIOA, ENABLE);
     580:	e3b5                	bnez	a5,5e4 <gpio_init+0x8c>
C:/flushbonading/MounRiver/EXE/Libraries/hefei_libraries/hf_gpio.c:33 (discriminator 1)
     582:	4585                	li	a1,1
     584:	4511                	li	a0,4
C:/flushbonading/MounRiver/EXE/Libraries/hefei_libraries/hf_gpio.c:39 (discriminator 1)
    else if(1 == (pin >> 5)) RCC_APB2PeriphClockCmd(RCC_APB2Periph_GPIOB, ENABLE);
    else if(2 == (pin >> 5)) RCC_APB2PeriphClockCmd(RCC_APB2Periph_GPIOC, ENABLE);
    else if(3 == (pin >> 5)) RCC_APB2PeriphClockCmd(RCC_APB2Periph_GPIOD, ENABLE);
    else if(4 == (pin >> 5)) RCC_APB2PeriphClockCmd(RCC_APB2Periph_GPIOE, ENABLE);
    else if(5 == (pin >> 5)) RCC_APB2PeriphClockCmd(RCC_APB2Periph_GPIOF, ENABLE);
    else if(6 == (pin >> 5)) RCC_APB2PeriphClockCmd(RCC_APB2Periph_GPIOG, ENABLE);
     586:	129000ef          	jal	ra,eae <RCC_APB2PeriphClockCmd>
C:/flushbonading/MounRiver/EXE/Libraries/hefei_libraries/hf_gpio.c:43


    //设置引脚号
    GPIO_InitStructure.GPIO_Pin = (uint16)(1 << io_pin);
     58a:	4785                	li	a5,1
     58c:	00879433          	sll	s0,a5,s0
     590:	0442                	slli	s0,s0,0x10
     592:	8041                	srli	s0,s0,0x10
     594:	00811223          	sh	s0,4(sp)
C:/flushbonading/MounRiver/EXE/Libraries/hefei_libraries/hf_gpio.c:45

    if(GPO == dir)
     598:	00f91963          	bne	s2,a5,5aa <gpio_init+0x52>
C:/flushbonading/MounRiver/EXE/Libraries/hefei_libraries/hf_gpio.c:48
    {
        //只有输出需要设置速度
        if((uint16)pinconf >> 8 == 0) GPIO_InitStructure.GPIO_Speed = (GPIOSpeed_TypeDef)(GPIO_Speed_50MHz);  //防止没有填写这个参数,默认设置50Mhz
     59c:	01049793          	slli	a5,s1,0x10
     5a0:	83c1                	srli	a5,a5,0x10
     5a2:	83a1                	srli	a5,a5,0x8
     5a4:	e391                	bnez	a5,5a8 <gpio_init+0x50>
C:/flushbonading/MounRiver/EXE/Libraries/hefei_libraries/hf_gpio.c:48 (discriminator 1)
     5a6:	478d                	li	a5,3
C:/flushbonading/MounRiver/EXE/Libraries/hefei_libraries/hf_gpio.c:49
        else GPIO_InitStructure.GPIO_Speed = (GPIOSpeed_TypeDef)((uint16)pinconf >> 8);                       //已经填写了该参数。根据值来设置
     5a8:	c43e                	sw	a5,8(sp)
C:/flushbonading/MounRiver/EXE/Libraries/hefei_libraries/hf_gpio.c:54
    }

    //设置模式
    GPIO_InitStructure.GPIO_Mode = (GPIOMode_TypeDef)((uint16)pinconf & 0xff);
    GPIO_Init((GPIO_TypeDef *)(GPION[io_group]), &GPIO_InitStructure);
     5aa:	6785                	lui	a5,0x1
     5ac:	0a0a                	slli	s4,s4,0x2
     5ae:	3d478793          	addi	a5,a5,980 # 13d4 <GPION>
     5b2:	97d2                	add	a5,a5,s4
C:/flushbonading/MounRiver/EXE/Libraries/hefei_libraries/hf_gpio.c:53
    GPIO_InitStructure.GPIO_Mode = (GPIOMode_TypeDef)((uint16)pinconf & 0xff);
     5b4:	0ff4f493          	andi	s1,s1,255
     5b8:	c626                	sw	s1,12(sp)
C:/flushbonading/MounRiver/EXE/Libraries/hefei_libraries/hf_gpio.c:54
    GPIO_Init((GPIO_TypeDef *)(GPION[io_group]), &GPIO_InitStructure);
     5ba:	4384                	lw	s1,0(a5)
     5bc:	004c                	addi	a1,sp,4
     5be:	8526                	mv	a0,s1
     5c0:	76e000ef          	jal	ra,d2e <GPIO_Init>
C:/flushbonading/MounRiver/EXE/Libraries/hefei_libraries/hf_gpio.c:56

    if(GPO == dir)
     5c4:	4785                	li	a5,1
     5c6:	00f91763          	bne	s2,a5,5d4 <gpio_init+0x7c>
C:/flushbonading/MounRiver/EXE/Libraries/hefei_libraries/hf_gpio.c:59
    {
        //只有输出需要设置引脚状态
        GPIO_WriteBit((GPIO_TypeDef *)(GPION[io_group]), (uint16)(1 << io_pin), dat);
     5ca:	864e                	mv	a2,s3
     5cc:	85a2                	mv	a1,s0
     5ce:	8526                	mv	a0,s1
     5d0:	021000ef          	jal	ra,df0 <GPIO_WriteBit>
C:/flushbonading/MounRiver/EXE/Libraries/hefei_libraries/hf_gpio.c:61
    }
}
     5d4:	50b2                	lw	ra,44(sp)
     5d6:	5422                	lw	s0,40(sp)
     5d8:	5492                	lw	s1,36(sp)
     5da:	5902                	lw	s2,32(sp)
     5dc:	49f2                	lw	s3,28(sp)
     5de:	4a62                	lw	s4,24(sp)
     5e0:	6145                	addi	sp,sp,48
     5e2:	8082                	ret
C:/flushbonading/MounRiver/EXE/Libraries/hefei_libraries/hf_gpio.c:34
    else if(1 == (pin >> 5)) RCC_APB2PeriphClockCmd(RCC_APB2Periph_GPIOB, ENABLE);
     5e4:	4705                	li	a4,1
     5e6:	00e79563          	bne	a5,a4,5f0 <gpio_init+0x98>
C:/flushbonading/MounRiver/EXE/Libraries/hefei_libraries/hf_gpio.c:34 (discriminator 1)
     5ea:	4585                	li	a1,1
     5ec:	4521                	li	a0,8
     5ee:	bf61                	j	586 <gpio_init+0x2e>
C:/flushbonading/MounRiver/EXE/Libraries/hefei_libraries/hf_gpio.c:35
    else if(2 == (pin >> 5)) RCC_APB2PeriphClockCmd(RCC_APB2Periph_GPIOC, ENABLE);
     5f0:	4709                	li	a4,2
     5f2:	00e79563          	bne	a5,a4,5fc <gpio_init+0xa4>
C:/flushbonading/MounRiver/EXE/Libraries/hefei_libraries/hf_gpio.c:35 (discriminator 1)
     5f6:	4585                	li	a1,1
     5f8:	4541                	li	a0,16
     5fa:	b771                	j	586 <gpio_init+0x2e>
C:/flushbonading/MounRiver/EXE/Libraries/hefei_libraries/hf_gpio.c:36
    else if(3 == (pin >> 5)) RCC_APB2PeriphClockCmd(RCC_APB2Periph_GPIOD, ENABLE);
     5fc:	470d                	li	a4,3
     5fe:	00e79663          	bne	a5,a4,60a <gpio_init+0xb2>
C:/flushbonading/MounRiver/EXE/Libraries/hefei_libraries/hf_gpio.c:36 (discriminator 1)
     602:	4585                	li	a1,1
     604:	02000513          	li	a0,32
     608:	bfbd                	j	586 <gpio_init+0x2e>
C:/flushbonading/MounRiver/EXE/Libraries/hefei_libraries/hf_gpio.c:37
    else if(4 == (pin >> 5)) RCC_APB2PeriphClockCmd(RCC_APB2Periph_GPIOE, ENABLE);
     60a:	4711                	li	a4,4
     60c:	00e79663          	bne	a5,a4,618 <gpio_init+0xc0>
C:/flushbonading/MounRiver/EXE/Libraries/hefei_libraries/hf_gpio.c:37 (discriminator 1)
     610:	4585                	li	a1,1
     612:	04000513          	li	a0,64
     616:	bf85                	j	586 <gpio_init+0x2e>
C:/flushbonading/MounRiver/EXE/Libraries/hefei_libraries/hf_gpio.c:38
    else if(5 == (pin >> 5)) RCC_APB2PeriphClockCmd(RCC_APB2Periph_GPIOF, ENABLE);
     618:	4715                	li	a4,5
     61a:	00e79663          	bne	a5,a4,626 <gpio_init+0xce>
C:/flushbonading/MounRiver/EXE/Libraries/hefei_libraries/hf_gpio.c:38 (discriminator 1)
     61e:	4585                	li	a1,1
     620:	08000513          	li	a0,128
     624:	b78d                	j	586 <gpio_init+0x2e>
C:/flushbonading/MounRiver/EXE/Libraries/hefei_libraries/hf_gpio.c:39
    else if(6 == (pin >> 5)) RCC_APB2PeriphClockCmd(RCC_APB2Periph_GPIOG, ENABLE);
     626:	4719                	li	a4,6
     628:	f6e791e3          	bne	a5,a4,58a <gpio_init+0x32>
C:/flushbonading/MounRiver/EXE/Libraries/hefei_libraries/hf_gpio.c:39 (discriminator 1)
     62c:	4585                	li	a1,1
     62e:	10000513          	li	a0,256
     632:	bf91                	j	586 <gpio_init+0x2e>
     634:	8082                	ret

00000636 <close_all_irq>:
close_all_irq():
C:/flushbonading/MounRiver/EXE/Libraries/hefei_libraries/hf_nvic.c:82
//  Sample usage:       内部使用  用户无需关心
//-------------------------------------------------------------------------------------------------------------------
void close_all_irq(void)
{
    /* 写1，清空状态 */
    PFIC->IRER[0] = 0xffffffff;
     636:	e000e7b7          	lui	a5,0xe000e
     63a:	577d                	li	a4,-1
     63c:	18e7a023          	sw	a4,384(a5) # e000e180 <_eusrstack+0xc0009180>
C:/flushbonading/MounRiver/EXE/Libraries/hefei_libraries/hf_nvic.c:83
    PFIC->IRER[1] = 0xffffffff;
     640:	18e7a223          	sw	a4,388(a5)
C:/flushbonading/MounRiver/EXE/Libraries/hefei_libraries/hf_nvic.c:84
}
     644:	8082                	ret

00000646 <DisableGlobalIRQ>:
DisableGlobalIRQ():
C:/flushbonading/MounRiver/EXE/Libraries/hefei_libraries/hf_nvic.c:48
{
     646:	1101                	addi	sp,sp,-32
C:/flushbonading/MounRiver/EXE/Libraries/hefei_libraries/hf_nvic.c:50
    irq_status.flag = 1;
     648:	20000737          	lui	a4,0x20000
C:/flushbonading/MounRiver/EXE/Libraries/hefei_libraries/hf_nvic.c:48
{
     64c:	ce06                	sw	ra,28(sp)
C:/flushbonading/MounRiver/EXE/Libraries/hefei_libraries/hf_nvic.c:50
    irq_status.flag = 1;
     64e:	02070793          	addi	a5,a4,32 # 20000020 <irq_status>
     652:	4685                	li	a3,1
     654:	00d78423          	sb	a3,8(a5)
C:/flushbonading/MounRiver/EXE/Libraries/hefei_libraries/hf_nvic.c:51
    if((irq_status.ienr0 == 0) && (irq_status.ienr1 == 0))   state = 0;  //没有就返回0
     658:	02072503          	lw	a0,32(a4)
     65c:	43dc                	lw	a5,4(a5)
     65e:	8d5d                	or	a0,a0,a5
     660:	00a03533          	snez	a0,a0
     664:	c62a                	sw	a0,12(sp)
C:/flushbonading/MounRiver/EXE/Libraries/hefei_libraries/hf_nvic.c:53
    close_all_irq();
     666:	3fc1                	jal	636 <close_all_irq>
C:/flushbonading/MounRiver/EXE/Libraries/hefei_libraries/hf_nvic.c:55
}
     668:	40f2                	lw	ra,28(sp)
     66a:	4532                	lw	a0,12(sp)
     66c:	6105                	addi	sp,sp,32
     66e:	8082                	ret

00000670 <sys_recover_irq>:
sys_recover_irq():
C:/flushbonading/MounRiver/EXE/Libraries/hefei_libraries/hf_nvic.c:95
//  @since      v1.0
//  Sample usage:       内部使用  用户无需关心
//-------------------------------------------------------------------------------------------------------------------
void sys_recover_irq(void)
{
    PFIC->IENR[0] = irq_status.ienr0;
     670:	200007b7          	lui	a5,0x20000
     674:	0207a683          	lw	a3,32(a5) # 20000020 <irq_status>
     678:	e000e737          	lui	a4,0xe000e
C:/flushbonading/MounRiver/EXE/Libraries/hefei_libraries/hf_nvic.c:96
    PFIC->IENR[1] = irq_status.ienr1;
     67c:	02078793          	addi	a5,a5,32
C:/flushbonading/MounRiver/EXE/Libraries/hefei_libraries/hf_nvic.c:95
    PFIC->IENR[0] = irq_status.ienr0;
     680:	10d72023          	sw	a3,256(a4) # e000e100 <_eusrstack+0xc0009100>
C:/flushbonading/MounRiver/EXE/Libraries/hefei_libraries/hf_nvic.c:96
    PFIC->IENR[1] = irq_status.ienr1;
     684:	43dc                	lw	a5,4(a5)
     686:	10f72223          	sw	a5,260(a4)
C:/flushbonading/MounRiver/EXE/Libraries/hefei_libraries/hf_nvic.c:97
}
     68a:	8082                	ret

0000068c <EnableGlobalIRQ>:
EnableGlobalIRQ():
C:/flushbonading/MounRiver/EXE/Libraries/hefei_libraries/hf_nvic.c:66
    if(state == 0)
     68c:	e501                	bnez	a0,694 <EnableGlobalIRQ+0x8>
C:/flushbonading/MounRiver/EXE/Libraries/hefei_libraries/hf_nvic.c:68
        irq_status.flag = 0;
     68e:	80018c23          	sb	zero,-2024(gp) # 20000028 <irq_status+0x8>
C:/flushbonading/MounRiver/EXE/Libraries/hefei_libraries/hf_nvic.c:69
        sys_recover_irq();
     692:	bff9                	j	670 <sys_recover_irq>
C:/flushbonading/MounRiver/EXE/Libraries/hefei_libraries/hf_nvic.c:71
}
     694:	8082                	ret

00000696 <pwm_duty>:
pwm_duty():
C:/flushbonading/MounRiver/EXE/Libraries/hefei_libraries/hf_pwm.c:103
void pwm_duty(PWMCH_enum pwmch, uint32 duty)
{
    uint16 match_temp;
    uint16 period_temp;

    period_temp = ((TIM_TypeDef *) TIMERN[pwmch>>8])->ATRLR;    //获取定时器的周期值
     696:	00855713          	srli	a4,a0,0x8
     69a:	6685                	lui	a3,0x1
     69c:	00271793          	slli	a5,a4,0x2
     6a0:	3e468693          	addi	a3,a3,996 # 13e4 <TIMERN>
     6a4:	97b6                	add	a5,a5,a3
     6a6:	439c                	lw	a5,0(a5)
     6a8:	02c7d783          	lhu	a5,44(a5)
C:/flushbonading/MounRiver/EXE/Libraries/hefei_libraries/hf_pwm.c:104
    match_temp = period_temp * duty / PWM_DUTY_MAX;             //占空比
     6ac:	02f585b3          	mul	a1,a1,a5
     6b0:	6789                	lui	a5,0x2
     6b2:	71078793          	addi	a5,a5,1808 # 2710 <_data_lma+0x130c>
     6b6:	02f5d5b3          	divu	a1,a1,a5
C:/flushbonading/MounRiver/EXE/Libraries/hefei_libraries/hf_pwm.c:106

    if((pwmch >> 8) == 0x00)
     6ba:	ef01                	bnez	a4,6d2 <pwm_duty+0x3c>
C:/flushbonading/MounRiver/EXE/Libraries/hefei_libraries/hf_pwm.c:108
    {
        (*(volatile uint32*)(0x40012C34 + (pwmch&0x03) * 0x04)) = match_temp;
     6bc:	100057b7          	lui	a5,0x10005
     6c0:	890d                	andi	a0,a0,3
     6c2:	b0d78793          	addi	a5,a5,-1267 # 10004b0d <_data_lma+0x10003709>
C:/flushbonading/MounRiver/EXE/Libraries/hefei_libraries/hf_pwm.c:132
        //0x4000043C TIM3->CH3CVR
        //0x40000440 TIM3->CH4CVR
    }
    else if((pwmch >> 8) == 0x03)
    {
        (*(volatile uint32*)(0x40000834 + (pwmch&0x03) * 0x04)) = match_temp;
     6c6:	953e                	add	a0,a0,a5
     6c8:	05c2                	slli	a1,a1,0x10
     6ca:	050a                	slli	a0,a0,0x2
     6cc:	81c1                	srli	a1,a1,0x10
     6ce:	c10c                	sw	a1,0(a0)
C:/flushbonading/MounRiver/EXE/Libraries/hefei_libraries/hf_pwm.c:138
        //0x40000834 TIM4->CH1CVR
        //0x40000838 TIM4->CH2CVR
        //0x4000083C TIM4->CH3CVR
        //0x40000840 TIM4->CH4CVR
    }
}
     6d0:	8082                	ret
C:/flushbonading/MounRiver/EXE/Libraries/hefei_libraries/hf_pwm.c:114
    else if((pwmch >> 8) == 0x01)
     6d2:	4785                	li	a5,1
     6d4:	00f71763          	bne	a4,a5,6e2 <pwm_duty+0x4c>
C:/flushbonading/MounRiver/EXE/Libraries/hefei_libraries/hf_pwm.c:116
        (*(volatile uint32*)(0x40000034 + (pwmch&0x03) * 0x04)) = match_temp;
     6d8:	100007b7          	lui	a5,0x10000
     6dc:	890d                	andi	a0,a0,3
     6de:	07b5                	addi	a5,a5,13
     6e0:	b7dd                	j	6c6 <pwm_duty+0x30>
C:/flushbonading/MounRiver/EXE/Libraries/hefei_libraries/hf_pwm.c:122
    else if((pwmch >> 8) == 0x02)
     6e2:	4789                	li	a5,2
     6e4:	00f71863          	bne	a4,a5,6f4 <pwm_duty+0x5e>
C:/flushbonading/MounRiver/EXE/Libraries/hefei_libraries/hf_pwm.c:124
        (*(volatile uint32*)(0x40000434 + (pwmch&0x03) * 0x04)) = match_temp;
     6e8:	100007b7          	lui	a5,0x10000
     6ec:	890d                	andi	a0,a0,3
     6ee:	10d78793          	addi	a5,a5,269 # 1000010d <_data_lma+0xfffed09>
     6f2:	bfd1                	j	6c6 <pwm_duty+0x30>
C:/flushbonading/MounRiver/EXE/Libraries/hefei_libraries/hf_pwm.c:130
    else if((pwmch >> 8) == 0x03)
     6f4:	478d                	li	a5,3
     6f6:	fcf71de3          	bne	a4,a5,6d0 <pwm_duty+0x3a>
C:/flushbonading/MounRiver/EXE/Libraries/hefei_libraries/hf_pwm.c:132
        (*(volatile uint32*)(0x40000834 + (pwmch&0x03) * 0x04)) = match_temp;
     6fa:	100007b7          	lui	a5,0x10000
     6fe:	890d                	andi	a0,a0,3
     700:	20d78793          	addi	a5,a5,525 # 1000020d <_data_lma+0xfffee09>
     704:	b7c9                	j	6c6 <pwm_duty+0x30>

00000706 <pwm_freq>:
pwm_freq():
C:/flushbonading/MounRiver/EXE/Libraries/hefei_libraries/hf_pwm.c:155
{
    uint16 period_temp = 0;                                     //周期值
    uint16 freq_div = 0;                                        //分频值
    uint16 match_temp;

    freq_div = (uint16)((sys_clk / freq) >> 16);                //计算多少分频
     706:	200007b7          	lui	a5,0x20000
     70a:	0187a783          	lw	a5,24(a5) # 20000018 <_edata>
C:/flushbonading/MounRiver/EXE/Libraries/hefei_libraries/hf_pwm.c:158
    period_temp = (uint16)(sys_clk/(freq*(freq_div + 1)));      //计算周期

    ((TIM_TypeDef *) TIMERN[pwmch>>8])->ATRLR = period_temp - 1 ;
     70e:	8121                	srli	a0,a0,0x8
     710:	6685                	lui	a3,0x1
C:/flushbonading/MounRiver/EXE/Libraries/hefei_libraries/hf_pwm.c:155
    freq_div = (uint16)((sys_clk / freq) >> 16);                //计算多少分频
     712:	02b7d733          	divu	a4,a5,a1
C:/flushbonading/MounRiver/EXE/Libraries/hefei_libraries/hf_pwm.c:158
    ((TIM_TypeDef *) TIMERN[pwmch>>8])->ATRLR = period_temp - 1 ;
     716:	3e468693          	addi	a3,a3,996 # 13e4 <TIMERN>
     71a:	050a                	slli	a0,a0,0x2
     71c:	9536                	add	a0,a0,a3
     71e:	4114                	lw	a3,0(a0)
C:/flushbonading/MounRiver/EXE/Libraries/hefei_libraries/hf_pwm.c:155
    freq_div = (uint16)((sys_clk / freq) >> 16);                //计算多少分频
     720:	8341                	srli	a4,a4,0x10
     722:	01071613          	slli	a2,a4,0x10
C:/flushbonading/MounRiver/EXE/Libraries/hefei_libraries/hf_pwm.c:156
    period_temp = (uint16)(sys_clk/(freq*(freq_div + 1)));      //计算周期
     726:	0705                	addi	a4,a4,1
     728:	02b70733          	mul	a4,a4,a1
C:/flushbonading/MounRiver/EXE/Libraries/hefei_libraries/hf_pwm.c:155
    freq_div = (uint16)((sys_clk / freq) >> 16);                //计算多少分频
     72c:	8241                	srli	a2,a2,0x10
C:/flushbonading/MounRiver/EXE/Libraries/hefei_libraries/hf_pwm.c:156
    period_temp = (uint16)(sys_clk/(freq*(freq_div + 1)));      //计算周期
     72e:	02e7d7b3          	divu	a5,a5,a4
C:/flushbonading/MounRiver/EXE/Libraries/hefei_libraries/hf_pwm.c:158
    ((TIM_TypeDef *) TIMERN[pwmch>>8])->ATRLR = period_temp - 1 ;
     732:	17fd                	addi	a5,a5,-1
     734:	07c2                	slli	a5,a5,0x10
     736:	83c1                	srli	a5,a5,0x10
     738:	02f69623          	sh	a5,44(a3)
C:/flushbonading/MounRiver/EXE/Libraries/hefei_libraries/hf_pwm.c:159
    ((TIM_TypeDef *) TIMERN[pwmch>>8])->PSC = freq_div;
     73c:	02c69423          	sh	a2,40(a3)
C:/flushbonading/MounRiver/EXE/Libraries/hefei_libraries/hf_pwm.c:160
}
     740:	8082                	ret

00000742 <pwm_gpio_init>:
pwm_gpio_init():
C:/flushbonading/MounRiver/EXE/Libraries/hefei_libraries/hf_pwm.c:183
//  @return     void
//  Sample usage:           内部使用  用户无需关心
//-------------------------------------------------------------------------------------------------------------------
void pwm_gpio_init(PWMCH_enum pwmch)
{
    switch(pwmch)
     742:	20000793          	li	a5,512
     746:	16f50b63          	beq	a0,a5,8bc <__stack_size+0xbc>
     74a:	06a7e463          	bltu	a5,a0,7b2 <pwm_gpio_init+0x70>
     74e:	10100793          	li	a5,257
     752:	10f50863          	beq	a0,a5,862 <__stack_size+0x62>
     756:	02a7e463          	bltu	a5,a0,77e <pwm_gpio_init+0x3c>
     75a:	4789                	li	a5,2
     75c:	0ef50163          	beq	a0,a5,83e <__stack_size+0x3e>
     760:	00a7e763          	bltu	a5,a0,76e <pwm_gpio_init+0x2c>
     764:	c169                	beqz	a0,826 <__stack_size+0x26>
     766:	4785                	li	a5,1
     768:	0cf50563          	beq	a0,a5,832 <__stack_size+0x32>
     76c:	8082                	ret
     76e:	478d                	li	a5,3
     770:	0cf50d63          	beq	a0,a5,84a <__stack_size+0x4a>
     774:	10000793          	li	a5,256
     778:	0cf50f63          	beq	a0,a5,856 <__stack_size+0x56>
     77c:	8082                	ret
     77e:	11000793          	li	a5,272
     782:	10f50263          	beq	a0,a5,886 <__stack_size+0x86>
     786:	00a7eb63          	bltu	a5,a0,79c <pwm_gpio_init+0x5a>
     78a:	10200793          	li	a5,258
     78e:	0ef50063          	beq	a0,a5,86e <__stack_size+0x6e>
     792:	10300793          	li	a5,259
     796:	0ef50263          	beq	a0,a5,87a <__stack_size+0x7a>
     79a:	8082                	ret
     79c:	11200793          	li	a5,274
     7a0:	10f50063          	beq	a0,a5,8a0 <__stack_size+0xa0>
     7a4:	0ef56763          	bltu	a0,a5,892 <__stack_size+0x92>
     7a8:	11300793          	li	a5,275
     7ac:	10f50163          	beq	a0,a5,8ae <__stack_size+0xae>
     7b0:	8082                	ret
     7b2:	21300793          	li	a5,531
     7b6:	16f50263          	beq	a0,a5,91a <__stack_size+0x11a>
     7ba:	02a7ec63          	bltu	a5,a0,7f2 <pwm_gpio_init+0xb0>
     7be:	20300793          	li	a5,515
     7c2:	12f50063          	beq	a0,a5,8e2 <__stack_size+0xe2>
     7c6:	00a7eb63          	bltu	a5,a0,7dc <pwm_gpio_init+0x9a>
     7ca:	20100793          	li	a5,513
     7ce:	0ef50d63          	beq	a0,a5,8c8 <__stack_size+0xc8>
     7d2:	20200793          	li	a5,514
     7d6:	0ef50f63          	beq	a0,a5,8d4 <__stack_size+0xd4>
     7da:	8082                	ret
     7dc:	21100793          	li	a5,529
     7e0:	10f50f63          	beq	a0,a5,8fe <__stack_size+0xfe>
     7e4:	12a7e463          	bltu	a5,a0,90c <__stack_size+0x10c>
     7e8:	21000793          	li	a5,528
     7ec:	10f50263          	beq	a0,a5,8f0 <__stack_size+0xf0>
     7f0:	8082                	ret
     7f2:	30000793          	li	a5,768
     7f6:	14f50763          	beq	a0,a5,944 <__stack_size+0x144>
     7fa:	00a7eb63          	bltu	a5,a0,810 <__stack_size+0x10>
     7fe:	22000793          	li	a5,544
     802:	12f50363          	beq	a0,a5,928 <__stack_size+0x128>
     806:	22100793          	li	a5,545
     80a:	12f50663          	beq	a0,a5,936 <__stack_size+0x136>
     80e:	8082                	ret
     810:	30200793          	li	a5,770
     814:	14f50663          	beq	a0,a5,960 <__stack_size+0x160>
     818:	12f56d63          	bltu	a0,a5,952 <__stack_size+0x152>
     81c:	30300793          	li	a5,771
     820:	14f50763          	beq	a0,a5,96e <__stack_size+0x16e>
     824:	8082                	ret
C:/flushbonading/MounRiver/EXE/Libraries/hefei_libraries/hf_pwm.c:187
    {

        case PWM1_CH1_A8:
            gpio_init(A8, GPO, 0, SPEED_50MHZ|OUT_AF_PP);
     826:	31800693          	li	a3,792
     82a:	4601                	li	a2,0
     82c:	4585                	li	a1,1
     82e:	4521                	li	a0,8
C:/flushbonading/MounRiver/EXE/Libraries/hefei_libraries/hf_pwm.c:268
            break;
        case PWM4_CH3_B8:
            gpio_init(B8, GPO, 0, SPEED_50MHZ|OUT_AF_PP);
            break;
        case PWM4_CH4_B9:
            gpio_init(B9, GPO, 0, SPEED_50MHZ|OUT_AF_PP);
     830:	b325                	j	558 <gpio_init>
C:/flushbonading/MounRiver/EXE/Libraries/hefei_libraries/hf_pwm.c:190
            gpio_init(A9, GPO, 0, SPEED_50MHZ|OUT_AF_PP);
     832:	31800693          	li	a3,792
     836:	4601                	li	a2,0
     838:	4585                	li	a1,1
     83a:	4525                	li	a0,9
     83c:	bfd5                	j	830 <__stack_size+0x30>
C:/flushbonading/MounRiver/EXE/Libraries/hefei_libraries/hf_pwm.c:193
            gpio_init(A10, GPO, 0, SPEED_50MHZ|OUT_AF_PP);
     83e:	31800693          	li	a3,792
     842:	4601                	li	a2,0
     844:	4585                	li	a1,1
     846:	4529                	li	a0,10
     848:	b7e5                	j	830 <__stack_size+0x30>
C:/flushbonading/MounRiver/EXE/Libraries/hefei_libraries/hf_pwm.c:196
            gpio_init(A11, GPO, 0, SPEED_50MHZ|OUT_AF_PP);
     84a:	31800693          	li	a3,792
     84e:	4601                	li	a2,0
     850:	4585                	li	a1,1
     852:	452d                	li	a0,11
     854:	bff1                	j	830 <__stack_size+0x30>
C:/flushbonading/MounRiver/EXE/Libraries/hefei_libraries/hf_pwm.c:200
            gpio_init(A0, GPO, 0, SPEED_50MHZ|OUT_AF_PP);
     856:	31800693          	li	a3,792
     85a:	4601                	li	a2,0
     85c:	4585                	li	a1,1
     85e:	4501                	li	a0,0
     860:	bfc1                	j	830 <__stack_size+0x30>
C:/flushbonading/MounRiver/EXE/Libraries/hefei_libraries/hf_pwm.c:203
            gpio_init(A1, GPO, 0, SPEED_50MHZ|OUT_AF_PP);
     862:	31800693          	li	a3,792
     866:	4601                	li	a2,0
     868:	4585                	li	a1,1
     86a:	4505                	li	a0,1
     86c:	b7d1                	j	830 <__stack_size+0x30>
C:/flushbonading/MounRiver/EXE/Libraries/hefei_libraries/hf_pwm.c:206
            gpio_init(A2, GPO, 0, SPEED_50MHZ|OUT_AF_PP);
     86e:	31800693          	li	a3,792
     872:	4601                	li	a2,0
     874:	4585                	li	a1,1
     876:	4509                	li	a0,2
     878:	bf65                	j	830 <__stack_size+0x30>
C:/flushbonading/MounRiver/EXE/Libraries/hefei_libraries/hf_pwm.c:209
            gpio_init(A3, GPO, 0, SPEED_50MHZ|OUT_AF_PP);
     87a:	31800693          	li	a3,792
     87e:	4601                	li	a2,0
     880:	4585                	li	a1,1
     882:	450d                	li	a0,3
     884:	b775                	j	830 <__stack_size+0x30>
C:/flushbonading/MounRiver/EXE/Libraries/hefei_libraries/hf_pwm.c:213
            gpio_init(A15, GPO, 0, SPEED_50MHZ|OUT_AF_PP);
     886:	31800693          	li	a3,792
     88a:	4601                	li	a2,0
     88c:	4585                	li	a1,1
     88e:	453d                	li	a0,15
     890:	b745                	j	830 <__stack_size+0x30>
C:/flushbonading/MounRiver/EXE/Libraries/hefei_libraries/hf_pwm.c:216
            gpio_init(B3, GPO, 0, SPEED_50MHZ|OUT_AF_PP);
     892:	31800693          	li	a3,792
     896:	4601                	li	a2,0
     898:	4585                	li	a1,1
     89a:	02300513          	li	a0,35
     89e:	bf49                	j	830 <__stack_size+0x30>
C:/flushbonading/MounRiver/EXE/Libraries/hefei_libraries/hf_pwm.c:219
            gpio_init(B10, GPO, 0, SPEED_50MHZ|OUT_AF_PP);
     8a0:	31800693          	li	a3,792
     8a4:	4601                	li	a2,0
     8a6:	4585                	li	a1,1
     8a8:	02a00513          	li	a0,42
     8ac:	b751                	j	830 <__stack_size+0x30>
C:/flushbonading/MounRiver/EXE/Libraries/hefei_libraries/hf_pwm.c:222
            gpio_init(B11, GPO, 0, SPEED_50MHZ|OUT_AF_PP);
     8ae:	31800693          	li	a3,792
     8b2:	4601                	li	a2,0
     8b4:	4585                	li	a1,1
     8b6:	02b00513          	li	a0,43
     8ba:	bf9d                	j	830 <__stack_size+0x30>
C:/flushbonading/MounRiver/EXE/Libraries/hefei_libraries/hf_pwm.c:226
            gpio_init(A6, GPO, 0, SPEED_50MHZ|OUT_AF_PP);
     8bc:	31800693          	li	a3,792
     8c0:	4601                	li	a2,0
     8c2:	4585                	li	a1,1
     8c4:	4519                	li	a0,6
     8c6:	b7ad                	j	830 <__stack_size+0x30>
C:/flushbonading/MounRiver/EXE/Libraries/hefei_libraries/hf_pwm.c:229
            gpio_init(A7, GPO, 0, SPEED_50MHZ|OUT_AF_PP);
     8c8:	31800693          	li	a3,792
     8cc:	4601                	li	a2,0
     8ce:	4585                	li	a1,1
     8d0:	451d                	li	a0,7
     8d2:	bfb9                	j	830 <__stack_size+0x30>
C:/flushbonading/MounRiver/EXE/Libraries/hefei_libraries/hf_pwm.c:232
            gpio_init(B0, GPO, 0, SPEED_50MHZ|OUT_AF_PP);
     8d4:	31800693          	li	a3,792
     8d8:	4601                	li	a2,0
     8da:	4585                	li	a1,1
     8dc:	02000513          	li	a0,32
     8e0:	bf81                	j	830 <__stack_size+0x30>
C:/flushbonading/MounRiver/EXE/Libraries/hefei_libraries/hf_pwm.c:235
            gpio_init(B1, GPO, 0, SPEED_50MHZ|OUT_AF_PP);
     8e2:	31800693          	li	a3,792
     8e6:	4601                	li	a2,0
     8e8:	4585                	li	a1,1
     8ea:	02100513          	li	a0,33
     8ee:	b789                	j	830 <__stack_size+0x30>
C:/flushbonading/MounRiver/EXE/Libraries/hefei_libraries/hf_pwm.c:239
            gpio_init(C6, GPO, 0, SPEED_50MHZ|OUT_AF_PP);
     8f0:	31800693          	li	a3,792
     8f4:	4601                	li	a2,0
     8f6:	4585                	li	a1,1
     8f8:	04600513          	li	a0,70
     8fc:	bf15                	j	830 <__stack_size+0x30>
C:/flushbonading/MounRiver/EXE/Libraries/hefei_libraries/hf_pwm.c:242
            gpio_init(C7, GPO, 0, SPEED_50MHZ|OUT_AF_PP);
     8fe:	31800693          	li	a3,792
     902:	4601                	li	a2,0
     904:	4585                	li	a1,1
     906:	04700513          	li	a0,71
     90a:	b71d                	j	830 <__stack_size+0x30>
C:/flushbonading/MounRiver/EXE/Libraries/hefei_libraries/hf_pwm.c:245
            gpio_init(C8, GPO, 0, SPEED_50MHZ|OUT_AF_PP);
     90c:	31800693          	li	a3,792
     910:	4601                	li	a2,0
     912:	4585                	li	a1,1
     914:	04800513          	li	a0,72
     918:	bf21                	j	830 <__stack_size+0x30>
C:/flushbonading/MounRiver/EXE/Libraries/hefei_libraries/hf_pwm.c:248
            gpio_init(C9, GPO, 0, SPEED_50MHZ|OUT_AF_PP);
     91a:	31800693          	li	a3,792
     91e:	4601                	li	a2,0
     920:	4585                	li	a1,1
     922:	04900513          	li	a0,73
     926:	b729                	j	830 <__stack_size+0x30>
C:/flushbonading/MounRiver/EXE/Libraries/hefei_libraries/hf_pwm.c:252
            gpio_init(B4, GPO, 0, SPEED_50MHZ|OUT_AF_PP);
     928:	31800693          	li	a3,792
     92c:	4601                	li	a2,0
     92e:	4585                	li	a1,1
     930:	02400513          	li	a0,36
     934:	bdf5                	j	830 <__stack_size+0x30>
C:/flushbonading/MounRiver/EXE/Libraries/hefei_libraries/hf_pwm.c:255
            gpio_init(B5, GPO, 0, SPEED_50MHZ|OUT_AF_PP);
     936:	31800693          	li	a3,792
     93a:	4601                	li	a2,0
     93c:	4585                	li	a1,1
     93e:	02500513          	li	a0,37
     942:	b5fd                	j	830 <__stack_size+0x30>
C:/flushbonading/MounRiver/EXE/Libraries/hefei_libraries/hf_pwm.c:259
            gpio_init(B6, GPO, 0, SPEED_50MHZ|OUT_AF_PP);
     944:	31800693          	li	a3,792
     948:	4601                	li	a2,0
     94a:	4585                	li	a1,1
     94c:	02600513          	li	a0,38
     950:	b5c5                	j	830 <__stack_size+0x30>
C:/flushbonading/MounRiver/EXE/Libraries/hefei_libraries/hf_pwm.c:262
            gpio_init(B7, GPO, 0, SPEED_50MHZ|OUT_AF_PP);
     952:	31800693          	li	a3,792
     956:	4601                	li	a2,0
     958:	4585                	li	a1,1
     95a:	02700513          	li	a0,39
     95e:	bdc9                	j	830 <__stack_size+0x30>
C:/flushbonading/MounRiver/EXE/Libraries/hefei_libraries/hf_pwm.c:265
            gpio_init(B8, GPO, 0, SPEED_50MHZ|OUT_AF_PP);
     960:	31800693          	li	a3,792
     964:	4601                	li	a2,0
     966:	4585                	li	a1,1
     968:	02800513          	li	a0,40
     96c:	b5d1                	j	830 <__stack_size+0x30>
C:/flushbonading/MounRiver/EXE/Libraries/hefei_libraries/hf_pwm.c:268
            gpio_init(B9, GPO, 0, SPEED_50MHZ|OUT_AF_PP);
     96e:	31800693          	li	a3,792
     972:	4601                	li	a2,0
     974:	4585                	li	a1,1
     976:	02900513          	li	a0,41
     97a:	bd5d                	j	830 <__stack_size+0x30>

0000097c <pwm_init>:
pwm_init():
C:/flushbonading/MounRiver/EXE/Libraries/hefei_libraries/hf_pwm.c:25
{
     97c:	7139                	addi	sp,sp,-64
     97e:	de06                	sw	ra,60(sp)
     980:	dc22                	sw	s0,56(sp)
     982:	da26                	sw	s1,52(sp)
     984:	d84a                	sw	s2,48(sp)
     986:	84aa                	mv	s1,a0
     988:	d64e                	sw	s3,44(sp)
     98a:	d452                	sw	s4,40(sp)
     98c:	89b6                	mv	s3,a3
     98e:	8a32                	mv	s4,a2
     990:	c62e                	sw	a1,12(sp)
C:/flushbonading/MounRiver/EXE/Libraries/hefei_libraries/hf_pwm.c:32
    pwm_gpio_init(pwmch);                                       //PWM引脚初始化
     992:	3b45                	jal	742 <pwm_gpio_init>
C:/flushbonading/MounRiver/EXE/Libraries/hefei_libraries/hf_pwm.c:36
    freq_div = (uint16)((sys_clk / freq) >> 16);                            //多少分频
     994:	45b2                	lw	a1,12(sp)
C:/flushbonading/MounRiver/EXE/Libraries/hefei_libraries/hf_pwm.c:35
    sys_clk = (uint32)72000000;
     996:	044aa7b7          	lui	a5,0x44aa
     99a:	20078793          	addi	a5,a5,512 # 44aa200 <_data_lma+0x44a8dfc>
C:/flushbonading/MounRiver/EXE/Libraries/hefei_libraries/hf_pwm.c:36
    freq_div = (uint16)((sys_clk / freq) >> 16);                            //多少分频
     99e:	02b7d633          	divu	a2,a5,a1
C:/flushbonading/MounRiver/EXE/Libraries/hefei_libraries/hf_pwm.c:41
    timbase_init((pwmch >> 8), period_temp - 1, freq_div);
     9a2:	0084d913          	srli	s2,s1,0x8
C:/flushbonading/MounRiver/EXE/Libraries/hefei_libraries/hf_pwm.c:35
    sys_clk = (uint32)72000000;
     9a6:	20000737          	lui	a4,0x20000
C:/flushbonading/MounRiver/EXE/Libraries/hefei_libraries/hf_pwm.c:41
    timbase_init((pwmch >> 8), period_temp - 1, freq_div);
     9aa:	854a                	mv	a0,s2
C:/flushbonading/MounRiver/EXE/Libraries/hefei_libraries/hf_pwm.c:35
    sys_clk = (uint32)72000000;
     9ac:	00f72c23          	sw	a5,24(a4) # 20000018 <_edata>
C:/flushbonading/MounRiver/EXE/Libraries/hefei_libraries/hf_pwm.c:36
    freq_div = (uint16)((sys_clk / freq) >> 16);                            //多少分频
     9b0:	090a                	slli	s2,s2,0x2
     9b2:	8241                	srli	a2,a2,0x10
C:/flushbonading/MounRiver/EXE/Libraries/hefei_libraries/hf_pwm.c:37
    period_temp = (uint16)(sys_clk/(freq*(freq_div + 1)));                  //周期
     9b4:	00160413          	addi	s0,a2,1 # 20001 <_data_lma+0x1ebfd>
     9b8:	02b40433          	mul	s0,s0,a1
     9bc:	0287d433          	divu	s0,a5,s0
C:/flushbonading/MounRiver/EXE/Libraries/hefei_libraries/hf_pwm.c:41
    timbase_init((pwmch >> 8), period_temp - 1, freq_div);
     9c0:	fff40593          	addi	a1,s0,-1
     9c4:	05c2                	slli	a1,a1,0x10
     9c6:	81c1                	srli	a1,a1,0x10
     9c8:	20c1                	jal	a88 <timbase_init>
C:/flushbonading/MounRiver/EXE/Libraries/hefei_libraries/hf_pwm.c:43
    RCC_APB2PeriphClockCmd(RCC_APB2Periph_AFIO, ENABLE);        //使能AFIO复用功能模块时钟
     9ca:	4585                	li	a1,1
     9cc:	4505                	li	a0,1
     9ce:	21c5                	jal	eae <RCC_APB2PeriphClockCmd>
C:/flushbonading/MounRiver/EXE/Libraries/hefei_libraries/hf_pwm.c:38
    match_temp = period_temp * duty / PWM_DUTY_MAX;                         //占空比
     9d0:	01041793          	slli	a5,s0,0x10
     9d4:	83c1                	srli	a5,a5,0x10
     9d6:	034787b3          	mul	a5,a5,s4
     9da:	6409                	lui	s0,0x2
     9dc:	71040413          	addi	s0,s0,1808 # 2710 <_data_lma+0x130c>
C:/flushbonading/MounRiver/EXE/Libraries/hefei_libraries/hf_pwm.c:56
    TIM_OCInitStructure.TIM_OCMode = TIM_OCMode_PWM1;                       //选择定时器模式:TIM脉冲宽度调制模式2
     9e0:	6741                	lui	a4,0x10
     9e2:	06070713          	addi	a4,a4,96 # 10060 <_data_lma+0xec5c>
     9e6:	c83a                	sw	a4,16(sp)
C:/flushbonading/MounRiver/EXE/Libraries/hefei_libraries/hf_pwm.c:58
    TIM_OCInitStructure.TIM_Pulse = match_temp;
     9e8:	6705                	lui	a4,0x1
     9ea:	3e470713          	addi	a4,a4,996 # 13e4 <TIMERN>
     9ee:	993a                	add	s2,s2,a4
C:/flushbonading/MounRiver/EXE/Libraries/hefei_libraries/hf_pwm.c:59
    TIM_OCInitStructure.TIM_OCPolarity = TIM_OCPolarity_High;               //输出极性:TIM输出比较极性高
     9f0:	00011c23          	sh	zero,24(sp)
C:/flushbonading/MounRiver/EXE/Libraries/hefei_libraries/hf_pwm.c:38
    match_temp = period_temp * duty / PWM_DUTY_MAX;                         //占空比
     9f4:	0287d7b3          	divu	a5,a5,s0
C:/flushbonading/MounRiver/EXE/Libraries/hefei_libraries/hf_pwm.c:60
    TIM_OCInitStructure.TIM_OCIdleState = TIM_OCIdleState_Reset;
     9f8:	00011e23          	sh	zero,28(sp)
     9fc:	00092403          	lw	s0,0(s2)
C:/flushbonading/MounRiver/EXE/Libraries/hefei_libraries/hf_pwm.c:38
    match_temp = period_temp * duty / PWM_DUTY_MAX;                         //占空比
     a00:	00f11b23          	sh	a5,22(sp)
C:/flushbonading/MounRiver/EXE/Libraries/hefei_libraries/hf_pwm.c:62
    if((pwmch & 0x03) == 0x00)                                              //通道选择
     a04:	0034f793          	andi	a5,s1,3
     a08:	eb85                	bnez	a5,a38 <pwm_init+0xbc>
C:/flushbonading/MounRiver/EXE/Libraries/hefei_libraries/hf_pwm.c:64
        TIM_OC1Init(((TIM_TypeDef *) TIMERN[pwmch>>8]), &TIM_OCInitStructure );                         //定时器通道1初始化
     a0a:	080c                	addi	a1,sp,16
     a0c:	8522                	mv	a0,s0
     a0e:	2b91                	jal	f62 <TIM_OC1Init>
C:/flushbonading/MounRiver/EXE/Libraries/hefei_libraries/hf_pwm.c:65
        TIM_CtrlPWMOutputs(((TIM_TypeDef *) TIMERN[pwmch>>8]), ENABLE );
     a10:	4585                	li	a1,1
     a12:	8522                	mv	a0,s0
     a14:	7da000ef          	jal	ra,11ee <TIM_CtrlPWMOutputs>
C:/flushbonading/MounRiver/EXE/Libraries/hefei_libraries/hf_pwm.c:66
        TIM_OC1PreloadConfig(((TIM_TypeDef *) TIMERN[pwmch>>8]), TIM_OCPreload_Enable_Disable);         //定时器预装载配置
     a18:	85ce                	mv	a1,s3
     a1a:	8522                	mv	a0,s0
     a1c:	7e8000ef          	jal	ra,1204 <TIM_OC1PreloadConfig>
C:/flushbonading/MounRiver/EXE/Libraries/hefei_libraries/hf_pwm.c:87
    TIM_Cmd(((TIM_TypeDef *) TIMERN[pwmch>>8]), ENABLE);                                              //定时器使能
     a20:	8522                	mv	a0,s0
     a22:	4585                	li	a1,1
     a24:	7ae000ef          	jal	ra,11d2 <TIM_Cmd>
C:/flushbonading/MounRiver/EXE/Libraries/hefei_libraries/hf_pwm.c:88
}
     a28:	50f2                	lw	ra,60(sp)
     a2a:	5462                	lw	s0,56(sp)
     a2c:	54d2                	lw	s1,52(sp)
     a2e:	5942                	lw	s2,48(sp)
     a30:	59b2                	lw	s3,44(sp)
     a32:	5a22                	lw	s4,40(sp)
     a34:	6121                	addi	sp,sp,64
     a36:	8082                	ret
C:/flushbonading/MounRiver/EXE/Libraries/hefei_libraries/hf_pwm.c:68
    else if((pwmch & 0x03) == 0x01)
     a38:	4705                	li	a4,1
     a3a:	00e79e63          	bne	a5,a4,a56 <pwm_init+0xda>
C:/flushbonading/MounRiver/EXE/Libraries/hefei_libraries/hf_pwm.c:70
        TIM_OC2Init(((TIM_TypeDef *) TIMERN[pwmch>>8]), &TIM_OCInitStructure );
     a3e:	080c                	addi	a1,sp,16
     a40:	8522                	mv	a0,s0
     a42:	2365                	jal	fea <TIM_OC2Init>
C:/flushbonading/MounRiver/EXE/Libraries/hefei_libraries/hf_pwm.c:71
        TIM_CtrlPWMOutputs(((TIM_TypeDef *) TIMERN[pwmch>>8]), ENABLE );
     a44:	8522                	mv	a0,s0
     a46:	4585                	li	a1,1
     a48:	7a6000ef          	jal	ra,11ee <TIM_CtrlPWMOutputs>
C:/flushbonading/MounRiver/EXE/Libraries/hefei_libraries/hf_pwm.c:72
        TIM_OC2PreloadConfig(((TIM_TypeDef *) TIMERN[pwmch>>8]), TIM_OCPreload_Enable_Disable);
     a4c:	85ce                	mv	a1,s3
     a4e:	8522                	mv	a0,s0
     a50:	7c6000ef          	jal	ra,1216 <TIM_OC2PreloadConfig>
     a54:	b7f1                	j	a20 <pwm_init+0xa4>
C:/flushbonading/MounRiver/EXE/Libraries/hefei_libraries/hf_pwm.c:74
    else if((pwmch & 0x03) == 0x02)
     a56:	4709                	li	a4,2
C:/flushbonading/MounRiver/EXE/Libraries/hefei_libraries/hf_pwm.c:76
        TIM_OC3Init(((TIM_TypeDef *) TIMERN[pwmch>>8]), &TIM_OCInitStructure );
     a58:	080c                	addi	a1,sp,16
     a5a:	8522                	mv	a0,s0
C:/flushbonading/MounRiver/EXE/Libraries/hefei_libraries/hf_pwm.c:74
    else if((pwmch & 0x03) == 0x02)
     a5c:	00e79c63          	bne	a5,a4,a74 <pwm_init+0xf8>
C:/flushbonading/MounRiver/EXE/Libraries/hefei_libraries/hf_pwm.c:76
        TIM_OC3Init(((TIM_TypeDef *) TIMERN[pwmch>>8]), &TIM_OCInitStructure );
     a60:	2d3d                	jal	109e <TIM_OC3Init>
C:/flushbonading/MounRiver/EXE/Libraries/hefei_libraries/hf_pwm.c:77
        TIM_CtrlPWMOutputs(((TIM_TypeDef *) TIMERN[pwmch>>8]), ENABLE );
     a62:	8522                	mv	a0,s0
     a64:	4585                	li	a1,1
     a66:	788000ef          	jal	ra,11ee <TIM_CtrlPWMOutputs>
C:/flushbonading/MounRiver/EXE/Libraries/hefei_libraries/hf_pwm.c:78
        TIM_OC3PreloadConfig(((TIM_TypeDef *) TIMERN[pwmch>>8]), TIM_OCPreload_Enable_Disable);
     a6a:	85ce                	mv	a1,s3
     a6c:	8522                	mv	a0,s0
     a6e:	7c2000ef          	jal	ra,1230 <TIM_OC3PreloadConfig>
     a72:	b77d                	j	a20 <pwm_init+0xa4>
C:/flushbonading/MounRiver/EXE/Libraries/hefei_libraries/hf_pwm.c:82
        TIM_OC4Init(((TIM_TypeDef *) TIMERN[pwmch>>8]), &TIM_OCInitStructure );
     a74:	2df1                	jal	1150 <TIM_OC4Init>
C:/flushbonading/MounRiver/EXE/Libraries/hefei_libraries/hf_pwm.c:83
        TIM_CtrlPWMOutputs(((TIM_TypeDef *) TIMERN[pwmch>>8]), ENABLE );
     a76:	8522                	mv	a0,s0
     a78:	4585                	li	a1,1
     a7a:	774000ef          	jal	ra,11ee <TIM_CtrlPWMOutputs>
C:/flushbonading/MounRiver/EXE/Libraries/hefei_libraries/hf_pwm.c:84
        TIM_OC4PreloadConfig(((TIM_TypeDef *) TIMERN[pwmch>>8]), TIM_OCPreload_Enable_Disable);
     a7e:	85ce                	mv	a1,s3
     a80:	8522                	mv	a0,s0
     a82:	7c0000ef          	jal	ra,1242 <TIM_OC4PreloadConfig>
     a86:	bf69                	j	a20 <pwm_init+0xa4>

00000a88 <timbase_init>:
timbase_init():
C:/flushbonading/MounRiver/EXE/Libraries/hefei_libraries/hf_tim.c:24
//  @return     void
//  Sample usage:           timbase_init(TIMER_2, 71, 0);
//                          //时基初始化为定时器2,频率为1MHz
//-------------------------------------------------------------------------------------------------------------------
void timbase_init(TIMERN_enum TIMER_x, uint16 arr, uint16 pre)
{
     a88:	1101                	addi	sp,sp,-32
     a8a:	cc22                	sw	s0,24(sp)
     a8c:	ca26                	sw	s1,20(sp)
     a8e:	c84a                	sw	s2,16(sp)
     a90:	ce06                	sw	ra,28(sp)
     a92:	842a                	mv	s0,a0
     a94:	892e                	mv	s2,a1
     a96:	84b2                	mv	s1,a2
C:/flushbonading/MounRiver/EXE/Libraries/hefei_libraries/hf_tim.c:27
    TIM_TimeBaseInitTypeDef  TIM_TimeBaseStructure;

    if(TIMER_1 == TIMER_x)
     a98:	ed15                	bnez	a0,ad4 <timbase_init+0x4c>
C:/flushbonading/MounRiver/EXE/Libraries/hefei_libraries/hf_tim.c:28
        RCC_APB2PeriphClockCmd(RCC_APB2Periph_TIM1, ENABLE);                //时钟使能
     a9a:	6505                	lui	a0,0x1
     a9c:	4585                	li	a1,1
     a9e:	80050513          	addi	a0,a0,-2048 # 800 <__stack_size>
     aa2:	2131                	jal	eae <RCC_APB2PeriphClockCmd>
C:/flushbonading/MounRiver/EXE/Libraries/hefei_libraries/hf_tim.c:42
    TIM_TimeBaseStructure.TIM_Period = arr;                    //计数44000
    TIM_TimeBaseStructure.TIM_Prescaler = pre;                      //设置为1MHZ计数一次,也就是1us计数一次
    TIM_TimeBaseStructure.TIM_ClockDivision = TIM_CKD_DIV1;                 //设置时钟分割:TDTS = Tck_tim
    TIM_TimeBaseStructure.TIM_CounterMode = TIM_CounterMode_Up;             //TIM向上计数模式
    TIM_TimeBaseStructure.TIM_RepetitionCounter = 0;                        //重复计数器设置为0
    TIM_TimeBaseInit((TIM_TypeDef *)TIMERN[TIMER_x], &TIM_TimeBaseStructure);//根据指定的参数初始化TIMx的时间基数单位
     aa4:	6785                	lui	a5,0x1
     aa6:	3e478793          	addi	a5,a5,996 # 13e4 <TIMERN>
     aaa:	040a                	slli	s0,s0,0x2
     aac:	943e                	add	s0,s0,a5
     aae:	4008                	lw	a0,0(s0)
     ab0:	004c                	addi	a1,sp,4
C:/flushbonading/MounRiver/EXE/Libraries/hefei_libraries/hf_tim.c:37
    TIM_TimeBaseStructure.TIM_Period = arr;                    //计数44000
     ab2:	01211423          	sh	s2,8(sp)
C:/flushbonading/MounRiver/EXE/Libraries/hefei_libraries/hf_tim.c:38
    TIM_TimeBaseStructure.TIM_Prescaler = pre;                      //设置为1MHZ计数一次,也就是1us计数一次
     ab6:	00911223          	sh	s1,4(sp)
C:/flushbonading/MounRiver/EXE/Libraries/hefei_libraries/hf_tim.c:39
    TIM_TimeBaseStructure.TIM_ClockDivision = TIM_CKD_DIV1;                 //设置时钟分割:TDTS = Tck_tim
     aba:	00011523          	sh	zero,10(sp)
C:/flushbonading/MounRiver/EXE/Libraries/hefei_libraries/hf_tim.c:40
    TIM_TimeBaseStructure.TIM_CounterMode = TIM_CounterMode_Up;             //TIM向上计数模式
     abe:	00011323          	sh	zero,6(sp)
C:/flushbonading/MounRiver/EXE/Libraries/hefei_libraries/hf_tim.c:41
    TIM_TimeBaseStructure.TIM_RepetitionCounter = 0;                        //重复计数器设置为0
     ac2:	00010623          	sb	zero,12(sp)
C:/flushbonading/MounRiver/EXE/Libraries/hefei_libraries/hf_tim.c:42
    TIM_TimeBaseInit((TIM_TypeDef *)TIMERN[TIMER_x], &TIM_TimeBaseStructure);//根据指定的参数初始化TIMx的时间基数单位
     ac6:	2115                	jal	eea <TIM_TimeBaseInit>
C:/flushbonading/MounRiver/EXE/Libraries/hefei_libraries/hf_tim.c:43
}
     ac8:	40f2                	lw	ra,28(sp)
     aca:	4462                	lw	s0,24(sp)
     acc:	44d2                	lw	s1,20(sp)
     ace:	4942                	lw	s2,16(sp)
     ad0:	6105                	addi	sp,sp,32
     ad2:	8082                	ret
C:/flushbonading/MounRiver/EXE/Libraries/hefei_libraries/hf_tim.c:29
    else if(TIMER_2 == TIMER_x)
     ad4:	4785                	li	a5,1
     ad6:	00f51563          	bne	a0,a5,ae0 <timbase_init+0x58>
C:/flushbonading/MounRiver/EXE/Libraries/hefei_libraries/hf_tim.c:32
        RCC_APB1PeriphClockCmd(RCC_APB1Periph_TIM3, ENABLE);                //时钟使能
     ada:	4585                	li	a1,1
C:/flushbonading/MounRiver/EXE/Libraries/hefei_libraries/hf_tim.c:34
        RCC_APB1PeriphClockCmd(RCC_APB1Periph_TIM4, ENABLE);                //时钟使能
     adc:	2ec5                	jal	ecc <RCC_APB1PeriphClockCmd>
     ade:	b7d9                	j	aa4 <timbase_init+0x1c>
C:/flushbonading/MounRiver/EXE/Libraries/hefei_libraries/hf_tim.c:31
    else if(TIMER_3 == TIMER_x)
     ae0:	4789                	li	a5,2
     ae2:	fef50ce3          	beq	a0,a5,ada <timbase_init+0x52>
C:/flushbonading/MounRiver/EXE/Libraries/hefei_libraries/hf_tim.c:33
    else if(TIMER_4 == TIMER_x)
     ae6:	478d                	li	a5,3
     ae8:	faf51ee3          	bne	a0,a5,aa4 <timbase_init+0x1c>
C:/flushbonading/MounRiver/EXE/Libraries/hefei_libraries/hf_tim.c:34
        RCC_APB1PeriphClockCmd(RCC_APB1Periph_TIM4, ENABLE);                //时钟使能
     aec:	4585                	li	a1,1
     aee:	4511                	li	a0,4
     af0:	b7f5                	j	adc <timbase_init+0x54>

00000af2 <uart_gpio_init>:
uart_gpio_init():
C:/flushbonading/MounRiver/EXE/Libraries/hefei_libraries/hf_uart.c:164
//  @param      rx_pin      串口接收引脚号
//  @return     void
//  Sample usage:           内部使用，用户无需关心
//-------------------------------------------------------------------------------------------------------------------
void uart_gpio_init(UARTPIN_enum tx_pin, UARTPIN_enum rx_pin)
{
     af2:	1141                	addi	sp,sp,-16
     af4:	c606                	sw	ra,12(sp)
C:/flushbonading/MounRiver/EXE/Libraries/hefei_libraries/hf_uart.c:165
    if(tx_pin == UART1_TX_A9 && rx_pin == UART1_RX_A10)
     af6:	e105                	bnez	a0,b16 <uart_gpio_init+0x24>
C:/flushbonading/MounRiver/EXE/Libraries/hefei_libraries/hf_uart.c:165 (discriminator 1)
     af8:	4785                	li	a5,1
     afa:	08f59e63          	bne	a1,a5,b96 <uart_gpio_init+0xa4>
C:/flushbonading/MounRiver/EXE/Libraries/hefei_libraries/hf_uart.c:167
    {
        gpio_init(A9, GPO, 0, SPEED_50MHZ|OUT_AF_PP);
     afe:	31800693          	li	a3,792
     b02:	4601                	li	a2,0
     b04:	4525                	li	a0,9
     b06:	3c89                	jal	558 <gpio_init>
C:/flushbonading/MounRiver/EXE/Libraries/hefei_libraries/hf_uart.c:168
        gpio_init(A10, GPI, 0, IN_FLOAT);
     b08:	4691                	li	a3,4
     b0a:	4601                	li	a2,0
     b0c:	4581                	li	a1,0
     b0e:	4529                	li	a0,10
C:/flushbonading/MounRiver/EXE/Libraries/hefei_libraries/hf_uart.c:193
    else if(tx_pin == UART3_TX_C10)
    {
        gpio_init(C10, GPO, 0, SPEED_50MHZ|OUT_PP);
        gpio_init(C11, GPI, 0, IN_FLOAT);
    }
}
     b10:	40b2                	lw	ra,12(sp)
     b12:	0141                	addi	sp,sp,16
C:/flushbonading/MounRiver/EXE/Libraries/hefei_libraries/hf_uart.c:191
        gpio_init(C11, GPI, 0, IN_FLOAT);
     b14:	b491                	j	558 <gpio_init>
C:/flushbonading/MounRiver/EXE/Libraries/hefei_libraries/hf_uart.c:170
    else if(tx_pin == UART1_TX_B6)
     b16:	4789                	li	a5,2
     b18:	00f51f63          	bne	a0,a5,b36 <uart_gpio_init+0x44>
C:/flushbonading/MounRiver/EXE/Libraries/hefei_libraries/hf_uart.c:172
        gpio_init(B6, GPO, 0, SPEED_50MHZ|OUT_AF_PP);
     b1c:	31800693          	li	a3,792
     b20:	4601                	li	a2,0
     b22:	4585                	li	a1,1
     b24:	02600513          	li	a0,38
     b28:	3c05                	jal	558 <gpio_init>
C:/flushbonading/MounRiver/EXE/Libraries/hefei_libraries/hf_uart.c:173
        gpio_init(B7, GPI, 0, IN_FLOAT);
     b2a:	4691                	li	a3,4
     b2c:	4601                	li	a2,0
     b2e:	4581                	li	a1,0
     b30:	02700513          	li	a0,39
     b34:	bff1                	j	b10 <uart_gpio_init+0x1e>
C:/flushbonading/MounRiver/EXE/Libraries/hefei_libraries/hf_uart.c:176
    else if(tx_pin == UART2_TX_A2)
     b36:	47c1                	li	a5,16
     b38:	00f51d63          	bne	a0,a5,b52 <uart_gpio_init+0x60>
C:/flushbonading/MounRiver/EXE/Libraries/hefei_libraries/hf_uart.c:178
        gpio_init(A2, GPO, 0, SPEED_50MHZ|OUT_AF_PP);
     b3c:	31800693          	li	a3,792
     b40:	4601                	li	a2,0
     b42:	4585                	li	a1,1
     b44:	4509                	li	a0,2
     b46:	3c09                	jal	558 <gpio_init>
C:/flushbonading/MounRiver/EXE/Libraries/hefei_libraries/hf_uart.c:179
        gpio_init(A3, GPI, 0, IN_FLOAT);
     b48:	4691                	li	a3,4
     b4a:	4601                	li	a2,0
     b4c:	4581                	li	a1,0
     b4e:	450d                	li	a0,3
     b50:	b7c1                	j	b10 <uart_gpio_init+0x1e>
C:/flushbonading/MounRiver/EXE/Libraries/hefei_libraries/hf_uart.c:182
    else if(tx_pin == UART3_TX_B10)
     b52:	02000793          	li	a5,32
     b56:	00f51f63          	bne	a0,a5,b74 <uart_gpio_init+0x82>
C:/flushbonading/MounRiver/EXE/Libraries/hefei_libraries/hf_uart.c:184
        gpio_init(B10, GPO, 0, SPEED_50MHZ|OUT_AF_PP);
     b5a:	31800693          	li	a3,792
     b5e:	4601                	li	a2,0
     b60:	4585                	li	a1,1
     b62:	02a00513          	li	a0,42
     b66:	3acd                	jal	558 <gpio_init>
C:/flushbonading/MounRiver/EXE/Libraries/hefei_libraries/hf_uart.c:185
        gpio_init(B11, GPI, 0, IN_FLOAT);
     b68:	4691                	li	a3,4
     b6a:	4601                	li	a2,0
     b6c:	4581                	li	a1,0
     b6e:	02b00513          	li	a0,43
     b72:	bf79                	j	b10 <uart_gpio_init+0x1e>
C:/flushbonading/MounRiver/EXE/Libraries/hefei_libraries/hf_uart.c:188
    else if(tx_pin == UART3_TX_C10)
     b74:	02200793          	li	a5,34
     b78:	00f51f63          	bne	a0,a5,b96 <uart_gpio_init+0xa4>
C:/flushbonading/MounRiver/EXE/Libraries/hefei_libraries/hf_uart.c:190
        gpio_init(C10, GPO, 0, SPEED_50MHZ|OUT_PP);
     b7c:	31000693          	li	a3,784
     b80:	4601                	li	a2,0
     b82:	4585                	li	a1,1
     b84:	04a00513          	li	a0,74
     b88:	3ac1                	jal	558 <gpio_init>
C:/flushbonading/MounRiver/EXE/Libraries/hefei_libraries/hf_uart.c:191
        gpio_init(C11, GPI, 0, IN_FLOAT);
     b8a:	4691                	li	a3,4
     b8c:	4601                	li	a2,0
     b8e:	4581                	li	a1,0
     b90:	04b00513          	li	a0,75
     b94:	bfb5                	j	b10 <uart_gpio_init+0x1e>
C:/flushbonading/MounRiver/EXE/Libraries/hefei_libraries/hf_uart.c:193
}
     b96:	40b2                	lw	ra,12(sp)
     b98:	0141                	addi	sp,sp,16
     b9a:	8082                	ret

00000b9c <uart_init>:
uart_init():
C:/flushbonading/MounRiver/EXE/Libraries/hefei_libraries/hf_uart.c:25
{
     b9c:	7179                	addi	sp,sp,-48
     b9e:	d422                	sw	s0,40(sp)
     ba0:	d226                	sw	s1,36(sp)
     ba2:	d04a                	sw	s2,32(sp)
     ba4:	ce4e                	sw	s3,28(sp)
     ba6:	d606                	sw	ra,44(sp)
     ba8:	842a                	mv	s0,a0
     baa:	84ae                	mv	s1,a1
     bac:	8932                	mv	s2,a2
     bae:	89b6                	mv	s3,a3
C:/flushbonading/MounRiver/EXE/Libraries/hefei_libraries/hf_uart.c:29
    if(UART_1 == UART_x) RCC_APB2PeriphClockCmd(RCC_APB2Periph_USART1, ENABLE);
     bb0:	e129                	bnez	a0,bf2 <uart_init+0x56>
C:/flushbonading/MounRiver/EXE/Libraries/hefei_libraries/hf_uart.c:29 (discriminator 1)
     bb2:	4585                	li	a1,1
     bb4:	6511                	lui	a0,0x4
     bb6:	2ce5                	jal	eae <RCC_APB2PeriphClockCmd>
C:/flushbonading/MounRiver/EXE/Libraries/hefei_libraries/hf_uart.c:34
    uart_gpio_init(tx_pin, rx_pin);
     bb8:	85ce                	mv	a1,s3
     bba:	854a                	mv	a0,s2
     bbc:	3f1d                	jal	af2 <uart_gpio_init>
C:/flushbonading/MounRiver/EXE/Libraries/hefei_libraries/hf_uart.c:40
    USART_InitStructure.USART_Parity = USART_Parity_No;
     bbe:	000c07b7          	lui	a5,0xc0
     bc2:	c43e                	sw	a5,8(sp)
C:/flushbonading/MounRiver/EXE/Libraries/hefei_libraries/hf_uart.c:45
    USART_Init((USART_TypeDef*)UARTN[UART_x], &USART_InitStructure);
     bc4:	6785                	lui	a5,0x1
     bc6:	3f478793          	addi	a5,a5,1012 # 13f4 <UARTN>
     bca:	040a                	slli	s0,s0,0x2
     bcc:	943e                	add	s0,s0,a5
     bce:	4000                	lw	s0,0(s0)
     bd0:	858a                	mv	a1,sp
C:/flushbonading/MounRiver/EXE/Libraries/hefei_libraries/hf_uart.c:37
    USART_InitStructure.USART_BaudRate = baud;
     bd2:	c026                	sw	s1,0(sp)
C:/flushbonading/MounRiver/EXE/Libraries/hefei_libraries/hf_uart.c:45
    USART_Init((USART_TypeDef*)UARTN[UART_x], &USART_InitStructure);
     bd4:	8522                	mv	a0,s0
C:/flushbonading/MounRiver/EXE/Libraries/hefei_libraries/hf_uart.c:38
    USART_InitStructure.USART_WordLength = USART_WordLength_8b;
     bd6:	c202                	sw	zero,4(sp)
C:/flushbonading/MounRiver/EXE/Libraries/hefei_libraries/hf_uart.c:41
    USART_InitStructure.USART_HardwareFlowControl = USART_HardwareFlowControl_None;
     bd8:	00011623          	sh	zero,12(sp)
C:/flushbonading/MounRiver/EXE/Libraries/hefei_libraries/hf_uart.c:45
    USART_Init((USART_TypeDef*)UARTN[UART_x], &USART_InitStructure);
     bdc:	256d                	jal	1286 <USART_Init>
C:/flushbonading/MounRiver/EXE/Libraries/hefei_libraries/hf_uart.c:46
    USART_Cmd((USART_TypeDef*)UARTN[UART_x], ENABLE);
     bde:	8522                	mv	a0,s0
     be0:	4585                	li	a1,1
     be2:	2fb5                	jal	135e <USART_Cmd>
C:/flushbonading/MounRiver/EXE/Libraries/hefei_libraries/hf_uart.c:48
}
     be4:	50b2                	lw	ra,44(sp)
     be6:	5422                	lw	s0,40(sp)
     be8:	5492                	lw	s1,36(sp)
     bea:	5902                	lw	s2,32(sp)
     bec:	49f2                	lw	s3,28(sp)
     bee:	6145                	addi	sp,sp,48
     bf0:	8082                	ret
C:/flushbonading/MounRiver/EXE/Libraries/hefei_libraries/hf_uart.c:30
    else if(UART_2 == UART_x) RCC_APB1PeriphClockCmd(RCC_APB1Periph_USART2, ENABLE);
     bf2:	4785                	li	a5,1
     bf4:	00f51763          	bne	a0,a5,c02 <uart_init+0x66>
C:/flushbonading/MounRiver/EXE/Libraries/hefei_libraries/hf_uart.c:30 (discriminator 1)
     bf8:	4585                	li	a1,1
     bfa:	00020537          	lui	a0,0x20
C:/flushbonading/MounRiver/EXE/Libraries/hefei_libraries/hf_uart.c:31 (discriminator 1)
    else if(UART_3 == UART_x) RCC_APB1PeriphClockCmd(RCC_APB1Periph_USART3, ENABLE);
     bfe:	24f9                	jal	ecc <RCC_APB1PeriphClockCmd>
     c00:	bf65                	j	bb8 <uart_init+0x1c>
C:/flushbonading/MounRiver/EXE/Libraries/hefei_libraries/hf_uart.c:31
     c02:	4789                	li	a5,2
     c04:	faf51ae3          	bne	a0,a5,bb8 <uart_init+0x1c>
C:/flushbonading/MounRiver/EXE/Libraries/hefei_libraries/hf_uart.c:31 (discriminator 1)
     c08:	4585                	li	a1,1
     c0a:	00040537          	lui	a0,0x40
     c0e:	bfc5                	j	bfe <uart_init+0x62>

00000c10 <buzzer_init>:
buzzer_init():
C:/flushbonading/MounRiver/EXE/06-Car_buzzer/CODE/car_buzzer.c:21
//Sample usage:        buzzer_init(void);
//                     //buzzer初始化
//-------------------------------------------------------------------------------------------------------------------
void buzzer_init(void)
{
    pwm_init(PWMCH, FREQ_DIV, 0, TIM_OCPreload_Disable);
     c10:	4681                	li	a3,0
     c12:	4601                	li	a2,0
     c14:	45b9                	li	a1,14
     c16:	450d                	li	a0,3
     c18:	b395                	j	97c <pwm_init>

00000c1a <buzzer_freq>:
buzzer_freq():
C:/flushbonading/MounRiver/EXE/06-Car_buzzer/CODE/car_buzzer.c:33
//Sample usage:        buzzer_freq(400);    //设置buzzer频率为400Hz
                       //频率计算公式：buzzer频率 = PWM信号频率 = 时钟频率（72MHz） / 预分频值 / 自动重装载值
//-------------------------------------------------------------------------------------------------------------------
void buzzer_freq(unsigned int freq)
{
    pwm_freq(PWMCH, freq);
     c1a:	85aa                	mv	a1,a0
     c1c:	450d                	li	a0,3
     c1e:	b4e5                	j	706 <pwm_freq>

00000c20 <buzzer_duty>:
buzzer_duty():
C:/flushbonading/MounRiver/EXE/06-Car_buzzer/CODE/car_buzzer.c:44
//@return		
//Sample usage:        buzzer_duty(50);//设置buzzer输出占空比为50％
//-------------------------------------------------------------------------------------------------------------------
void buzzer_duty(unsigned char duty)
{
    pwm_duty(PWMCH, duty*100);
     c20:	06400593          	li	a1,100
     c24:	02b505b3          	mul	a1,a0,a1
     c28:	450d                	li	a0,3
     c2a:	b4b5                	j	696 <pwm_duty>

00000c2c <car_init>:
car_init():
C:/flushbonading/MounRiver/EXE/06-Car_buzzer/CODE/car_init.c:20
// Sample usage:        car_init(); 
                        //智能车初始化
//-------------------------------------------------------------------------------------------------------------------

void car_init()
{
     c2c:	1141                	addi	sp,sp,-16
     c2e:	c606                	sw	ra,12(sp)
C:/flushbonading/MounRiver/EXE/06-Car_buzzer/CODE/car_init.c:21
    DisableGlobalIRQ();                                         //默认关所有中断
     c30:	3c19                	jal	646 <DisableGlobalIRQ>
C:/flushbonading/MounRiver/EXE/06-Car_buzzer/CODE/car_init.c:22
    uart_init(UART_1, 115200U, UART1_TX_A9, UART1_RX_A10);      //配置TYPE-C串行通信接口，用于printf打印数据
     c32:	65f1                	lui	a1,0x1c
     c34:	4501                	li	a0,0
     c36:	4685                	li	a3,1
     c38:	4601                	li	a2,0
     c3a:	20058593          	addi	a1,a1,512 # 1c200 <_data_lma+0x1adfc>
     c3e:	3fb9                	jal	b9c <uart_init>
C:/flushbonading/MounRiver/EXE/06-Car_buzzer/CODE/car_init.c:23
    board_init();                                               //务必保留，本函数用于初始化MPU,时钟/调试串口
     c40:	f84ff0ef          	jal	ra,3c4 <board_init>
C:/flushbonading/MounRiver/EXE/06-Car_buzzer/CODE/car_init.c:24
    Delay_Init();
     c44:	8bbff0ef          	jal	ra,4fe <Delay_Init>
C:/flushbonading/MounRiver/EXE/06-Car_buzzer/CODE/car_init.c:26

    buzzer_init();
     c48:	37e1                	jal	c10 <buzzer_init>
C:/flushbonading/MounRiver/EXE/06-Car_buzzer/CODE/car_init.c:30

    /* 总中断最后开启 */
    EnableGlobalIRQ(0);
}	
     c4a:	40b2                	lw	ra,12(sp)
C:/flushbonading/MounRiver/EXE/06-Car_buzzer/CODE/car_init.c:29
    EnableGlobalIRQ(0);
     c4c:	4501                	li	a0,0
C:/flushbonading/MounRiver/EXE/06-Car_buzzer/CODE/car_init.c:30
}	
     c4e:	0141                	addi	sp,sp,16
C:/flushbonading/MounRiver/EXE/06-Car_buzzer/CODE/car_init.c:29
    EnableGlobalIRQ(0);
     c50:	bc35                	j	68c <EnableGlobalIRQ>

00000c52 <handle_reset>:
handle_reset():
C:/flushbonading/MounRiver/EXE/Libraries/Device/CH32V10x_p/Startup/startup_ch32v10x.S:147
	.weak	handle_reset
	.align	1
handle_reset:
.option push 
.option	norelax 
	la gp, __global_pointer$
     c52:	20000197          	auipc	gp,0x20000
     c56:	bbe18193          	addi	gp,gp,-1090 # 20000810 <__global_pointer$>
C:/flushbonading/MounRiver/EXE/Libraries/Device/CH32V10x_p/Startup/startup_ch32v10x.S:150
.option	pop 
1:
	la sp, _eusrstack 
     c5a:	20004117          	auipc	sp,0x20004
     c5e:	3a610113          	addi	sp,sp,934 # 20005000 <_eusrstack>
C:/flushbonading/MounRiver/EXE/Libraries/Device/CH32V10x_p/Startup/startup_ch32v10x.S:153
2:
	/* Load data section from flash to RAM */
	la a0, _data_lma
     c62:	00000517          	auipc	a0,0x0
     c66:	7a250513          	addi	a0,a0,1954 # 1404 <_data_lma>
C:/flushbonading/MounRiver/EXE/Libraries/Device/CH32V10x_p/Startup/startup_ch32v10x.S:154
	la a1, _data_vma
     c6a:	1ffff597          	auipc	a1,0x1ffff
     c6e:	39658593          	addi	a1,a1,918 # 20000000 <_data_vma>
C:/flushbonading/MounRiver/EXE/Libraries/Device/CH32V10x_p/Startup/startup_ch32v10x.S:155
	la a2, _edata
     c72:	80818613          	addi	a2,gp,-2040 # 20000018 <_edata>
C:/flushbonading/MounRiver/EXE/Libraries/Device/CH32V10x_p/Startup/startup_ch32v10x.S:156
	bgeu a1, a2, 2f
     c76:	00c5fa63          	bgeu	a1,a2,c8a <handle_reset+0x38>
C:/flushbonading/MounRiver/EXE/Libraries/Device/CH32V10x_p/Startup/startup_ch32v10x.S:158
1:
	lw t0, (a0)
     c7a:	00052283          	lw	t0,0(a0)
C:/flushbonading/MounRiver/EXE/Libraries/Device/CH32V10x_p/Startup/startup_ch32v10x.S:159
	sw t0, (a1)
     c7e:	0055a023          	sw	t0,0(a1)
C:/flushbonading/MounRiver/EXE/Libraries/Device/CH32V10x_p/Startup/startup_ch32v10x.S:160
	addi a0, a0, 4
     c82:	0511                	addi	a0,a0,4
C:/flushbonading/MounRiver/EXE/Libraries/Device/CH32V10x_p/Startup/startup_ch32v10x.S:161
	addi a1, a1, 4
     c84:	0591                	addi	a1,a1,4
C:/flushbonading/MounRiver/EXE/Libraries/Device/CH32V10x_p/Startup/startup_ch32v10x.S:162
	bltu a1, a2, 1b
     c86:	fec5eae3          	bltu	a1,a2,c7a <handle_reset+0x28>
C:/flushbonading/MounRiver/EXE/Libraries/Device/CH32V10x_p/Startup/startup_ch32v10x.S:165
2:
	/* clear bss section */
	la a0, _sbss
     c8a:	80818513          	addi	a0,gp,-2040 # 20000018 <_edata>
C:/flushbonading/MounRiver/EXE/Libraries/Device/CH32V10x_p/Startup/startup_ch32v10x.S:166
	la a1, _ebss
     c8e:	81c18593          	addi	a1,gp,-2020 # 2000002c <_ebss>
C:/flushbonading/MounRiver/EXE/Libraries/Device/CH32V10x_p/Startup/startup_ch32v10x.S:167
	bgeu a0, a1, 2f
     c92:	00b57763          	bgeu	a0,a1,ca0 <handle_reset+0x4e>
C:/flushbonading/MounRiver/EXE/Libraries/Device/CH32V10x_p/Startup/startup_ch32v10x.S:169
1:
	sw zero, (a0)
     c96:	00052023          	sw	zero,0(a0)
C:/flushbonading/MounRiver/EXE/Libraries/Device/CH32V10x_p/Startup/startup_ch32v10x.S:170
	addi a0, a0, 4
     c9a:	0511                	addi	a0,a0,4
C:/flushbonading/MounRiver/EXE/Libraries/Device/CH32V10x_p/Startup/startup_ch32v10x.S:171
	bltu a0, a1, 1b
     c9c:	feb56de3          	bltu	a0,a1,c96 <handle_reset+0x44>
C:/flushbonading/MounRiver/EXE/Libraries/Device/CH32V10x_p/Startup/startup_ch32v10x.S:174
2:
	/* enable all interrupt */
  li t0, 0x88
     ca0:	08800293          	li	t0,136
C:/flushbonading/MounRiver/EXE/Libraries/Device/CH32V10x_p/Startup/startup_ch32v10x.S:175
  csrs mstatus, t0
     ca4:	3002a073          	csrs	mstatus,t0
C:/flushbonading/MounRiver/EXE/Libraries/Device/CH32V10x_p/Startup/startup_ch32v10x.S:176
	la t0, _vector_base
     ca8:	fffff297          	auipc	t0,0xfffff
     cac:	39028293          	addi	t0,t0,912 # 38 <_einit>
C:/flushbonading/MounRiver/EXE/Libraries/Device/CH32V10x_p/Startup/startup_ch32v10x.S:177
  ori t0, t0, 1
     cb0:	0012e293          	ori	t0,t0,1
C:/flushbonading/MounRiver/EXE/Libraries/Device/CH32V10x_p/Startup/startup_ch32v10x.S:178
	csrw mtvec, t0
     cb4:	30529073          	csrw	mtvec,t0
C:/flushbonading/MounRiver/EXE/Libraries/Device/CH32V10x_p/Startup/startup_ch32v10x.S:180

  jal  SystemInit
     cb8:	f44ff0ef          	jal	ra,3fc <SystemInit>
C:/flushbonading/MounRiver/EXE/Libraries/Device/CH32V10x_p/Startup/startup_ch32v10x.S:181
	la t0, main
     cbc:	fffff297          	auipc	t0,0xfffff
     cc0:	69428293          	addi	t0,t0,1684 # 350 <main>
C:/flushbonading/MounRiver/EXE/Libraries/Device/CH32V10x_p/Startup/startup_ch32v10x.S:182
	csrw mepc, t0
     cc4:	34129073          	csrw	mepc,t0
C:/flushbonading/MounRiver/EXE/Libraries/Device/CH32V10x_p/Startup/startup_ch32v10x.S:183
	mret
     cc8:	30200073          	mret

00000ccc <DMA_GetFlagStatus>:
DMA_GetFlagStatus():
C:/flushbonading/MounRiver/EXE/Libraries/Device/CH32V10x_p/CH32V10x_Lib/ch32v10x_dma.c:294
FlagStatus DMA_GetFlagStatus(uint32_t DMAy_FLAG)
{
  FlagStatus bitstatus = RESET;
  uint32_t tmpreg = 0;
  
  if ((DMAy_FLAG & FLAG_Mask) != (uint32_t)RESET)
     ccc:	00351793          	slli	a5,a0,0x3
     cd0:	0007da63          	bgez	a5,ce4 <DMA_GetFlagStatus+0x18>
C:/flushbonading/MounRiver/EXE/Libraries/Device/CH32V10x_p/CH32V10x_Lib/ch32v10x_dma.c:296
  {
    tmpreg = DMA2->INTFR ;
     cd4:	400207b7          	lui	a5,0x40020
     cd8:	4007a783          	lw	a5,1024(a5) # 40020400 <_eusrstack+0x2001b400>
C:/flushbonading/MounRiver/EXE/Libraries/Device/CH32V10x_p/CH32V10x_Lib/ch32v10x_dma.c:303
  else
  {
    tmpreg = DMA1->INTFR ;
  }

  if ((tmpreg & DMAy_FLAG) != (uint32_t)RESET)
     cdc:	8d7d                	and	a0,a0,a5
C:/flushbonading/MounRiver/EXE/Libraries/Device/CH32V10x_p/CH32V10x_Lib/ch32v10x_dma.c:313
  {
    bitstatus = RESET;
  }
  
  return  bitstatus;
}
     cde:	00a03533          	snez	a0,a0
     ce2:	8082                	ret
C:/flushbonading/MounRiver/EXE/Libraries/Device/CH32V10x_p/CH32V10x_Lib/ch32v10x_dma.c:300
    tmpreg = DMA1->INTFR ;
     ce4:	400207b7          	lui	a5,0x40020
     ce8:	439c                	lw	a5,0(a5)
     cea:	bfcd                	j	cdc <DMA_GetFlagStatus+0x10>

00000cec <DMA_ClearFlag>:
DMA_ClearFlag():
C:/flushbonading/MounRiver/EXE/Libraries/Device/CH32V10x_p/CH32V10x_Lib/ch32v10x_dma.c:372
*                      DMA2_FLAG_TE5: DMA2 Channel5 transfer error flag.
* Return         : None 
*********************************************************************************/
void DMA_ClearFlag(uint32_t DMAy_FLAG)
{
  if ((DMAy_FLAG & FLAG_Mask) != (uint32_t)RESET)
     cec:	00351793          	slli	a5,a0,0x3
     cf0:	0007d763          	bgez	a5,cfe <DMA_ClearFlag+0x12>
C:/flushbonading/MounRiver/EXE/Libraries/Device/CH32V10x_p/CH32V10x_Lib/ch32v10x_dma.c:374
  {
    DMA2->INTFCR = DMAy_FLAG;
     cf4:	400207b7          	lui	a5,0x40020
     cf8:	40a7a223          	sw	a0,1028(a5) # 40020404 <_eusrstack+0x2001b404>
     cfc:	8082                	ret
C:/flushbonading/MounRiver/EXE/Libraries/Device/CH32V10x_p/CH32V10x_Lib/ch32v10x_dma.c:378
  }
  else
  {
    DMA1->INTFCR = DMAy_FLAG;
     cfe:	400207b7          	lui	a5,0x40020
     d02:	c3c8                	sw	a0,4(a5)
C:/flushbonading/MounRiver/EXE/Libraries/Device/CH32V10x_p/CH32V10x_Lib/ch32v10x_dma.c:380
  }
}
     d04:	8082                	ret

00000d06 <EXTI_GetITStatus>:
EXTI_GetITStatus():
C:/flushbonading/MounRiver/EXE/Libraries/Device/CH32V10x_p/CH32V10x_Lib/ch32v10x_exti.c:135
ITStatus EXTI_GetITStatus(uint32_t EXTI_Line)
{
  ITStatus bitstatus = RESET;
  uint32_t enablestatus = 0;
  
  enablestatus =  EXTI->INTENR & EXTI_Line;
     d06:	400107b7          	lui	a5,0x40010
     d0a:	40078713          	addi	a4,a5,1024 # 40010400 <_eusrstack+0x2000b400>
     d0e:	4007a783          	lw	a5,1024(a5)
C:/flushbonading/MounRiver/EXE/Libraries/Device/CH32V10x_p/CH32V10x_Lib/ch32v10x_exti.c:136
  if (((EXTI->INTFR & EXTI_Line) != (uint32_t)RESET) && (enablestatus != (uint32_t)RESET))
     d12:	4b58                	lw	a4,20(a4)
     d14:	8f69                	and	a4,a4,a0
     d16:	c709                	beqz	a4,d20 <EXTI_GetITStatus+0x1a>
C:/flushbonading/MounRiver/EXE/Libraries/Device/CH32V10x_p/CH32V10x_Lib/ch32v10x_exti.c:135 (discriminator 1)
  enablestatus =  EXTI->INTENR & EXTI_Line;
     d18:	8d7d                	and	a0,a0,a5
C:/flushbonading/MounRiver/EXE/Libraries/Device/CH32V10x_p/CH32V10x_Lib/ch32v10x_exti.c:136 (discriminator 1)
  if (((EXTI->INTFR & EXTI_Line) != (uint32_t)RESET) && (enablestatus != (uint32_t)RESET))
     d1a:	00a03533          	snez	a0,a0
     d1e:	8082                	ret
C:/flushbonading/MounRiver/EXE/Libraries/Device/CH32V10x_p/CH32V10x_Lib/ch32v10x_exti.c:142
  {
    bitstatus = SET;
  }
  else
  {
    bitstatus = RESET;
     d20:	4501                	li	a0,0
C:/flushbonading/MounRiver/EXE/Libraries/Device/CH32V10x_p/CH32V10x_Lib/ch32v10x_exti.c:145
  }
  return bitstatus;
}
     d22:	8082                	ret

00000d24 <EXTI_ClearITPendingBit>:
EXTI_ClearITPendingBit():
     d24:	400107b7          	lui	a5,0x40010
     d28:	40a7aa23          	sw	a0,1044(a5) # 40010414 <_eusrstack+0x2000b414>
     d2c:	8082                	ret

00000d2e <GPIO_Init>:
GPIO_Init():
C:/flushbonading/MounRiver/EXE/Libraries/Device/CH32V10x_p/CH32V10x_Lib/ch32v10x_gpio.c:92
void GPIO_Init(GPIO_TypeDef* GPIOx, GPIO_InitTypeDef* GPIO_InitStruct)
{
  uint32_t currentmode = 0x00, currentpin = 0x00, pinpos = 0x00, pos = 0x00;
  uint32_t tmpreg = 0x00, pinmask = 0x00;

  currentmode = ((uint32_t)GPIO_InitStruct->GPIO_Mode) & ((uint32_t)0x0F);
     d2e:	459c                	lw	a5,8(a1)
C:/flushbonading/MounRiver/EXE/Libraries/Device/CH32V10x_p/CH32V10x_Lib/ch32v10x_gpio.c:94
	
  if ((((uint32_t)GPIO_InitStruct->GPIO_Mode) & ((uint32_t)0x10)) != 0x00)
     d30:	0107f713          	andi	a4,a5,16
C:/flushbonading/MounRiver/EXE/Libraries/Device/CH32V10x_p/CH32V10x_Lib/ch32v10x_gpio.c:92
  currentmode = ((uint32_t)GPIO_InitStruct->GPIO_Mode) & ((uint32_t)0x0F);
     d34:	00f7f813          	andi	a6,a5,15
C:/flushbonading/MounRiver/EXE/Libraries/Device/CH32V10x_p/CH32V10x_Lib/ch32v10x_gpio.c:94
  if ((((uint32_t)GPIO_InitStruct->GPIO_Mode) & ((uint32_t)0x10)) != 0x00)
     d38:	c701                	beqz	a4,d40 <GPIO_Init+0x12>
C:/flushbonading/MounRiver/EXE/Libraries/Device/CH32V10x_p/CH32V10x_Lib/ch32v10x_gpio.c:96
  { 
    currentmode |= (uint32_t)GPIO_InitStruct->GPIO_Speed;
     d3a:	41d8                	lw	a4,4(a1)
     d3c:	00e86833          	or	a6,a6,a4
C:/flushbonading/MounRiver/EXE/Libraries/Device/CH32V10x_p/CH32V10x_Lib/ch32v10x_gpio.c:99
  }

  if (((uint32_t)GPIO_InitStruct->GPIO_Pin & ((uint32_t)0x00FF)) != 0x00)
     d40:	0005d583          	lhu	a1,0(a1)
     d44:	0ff5f713          	andi	a4,a1,255
     d48:	c339                	beqz	a4,d8e <GPIO_Init+0x60>
C:/flushbonading/MounRiver/EXE/Libraries/Device/CH32V10x_p/CH32V10x_Lib/ch32v10x_gpio.c:101
  {
    tmpreg = GPIOx->CFGLR;
     d4a:	4118                	lw	a4,0(a0)
C:/flushbonading/MounRiver/EXE/Libraries/Device/CH32V10x_p/CH32V10x_Lib/ch32v10x_gpio.c:103
		
    for (pinpos = 0x00; pinpos < 0x08; pinpos++)
     d4c:	4681                	li	a3,0
C:/flushbonading/MounRiver/EXE/Libraries/Device/CH32V10x_p/CH32V10x_Lib/ch32v10x_gpio.c:105
    {
      pos = ((uint32_t)0x01) << pinpos;
     d4e:	4e85                	li	t4,1
C:/flushbonading/MounRiver/EXE/Libraries/Device/CH32V10x_p/CH32V10x_Lib/ch32v10x_gpio.c:111
      currentpin = (GPIO_InitStruct->GPIO_Pin) & pos;
			
      if (currentpin == pos)
      {
        pos = pinpos << 2;
        pinmask = ((uint32_t)0x0F) << pos;
     d50:	4f3d                	li	t5,15
C:/flushbonading/MounRiver/EXE/Libraries/Device/CH32V10x_p/CH32V10x_Lib/ch32v10x_gpio.c:115
        tmpreg &= ~pinmask;
        tmpreg |= (currentmode << pos);

        if (GPIO_InitStruct->GPIO_Mode == GPIO_Mode_IPD)
     d52:	02800f93          	li	t6,40
C:/flushbonading/MounRiver/EXE/Libraries/Device/CH32V10x_p/CH32V10x_Lib/ch32v10x_gpio.c:121
        {
          GPIOx->BCR = (((uint32_t)0x01) << pinpos);
        }
        else
        {
          if (GPIO_InitStruct->GPIO_Mode == GPIO_Mode_IPU)
     d56:	04800293          	li	t0,72
C:/flushbonading/MounRiver/EXE/Libraries/Device/CH32V10x_p/CH32V10x_Lib/ch32v10x_gpio.c:103
    for (pinpos = 0x00; pinpos < 0x08; pinpos++)
     d5a:	4e21                	li	t3,8
C:/flushbonading/MounRiver/EXE/Libraries/Device/CH32V10x_p/CH32V10x_Lib/ch32v10x_gpio.c:105
      pos = ((uint32_t)0x01) << pinpos;
     d5c:	00de9633          	sll	a2,t4,a3
C:/flushbonading/MounRiver/EXE/Libraries/Device/CH32V10x_p/CH32V10x_Lib/ch32v10x_gpio.c:106
      currentpin = (GPIO_InitStruct->GPIO_Pin) & pos;
     d60:	00c5f8b3          	and	a7,a1,a2
C:/flushbonading/MounRiver/EXE/Libraries/Device/CH32V10x_p/CH32V10x_Lib/ch32v10x_gpio.c:108
      if (currentpin == pos)
     d64:	03161163          	bne	a2,a7,d86 <GPIO_Init+0x58>
C:/flushbonading/MounRiver/EXE/Libraries/Device/CH32V10x_p/CH32V10x_Lib/ch32v10x_gpio.c:110
        pos = pinpos << 2;
     d68:	00269893          	slli	a7,a3,0x2
C:/flushbonading/MounRiver/EXE/Libraries/Device/CH32V10x_p/CH32V10x_Lib/ch32v10x_gpio.c:111
        pinmask = ((uint32_t)0x0F) << pos;
     d6c:	011f1333          	sll	t1,t5,a7
C:/flushbonading/MounRiver/EXE/Libraries/Device/CH32V10x_p/CH32V10x_Lib/ch32v10x_gpio.c:112
        tmpreg &= ~pinmask;
     d70:	fff34313          	not	t1,t1
     d74:	00e37733          	and	a4,t1,a4
C:/flushbonading/MounRiver/EXE/Libraries/Device/CH32V10x_p/CH32V10x_Lib/ch32v10x_gpio.c:113
        tmpreg |= (currentmode << pos);
     d78:	011818b3          	sll	a7,a6,a7
     d7c:	00e8e733          	or	a4,a7,a4
C:/flushbonading/MounRiver/EXE/Libraries/Device/CH32V10x_p/CH32V10x_Lib/ch32v10x_gpio.c:115
        if (GPIO_InitStruct->GPIO_Mode == GPIO_Mode_IPD)
     d80:	05f79f63          	bne	a5,t6,dde <GPIO_Init+0xb0>
C:/flushbonading/MounRiver/EXE/Libraries/Device/CH32V10x_p/CH32V10x_Lib/ch32v10x_gpio.c:117
          GPIOx->BCR = (((uint32_t)0x01) << pinpos);
     d84:	c950                	sw	a2,20(a0)
C:/flushbonading/MounRiver/EXE/Libraries/Device/CH32V10x_p/CH32V10x_Lib/ch32v10x_gpio.c:103 (discriminator 2)
    for (pinpos = 0x00; pinpos < 0x08; pinpos++)
     d86:	0685                	addi	a3,a3,1
     d88:	fdc69ae3          	bne	a3,t3,d5c <GPIO_Init+0x2e>
C:/flushbonading/MounRiver/EXE/Libraries/Device/CH32V10x_p/CH32V10x_Lib/ch32v10x_gpio.c:128
            GPIOx->BSHR = (((uint32_t)0x01) << pinpos);
          }
        }
      }
    }
    GPIOx->CFGLR = tmpreg;
     d8c:	c118                	sw	a4,0(a0)
C:/flushbonading/MounRiver/EXE/Libraries/Device/CH32V10x_p/CH32V10x_Lib/ch32v10x_gpio.c:131
  }

  if (GPIO_InitStruct->GPIO_Pin > 0x00FF)
     d8e:	0ff00713          	li	a4,255
     d92:	04b77563          	bgeu	a4,a1,ddc <GPIO_Init+0xae>
C:/flushbonading/MounRiver/EXE/Libraries/Device/CH32V10x_p/CH32V10x_Lib/ch32v10x_gpio.c:133
  {
    tmpreg = GPIOx->CFGHR;
     d96:	4154                	lw	a3,4(a0)
     d98:	4621                	li	a2,8
C:/flushbonading/MounRiver/EXE/Libraries/Device/CH32V10x_p/CH32V10x_Lib/ch32v10x_gpio.c:137
		
    for (pinpos = 0x00; pinpos < 0x08; pinpos++)
    {
      pos = (((uint32_t)0x01) << (pinpos + 0x08));
     d9a:	4e85                	li	t4,1
C:/flushbonading/MounRiver/EXE/Libraries/Device/CH32V10x_p/CH32V10x_Lib/ch32v10x_gpio.c:143
      currentpin = ((GPIO_InitStruct->GPIO_Pin) & pos);
			
      if (currentpin == pos)
      {
        pos = pinpos << 2;
        pinmask = ((uint32_t)0x0F) << pos;
     d9c:	4f3d                	li	t5,15
C:/flushbonading/MounRiver/EXE/Libraries/Device/CH32V10x_p/CH32V10x_Lib/ch32v10x_gpio.c:147
        tmpreg &= ~pinmask;
        tmpreg |= (currentmode << pos);

        if (GPIO_InitStruct->GPIO_Mode == GPIO_Mode_IPD)
     d9e:	02800f93          	li	t6,40
C:/flushbonading/MounRiver/EXE/Libraries/Device/CH32V10x_p/CH32V10x_Lib/ch32v10x_gpio.c:152
        {
          GPIOx->BCR = (((uint32_t)0x01) << (pinpos + 0x08));
        }

        if (GPIO_InitStruct->GPIO_Mode == GPIO_Mode_IPU)
     da2:	04800293          	li	t0,72
C:/flushbonading/MounRiver/EXE/Libraries/Device/CH32V10x_p/CH32V10x_Lib/ch32v10x_gpio.c:135
    for (pinpos = 0x00; pinpos < 0x08; pinpos++)
     da6:	4e41                	li	t3,16
C:/flushbonading/MounRiver/EXE/Libraries/Device/CH32V10x_p/CH32V10x_Lib/ch32v10x_gpio.c:137
      pos = (((uint32_t)0x01) << (pinpos + 0x08));
     da8:	00ce98b3          	sll	a7,t4,a2
C:/flushbonading/MounRiver/EXE/Libraries/Device/CH32V10x_p/CH32V10x_Lib/ch32v10x_gpio.c:138
      currentpin = ((GPIO_InitStruct->GPIO_Pin) & pos);
     dac:	0115f733          	and	a4,a1,a7
C:/flushbonading/MounRiver/EXE/Libraries/Device/CH32V10x_p/CH32V10x_Lib/ch32v10x_gpio.c:140
      if (currentpin == pos)
     db0:	02e89263          	bne	a7,a4,dd4 <GPIO_Init+0xa6>
C:/flushbonading/MounRiver/EXE/Libraries/Device/CH32V10x_p/CH32V10x_Lib/ch32v10x_gpio.c:142
        pos = pinpos << 2;
     db4:	00261713          	slli	a4,a2,0x2
     db8:	1701                	addi	a4,a4,-32
C:/flushbonading/MounRiver/EXE/Libraries/Device/CH32V10x_p/CH32V10x_Lib/ch32v10x_gpio.c:143
        pinmask = ((uint32_t)0x0F) << pos;
     dba:	00ef1333          	sll	t1,t5,a4
C:/flushbonading/MounRiver/EXE/Libraries/Device/CH32V10x_p/CH32V10x_Lib/ch32v10x_gpio.c:144
        tmpreg &= ~pinmask;
     dbe:	fff34313          	not	t1,t1
     dc2:	00d376b3          	and	a3,t1,a3
C:/flushbonading/MounRiver/EXE/Libraries/Device/CH32V10x_p/CH32V10x_Lib/ch32v10x_gpio.c:145
        tmpreg |= (currentmode << pos);
     dc6:	00e81733          	sll	a4,a6,a4
     dca:	8ed9                	or	a3,a3,a4
C:/flushbonading/MounRiver/EXE/Libraries/Device/CH32V10x_p/CH32V10x_Lib/ch32v10x_gpio.c:147
        if (GPIO_InitStruct->GPIO_Mode == GPIO_Mode_IPD)
     dcc:	01f79d63          	bne	a5,t6,de6 <GPIO_Init+0xb8>
C:/flushbonading/MounRiver/EXE/Libraries/Device/CH32V10x_p/CH32V10x_Lib/ch32v10x_gpio.c:149
          GPIOx->BCR = (((uint32_t)0x01) << (pinpos + 0x08));
     dd0:	01152a23          	sw	a7,20(a0)
C:/flushbonading/MounRiver/EXE/Libraries/Device/CH32V10x_p/CH32V10x_Lib/ch32v10x_gpio.c:152
        if (GPIO_InitStruct->GPIO_Mode == GPIO_Mode_IPU)
     dd4:	0605                	addi	a2,a2,1
C:/flushbonading/MounRiver/EXE/Libraries/Device/CH32V10x_p/CH32V10x_Lib/ch32v10x_gpio.c:135 (discriminator 2)
    for (pinpos = 0x00; pinpos < 0x08; pinpos++)
     dd6:	fdc619e3          	bne	a2,t3,da8 <GPIO_Init+0x7a>
C:/flushbonading/MounRiver/EXE/Libraries/Device/CH32V10x_p/CH32V10x_Lib/ch32v10x_gpio.c:158
        {
          GPIOx->BSHR = (((uint32_t)0x01) << (pinpos + 0x08));
        }
      }
    }
    GPIOx->CFGHR = tmpreg;
     dda:	c154                	sw	a3,4(a0)
C:/flushbonading/MounRiver/EXE/Libraries/Device/CH32V10x_p/CH32V10x_Lib/ch32v10x_gpio.c:160
  }
}
     ddc:	8082                	ret
C:/flushbonading/MounRiver/EXE/Libraries/Device/CH32V10x_p/CH32V10x_Lib/ch32v10x_gpio.c:121
          if (GPIO_InitStruct->GPIO_Mode == GPIO_Mode_IPU)
     dde:	fa5794e3          	bne	a5,t0,d86 <GPIO_Init+0x58>
C:/flushbonading/MounRiver/EXE/Libraries/Device/CH32V10x_p/CH32V10x_Lib/ch32v10x_gpio.c:123
            GPIOx->BSHR = (((uint32_t)0x01) << pinpos);
     de2:	c910                	sw	a2,16(a0)
     de4:	b74d                	j	d86 <GPIO_Init+0x58>
C:/flushbonading/MounRiver/EXE/Libraries/Device/CH32V10x_p/CH32V10x_Lib/ch32v10x_gpio.c:152
        if (GPIO_InitStruct->GPIO_Mode == GPIO_Mode_IPU)
     de6:	fe5797e3          	bne	a5,t0,dd4 <GPIO_Init+0xa6>
C:/flushbonading/MounRiver/EXE/Libraries/Device/CH32V10x_p/CH32V10x_Lib/ch32v10x_gpio.c:154
          GPIOx->BSHR = (((uint32_t)0x01) << (pinpos + 0x08));
     dea:	01152823          	sw	a7,16(a0)
     dee:	b7dd                	j	dd4 <GPIO_Init+0xa6>

00000df0 <GPIO_WriteBit>:
GPIO_WriteBit():
C:/flushbonading/MounRiver/EXE/Libraries/Device/CH32V10x_p/CH32V10x_Lib/ch32v10x_gpio.c:283
*                    Bit_SetH: to set the port pin.                  
* Return         : None
*******************************************************************************/
void GPIO_WriteBit(GPIO_TypeDef* GPIOx, uint16_t GPIO_Pin, BitAction BitVal)
{
  if (BitVal != Bit_RESET)
     df0:	c219                	beqz	a2,df6 <GPIO_WriteBit+0x6>
C:/flushbonading/MounRiver/EXE/Libraries/Device/CH32V10x_p/CH32V10x_Lib/ch32v10x_gpio.c:285
  {
    GPIOx->BSHR = GPIO_Pin;
     df2:	c90c                	sw	a1,16(a0)
     df4:	8082                	ret
C:/flushbonading/MounRiver/EXE/Libraries/Device/CH32V10x_p/CH32V10x_Lib/ch32v10x_gpio.c:289
  }
  else
  {
    GPIOx->BCR = GPIO_Pin;
     df6:	c94c                	sw	a1,20(a0)
C:/flushbonading/MounRiver/EXE/Libraries/Device/CH32V10x_p/CH32V10x_Lib/ch32v10x_gpio.c:291
  }
}
     df8:	8082                	ret

00000dfa <RCC_GetClocksFreq>:
RCC_GetClocksFreq():
C:/flushbonading/MounRiver/EXE/Libraries/Device/CH32V10x_p/CH32V10x_Lib/ch32v10x_rcc.c:472
********************************************************************************/
void RCC_GetClocksFreq(RCC_ClocksTypeDef* RCC_Clocks)
{
  uint32_t tmp = 0, pllmull = 0, pllsource = 0, presc = 0;
  
  tmp = RCC->CFGR0 & CFGR0_SWS_Mask;
     dfa:	40021737          	lui	a4,0x40021
     dfe:	435c                	lw	a5,4(a4)
     e00:	4691                	li	a3,4
     e02:	8bb1                	andi	a5,a5,12
C:/flushbonading/MounRiver/EXE/Libraries/Device/CH32V10x_p/CH32V10x_Lib/ch32v10x_rcc.c:474
  
  switch (tmp)
     e04:	00d78563          	beq	a5,a3,e0e <RCC_GetClocksFreq+0x14>
     e08:	46a1                	li	a3,8
     e0a:	06d78863          	beq	a5,a3,e7a <RCC_GetClocksFreq+0x80>
C:/flushbonading/MounRiver/EXE/Libraries/Device/CH32V10x_p/CH32V10x_Lib/ch32v10x_rcc.c:477
  {
    case 0x00: 
      RCC_Clocks->SYSCLK_Frequency = HSI_VALUE;
     e0e:	007a17b7          	lui	a5,0x7a1
     e12:	20078793          	addi	a5,a5,512 # 7a1200 <_data_lma+0x79fdfc>
C:/flushbonading/MounRiver/EXE/Libraries/Device/CH32V10x_p/CH32V10x_Lib/ch32v10x_rcc.c:501
        {
          RCC_Clocks->SYSCLK_Frequency = (HSE_VALUE >> 1) * pllmull;
        }
        else
        {
          RCC_Clocks->SYSCLK_Frequency = HSE_VALUE * pllmull;
     e16:	c11c                	sw	a5,0(a0)
C:/flushbonading/MounRiver/EXE/Libraries/Device/CH32V10x_p/CH32V10x_Lib/ch32v10x_rcc.c:511
    default:
      RCC_Clocks->SYSCLK_Frequency = HSI_VALUE;
      break;
  }

  tmp = RCC->CFGR0 & CFGR0_HPRE_Set_Mask;
     e18:	40021637          	lui	a2,0x40021
     e1c:	425c                	lw	a5,4(a2)
C:/flushbonading/MounRiver/EXE/Libraries/Device/CH32V10x_p/CH32V10x_Lib/ch32v10x_rcc.c:513
  tmp = tmp >> 4;
  presc = APBAHBPrescTable[tmp];
     e1e:	20000737          	lui	a4,0x20000
     e22:	00070713          	mv	a4,a4
C:/flushbonading/MounRiver/EXE/Libraries/Device/CH32V10x_p/CH32V10x_Lib/ch32v10x_rcc.c:512
  tmp = tmp >> 4;
     e26:	8391                	srli	a5,a5,0x4
     e28:	8bbd                	andi	a5,a5,15
C:/flushbonading/MounRiver/EXE/Libraries/Device/CH32V10x_p/CH32V10x_Lib/ch32v10x_rcc.c:513
  presc = APBAHBPrescTable[tmp];
     e2a:	97ba                	add	a5,a5,a4
     e2c:	0007c683          	lbu	a3,0(a5)
C:/flushbonading/MounRiver/EXE/Libraries/Device/CH32V10x_p/CH32V10x_Lib/ch32v10x_rcc.c:514
  RCC_Clocks->HCLK_Frequency = RCC_Clocks->SYSCLK_Frequency >> presc;
     e30:	411c                	lw	a5,0(a0)
     e32:	00d7d7b3          	srl	a5,a5,a3
     e36:	c15c                	sw	a5,4(a0)
C:/flushbonading/MounRiver/EXE/Libraries/Device/CH32V10x_p/CH32V10x_Lib/ch32v10x_rcc.c:515
  tmp = RCC->CFGR0 & CFGR0_PPRE1_Set_Mask;
     e38:	4254                	lw	a3,4(a2)
C:/flushbonading/MounRiver/EXE/Libraries/Device/CH32V10x_p/CH32V10x_Lib/ch32v10x_rcc.c:516
  tmp = tmp >> 8;
     e3a:	82a1                	srli	a3,a3,0x8
     e3c:	8a9d                	andi	a3,a3,7
C:/flushbonading/MounRiver/EXE/Libraries/Device/CH32V10x_p/CH32V10x_Lib/ch32v10x_rcc.c:517
  presc = APBAHBPrescTable[tmp];
     e3e:	96ba                	add	a3,a3,a4
     e40:	0006c683          	lbu	a3,0(a3)
C:/flushbonading/MounRiver/EXE/Libraries/Device/CH32V10x_p/CH32V10x_Lib/ch32v10x_rcc.c:518
  RCC_Clocks->PCLK1_Frequency = RCC_Clocks->HCLK_Frequency >> presc;
     e44:	00d7d6b3          	srl	a3,a5,a3
     e48:	c514                	sw	a3,8(a0)
C:/flushbonading/MounRiver/EXE/Libraries/Device/CH32V10x_p/CH32V10x_Lib/ch32v10x_rcc.c:519
  tmp = RCC->CFGR0 & CFGR0_PPRE2_Set_Mask;
     e4a:	4254                	lw	a3,4(a2)
C:/flushbonading/MounRiver/EXE/Libraries/Device/CH32V10x_p/CH32V10x_Lib/ch32v10x_rcc.c:520
  tmp = tmp >> 11;
     e4c:	82ad                	srli	a3,a3,0xb
     e4e:	8a9d                	andi	a3,a3,7
C:/flushbonading/MounRiver/EXE/Libraries/Device/CH32V10x_p/CH32V10x_Lib/ch32v10x_rcc.c:521
  presc = APBAHBPrescTable[tmp];
     e50:	9736                	add	a4,a4,a3
     e52:	00074703          	lbu	a4,0(a4) # 20000000 <_data_vma>
C:/flushbonading/MounRiver/EXE/Libraries/Device/CH32V10x_p/CH32V10x_Lib/ch32v10x_rcc.c:522
  RCC_Clocks->PCLK2_Frequency = RCC_Clocks->HCLK_Frequency >> presc;
     e56:	00e7d7b3          	srl	a5,a5,a4
     e5a:	c55c                	sw	a5,12(a0)
C:/flushbonading/MounRiver/EXE/Libraries/Device/CH32V10x_p/CH32V10x_Lib/ch32v10x_rcc.c:523
  tmp = RCC->CFGR0 & CFGR0_ADCPRE_Set_Mask;
     e5c:	4258                	lw	a4,4(a2)
C:/flushbonading/MounRiver/EXE/Libraries/Device/CH32V10x_p/CH32V10x_Lib/ch32v10x_rcc.c:524
  tmp = tmp >> 14;
     e5e:	8339                	srli	a4,a4,0xe
     e60:	00377693          	andi	a3,a4,3
C:/flushbonading/MounRiver/EXE/Libraries/Device/CH32V10x_p/CH32V10x_Lib/ch32v10x_rcc.c:525
  presc = ADCPrescTable[tmp];
     e64:	20000737          	lui	a4,0x20000
     e68:	01070713          	addi	a4,a4,16 # 20000010 <ADCPrescTable>
     e6c:	9736                	add	a4,a4,a3
     e6e:	00074703          	lbu	a4,0(a4)
C:/flushbonading/MounRiver/EXE/Libraries/Device/CH32V10x_p/CH32V10x_Lib/ch32v10x_rcc.c:526
  RCC_Clocks->ADCCLK_Frequency = RCC_Clocks->PCLK2_Frequency / presc;
     e72:	02e7d7b3          	divu	a5,a5,a4
     e76:	c91c                	sw	a5,16(a0)
C:/flushbonading/MounRiver/EXE/Libraries/Device/CH32V10x_p/CH32V10x_Lib/ch32v10x_rcc.c:527
}
     e78:	8082                	ret
C:/flushbonading/MounRiver/EXE/Libraries/Device/CH32V10x_p/CH32V10x_Lib/ch32v10x_rcc.c:485
      pllmull = RCC->CFGR0 & CFGR0_PLLMull_Mask;
     e7a:	435c                	lw	a5,4(a4)
C:/flushbonading/MounRiver/EXE/Libraries/Device/CH32V10x_p/CH32V10x_Lib/ch32v10x_rcc.c:486
      pllsource = RCC->CFGR0 & CFGR0_PLLSRC_Mask;    
     e7c:	4354                	lw	a3,4(a4)
C:/flushbonading/MounRiver/EXE/Libraries/Device/CH32V10x_p/CH32V10x_Lib/ch32v10x_rcc.c:487
      pllmull = ( pllmull >> 18) + 2;
     e7e:	83c9                	srli	a5,a5,0x12
     e80:	8bbd                	andi	a5,a5,15
C:/flushbonading/MounRiver/EXE/Libraries/Device/CH32V10x_p/CH32V10x_Lib/ch32v10x_rcc.c:489
      if (pllsource == 0x00)
     e82:	00f69613          	slli	a2,a3,0xf
C:/flushbonading/MounRiver/EXE/Libraries/Device/CH32V10x_p/CH32V10x_Lib/ch32v10x_rcc.c:487
      pllmull = ( pllmull >> 18) + 2;
     e86:	0789                	addi	a5,a5,2
C:/flushbonading/MounRiver/EXE/Libraries/Device/CH32V10x_p/CH32V10x_Lib/ch32v10x_rcc.c:489
      if (pllsource == 0x00)
     e88:	00064963          	bltz	a2,e9a <RCC_GetClocksFreq+0xa0>
C:/flushbonading/MounRiver/EXE/Libraries/Device/CH32V10x_p/CH32V10x_Lib/ch32v10x_rcc.c:497
          RCC_Clocks->SYSCLK_Frequency = (HSE_VALUE >> 1) * pllmull;
     e8c:	003d1737          	lui	a4,0x3d1
     e90:	90070713          	addi	a4,a4,-1792 # 3d0900 <_data_lma+0x3cf4fc>
C:/flushbonading/MounRiver/EXE/Libraries/Device/CH32V10x_p/CH32V10x_Lib/ch32v10x_rcc.c:501
          RCC_Clocks->SYSCLK_Frequency = HSE_VALUE * pllmull;
     e94:	02e787b3          	mul	a5,a5,a4
     e98:	bfbd                	j	e16 <RCC_GetClocksFreq+0x1c>
C:/flushbonading/MounRiver/EXE/Libraries/Device/CH32V10x_p/CH32V10x_Lib/ch32v10x_rcc.c:495
        if ((RCC->CFGR0 & CFGR0_PLLXTPRE_Mask) != (uint32_t)RESET)
     e9a:	4358                	lw	a4,4(a4)
     e9c:	00e71693          	slli	a3,a4,0xe
     ea0:	fe06c6e3          	bltz	a3,e8c <RCC_GetClocksFreq+0x92>
C:/flushbonading/MounRiver/EXE/Libraries/Device/CH32V10x_p/CH32V10x_Lib/ch32v10x_rcc.c:501
          RCC_Clocks->SYSCLK_Frequency = HSE_VALUE * pllmull;
     ea4:	007a1737          	lui	a4,0x7a1
     ea8:	20070713          	addi	a4,a4,512 # 7a1200 <_data_lma+0x79fdfc>
     eac:	b7e5                	j	e94 <RCC_GetClocksFreq+0x9a>

00000eae <RCC_APB2PeriphClockCmd>:
RCC_APB2PeriphClockCmd():
C:/flushbonading/MounRiver/EXE/Libraries/Device/CH32V10x_p/CH32V10x_Lib/ch32v10x_rcc.c:571
*                  NewState: ENABLE or DISABLE
* Return         : None
*******************************************************************************/	
void RCC_APB2PeriphClockCmd(uint32_t RCC_APB2Periph, FunctionalState NewState)
{
  if (NewState != DISABLE)
     eae:	c599                	beqz	a1,ebc <RCC_APB2PeriphClockCmd+0xe>
C:/flushbonading/MounRiver/EXE/Libraries/Device/CH32V10x_p/CH32V10x_Lib/ch32v10x_rcc.c:573
  {
    RCC->APB2PCENR |= RCC_APB2Periph;
     eb0:	40021737          	lui	a4,0x40021
     eb4:	4f1c                	lw	a5,24(a4)
     eb6:	8d5d                	or	a0,a0,a5
     eb8:	cf08                	sw	a0,24(a4)
     eba:	8082                	ret
C:/flushbonading/MounRiver/EXE/Libraries/Device/CH32V10x_p/CH32V10x_Lib/ch32v10x_rcc.c:577
  }
  else
  {
    RCC->APB2PCENR &= ~RCC_APB2Periph;
     ebc:	400217b7          	lui	a5,0x40021
     ec0:	4f98                	lw	a4,24(a5)
     ec2:	fff54513          	not	a0,a0
     ec6:	8d79                	and	a0,a0,a4
     ec8:	cf88                	sw	a0,24(a5)
C:/flushbonading/MounRiver/EXE/Libraries/Device/CH32V10x_p/CH32V10x_Lib/ch32v10x_rcc.c:579
  }
}
     eca:	8082                	ret

00000ecc <RCC_APB1PeriphClockCmd>:
RCC_APB1PeriphClockCmd():
C:/flushbonading/MounRiver/EXE/Libraries/Device/CH32V10x_p/CH32V10x_Lib/ch32v10x_rcc.c:604
*                  NewState: ENABLE or DISABLE.
* Return         : None
*******************************************************************************/	
void RCC_APB1PeriphClockCmd(uint32_t RCC_APB1Periph, FunctionalState NewState)
{
  if (NewState != DISABLE)
     ecc:	c599                	beqz	a1,eda <RCC_APB1PeriphClockCmd+0xe>
C:/flushbonading/MounRiver/EXE/Libraries/Device/CH32V10x_p/CH32V10x_Lib/ch32v10x_rcc.c:606
  {
    RCC->APB1PCENR |= RCC_APB1Periph;
     ece:	40021737          	lui	a4,0x40021
     ed2:	4f5c                	lw	a5,28(a4)
     ed4:	8d5d                	or	a0,a0,a5
     ed6:	cf48                	sw	a0,28(a4)
     ed8:	8082                	ret
C:/flushbonading/MounRiver/EXE/Libraries/Device/CH32V10x_p/CH32V10x_Lib/ch32v10x_rcc.c:610
  }
  else
  {
    RCC->APB1PCENR &= ~RCC_APB1Periph;
     eda:	400217b7          	lui	a5,0x40021
     ede:	4fd8                	lw	a4,28(a5)
     ee0:	fff54513          	not	a0,a0
     ee4:	8d79                	and	a0,a0,a4
     ee6:	cfc8                	sw	a0,28(a5)
C:/flushbonading/MounRiver/EXE/Libraries/Device/CH32V10x_p/CH32V10x_Lib/ch32v10x_rcc.c:612
  }
}
     ee8:	8082                	ret

00000eea <TIM_TimeBaseInit>:
TIM_TimeBaseInit():
C:/flushbonading/MounRiver/EXE/Libraries/Device/CH32V10x_p/CH32V10x_Lib/ch32v10x_tim.c:70
*******************************************************************************/
void TIM_TimeBaseInit(TIM_TypeDef* TIMx, TIM_TimeBaseInitTypeDef* TIM_TimeBaseInitStruct)
{
  uint16_t tmpcr1 = 0;

  tmpcr1 = TIMx->CTLR1;  
     eea:	00055783          	lhu	a5,0(a0)
C:/flushbonading/MounRiver/EXE/Libraries/Device/CH32V10x_p/CH32V10x_Lib/ch32v10x_tim.c:72

  if((TIMx == TIM1) || (TIMx == TIM2) || (TIMx == TIM3)|| (TIMx == TIM4)) 
     eee:	40013737          	lui	a4,0x40013
     ef2:	c0070713          	addi	a4,a4,-1024 # 40012c00 <_eusrstack+0x2000dc00>
C:/flushbonading/MounRiver/EXE/Libraries/Device/CH32V10x_p/CH32V10x_Lib/ch32v10x_tim.c:70
  tmpcr1 = TIMx->CTLR1;  
     ef6:	07c2                	slli	a5,a5,0x10
     ef8:	83c1                	srli	a5,a5,0x10
C:/flushbonading/MounRiver/EXE/Libraries/Device/CH32V10x_p/CH32V10x_Lib/ch32v10x_tim.c:72
  if((TIMx == TIM1) || (TIMx == TIM2) || (TIMx == TIM3)|| (TIMx == TIM4)) 
     efa:	02e50063          	beq	a0,a4,f1a <TIM_TimeBaseInit+0x30>
C:/flushbonading/MounRiver/EXE/Libraries/Device/CH32V10x_p/CH32V10x_Lib/ch32v10x_tim.c:72 (discriminator 1)
     efe:	40000737          	lui	a4,0x40000
     f02:	00e50c63          	beq	a0,a4,f1a <TIM_TimeBaseInit+0x30>
C:/flushbonading/MounRiver/EXE/Libraries/Device/CH32V10x_p/CH32V10x_Lib/ch32v10x_tim.c:72 (discriminator 2)
     f06:	40070713          	addi	a4,a4,1024 # 40000400 <_eusrstack+0x1fffb400>
     f0a:	00e50863          	beq	a0,a4,f1a <TIM_TimeBaseInit+0x30>
C:/flushbonading/MounRiver/EXE/Libraries/Device/CH32V10x_p/CH32V10x_Lib/ch32v10x_tim.c:72 (discriminator 3)
     f0e:	40001737          	lui	a4,0x40001
     f12:	80070713          	addi	a4,a4,-2048 # 40000800 <_eusrstack+0x1fffb800>
     f16:	00e51763          	bne	a0,a4,f24 <TIM_TimeBaseInit+0x3a>
C:/flushbonading/MounRiver/EXE/Libraries/Device/CH32V10x_p/CH32V10x_Lib/ch32v10x_tim.c:75
  {
    tmpcr1 &= (uint16_t)(~((uint16_t)(TIM_DIR | TIM_CMS)));
    tmpcr1 |= (uint32_t)TIM_TimeBaseInitStruct->TIM_CounterMode;
     f1a:	0025d703          	lhu	a4,2(a1)
C:/flushbonading/MounRiver/EXE/Libraries/Device/CH32V10x_p/CH32V10x_Lib/ch32v10x_tim.c:74
    tmpcr1 &= (uint16_t)(~((uint16_t)(TIM_DIR | TIM_CMS)));
     f1e:	f8f7f793          	andi	a5,a5,-113
C:/flushbonading/MounRiver/EXE/Libraries/Device/CH32V10x_p/CH32V10x_Lib/ch32v10x_tim.c:75
    tmpcr1 |= (uint32_t)TIM_TimeBaseInitStruct->TIM_CounterMode;
     f22:	8fd9                	or	a5,a5,a4
C:/flushbonading/MounRiver/EXE/Libraries/Device/CH32V10x_p/CH32V10x_Lib/ch32v10x_tim.c:79
  }

  tmpcr1 &= (uint16_t)(~((uint16_t)TIM_CTLR1_CKD));
  tmpcr1 |= (uint32_t)TIM_TimeBaseInitStruct->TIM_ClockDivision;
     f24:	0065d703          	lhu	a4,6(a1)
C:/flushbonading/MounRiver/EXE/Libraries/Device/CH32V10x_p/CH32V10x_Lib/ch32v10x_tim.c:78
  tmpcr1 &= (uint16_t)(~((uint16_t)TIM_CTLR1_CKD));
     f28:	cff7f793          	andi	a5,a5,-769
     f2c:	07c2                	slli	a5,a5,0x10
     f2e:	83c1                	srli	a5,a5,0x10
C:/flushbonading/MounRiver/EXE/Libraries/Device/CH32V10x_p/CH32V10x_Lib/ch32v10x_tim.c:79
  tmpcr1 |= (uint32_t)TIM_TimeBaseInitStruct->TIM_ClockDivision;
     f30:	8fd9                	or	a5,a5,a4
C:/flushbonading/MounRiver/EXE/Libraries/Device/CH32V10x_p/CH32V10x_Lib/ch32v10x_tim.c:81

  TIMx->CTLR1 = tmpcr1;
     f32:	00f51023          	sh	a5,0(a0)
C:/flushbonading/MounRiver/EXE/Libraries/Device/CH32V10x_p/CH32V10x_Lib/ch32v10x_tim.c:82
  TIMx->ATRLR = TIM_TimeBaseInitStruct->TIM_Period ;
     f36:	0045d783          	lhu	a5,4(a1)
     f3a:	02f51623          	sh	a5,44(a0)
C:/flushbonading/MounRiver/EXE/Libraries/Device/CH32V10x_p/CH32V10x_Lib/ch32v10x_tim.c:83
  TIMx->PSC = TIM_TimeBaseInitStruct->TIM_Prescaler;
     f3e:	0005d783          	lhu	a5,0(a1)
     f42:	02f51423          	sh	a5,40(a0)
C:/flushbonading/MounRiver/EXE/Libraries/Device/CH32V10x_p/CH32V10x_Lib/ch32v10x_tim.c:85
    
  if (TIMx == TIM1)  
     f46:	400137b7          	lui	a5,0x40013
     f4a:	c0078793          	addi	a5,a5,-1024 # 40012c00 <_eusrstack+0x2000dc00>
     f4e:	00f51663          	bne	a0,a5,f5a <TIM_TimeBaseInit+0x70>
C:/flushbonading/MounRiver/EXE/Libraries/Device/CH32V10x_p/CH32V10x_Lib/ch32v10x_tim.c:87
  {
    TIMx->RPTCR = TIM_TimeBaseInitStruct->TIM_RepetitionCounter;
     f52:	0085c783          	lbu	a5,8(a1)
     f56:	02f51823          	sh	a5,48(a0)
C:/flushbonading/MounRiver/EXE/Libraries/Device/CH32V10x_p/CH32V10x_Lib/ch32v10x_tim.c:90
  }

  TIMx->SWEVGR = TIM_PSCReloadMode_Immediate;           
     f5a:	4785                	li	a5,1
     f5c:	00f51a23          	sh	a5,20(a0)
C:/flushbonading/MounRiver/EXE/Libraries/Device/CH32V10x_p/CH32V10x_Lib/ch32v10x_tim.c:91
}
     f60:	8082                	ret

00000f62 <TIM_OC1Init>:
TIM_OC1Init():
C:/flushbonading/MounRiver/EXE/Libraries/Device/CH32V10x_p/CH32V10x_Lib/ch32v10x_tim.c:105
*******************************************************************************/
void TIM_OC1Init(TIM_TypeDef* TIMx, TIM_OCInitTypeDef* TIM_OCInitStruct)
{
  uint16_t tmpccmrx = 0, tmpccer = 0, tmpcr2 = 0;
     
  TIMx->CCER &= (uint16_t)(~(uint16_t)TIM_CC1E);
     f62:	02055783          	lhu	a5,32(a0)
C:/flushbonading/MounRiver/EXE/Libraries/Device/CH32V10x_p/CH32V10x_Lib/ch32v10x_tim.c:111
  tmpccer = TIMx->CCER;
  tmpcr2 =  TIMx->CTLR2;
  tmpccmrx = TIMx->CHCTLR1;
  tmpccmrx &= (uint16_t)(~((uint16_t)TIM_OC1M));
  tmpccmrx &= (uint16_t)(~((uint16_t)TIM_CC1S));
  tmpccmrx |= TIM_OCInitStruct->TIM_OCMode;
     f66:	0005d603          	lhu	a2,0(a1)
C:/flushbonading/MounRiver/EXE/Libraries/Device/CH32V10x_p/CH32V10x_Lib/ch32v10x_tim.c:114
  tmpccer &= (uint16_t)(~((uint16_t)TIM_CC1P));
  tmpccer |= TIM_OCInitStruct->TIM_OCPolarity;
  tmpccer |= TIM_OCInitStruct->TIM_OutputState;
     f6a:	0025d803          	lhu	a6,2(a1)
C:/flushbonading/MounRiver/EXE/Libraries/Device/CH32V10x_p/CH32V10x_Lib/ch32v10x_tim.c:105
  TIMx->CCER &= (uint16_t)(~(uint16_t)TIM_CC1E);
     f6e:	07c2                	slli	a5,a5,0x10
     f70:	83c1                	srli	a5,a5,0x10
     f72:	9bf9                	andi	a5,a5,-2
     f74:	07c2                	slli	a5,a5,0x10
     f76:	83c1                	srli	a5,a5,0x10
     f78:	02f51023          	sh	a5,32(a0)
C:/flushbonading/MounRiver/EXE/Libraries/Device/CH32V10x_p/CH32V10x_Lib/ch32v10x_tim.c:106
  tmpccer = TIMx->CCER;
     f7c:	02055783          	lhu	a5,32(a0)
C:/flushbonading/MounRiver/EXE/Libraries/Device/CH32V10x_p/CH32V10x_Lib/ch32v10x_tim.c:107
  tmpcr2 =  TIMx->CTLR2;
     f80:	00455683          	lhu	a3,4(a0)
C:/flushbonading/MounRiver/EXE/Libraries/Device/CH32V10x_p/CH32V10x_Lib/ch32v10x_tim.c:108
  tmpccmrx = TIMx->CHCTLR1;
     f84:	01855703          	lhu	a4,24(a0)
C:/flushbonading/MounRiver/EXE/Libraries/Device/CH32V10x_p/CH32V10x_Lib/ch32v10x_tim.c:106
  tmpccer = TIMx->CCER;
     f88:	07c2                	slli	a5,a5,0x10
     f8a:	83c1                	srli	a5,a5,0x10
C:/flushbonading/MounRiver/EXE/Libraries/Device/CH32V10x_p/CH32V10x_Lib/ch32v10x_tim.c:108
  tmpccmrx = TIMx->CHCTLR1;
     f8c:	0742                	slli	a4,a4,0x10
     f8e:	8341                	srli	a4,a4,0x10
C:/flushbonading/MounRiver/EXE/Libraries/Device/CH32V10x_p/CH32V10x_Lib/ch32v10x_tim.c:110
  tmpccmrx &= (uint16_t)(~((uint16_t)TIM_CC1S));
     f90:	f8c77713          	andi	a4,a4,-116
C:/flushbonading/MounRiver/EXE/Libraries/Device/CH32V10x_p/CH32V10x_Lib/ch32v10x_tim.c:111
  tmpccmrx |= TIM_OCInitStruct->TIM_OCMode;
     f94:	8f51                	or	a4,a4,a2
C:/flushbonading/MounRiver/EXE/Libraries/Device/CH32V10x_p/CH32V10x_Lib/ch32v10x_tim.c:114
  tmpccer |= TIM_OCInitStruct->TIM_OutputState;
     f96:	0085d603          	lhu	a2,8(a1)
C:/flushbonading/MounRiver/EXE/Libraries/Device/CH32V10x_p/CH32V10x_Lib/ch32v10x_tim.c:112
  tmpccer &= (uint16_t)(~((uint16_t)TIM_CC1P));
     f9a:	9bf5                	andi	a5,a5,-3
C:/flushbonading/MounRiver/EXE/Libraries/Device/CH32V10x_p/CH32V10x_Lib/ch32v10x_tim.c:107
  tmpcr2 =  TIMx->CTLR2;
     f9c:	06c2                	slli	a3,a3,0x10
C:/flushbonading/MounRiver/EXE/Libraries/Device/CH32V10x_p/CH32V10x_Lib/ch32v10x_tim.c:114
  tmpccer |= TIM_OCInitStruct->TIM_OutputState;
     f9e:	01066633          	or	a2,a2,a6
     fa2:	8fd1                	or	a5,a5,a2
C:/flushbonading/MounRiver/EXE/Libraries/Device/CH32V10x_p/CH32V10x_Lib/ch32v10x_tim.c:116
    
  if(TIMx == TIM1)
     fa4:	40013637          	lui	a2,0x40013
     fa8:	c0060613          	addi	a2,a2,-1024 # 40012c00 <_eusrstack+0x2000dc00>
C:/flushbonading/MounRiver/EXE/Libraries/Device/CH32V10x_p/CH32V10x_Lib/ch32v10x_tim.c:107
  tmpcr2 =  TIMx->CTLR2;
     fac:	82c1                	srli	a3,a3,0x10
C:/flushbonading/MounRiver/EXE/Libraries/Device/CH32V10x_p/CH32V10x_Lib/ch32v10x_tim.c:116
  if(TIMx == TIM1)
     fae:	02c51363          	bne	a0,a2,fd4 <TIM_OC1Init+0x72>
C:/flushbonading/MounRiver/EXE/Libraries/Device/CH32V10x_p/CH32V10x_Lib/ch32v10x_tim.c:119
  {
    tmpccer &= (uint16_t)(~((uint16_t)TIM_CC1NP));
    tmpccer |= TIM_OCInitStruct->TIM_OCNPolarity;
     fb2:	00a5d603          	lhu	a2,10(a1)
C:/flushbonading/MounRiver/EXE/Libraries/Device/CH32V10x_p/CH32V10x_Lib/ch32v10x_tim.c:118
    tmpccer &= (uint16_t)(~((uint16_t)TIM_CC1NP));
     fb6:	9bdd                	andi	a5,a5,-9
C:/flushbonading/MounRiver/EXE/Libraries/Device/CH32V10x_p/CH32V10x_Lib/ch32v10x_tim.c:128
    
    tmpcr2 &= (uint16_t)(~((uint16_t)TIM_OIS1));
    tmpcr2 &= (uint16_t)(~((uint16_t)TIM_OIS1N));
    
    tmpcr2 |= TIM_OCInitStruct->TIM_OCIdleState;
    tmpcr2 |= TIM_OCInitStruct->TIM_OCNIdleState;
     fb8:	00e5d803          	lhu	a6,14(a1)
C:/flushbonading/MounRiver/EXE/Libraries/Device/CH32V10x_p/CH32V10x_Lib/ch32v10x_tim.c:119
    tmpccer |= TIM_OCInitStruct->TIM_OCNPolarity;
     fbc:	8fd1                	or	a5,a5,a2
C:/flushbonading/MounRiver/EXE/Libraries/Device/CH32V10x_p/CH32V10x_Lib/ch32v10x_tim.c:122
    tmpccer |= TIM_OCInitStruct->TIM_OutputNState;
     fbe:	0045d603          	lhu	a2,4(a1)
C:/flushbonading/MounRiver/EXE/Libraries/Device/CH32V10x_p/CH32V10x_Lib/ch32v10x_tim.c:121
    tmpccer &= (uint16_t)(~((uint16_t)TIM_CC1NE));    
     fc2:	9bed                	andi	a5,a5,-5
C:/flushbonading/MounRiver/EXE/Libraries/Device/CH32V10x_p/CH32V10x_Lib/ch32v10x_tim.c:125
    tmpcr2 &= (uint16_t)(~((uint16_t)TIM_OIS1N));
     fc4:	cff6f693          	andi	a3,a3,-769
C:/flushbonading/MounRiver/EXE/Libraries/Device/CH32V10x_p/CH32V10x_Lib/ch32v10x_tim.c:122
    tmpccer |= TIM_OCInitStruct->TIM_OutputNState;
     fc8:	8fd1                	or	a5,a5,a2
C:/flushbonading/MounRiver/EXE/Libraries/Device/CH32V10x_p/CH32V10x_Lib/ch32v10x_tim.c:128
    tmpcr2 |= TIM_OCInitStruct->TIM_OCNIdleState;
     fca:	00c5d603          	lhu	a2,12(a1)
     fce:	01066633          	or	a2,a2,a6
     fd2:	8ed1                	or	a3,a3,a2
C:/flushbonading/MounRiver/EXE/Libraries/Device/CH32V10x_p/CH32V10x_Lib/ch32v10x_tim.c:131
  }

  TIMx->CTLR2 = tmpcr2;
     fd4:	00d51223          	sh	a3,4(a0)
C:/flushbonading/MounRiver/EXE/Libraries/Device/CH32V10x_p/CH32V10x_Lib/ch32v10x_tim.c:132
  TIMx->CHCTLR1 = tmpccmrx;
     fd8:	00e51c23          	sh	a4,24(a0)
C:/flushbonading/MounRiver/EXE/Libraries/Device/CH32V10x_p/CH32V10x_Lib/ch32v10x_tim.c:133
  TIMx->CH1CVR = TIM_OCInitStruct->TIM_Pulse; 
     fdc:	0065d703          	lhu	a4,6(a1)
     fe0:	02e51a23          	sh	a4,52(a0)
C:/flushbonading/MounRiver/EXE/Libraries/Device/CH32V10x_p/CH32V10x_Lib/ch32v10x_tim.c:134
  TIMx->CCER = tmpccer;
     fe4:	02f51023          	sh	a5,32(a0)
C:/flushbonading/MounRiver/EXE/Libraries/Device/CH32V10x_p/CH32V10x_Lib/ch32v10x_tim.c:135
}
     fe8:	8082                	ret

00000fea <TIM_OC2Init>:
TIM_OC2Init():
C:/flushbonading/MounRiver/EXE/Libraries/Device/CH32V10x_p/CH32V10x_Lib/ch32v10x_tim.c:149
*******************************************************************************/
void TIM_OC2Init(TIM_TypeDef* TIMx, TIM_OCInitTypeDef* TIM_OCInitStruct)
{
  uint16_t tmpccmrx = 0, tmpccer = 0, tmpcr2 = 0;
   
  TIMx->CCER &= (uint16_t)(~((uint16_t)TIM_CC2E)); 
     fea:	02055783          	lhu	a5,32(a0)
C:/flushbonading/MounRiver/EXE/Libraries/Device/CH32V10x_p/CH32V10x_Lib/ch32v10x_tim.c:154
  tmpccer = TIMx->CCER;
  tmpcr2 =  TIMx->CTLR2;
  tmpccmrx = TIMx->CHCTLR1;
  tmpccmrx &= (uint16_t)(~((uint16_t)TIM_OC2M));
  tmpccmrx &= (uint16_t)(~((uint16_t)TIM_CC2S));
     fee:	7765                	lui	a4,0xffff9
     ff0:	cff70713          	addi	a4,a4,-769 # ffff8cff <_eusrstack+0xdfff3cff>
C:/flushbonading/MounRiver/EXE/Libraries/Device/CH32V10x_p/CH32V10x_Lib/ch32v10x_tim.c:149
  TIMx->CCER &= (uint16_t)(~((uint16_t)TIM_CC2E)); 
     ff4:	07c2                	slli	a5,a5,0x10
     ff6:	83c1                	srli	a5,a5,0x10
     ff8:	9bbd                	andi	a5,a5,-17
     ffa:	07c2                	slli	a5,a5,0x10
     ffc:	83c1                	srli	a5,a5,0x10
     ffe:	02f51023          	sh	a5,32(a0)
C:/flushbonading/MounRiver/EXE/Libraries/Device/CH32V10x_p/CH32V10x_Lib/ch32v10x_tim.c:150
  tmpccer = TIMx->CCER;
    1002:	02055783          	lhu	a5,32(a0)
C:/flushbonading/MounRiver/EXE/Libraries/Device/CH32V10x_p/CH32V10x_Lib/ch32v10x_tim.c:151
  tmpcr2 =  TIMx->CTLR2;
    1006:	00455683          	lhu	a3,4(a0)
C:/flushbonading/MounRiver/EXE/Libraries/Device/CH32V10x_p/CH32V10x_Lib/ch32v10x_tim.c:157
  tmpccmrx |= (uint16_t)(TIM_OCInitStruct->TIM_OCMode << 8);
  tmpccer &= (uint16_t)(~((uint16_t)TIM_CC2P));
  tmpccer |= (uint16_t)(TIM_OCInitStruct->TIM_OCPolarity << 4);
    100a:	0085d803          	lhu	a6,8(a1)
C:/flushbonading/MounRiver/EXE/Libraries/Device/CH32V10x_p/CH32V10x_Lib/ch32v10x_tim.c:150
  tmpccer = TIMx->CCER;
    100e:	07c2                	slli	a5,a5,0x10
C:/flushbonading/MounRiver/EXE/Libraries/Device/CH32V10x_p/CH32V10x_Lib/ch32v10x_tim.c:151
  tmpcr2 =  TIMx->CTLR2;
    1010:	01069613          	slli	a2,a3,0x10
C:/flushbonading/MounRiver/EXE/Libraries/Device/CH32V10x_p/CH32V10x_Lib/ch32v10x_tim.c:152
  tmpccmrx = TIMx->CHCTLR1;
    1014:	01855683          	lhu	a3,24(a0)
C:/flushbonading/MounRiver/EXE/Libraries/Device/CH32V10x_p/CH32V10x_Lib/ch32v10x_tim.c:150
  tmpccer = TIMx->CCER;
    1018:	83c1                	srli	a5,a5,0x10
C:/flushbonading/MounRiver/EXE/Libraries/Device/CH32V10x_p/CH32V10x_Lib/ch32v10x_tim.c:156
  tmpccer &= (uint16_t)(~((uint16_t)TIM_CC2P));
    101a:	fdf7f793          	andi	a5,a5,-33
C:/flushbonading/MounRiver/EXE/Libraries/Device/CH32V10x_p/CH32V10x_Lib/ch32v10x_tim.c:154
  tmpccmrx &= (uint16_t)(~((uint16_t)TIM_CC2S));
    101e:	8f75                	and	a4,a4,a3
C:/flushbonading/MounRiver/EXE/Libraries/Device/CH32V10x_p/CH32V10x_Lib/ch32v10x_tim.c:155
  tmpccmrx |= (uint16_t)(TIM_OCInitStruct->TIM_OCMode << 8);
    1020:	0005d683          	lhu	a3,0(a1)
C:/flushbonading/MounRiver/EXE/Libraries/Device/CH32V10x_p/CH32V10x_Lib/ch32v10x_tim.c:151
  tmpcr2 =  TIMx->CTLR2;
    1024:	8241                	srli	a2,a2,0x10
C:/flushbonading/MounRiver/EXE/Libraries/Device/CH32V10x_p/CH32V10x_Lib/ch32v10x_tim.c:155
  tmpccmrx |= (uint16_t)(TIM_OCInitStruct->TIM_OCMode << 8);
    1026:	06a2                	slli	a3,a3,0x8
    1028:	8f55                	or	a4,a4,a3
C:/flushbonading/MounRiver/EXE/Libraries/Device/CH32V10x_p/CH32V10x_Lib/ch32v10x_tim.c:158
  tmpccer |= (uint16_t)(TIM_OCInitStruct->TIM_OutputState << 4);
    102a:	0025d683          	lhu	a3,2(a1)
C:/flushbonading/MounRiver/EXE/Libraries/Device/CH32V10x_p/CH32V10x_Lib/ch32v10x_tim.c:155
  tmpccmrx |= (uint16_t)(TIM_OCInitStruct->TIM_OCMode << 8);
    102e:	0742                	slli	a4,a4,0x10
    1030:	8341                	srli	a4,a4,0x10
C:/flushbonading/MounRiver/EXE/Libraries/Device/CH32V10x_p/CH32V10x_Lib/ch32v10x_tim.c:158
  tmpccer |= (uint16_t)(TIM_OCInitStruct->TIM_OutputState << 4);
    1032:	0106e6b3          	or	a3,a3,a6
    1036:	0692                	slli	a3,a3,0x4
    1038:	8fd5                	or	a5,a5,a3
C:/flushbonading/MounRiver/EXE/Libraries/Device/CH32V10x_p/CH32V10x_Lib/ch32v10x_tim.c:160
    
  if(TIMx == TIM1)
    103a:	400136b7          	lui	a3,0x40013
C:/flushbonading/MounRiver/EXE/Libraries/Device/CH32V10x_p/CH32V10x_Lib/ch32v10x_tim.c:158
  tmpccer |= (uint16_t)(TIM_OCInitStruct->TIM_OutputState << 4);
    103e:	07c2                	slli	a5,a5,0x10
C:/flushbonading/MounRiver/EXE/Libraries/Device/CH32V10x_p/CH32V10x_Lib/ch32v10x_tim.c:160
  if(TIMx == TIM1)
    1040:	c0068693          	addi	a3,a3,-1024 # 40012c00 <_eusrstack+0x2000dc00>
C:/flushbonading/MounRiver/EXE/Libraries/Device/CH32V10x_p/CH32V10x_Lib/ch32v10x_tim.c:158
  tmpccer |= (uint16_t)(TIM_OCInitStruct->TIM_OutputState << 4);
    1044:	83c1                	srli	a5,a5,0x10
C:/flushbonading/MounRiver/EXE/Libraries/Device/CH32V10x_p/CH32V10x_Lib/ch32v10x_tim.c:160
  if(TIMx == TIM1)
    1046:	04d51163          	bne	a0,a3,1088 <TIM_OC2Init+0x9e>
C:/flushbonading/MounRiver/EXE/Libraries/Device/CH32V10x_p/CH32V10x_Lib/ch32v10x_tim.c:163
  {
    tmpccer &= (uint16_t)(~((uint16_t)TIM_CC2NP));
    tmpccer |= (uint16_t)(TIM_OCInitStruct->TIM_OCNPolarity << 4);
    104a:	00a5d683          	lhu	a3,10(a1)
C:/flushbonading/MounRiver/EXE/Libraries/Device/CH32V10x_p/CH32V10x_Lib/ch32v10x_tim.c:162
    tmpccer &= (uint16_t)(~((uint16_t)TIM_CC2NP));
    104e:	f7f7f793          	andi	a5,a5,-129
C:/flushbonading/MounRiver/EXE/Libraries/Device/CH32V10x_p/CH32V10x_Lib/ch32v10x_tim.c:169
    tmpccer &= (uint16_t)(~((uint16_t)TIM_CC2NE));    
    tmpccer |= (uint16_t)(TIM_OCInitStruct->TIM_OutputNState << 4);
    
    tmpcr2 &= (uint16_t)(~((uint16_t)TIM_OIS2));
    tmpcr2 &= (uint16_t)(~((uint16_t)TIM_OIS2N));
    tmpcr2 |= (uint16_t)(TIM_OCInitStruct->TIM_OCIdleState << 2);
    1052:	00c5d803          	lhu	a6,12(a1)
C:/flushbonading/MounRiver/EXE/Libraries/Device/CH32V10x_p/CH32V10x_Lib/ch32v10x_tim.c:163
    tmpccer |= (uint16_t)(TIM_OCInitStruct->TIM_OCNPolarity << 4);
    1056:	0692                	slli	a3,a3,0x4
    1058:	8fd5                	or	a5,a5,a3
C:/flushbonading/MounRiver/EXE/Libraries/Device/CH32V10x_p/CH32V10x_Lib/ch32v10x_tim.c:165
    tmpccer |= (uint16_t)(TIM_OCInitStruct->TIM_OutputNState << 4);
    105a:	0045d683          	lhu	a3,4(a1)
C:/flushbonading/MounRiver/EXE/Libraries/Device/CH32V10x_p/CH32V10x_Lib/ch32v10x_tim.c:163
    tmpccer |= (uint16_t)(TIM_OCInitStruct->TIM_OCNPolarity << 4);
    105e:	07c2                	slli	a5,a5,0x10
    1060:	83c1                	srli	a5,a5,0x10
C:/flushbonading/MounRiver/EXE/Libraries/Device/CH32V10x_p/CH32V10x_Lib/ch32v10x_tim.c:165
    tmpccer |= (uint16_t)(TIM_OCInitStruct->TIM_OutputNState << 4);
    1062:	0692                	slli	a3,a3,0x4
C:/flushbonading/MounRiver/EXE/Libraries/Device/CH32V10x_p/CH32V10x_Lib/ch32v10x_tim.c:164
    tmpccer &= (uint16_t)(~((uint16_t)TIM_CC2NE));    
    1064:	fbf7f793          	andi	a5,a5,-65
C:/flushbonading/MounRiver/EXE/Libraries/Device/CH32V10x_p/CH32V10x_Lib/ch32v10x_tim.c:165
    tmpccer |= (uint16_t)(TIM_OCInitStruct->TIM_OutputNState << 4);
    1068:	8fd5                	or	a5,a5,a3
C:/flushbonading/MounRiver/EXE/Libraries/Device/CH32V10x_p/CH32V10x_Lib/ch32v10x_tim.c:168
    tmpcr2 &= (uint16_t)(~((uint16_t)TIM_OIS2N));
    106a:	76fd                	lui	a3,0xfffff
    106c:	3ff68693          	addi	a3,a3,1023 # fffff3ff <_eusrstack+0xdfffa3ff>
    1070:	8ef1                	and	a3,a3,a2
C:/flushbonading/MounRiver/EXE/Libraries/Device/CH32V10x_p/CH32V10x_Lib/ch32v10x_tim.c:170
    tmpcr2 |= (uint16_t)(TIM_OCInitStruct->TIM_OCNIdleState << 2);
    1072:	00e5d603          	lhu	a2,14(a1)
C:/flushbonading/MounRiver/EXE/Libraries/Device/CH32V10x_p/CH32V10x_Lib/ch32v10x_tim.c:165
    tmpccer |= (uint16_t)(TIM_OCInitStruct->TIM_OutputNState << 4);
    1076:	07c2                	slli	a5,a5,0x10
    1078:	83c1                	srli	a5,a5,0x10
C:/flushbonading/MounRiver/EXE/Libraries/Device/CH32V10x_p/CH32V10x_Lib/ch32v10x_tim.c:170
    tmpcr2 |= (uint16_t)(TIM_OCInitStruct->TIM_OCNIdleState << 2);
    107a:	01066633          	or	a2,a2,a6
    107e:	060a                	slli	a2,a2,0x2
    1080:	8ed1                	or	a3,a3,a2
    1082:	01069613          	slli	a2,a3,0x10
    1086:	8241                	srli	a2,a2,0x10
C:/flushbonading/MounRiver/EXE/Libraries/Device/CH32V10x_p/CH32V10x_Lib/ch32v10x_tim.c:173
  }

  TIMx->CTLR2 = tmpcr2;
    1088:	00c51223          	sh	a2,4(a0)
C:/flushbonading/MounRiver/EXE/Libraries/Device/CH32V10x_p/CH32V10x_Lib/ch32v10x_tim.c:174
  TIMx->CHCTLR1 = tmpccmrx;
    108c:	00e51c23          	sh	a4,24(a0)
C:/flushbonading/MounRiver/EXE/Libraries/Device/CH32V10x_p/CH32V10x_Lib/ch32v10x_tim.c:175
  TIMx->CH2CVR = TIM_OCInitStruct->TIM_Pulse;
    1090:	0065d703          	lhu	a4,6(a1)
    1094:	02e51c23          	sh	a4,56(a0)
C:/flushbonading/MounRiver/EXE/Libraries/Device/CH32V10x_p/CH32V10x_Lib/ch32v10x_tim.c:176
  TIMx->CCER = tmpccer;
    1098:	02f51023          	sh	a5,32(a0)
C:/flushbonading/MounRiver/EXE/Libraries/Device/CH32V10x_p/CH32V10x_Lib/ch32v10x_tim.c:177
}
    109c:	8082                	ret

0000109e <TIM_OC3Init>:
TIM_OC3Init():
C:/flushbonading/MounRiver/EXE/Libraries/Device/CH32V10x_p/CH32V10x_Lib/ch32v10x_tim.c:191
*******************************************************************************/
void TIM_OC3Init(TIM_TypeDef* TIMx, TIM_OCInitTypeDef* TIM_OCInitStruct)
{
  uint16_t tmpccmrx = 0, tmpccer = 0, tmpcr2 = 0;
   
  TIMx->CCER &= (uint16_t)(~((uint16_t)TIM_CC3E));
    109e:	02055783          	lhu	a5,32(a0)
C:/flushbonading/MounRiver/EXE/Libraries/Device/CH32V10x_p/CH32V10x_Lib/ch32v10x_tim.c:199
  tmpccmrx = TIMx->CHCTLR2;
  tmpccmrx &= (uint16_t)(~((uint16_t)TIM_OC3M));
  tmpccmrx &= (uint16_t)(~((uint16_t)TIM_CC3S));  
  tmpccmrx |= TIM_OCInitStruct->TIM_OCMode;
  tmpccer &= (uint16_t)(~((uint16_t)TIM_CC3P));
  tmpccer |= (uint16_t)(TIM_OCInitStruct->TIM_OCPolarity << 8);
    10a2:	0085d803          	lhu	a6,8(a1)
C:/flushbonading/MounRiver/EXE/Libraries/Device/CH32V10x_p/CH32V10x_Lib/ch32v10x_tim.c:191
  TIMx->CCER &= (uint16_t)(~((uint16_t)TIM_CC3E));
    10a6:	07c2                	slli	a5,a5,0x10
    10a8:	83c1                	srli	a5,a5,0x10
    10aa:	eff7f793          	andi	a5,a5,-257
    10ae:	07c2                	slli	a5,a5,0x10
    10b0:	83c1                	srli	a5,a5,0x10
    10b2:	02f51023          	sh	a5,32(a0)
C:/flushbonading/MounRiver/EXE/Libraries/Device/CH32V10x_p/CH32V10x_Lib/ch32v10x_tim.c:192
  tmpccer = TIMx->CCER;
    10b6:	02055783          	lhu	a5,32(a0)
C:/flushbonading/MounRiver/EXE/Libraries/Device/CH32V10x_p/CH32V10x_Lib/ch32v10x_tim.c:193
  tmpcr2 =  TIMx->CTLR2;
    10ba:	00455683          	lhu	a3,4(a0)
C:/flushbonading/MounRiver/EXE/Libraries/Device/CH32V10x_p/CH32V10x_Lib/ch32v10x_tim.c:194
  tmpccmrx = TIMx->CHCTLR2;
    10be:	01c55703          	lhu	a4,28(a0)
C:/flushbonading/MounRiver/EXE/Libraries/Device/CH32V10x_p/CH32V10x_Lib/ch32v10x_tim.c:192
  tmpccer = TIMx->CCER;
    10c2:	07c2                	slli	a5,a5,0x10
C:/flushbonading/MounRiver/EXE/Libraries/Device/CH32V10x_p/CH32V10x_Lib/ch32v10x_tim.c:193
  tmpcr2 =  TIMx->CTLR2;
    10c4:	01069613          	slli	a2,a3,0x10
C:/flushbonading/MounRiver/EXE/Libraries/Device/CH32V10x_p/CH32V10x_Lib/ch32v10x_tim.c:194
  tmpccmrx = TIMx->CHCTLR2;
    10c8:	0742                	slli	a4,a4,0x10
C:/flushbonading/MounRiver/EXE/Libraries/Device/CH32V10x_p/CH32V10x_Lib/ch32v10x_tim.c:197
  tmpccmrx |= TIM_OCInitStruct->TIM_OCMode;
    10ca:	0005d683          	lhu	a3,0(a1)
C:/flushbonading/MounRiver/EXE/Libraries/Device/CH32V10x_p/CH32V10x_Lib/ch32v10x_tim.c:194
  tmpccmrx = TIMx->CHCTLR2;
    10ce:	8341                	srli	a4,a4,0x10
C:/flushbonading/MounRiver/EXE/Libraries/Device/CH32V10x_p/CH32V10x_Lib/ch32v10x_tim.c:196
  tmpccmrx &= (uint16_t)(~((uint16_t)TIM_CC3S));  
    10d0:	f8c77713          	andi	a4,a4,-116
C:/flushbonading/MounRiver/EXE/Libraries/Device/CH32V10x_p/CH32V10x_Lib/ch32v10x_tim.c:197
  tmpccmrx |= TIM_OCInitStruct->TIM_OCMode;
    10d4:	8f55                	or	a4,a4,a3
C:/flushbonading/MounRiver/EXE/Libraries/Device/CH32V10x_p/CH32V10x_Lib/ch32v10x_tim.c:200
  tmpccer |= (uint16_t)(TIM_OCInitStruct->TIM_OutputState << 8);
    10d6:	0025d683          	lhu	a3,2(a1)
C:/flushbonading/MounRiver/EXE/Libraries/Device/CH32V10x_p/CH32V10x_Lib/ch32v10x_tim.c:192
  tmpccer = TIMx->CCER;
    10da:	83c1                	srli	a5,a5,0x10
C:/flushbonading/MounRiver/EXE/Libraries/Device/CH32V10x_p/CH32V10x_Lib/ch32v10x_tim.c:198
  tmpccer &= (uint16_t)(~((uint16_t)TIM_CC3P));
    10dc:	dff7f793          	andi	a5,a5,-513
C:/flushbonading/MounRiver/EXE/Libraries/Device/CH32V10x_p/CH32V10x_Lib/ch32v10x_tim.c:200
  tmpccer |= (uint16_t)(TIM_OCInitStruct->TIM_OutputState << 8);
    10e0:	0106e6b3          	or	a3,a3,a6
    10e4:	06a2                	slli	a3,a3,0x8
    10e6:	8fd5                	or	a5,a5,a3
C:/flushbonading/MounRiver/EXE/Libraries/Device/CH32V10x_p/CH32V10x_Lib/ch32v10x_tim.c:202
    
  if(TIMx == TIM1)
    10e8:	400136b7          	lui	a3,0x40013
C:/flushbonading/MounRiver/EXE/Libraries/Device/CH32V10x_p/CH32V10x_Lib/ch32v10x_tim.c:200
  tmpccer |= (uint16_t)(TIM_OCInitStruct->TIM_OutputState << 8);
    10ec:	07c2                	slli	a5,a5,0x10
C:/flushbonading/MounRiver/EXE/Libraries/Device/CH32V10x_p/CH32V10x_Lib/ch32v10x_tim.c:202
  if(TIMx == TIM1)
    10ee:	c0068693          	addi	a3,a3,-1024 # 40012c00 <_eusrstack+0x2000dc00>
C:/flushbonading/MounRiver/EXE/Libraries/Device/CH32V10x_p/CH32V10x_Lib/ch32v10x_tim.c:193
  tmpcr2 =  TIMx->CTLR2;
    10f2:	8241                	srli	a2,a2,0x10
C:/flushbonading/MounRiver/EXE/Libraries/Device/CH32V10x_p/CH32V10x_Lib/ch32v10x_tim.c:200
  tmpccer |= (uint16_t)(TIM_OCInitStruct->TIM_OutputState << 8);
    10f4:	83c1                	srli	a5,a5,0x10
C:/flushbonading/MounRiver/EXE/Libraries/Device/CH32V10x_p/CH32V10x_Lib/ch32v10x_tim.c:202
  if(TIMx == TIM1)
    10f6:	04d51263          	bne	a0,a3,113a <TIM_OC3Init+0x9c>
C:/flushbonading/MounRiver/EXE/Libraries/Device/CH32V10x_p/CH32V10x_Lib/ch32v10x_tim.c:204
  {
    tmpccer &= (uint16_t)(~((uint16_t)TIM_CC3NP));
    10fa:	76fd                	lui	a3,0xfffff
    10fc:	7ff68693          	addi	a3,a3,2047 # fffff7ff <_eusrstack+0xdfffa7ff>
    1100:	8ff5                	and	a5,a5,a3
C:/flushbonading/MounRiver/EXE/Libraries/Device/CH32V10x_p/CH32V10x_Lib/ch32v10x_tim.c:205
    tmpccer |= (uint16_t)(TIM_OCInitStruct->TIM_OCNPolarity << 8);
    1102:	00a5d683          	lhu	a3,10(a1)
C:/flushbonading/MounRiver/EXE/Libraries/Device/CH32V10x_p/CH32V10x_Lib/ch32v10x_tim.c:210
    tmpccer &= (uint16_t)(~((uint16_t)TIM_CC3NE));
    tmpccer |= (uint16_t)(TIM_OCInitStruct->TIM_OutputNState << 8);
    tmpcr2 &= (uint16_t)(~((uint16_t)TIM_OIS3));
    tmpcr2 &= (uint16_t)(~((uint16_t)TIM_OIS3N));
    tmpcr2 |= (uint16_t)(TIM_OCInitStruct->TIM_OCIdleState << 4);
    1106:	00c5d803          	lhu	a6,12(a1)
C:/flushbonading/MounRiver/EXE/Libraries/Device/CH32V10x_p/CH32V10x_Lib/ch32v10x_tim.c:205
    tmpccer |= (uint16_t)(TIM_OCInitStruct->TIM_OCNPolarity << 8);
    110a:	06a2                	slli	a3,a3,0x8
    110c:	8fd5                	or	a5,a5,a3
C:/flushbonading/MounRiver/EXE/Libraries/Device/CH32V10x_p/CH32V10x_Lib/ch32v10x_tim.c:207
    tmpccer |= (uint16_t)(TIM_OCInitStruct->TIM_OutputNState << 8);
    110e:	0045d683          	lhu	a3,4(a1)
C:/flushbonading/MounRiver/EXE/Libraries/Device/CH32V10x_p/CH32V10x_Lib/ch32v10x_tim.c:205
    tmpccer |= (uint16_t)(TIM_OCInitStruct->TIM_OCNPolarity << 8);
    1112:	07c2                	slli	a5,a5,0x10
    1114:	83c1                	srli	a5,a5,0x10
C:/flushbonading/MounRiver/EXE/Libraries/Device/CH32V10x_p/CH32V10x_Lib/ch32v10x_tim.c:207
    tmpccer |= (uint16_t)(TIM_OCInitStruct->TIM_OutputNState << 8);
    1116:	06a2                	slli	a3,a3,0x8
C:/flushbonading/MounRiver/EXE/Libraries/Device/CH32V10x_p/CH32V10x_Lib/ch32v10x_tim.c:206
    tmpccer &= (uint16_t)(~((uint16_t)TIM_CC3NE));
    1118:	bff7f793          	andi	a5,a5,-1025
C:/flushbonading/MounRiver/EXE/Libraries/Device/CH32V10x_p/CH32V10x_Lib/ch32v10x_tim.c:207
    tmpccer |= (uint16_t)(TIM_OCInitStruct->TIM_OutputNState << 8);
    111c:	8fd5                	or	a5,a5,a3
C:/flushbonading/MounRiver/EXE/Libraries/Device/CH32V10x_p/CH32V10x_Lib/ch32v10x_tim.c:209
    tmpcr2 &= (uint16_t)(~((uint16_t)TIM_OIS3N));
    111e:	76f5                	lui	a3,0xffffd
    1120:	16fd                	addi	a3,a3,-1
    1122:	8ef1                	and	a3,a3,a2
C:/flushbonading/MounRiver/EXE/Libraries/Device/CH32V10x_p/CH32V10x_Lib/ch32v10x_tim.c:211
    tmpcr2 |= (uint16_t)(TIM_OCInitStruct->TIM_OCNIdleState << 4);
    1124:	00e5d603          	lhu	a2,14(a1)
C:/flushbonading/MounRiver/EXE/Libraries/Device/CH32V10x_p/CH32V10x_Lib/ch32v10x_tim.c:207
    tmpccer |= (uint16_t)(TIM_OCInitStruct->TIM_OutputNState << 8);
    1128:	07c2                	slli	a5,a5,0x10
    112a:	83c1                	srli	a5,a5,0x10
C:/flushbonading/MounRiver/EXE/Libraries/Device/CH32V10x_p/CH32V10x_Lib/ch32v10x_tim.c:211
    tmpcr2 |= (uint16_t)(TIM_OCInitStruct->TIM_OCNIdleState << 4);
    112c:	01066633          	or	a2,a2,a6
    1130:	0612                	slli	a2,a2,0x4
    1132:	8ed1                	or	a3,a3,a2
    1134:	01069613          	slli	a2,a3,0x10
    1138:	8241                	srli	a2,a2,0x10
C:/flushbonading/MounRiver/EXE/Libraries/Device/CH32V10x_p/CH32V10x_Lib/ch32v10x_tim.c:214
  }

  TIMx->CTLR2 = tmpcr2;
    113a:	00c51223          	sh	a2,4(a0)
C:/flushbonading/MounRiver/EXE/Libraries/Device/CH32V10x_p/CH32V10x_Lib/ch32v10x_tim.c:215
  TIMx->CHCTLR2 = tmpccmrx;
    113e:	00e51e23          	sh	a4,28(a0)
C:/flushbonading/MounRiver/EXE/Libraries/Device/CH32V10x_p/CH32V10x_Lib/ch32v10x_tim.c:216
  TIMx->CH3CVR = TIM_OCInitStruct->TIM_Pulse;
    1142:	0065d703          	lhu	a4,6(a1)
    1146:	02e51e23          	sh	a4,60(a0)
C:/flushbonading/MounRiver/EXE/Libraries/Device/CH32V10x_p/CH32V10x_Lib/ch32v10x_tim.c:217
  TIMx->CCER = tmpccer;
    114a:	02f51023          	sh	a5,32(a0)
C:/flushbonading/MounRiver/EXE/Libraries/Device/CH32V10x_p/CH32V10x_Lib/ch32v10x_tim.c:218
}
    114e:	8082                	ret

00001150 <TIM_OC4Init>:
TIM_OC4Init():
C:/flushbonading/MounRiver/EXE/Libraries/Device/CH32V10x_p/CH32V10x_Lib/ch32v10x_tim.c:232
*******************************************************************************/
void TIM_OC4Init(TIM_TypeDef* TIMx, TIM_OCInitTypeDef* TIM_OCInitStruct)
{
  uint16_t tmpccmrx = 0, tmpccer = 0, tmpcr2 = 0;

  TIMx->CCER &= (uint16_t)(~((uint16_t)TIM_CC4E));
    1150:	02055703          	lhu	a4,32(a0)
    1154:	77fd                	lui	a5,0xfffff
    1156:	17fd                	addi	a5,a5,-1
    1158:	8ff9                	and	a5,a5,a4
    115a:	02f51023          	sh	a5,32(a0)
C:/flushbonading/MounRiver/EXE/Libraries/Device/CH32V10x_p/CH32V10x_Lib/ch32v10x_tim.c:233
  tmpccer = TIMx->CCER;
    115e:	02055803          	lhu	a6,32(a0)
C:/flushbonading/MounRiver/EXE/Libraries/Device/CH32V10x_p/CH32V10x_Lib/ch32v10x_tim.c:234
  tmpcr2 =  TIMx->CTLR2;
    1162:	00455683          	lhu	a3,4(a0)
C:/flushbonading/MounRiver/EXE/Libraries/Device/CH32V10x_p/CH32V10x_Lib/ch32v10x_tim.c:235
  tmpccmrx = TIMx->CHCTLR2;
    1166:	01c55783          	lhu	a5,28(a0)
C:/flushbonading/MounRiver/EXE/Libraries/Device/CH32V10x_p/CH32V10x_Lib/ch32v10x_tim.c:237
  tmpccmrx &= (uint16_t)(~((uint16_t)TIM_OC4M));
  tmpccmrx &= (uint16_t)(~((uint16_t)TIM_CC4S));
    116a:	7765                	lui	a4,0xffff9
C:/flushbonading/MounRiver/EXE/Libraries/Device/CH32V10x_p/CH32V10x_Lib/ch32v10x_tim.c:238
  tmpccmrx |= (uint16_t)(TIM_OCInitStruct->TIM_OCMode << 8);
    116c:	0005d603          	lhu	a2,0(a1)
C:/flushbonading/MounRiver/EXE/Libraries/Device/CH32V10x_p/CH32V10x_Lib/ch32v10x_tim.c:237
  tmpccmrx &= (uint16_t)(~((uint16_t)TIM_CC4S));
    1170:	cff70713          	addi	a4,a4,-769 # ffff8cff <_eusrstack+0xdfff3cff>
    1174:	8f7d                	and	a4,a4,a5
C:/flushbonading/MounRiver/EXE/Libraries/Device/CH32V10x_p/CH32V10x_Lib/ch32v10x_tim.c:239
  tmpccer &= (uint16_t)(~((uint16_t)TIM_CC4P));
    1176:	77f9                	lui	a5,0xffffe
C:/flushbonading/MounRiver/EXE/Libraries/Device/CH32V10x_p/CH32V10x_Lib/ch32v10x_tim.c:238
  tmpccmrx |= (uint16_t)(TIM_OCInitStruct->TIM_OCMode << 8);
    1178:	0622                	slli	a2,a2,0x8
C:/flushbonading/MounRiver/EXE/Libraries/Device/CH32V10x_p/CH32V10x_Lib/ch32v10x_tim.c:239
  tmpccer &= (uint16_t)(~((uint16_t)TIM_CC4P));
    117a:	17fd                	addi	a5,a5,-1
C:/flushbonading/MounRiver/EXE/Libraries/Device/CH32V10x_p/CH32V10x_Lib/ch32v10x_tim.c:238
  tmpccmrx |= (uint16_t)(TIM_OCInitStruct->TIM_OCMode << 8);
    117c:	8f51                	or	a4,a4,a2
C:/flushbonading/MounRiver/EXE/Libraries/Device/CH32V10x_p/CH32V10x_Lib/ch32v10x_tim.c:239
  tmpccer &= (uint16_t)(~((uint16_t)TIM_CC4P));
    117e:	0107f7b3          	and	a5,a5,a6
C:/flushbonading/MounRiver/EXE/Libraries/Device/CH32V10x_p/CH32V10x_Lib/ch32v10x_tim.c:241
  tmpccer |= (uint16_t)(TIM_OCInitStruct->TIM_OCPolarity << 12);
  tmpccer |= (uint16_t)(TIM_OCInitStruct->TIM_OutputState << 12);
    1182:	0025d603          	lhu	a2,2(a1)
C:/flushbonading/MounRiver/EXE/Libraries/Device/CH32V10x_p/CH32V10x_Lib/ch32v10x_tim.c:240
  tmpccer |= (uint16_t)(TIM_OCInitStruct->TIM_OCPolarity << 12);
    1186:	0085d803          	lhu	a6,8(a1)
C:/flushbonading/MounRiver/EXE/Libraries/Device/CH32V10x_p/CH32V10x_Lib/ch32v10x_tim.c:234
  tmpcr2 =  TIMx->CTLR2;
    118a:	06c2                	slli	a3,a3,0x10
C:/flushbonading/MounRiver/EXE/Libraries/Device/CH32V10x_p/CH32V10x_Lib/ch32v10x_tim.c:238
  tmpccmrx |= (uint16_t)(TIM_OCInitStruct->TIM_OCMode << 8);
    118c:	0742                	slli	a4,a4,0x10
C:/flushbonading/MounRiver/EXE/Libraries/Device/CH32V10x_p/CH32V10x_Lib/ch32v10x_tim.c:241
  tmpccer |= (uint16_t)(TIM_OCInitStruct->TIM_OutputState << 12);
    118e:	01066633          	or	a2,a2,a6
    1192:	0632                	slli	a2,a2,0xc
    1194:	8fd1                	or	a5,a5,a2
C:/flushbonading/MounRiver/EXE/Libraries/Device/CH32V10x_p/CH32V10x_Lib/ch32v10x_tim.c:243
    
  if(TIMx == TIM1)
    1196:	40013637          	lui	a2,0x40013
C:/flushbonading/MounRiver/EXE/Libraries/Device/CH32V10x_p/CH32V10x_Lib/ch32v10x_tim.c:241
  tmpccer |= (uint16_t)(TIM_OCInitStruct->TIM_OutputState << 12);
    119a:	07c2                	slli	a5,a5,0x10
C:/flushbonading/MounRiver/EXE/Libraries/Device/CH32V10x_p/CH32V10x_Lib/ch32v10x_tim.c:243
  if(TIMx == TIM1)
    119c:	c0060613          	addi	a2,a2,-1024 # 40012c00 <_eusrstack+0x2000dc00>
C:/flushbonading/MounRiver/EXE/Libraries/Device/CH32V10x_p/CH32V10x_Lib/ch32v10x_tim.c:234
  tmpcr2 =  TIMx->CTLR2;
    11a0:	82c1                	srli	a3,a3,0x10
C:/flushbonading/MounRiver/EXE/Libraries/Device/CH32V10x_p/CH32V10x_Lib/ch32v10x_tim.c:238
  tmpccmrx |= (uint16_t)(TIM_OCInitStruct->TIM_OCMode << 8);
    11a2:	8341                	srli	a4,a4,0x10
C:/flushbonading/MounRiver/EXE/Libraries/Device/CH32V10x_p/CH32V10x_Lib/ch32v10x_tim.c:241
  tmpccer |= (uint16_t)(TIM_OCInitStruct->TIM_OutputState << 12);
    11a4:	83c1                	srli	a5,a5,0x10
C:/flushbonading/MounRiver/EXE/Libraries/Device/CH32V10x_p/CH32V10x_Lib/ch32v10x_tim.c:243
  if(TIMx == TIM1)
    11a6:	00c51b63          	bne	a0,a2,11bc <TIM_OC4Init+0x6c>
C:/flushbonading/MounRiver/EXE/Libraries/Device/CH32V10x_p/CH32V10x_Lib/ch32v10x_tim.c:245
  {
    tmpcr2 &= (uint16_t)(~((uint16_t)TIM_OIS4));
    11aa:	7671                	lui	a2,0xffffc
    11ac:	167d                	addi	a2,a2,-1
    11ae:	8ef1                	and	a3,a3,a2
C:/flushbonading/MounRiver/EXE/Libraries/Device/CH32V10x_p/CH32V10x_Lib/ch32v10x_tim.c:246
    tmpcr2 |= (uint16_t)(TIM_OCInitStruct->TIM_OCIdleState << 6);
    11b0:	00c5d603          	lhu	a2,12(a1)
    11b4:	061a                	slli	a2,a2,0x6
    11b6:	8ed1                	or	a3,a3,a2
    11b8:	06c2                	slli	a3,a3,0x10
    11ba:	82c1                	srli	a3,a3,0x10
C:/flushbonading/MounRiver/EXE/Libraries/Device/CH32V10x_p/CH32V10x_Lib/ch32v10x_tim.c:249
  }

  TIMx->CTLR2 = tmpcr2; 
    11bc:	00d51223          	sh	a3,4(a0)
C:/flushbonading/MounRiver/EXE/Libraries/Device/CH32V10x_p/CH32V10x_Lib/ch32v10x_tim.c:250
  TIMx->CHCTLR2 = tmpccmrx;
    11c0:	00e51e23          	sh	a4,28(a0)
C:/flushbonading/MounRiver/EXE/Libraries/Device/CH32V10x_p/CH32V10x_Lib/ch32v10x_tim.c:251
  TIMx->CH4CVR = TIM_OCInitStruct->TIM_Pulse;
    11c4:	0065d703          	lhu	a4,6(a1)
    11c8:	04e51023          	sh	a4,64(a0)
C:/flushbonading/MounRiver/EXE/Libraries/Device/CH32V10x_p/CH32V10x_Lib/ch32v10x_tim.c:252
  TIMx->CCER = tmpccer;
    11cc:	02f51023          	sh	a5,32(a0)
C:/flushbonading/MounRiver/EXE/Libraries/Device/CH32V10x_p/CH32V10x_Lib/ch32v10x_tim.c:253
}
    11d0:	8082                	ret

000011d2 <TIM_Cmd>:
TIM_Cmd():
C:/flushbonading/MounRiver/EXE/Libraries/Device/CH32V10x_p/CH32V10x_Lib/ch32v10x_tim.c:436
*******************************************************************************/
void TIM_Cmd(TIM_TypeDef* TIMx, FunctionalState NewState)
{ 
  if (NewState != DISABLE)
  {
    TIMx->CTLR1 |= TIM_CEN;
    11d2:	00055783          	lhu	a5,0(a0)
C:/flushbonading/MounRiver/EXE/Libraries/Device/CH32V10x_p/CH32V10x_Lib/ch32v10x_tim.c:434
  if (NewState != DISABLE)
    11d6:	c591                	beqz	a1,11e2 <TIM_Cmd+0x10>
C:/flushbonading/MounRiver/EXE/Libraries/Device/CH32V10x_p/CH32V10x_Lib/ch32v10x_tim.c:436
    TIMx->CTLR1 |= TIM_CEN;
    11d8:	0017e793          	ori	a5,a5,1
C:/flushbonading/MounRiver/EXE/Libraries/Device/CH32V10x_p/CH32V10x_Lib/ch32v10x_tim.c:440
  }
  else
  {
    TIMx->CTLR1 &= (uint16_t)(~((uint16_t)TIM_CEN));
    11dc:	00f51023          	sh	a5,0(a0)
C:/flushbonading/MounRiver/EXE/Libraries/Device/CH32V10x_p/CH32V10x_Lib/ch32v10x_tim.c:442
  }
}
    11e0:	8082                	ret
C:/flushbonading/MounRiver/EXE/Libraries/Device/CH32V10x_p/CH32V10x_Lib/ch32v10x_tim.c:440
    TIMx->CTLR1 &= (uint16_t)(~((uint16_t)TIM_CEN));
    11e2:	07c2                	slli	a5,a5,0x10
    11e4:	83c1                	srli	a5,a5,0x10
    11e6:	9bf9                	andi	a5,a5,-2
    11e8:	07c2                	slli	a5,a5,0x10
    11ea:	83c1                	srli	a5,a5,0x10
    11ec:	bfc5                	j	11dc <TIM_Cmd+0xa>

000011ee <TIM_CtrlPWMOutputs>:
TIM_CtrlPWMOutputs():
C:/flushbonading/MounRiver/EXE/Libraries/Device/CH32V10x_p/CH32V10x_Lib/ch32v10x_tim.c:455
*******************************************************************************/
void TIM_CtrlPWMOutputs(TIM_TypeDef* TIMx, FunctionalState NewState)
{
  if (NewState != DISABLE)
  {
    TIMx->BDTR |= TIM_MOE;
    11ee:	04455783          	lhu	a5,68(a0)
C:/flushbonading/MounRiver/EXE/Libraries/Device/CH32V10x_p/CH32V10x_Lib/ch32v10x_tim.c:453
  if (NewState != DISABLE)
    11f2:	c591                	beqz	a1,11fe <TIM_CtrlPWMOutputs+0x10>
C:/flushbonading/MounRiver/EXE/Libraries/Device/CH32V10x_p/CH32V10x_Lib/ch32v10x_tim.c:455
    TIMx->BDTR |= TIM_MOE;
    11f4:	6721                	lui	a4,0x8
    11f6:	8fd9                	or	a5,a5,a4
C:/flushbonading/MounRiver/EXE/Libraries/Device/CH32V10x_p/CH32V10x_Lib/ch32v10x_tim.c:459
  }
  else
  {
    TIMx->BDTR &= (uint16_t)(~((uint16_t)TIM_MOE));
    11f8:	04f51223          	sh	a5,68(a0)
C:/flushbonading/MounRiver/EXE/Libraries/Device/CH32V10x_p/CH32V10x_Lib/ch32v10x_tim.c:461
  }  
}
    11fc:	8082                	ret
C:/flushbonading/MounRiver/EXE/Libraries/Device/CH32V10x_p/CH32V10x_Lib/ch32v10x_tim.c:459
    TIMx->BDTR &= (uint16_t)(~((uint16_t)TIM_MOE));
    11fe:	07c6                	slli	a5,a5,0x11
    1200:	83c5                	srli	a5,a5,0x11
    1202:	bfdd                	j	11f8 <TIM_CtrlPWMOutputs+0xa>

00001204 <TIM_OC1PreloadConfig>:
TIM_OC1PreloadConfig():
C:/flushbonading/MounRiver/EXE/Libraries/Device/CH32V10x_p/CH32V10x_Lib/ch32v10x_tim.c:984
*******************************************************************************/
void TIM_OC1PreloadConfig(TIM_TypeDef* TIMx, uint16_t TIM_OCPreload)
{
  uint16_t tmpccmr1 = 0;

  tmpccmr1 = TIMx->CHCTLR1;
    1204:	01855783          	lhu	a5,24(a0)
    1208:	07c2                	slli	a5,a5,0x10
    120a:	83c1                	srli	a5,a5,0x10
C:/flushbonading/MounRiver/EXE/Libraries/Device/CH32V10x_p/CH32V10x_Lib/ch32v10x_tim.c:985
  tmpccmr1 &= (uint16_t)~((uint16_t)TIM_OC1PE);
    120c:	9bdd                	andi	a5,a5,-9
C:/flushbonading/MounRiver/EXE/Libraries/Device/CH32V10x_p/CH32V10x_Lib/ch32v10x_tim.c:986
  tmpccmr1 |= TIM_OCPreload;
    120e:	8ddd                	or	a1,a1,a5
C:/flushbonading/MounRiver/EXE/Libraries/Device/CH32V10x_p/CH32V10x_Lib/ch32v10x_tim.c:987
  TIMx->CHCTLR1 = tmpccmr1;
    1210:	00b51c23          	sh	a1,24(a0)
C:/flushbonading/MounRiver/EXE/Libraries/Device/CH32V10x_p/CH32V10x_Lib/ch32v10x_tim.c:988
}
    1214:	8082                	ret

00001216 <TIM_OC2PreloadConfig>:
TIM_OC2PreloadConfig():
C:/flushbonading/MounRiver/EXE/Libraries/Device/CH32V10x_p/CH32V10x_Lib/ch32v10x_tim.c:1003
*******************************************************************************/
void TIM_OC2PreloadConfig(TIM_TypeDef* TIMx, uint16_t TIM_OCPreload)
{
  uint16_t tmpccmr1 = 0;

  tmpccmr1 = TIMx->CHCTLR1;
    1216:	01855703          	lhu	a4,24(a0)
C:/flushbonading/MounRiver/EXE/Libraries/Device/CH32V10x_p/CH32V10x_Lib/ch32v10x_tim.c:1004
  tmpccmr1 &= (uint16_t)~((uint16_t)TIM_OC2PE);
    121a:	77fd                	lui	a5,0xfffff
    121c:	7ff78793          	addi	a5,a5,2047 # fffff7ff <_eusrstack+0xdfffa7ff>
    1220:	8ff9                	and	a5,a5,a4
C:/flushbonading/MounRiver/EXE/Libraries/Device/CH32V10x_p/CH32V10x_Lib/ch32v10x_tim.c:1005
  tmpccmr1 |= (uint16_t)(TIM_OCPreload << 8);	
    1222:	05a2                	slli	a1,a1,0x8
    1224:	8fcd                	or	a5,a5,a1
    1226:	07c2                	slli	a5,a5,0x10
    1228:	83c1                	srli	a5,a5,0x10
C:/flushbonading/MounRiver/EXE/Libraries/Device/CH32V10x_p/CH32V10x_Lib/ch32v10x_tim.c:1006
  TIMx->CHCTLR1 = tmpccmr1;
    122a:	00f51c23          	sh	a5,24(a0)
C:/flushbonading/MounRiver/EXE/Libraries/Device/CH32V10x_p/CH32V10x_Lib/ch32v10x_tim.c:1007
}
    122e:	8082                	ret

00001230 <TIM_OC3PreloadConfig>:
TIM_OC3PreloadConfig():
C:/flushbonading/MounRiver/EXE/Libraries/Device/CH32V10x_p/CH32V10x_Lib/ch32v10x_tim.c:1022
*******************************************************************************/
void TIM_OC3PreloadConfig(TIM_TypeDef* TIMx, uint16_t TIM_OCPreload)
{
  uint16_t tmpccmr2 = 0;

  tmpccmr2 = TIMx->CHCTLR2;
    1230:	01c55783          	lhu	a5,28(a0)
    1234:	07c2                	slli	a5,a5,0x10
    1236:	83c1                	srli	a5,a5,0x10
C:/flushbonading/MounRiver/EXE/Libraries/Device/CH32V10x_p/CH32V10x_Lib/ch32v10x_tim.c:1023
  tmpccmr2 &= (uint16_t)~((uint16_t)TIM_OC3PE);
    1238:	9bdd                	andi	a5,a5,-9
C:/flushbonading/MounRiver/EXE/Libraries/Device/CH32V10x_p/CH32V10x_Lib/ch32v10x_tim.c:1024
  tmpccmr2 |= TIM_OCPreload;
    123a:	8ddd                	or	a1,a1,a5
C:/flushbonading/MounRiver/EXE/Libraries/Device/CH32V10x_p/CH32V10x_Lib/ch32v10x_tim.c:1025
  TIMx->CHCTLR2 = tmpccmr2;
    123c:	00b51e23          	sh	a1,28(a0)
C:/flushbonading/MounRiver/EXE/Libraries/Device/CH32V10x_p/CH32V10x_Lib/ch32v10x_tim.c:1026
}
    1240:	8082                	ret

00001242 <TIM_OC4PreloadConfig>:
TIM_OC4PreloadConfig():
C:/flushbonading/MounRiver/EXE/Libraries/Device/CH32V10x_p/CH32V10x_Lib/ch32v10x_tim.c:1041
*******************************************************************************/
void TIM_OC4PreloadConfig(TIM_TypeDef* TIMx, uint16_t TIM_OCPreload)
{
  uint16_t tmpccmr2 = 0;

  tmpccmr2 = TIMx->CHCTLR2;
    1242:	01c55703          	lhu	a4,28(a0)
C:/flushbonading/MounRiver/EXE/Libraries/Device/CH32V10x_p/CH32V10x_Lib/ch32v10x_tim.c:1042
  tmpccmr2 &= (uint16_t)~((uint16_t)TIM_OC4PE);
    1246:	77fd                	lui	a5,0xfffff
    1248:	7ff78793          	addi	a5,a5,2047 # fffff7ff <_eusrstack+0xdfffa7ff>
    124c:	8ff9                	and	a5,a5,a4
C:/flushbonading/MounRiver/EXE/Libraries/Device/CH32V10x_p/CH32V10x_Lib/ch32v10x_tim.c:1043
  tmpccmr2 |= (uint16_t)(TIM_OCPreload << 8);
    124e:	05a2                	slli	a1,a1,0x8
    1250:	8fcd                	or	a5,a5,a1
    1252:	07c2                	slli	a5,a5,0x10
    1254:	83c1                	srli	a5,a5,0x10
C:/flushbonading/MounRiver/EXE/Libraries/Device/CH32V10x_p/CH32V10x_Lib/ch32v10x_tim.c:1044
  TIMx->CHCTLR2 = tmpccmr2;
    1256:	00f51e23          	sh	a5,28(a0)
C:/flushbonading/MounRiver/EXE/Libraries/Device/CH32V10x_p/CH32V10x_Lib/ch32v10x_tim.c:1045
}
    125a:	8082                	ret

0000125c <TIM_GetITStatus>:
TIM_GetITStatus():
C:/flushbonading/MounRiver/EXE/Libraries/Device/CH32V10x_p/CH32V10x_Lib/ch32v10x_tim.c:1857
ITStatus TIM_GetITStatus(TIM_TypeDef* TIMx, uint16_t TIM_IT)
{
  ITStatus bitstatus = RESET;  
  uint16_t itstatus = 0x0, itenable = 0x0;
   
  itstatus = TIMx->INTFR & TIM_IT;
    125c:	01055783          	lhu	a5,16(a0)
C:/flushbonading/MounRiver/EXE/Libraries/Device/CH32V10x_p/CH32V10x_Lib/ch32v10x_tim.c:1859
  
  itenable = TIMx->DMAINTENR & TIM_IT;
    1260:	00c55503          	lhu	a0,12(a0)
C:/flushbonading/MounRiver/EXE/Libraries/Device/CH32V10x_p/CH32V10x_Lib/ch32v10x_tim.c:1860
  if ((itstatus != (uint16_t)RESET) && (itenable != (uint16_t)RESET))
    1264:	8fed                	and	a5,a5,a1
C:/flushbonading/MounRiver/EXE/Libraries/Device/CH32V10x_p/CH32V10x_Lib/ch32v10x_tim.c:1859
  itenable = TIMx->DMAINTENR & TIM_IT;
    1266:	0542                	slli	a0,a0,0x10
    1268:	8141                	srli	a0,a0,0x10
C:/flushbonading/MounRiver/EXE/Libraries/Device/CH32V10x_p/CH32V10x_Lib/ch32v10x_tim.c:1860
  if ((itstatus != (uint16_t)RESET) && (itenable != (uint16_t)RESET))
    126a:	c789                	beqz	a5,1274 <TIM_GetITStatus+0x18>
C:/flushbonading/MounRiver/EXE/Libraries/Device/CH32V10x_p/CH32V10x_Lib/ch32v10x_tim.c:1860 (discriminator 1)
    126c:	8d6d                	and	a0,a0,a1
    126e:	00a03533          	snez	a0,a0
    1272:	8082                	ret
C:/flushbonading/MounRiver/EXE/Libraries/Device/CH32V10x_p/CH32V10x_Lib/ch32v10x_tim.c:1866
  {
    bitstatus = SET;
  }
  else
  {
    bitstatus = RESET;
    1274:	4501                	li	a0,0
C:/flushbonading/MounRiver/EXE/Libraries/Device/CH32V10x_p/CH32V10x_Lib/ch32v10x_tim.c:1870
  }
	
  return bitstatus;
}
    1276:	8082                	ret

00001278 <TIM_ClearITPendingBit>:
TIM_ClearITPendingBit():
    1278:	fff5c593          	not	a1,a1
    127c:	05c2                	slli	a1,a1,0x10
    127e:	81c1                	srli	a1,a1,0x10
    1280:	00b51823          	sh	a1,16(a0)
    1284:	8082                	ret

00001286 <USART_Init>:
USART_Init():
C:/flushbonading/MounRiver/EXE/Libraries/Device/CH32V10x_p/CH32V10x_Lib/ch32v10x_usart.c:117
  if (USART_InitStruct->USART_HardwareFlowControl != USART_HardwareFlowControl_None)
  {
  }

  usartxbase = (uint32_t)USARTx;
  tmpreg = USARTx->CTLR2;
    1286:	01055683          	lhu	a3,16(a0)
    128a:	77f5                	lui	a5,0xffffd
    128c:	17fd                	addi	a5,a5,-1
    128e:	8ff5                	and	a5,a5,a3
    1290:	0065d683          	lhu	a3,6(a1)
C:/flushbonading/MounRiver/EXE/Libraries/Device/CH32V10x_p/CH32V10x_Lib/ch32v10x_usart.c:105
{
    1294:	7139                	addi	sp,sp,-64
    1296:	dc22                	sw	s0,56(sp)
    1298:	de06                	sw	ra,60(sp)
    129a:	8fd5                	or	a5,a5,a3
C:/flushbonading/MounRiver/EXE/Libraries/Device/CH32V10x_p/CH32V10x_Lib/ch32v10x_usart.c:112
  if (USART_InitStruct->USART_HardwareFlowControl != USART_HardwareFlowControl_None)
    129c:	00c5d703          	lhu	a4,12(a1)
C:/flushbonading/MounRiver/EXE/Libraries/Device/CH32V10x_p/CH32V10x_Lib/ch32v10x_usart.c:121
  tmpreg &= CTLR2_STOP_CLEAR_Mask;
  tmpreg |= (uint32_t)USART_InitStruct->USART_StopBits;  
	
  USARTx->CTLR2 = (uint16_t)tmpreg;
    12a0:	00f51823          	sh	a5,16(a0)
C:/flushbonading/MounRiver/EXE/Libraries/Device/CH32V10x_p/CH32V10x_Lib/ch32v10x_usart.c:122
  tmpreg = USARTx->CTLR1;
    12a4:	00c55683          	lhu	a3,12(a0)
C:/flushbonading/MounRiver/EXE/Libraries/Device/CH32V10x_p/CH32V10x_Lib/ch32v10x_usart.c:124
  tmpreg &= CTLR1_CLEAR_Mask;
  tmpreg |= (uint32_t)USART_InitStruct->USART_WordLength | USART_InitStruct->USART_Parity |
    12a8:	77fd                	lui	a5,0xfffff
    12aa:	9f378793          	addi	a5,a5,-1549 # ffffe9f3 <_eusrstack+0xdfff99f3>
    12ae:	8ff5                	and	a5,a5,a3
    12b0:	0045d683          	lhu	a3,4(a1)
C:/flushbonading/MounRiver/EXE/Libraries/Device/CH32V10x_p/CH32V10x_Lib/ch32v10x_usart.c:105
{
    12b4:	842a                	mv	s0,a0
    12b6:	c62e                	sw	a1,12(sp)
    12b8:	8fd5                	or	a5,a5,a3
    12ba:	0085d683          	lhu	a3,8(a1)
    12be:	8fd5                	or	a5,a5,a3
    12c0:	00a5d683          	lhu	a3,10(a1)
    12c4:	8fd5                	or	a5,a5,a3
C:/flushbonading/MounRiver/EXE/Libraries/Device/CH32V10x_p/CH32V10x_Lib/ch32v10x_usart.c:126
            USART_InitStruct->USART_Mode;
  USARTx->CTLR1 = (uint16_t)tmpreg;
    12c6:	00f51623          	sh	a5,12(a0)
C:/flushbonading/MounRiver/EXE/Libraries/Device/CH32V10x_p/CH32V10x_Lib/ch32v10x_usart.c:128
 
  tmpreg = USARTx->CTLR3;
    12ca:	01455783          	lhu	a5,20(a0)
    12ce:	07c2                	slli	a5,a5,0x10
    12d0:	83c1                	srli	a5,a5,0x10
C:/flushbonading/MounRiver/EXE/Libraries/Device/CH32V10x_p/CH32V10x_Lib/ch32v10x_usart.c:130
  tmpreg &= CTLR3_CLEAR_Mask;
  tmpreg |= USART_InitStruct->USART_HardwareFlowControl;
    12d2:	cff7f793          	andi	a5,a5,-769
    12d6:	8fd9                	or	a5,a5,a4
C:/flushbonading/MounRiver/EXE/Libraries/Device/CH32V10x_p/CH32V10x_Lib/ch32v10x_usart.c:131
  USARTx->CTLR3 = (uint16_t)tmpreg;
    12d8:	00f51a23          	sh	a5,20(a0)
C:/flushbonading/MounRiver/EXE/Libraries/Device/CH32V10x_p/CH32V10x_Lib/ch32v10x_usart.c:133

  RCC_GetClocksFreq(&RCC_ClocksStatus);
    12dc:	0868                	addi	a0,sp,28
    12de:	3e31                	jal	dfa <RCC_GetClocksFreq>
C:/flushbonading/MounRiver/EXE/Libraries/Device/CH32V10x_p/CH32V10x_Lib/ch32v10x_usart.c:135
	
  if (usartxbase == USART1_BASE)
    12e0:	400147b7          	lui	a5,0x40014
    12e4:	80078793          	addi	a5,a5,-2048 # 40013800 <_eusrstack+0x2000e800>
    12e8:	45b2                	lw	a1,12(sp)
    12ea:	04f41e63          	bne	s0,a5,1346 <USART_Init+0xc0>
C:/flushbonading/MounRiver/EXE/Libraries/Device/CH32V10x_p/CH32V10x_Lib/ch32v10x_usart.c:137
  {
    apbclock = RCC_ClocksStatus.PCLK2_Frequency;
    12ee:	57a2                	lw	a5,40(sp)
C:/flushbonading/MounRiver/EXE/Libraries/Device/CH32V10x_p/CH32V10x_Lib/ch32v10x_usart.c:144
  else
  {
    apbclock = RCC_ClocksStatus.PCLK1_Frequency;
  }
  
  if ((USARTx->CTLR1 & CTLR1_OVER8_Set) != 0)
    12f0:	00c45683          	lhu	a3,12(s0)
    12f4:	4765                	li	a4,25
    12f6:	02e787b3          	mul	a5,a5,a4
    12fa:	06c2                	slli	a3,a3,0x10
    12fc:	86c1                	srai	a3,a3,0x10
    12fe:	4198                	lw	a4,0(a1)
    1300:	0406d563          	bgez	a3,134a <USART_Init+0xc4>
C:/flushbonading/MounRiver/EXE/Libraries/Device/CH32V10x_p/CH32V10x_Lib/ch32v10x_usart.c:146
  {
    integerdivider = ((25 * apbclock) / (2 * (USART_InitStruct->USART_BaudRate)));    
    1304:	0706                	slli	a4,a4,0x1
C:/flushbonading/MounRiver/EXE/Libraries/Device/CH32V10x_p/CH32V10x_Lib/ch32v10x_usart.c:156
  }
  tmpreg = (integerdivider / 100) << 4;

  fractionaldivider = integerdivider - (100 * (tmpreg >> 4));

  if ((USARTx->CTLR1 & CTLR1_OVER8_Set) != 0)
    1306:	00c45603          	lhu	a2,12(s0)
    130a:	0642                	slli	a2,a2,0x10
C:/flushbonading/MounRiver/EXE/Libraries/Device/CH32V10x_p/CH32V10x_Lib/ch32v10x_usart.c:150
    integerdivider = ((25 * apbclock) / (4 * (USART_InitStruct->USART_BaudRate)));    
    130c:	02e7d7b3          	divu	a5,a5,a4
C:/flushbonading/MounRiver/EXE/Libraries/Device/CH32V10x_p/CH32V10x_Lib/ch32v10x_usart.c:152
  tmpreg = (integerdivider / 100) << 4;
    1310:	06400713          	li	a4,100
C:/flushbonading/MounRiver/EXE/Libraries/Device/CH32V10x_p/CH32V10x_Lib/ch32v10x_usart.c:156
  if ((USARTx->CTLR1 & CTLR1_OVER8_Set) != 0)
    1314:	8641                	srai	a2,a2,0x10
C:/flushbonading/MounRiver/EXE/Libraries/Device/CH32V10x_p/CH32V10x_Lib/ch32v10x_usart.c:152
  tmpreg = (integerdivider / 100) << 4;
    1316:	02e7d6b3          	divu	a3,a5,a4
    131a:	02e7f7b3          	remu	a5,a5,a4
    131e:	0692                	slli	a3,a3,0x4
C:/flushbonading/MounRiver/EXE/Libraries/Device/CH32V10x_p/CH32V10x_Lib/ch32v10x_usart.c:156
  if ((USARTx->CTLR1 & CTLR1_OVER8_Set) != 0)
    1320:	02065763          	bgez	a2,134e <USART_Init+0xc8>
C:/flushbonading/MounRiver/EXE/Libraries/Device/CH32V10x_p/CH32V10x_Lib/ch32v10x_usart.c:158
  {
    tmpreg |= ((((fractionaldivider * 8) + 50) / 100)) & ((uint8_t)0x07);
    1324:	078e                	slli	a5,a5,0x3
    1326:	03278793          	addi	a5,a5,50
    132a:	02e7d7b3          	divu	a5,a5,a4
    132e:	0077f713          	andi	a4,a5,7
    1332:	00d767b3          	or	a5,a4,a3
C:/flushbonading/MounRiver/EXE/Libraries/Device/CH32V10x_p/CH32V10x_Lib/ch32v10x_usart.c:165
  else 
  {
    tmpreg |= ((((fractionaldivider * 16) + 50) / 100)) & ((uint8_t)0x0F);
  }
  
  USARTx->BRR = (uint16_t)tmpreg;
    1336:	07c2                	slli	a5,a5,0x10
    1338:	83c1                	srli	a5,a5,0x10
    133a:	00f41423          	sh	a5,8(s0)
C:/flushbonading/MounRiver/EXE/Libraries/Device/CH32V10x_p/CH32V10x_Lib/ch32v10x_usart.c:166
}
    133e:	50f2                	lw	ra,60(sp)
    1340:	5462                	lw	s0,56(sp)
    1342:	6121                	addi	sp,sp,64
    1344:	8082                	ret
C:/flushbonading/MounRiver/EXE/Libraries/Device/CH32V10x_p/CH32V10x_Lib/ch32v10x_usart.c:141
    apbclock = RCC_ClocksStatus.PCLK1_Frequency;
    1346:	5792                	lw	a5,36(sp)
    1348:	b765                	j	12f0 <USART_Init+0x6a>
C:/flushbonading/MounRiver/EXE/Libraries/Device/CH32V10x_p/CH32V10x_Lib/ch32v10x_usart.c:150
    integerdivider = ((25 * apbclock) / (4 * (USART_InitStruct->USART_BaudRate)));    
    134a:	070a                	slli	a4,a4,0x2
    134c:	bf6d                	j	1306 <USART_Init+0x80>
C:/flushbonading/MounRiver/EXE/Libraries/Device/CH32V10x_p/CH32V10x_Lib/ch32v10x_usart.c:162
    tmpreg |= ((((fractionaldivider * 16) + 50) / 100)) & ((uint8_t)0x0F);
    134e:	0792                	slli	a5,a5,0x4
    1350:	03278793          	addi	a5,a5,50
    1354:	02e7d7b3          	divu	a5,a5,a4
    1358:	8bbd                	andi	a5,a5,15
    135a:	8fd5                	or	a5,a5,a3
    135c:	bfe9                	j	1336 <USART_Init+0xb0>

0000135e <USART_Cmd>:
USART_Cmd():
C:/flushbonading/MounRiver/EXE/Libraries/Device/CH32V10x_p/CH32V10x_Lib/ch32v10x_usart.c:230
*                  NewState: ENABLE or DISABLE.
* Return         : None
*******************************************************************************/
void USART_Cmd(USART_TypeDef* USARTx, FunctionalState NewState)
{
  if (NewState != DISABLE)
    135e:	c981                	beqz	a1,136e <USART_Cmd+0x10>
C:/flushbonading/MounRiver/EXE/Libraries/Device/CH32V10x_p/CH32V10x_Lib/ch32v10x_usart.c:232
  {
    USARTx->CTLR1 |= CTLR1_UE_Set;
    1360:	00c55783          	lhu	a5,12(a0)
    1364:	6709                	lui	a4,0x2
    1366:	8fd9                	or	a5,a5,a4
C:/flushbonading/MounRiver/EXE/Libraries/Device/CH32V10x_p/CH32V10x_Lib/ch32v10x_usart.c:236
  }
  else
  {
    USARTx->CTLR1 &= CTLR1_UE_Reset;
    1368:	00f51623          	sh	a5,12(a0)
C:/flushbonading/MounRiver/EXE/Libraries/Device/CH32V10x_p/CH32V10x_Lib/ch32v10x_usart.c:238
  }
}
    136c:	8082                	ret
C:/flushbonading/MounRiver/EXE/Libraries/Device/CH32V10x_p/CH32V10x_Lib/ch32v10x_usart.c:236
    USARTx->CTLR1 &= CTLR1_UE_Reset;
    136e:	00c55703          	lhu	a4,12(a0)
    1372:	77f9                	lui	a5,0xffffe
    1374:	17fd                	addi	a5,a5,-1
    1376:	8ff9                	and	a5,a5,a4
    1378:	bfc5                	j	1368 <USART_Cmd+0xa>

0000137a <USART_GetITStatus>:
USART_GetITStatus():
C:/flushbonading/MounRiver/EXE/Libraries/Device/CH32V10x_p/CH32V10x_Lib/ch32v10x_usart.c:668

  if (USART_IT == USART_IT_CTS)
  {
  }   
  
  usartreg = (((uint8_t)USART_IT) >> 0x05);
    137a:	0ff5f713          	andi	a4,a1,255
C:/flushbonading/MounRiver/EXE/Libraries/Device/CH32V10x_p/CH32V10x_Lib/ch32v10x_usart.c:670
  itmask = USART_IT & IT_Mask;
  itmask = (uint32_t)0x01 << itmask;
    137e:	4685                	li	a3,1
C:/flushbonading/MounRiver/EXE/Libraries/Device/CH32V10x_p/CH32V10x_Lib/ch32v10x_usart.c:668
  usartreg = (((uint8_t)USART_IT) >> 0x05);
    1380:	8315                	srli	a4,a4,0x5
C:/flushbonading/MounRiver/EXE/Libraries/Device/CH32V10x_p/CH32V10x_Lib/ch32v10x_usart.c:670
  itmask = (uint32_t)0x01 << itmask;
    1382:	00b697b3          	sll	a5,a3,a1
C:/flushbonading/MounRiver/EXE/Libraries/Device/CH32V10x_p/CH32V10x_Lib/ch32v10x_usart.c:672
  
  if (usartreg == 0x01) 
    1386:	02d71363          	bne	a4,a3,13ac <USART_GetITStatus+0x32>
C:/flushbonading/MounRiver/EXE/Libraries/Device/CH32V10x_p/CH32V10x_Lib/ch32v10x_usart.c:674
  {
    itmask &= USARTx->CTLR1;
    138a:	00c55703          	lhu	a4,12(a0)
C:/flushbonading/MounRiver/EXE/Libraries/Device/CH32V10x_p/CH32V10x_Lib/ch32v10x_usart.c:682
  {
    itmask &= USARTx->CTLR2;
  }
  else 
  {
    itmask &= USARTx->CTLR3;
    138e:	8ff9                	and	a5,a5,a4
C:/flushbonading/MounRiver/EXE/Libraries/Device/CH32V10x_p/CH32V10x_Lib/ch32v10x_usart.c:687
  }
  
  bitpos = USART_IT >> 0x08;
  bitpos = (uint32_t)0x01 << bitpos;
  bitpos &= USARTx->STATR;
    1390:	00055703          	lhu	a4,0(a0)
C:/flushbonading/MounRiver/EXE/Libraries/Device/CH32V10x_p/CH32V10x_Lib/ch32v10x_usart.c:695
  {
    bitstatus = SET;
  }
  else
  {
    bitstatus = RESET;
    1394:	4501                	li	a0,0
C:/flushbonading/MounRiver/EXE/Libraries/Device/CH32V10x_p/CH32V10x_Lib/ch32v10x_usart.c:687
  bitpos &= USARTx->STATR;
    1396:	0742                	slli	a4,a4,0x10
    1398:	8341                	srli	a4,a4,0x10
C:/flushbonading/MounRiver/EXE/Libraries/Device/CH32V10x_p/CH32V10x_Lib/ch32v10x_usart.c:689
  if ((itmask != (uint16_t)RESET)&&(bitpos != (uint16_t)RESET))
    139a:	cb81                	beqz	a5,13aa <USART_GetITStatus+0x30>
C:/flushbonading/MounRiver/EXE/Libraries/Device/CH32V10x_p/CH32V10x_Lib/ch32v10x_usart.c:686 (discriminator 1)
  bitpos = (uint32_t)0x01 << bitpos;
    139c:	4505                	li	a0,1
C:/flushbonading/MounRiver/EXE/Libraries/Device/CH32V10x_p/CH32V10x_Lib/ch32v10x_usart.c:685 (discriminator 1)
  bitpos = USART_IT >> 0x08;
    139e:	81a1                	srli	a1,a1,0x8
C:/flushbonading/MounRiver/EXE/Libraries/Device/CH32V10x_p/CH32V10x_Lib/ch32v10x_usart.c:686 (discriminator 1)
  bitpos = (uint32_t)0x01 << bitpos;
    13a0:	00b515b3          	sll	a1,a0,a1
C:/flushbonading/MounRiver/EXE/Libraries/Device/CH32V10x_p/CH32V10x_Lib/ch32v10x_usart.c:687 (discriminator 1)
  bitpos &= USARTx->STATR;
    13a4:	8f6d                	and	a4,a4,a1
C:/flushbonading/MounRiver/EXE/Libraries/Device/CH32V10x_p/CH32V10x_Lib/ch32v10x_usart.c:689 (discriminator 1)
  if ((itmask != (uint16_t)RESET)&&(bitpos != (uint16_t)RESET))
    13a6:	00e03533          	snez	a0,a4
C:/flushbonading/MounRiver/EXE/Libraries/Device/CH32V10x_p/CH32V10x_Lib/ch32v10x_usart.c:699
  }
  
  return bitstatus;  
}
    13aa:	8082                	ret
C:/flushbonading/MounRiver/EXE/Libraries/Device/CH32V10x_p/CH32V10x_Lib/ch32v10x_usart.c:676
  else if (usartreg == 0x02) 
    13ac:	4689                	li	a3,2
    13ae:	00d71563          	bne	a4,a3,13b8 <USART_GetITStatus+0x3e>
C:/flushbonading/MounRiver/EXE/Libraries/Device/CH32V10x_p/CH32V10x_Lib/ch32v10x_usart.c:678
    itmask &= USARTx->CTLR2;
    13b2:	01055703          	lhu	a4,16(a0)
    13b6:	bfe1                	j	138e <USART_GetITStatus+0x14>
C:/flushbonading/MounRiver/EXE/Libraries/Device/CH32V10x_p/CH32V10x_Lib/ch32v10x_usart.c:682
    itmask &= USARTx->CTLR3;
    13b8:	01455703          	lhu	a4,20(a0)
    13bc:	bfc9                	j	138e <USART_GetITStatus+0x14>

000013be <USART_ClearITPendingBit>:
USART_ClearITPendingBit():
C:/flushbonading/MounRiver/EXE/Libraries/Device/CH32V10x_p/CH32V10x_Lib/ch32v10x_usart.c:721
  if (USART_IT == USART_IT_CTS)
  {
  }   
  
  bitpos = USART_IT >> 0x08;
  itmask = ((uint16_t)0x01 << (uint16_t)bitpos);
    13be:	81a1                	srli	a1,a1,0x8
    13c0:	4785                	li	a5,1
    13c2:	00b797b3          	sll	a5,a5,a1
C:/flushbonading/MounRiver/EXE/Libraries/Device/CH32V10x_p/CH32V10x_Lib/ch32v10x_usart.c:722
  USARTx->STATR = (uint16_t)~itmask;
    13c6:	fff7c793          	not	a5,a5
    13ca:	07c2                	slli	a5,a5,0x10
    13cc:	83c1                	srli	a5,a5,0x10
    13ce:	00f51023          	sh	a5,0(a0)
C:/flushbonading/MounRiver/EXE/Libraries/Device/CH32V10x_p/CH32V10x_Lib/ch32v10x_usart.c:723
}
    13d2:	8082                	ret

000013d4 <GPION>:
    13d4:	0800 4001 0c00 4001 1000 4001 1400 4001     ...@...@...@...@

000013e4 <TIMERN>:
    13e4:	2c00 4001 0000 4000 0400 4000 0800 4000     .,.@...@...@...@

000013f4 <UARTN>:
    13f4:	3800 4001 4400 4000 4800 4000 4c00 4000     .8.@.D.@.H.@.L.@
