
Template.elf:     file format elf32-littleriscv
Template.elf
architecture: riscv:rv32, flags 0x00000112:
EXEC_P, HAS_SYMS, D_PAGED
start address 0x00000000

Program Header:
    LOAD off    0x00001000 vaddr 0x00000000 paddr 0x00000000 align 2**12
         filesz 0x000014cc memsz 0x000014cc flags r-x
    LOAD off    0x00003000 vaddr 0x20000000 paddr 0x000014cc align 2**12
         filesz 0x00000018 memsz 0x00000030 flags rw-
    LOAD off    0x00003800 vaddr 0x20004800 paddr 0x20004800 align 2**12
         filesz 0x00000000 memsz 0x00000800 flags rw-

Sections:
Idx Name           Size      VMA       LMA       File off  Algn  Flags
  0 .init          00000038  00000000  00000000  00001000  2**1  CONTENTS, ALLOC, LOAD, READONLY, CODE
  1 .vector        00000108  00000038  00000038  00001038  2**1  CONTENTS, ALLOC, LOAD, READONLY, CODE
  2 .text          0000138c  00000140  00000140  00001140  2**2  CONTENTS, ALLOC, LOAD, READONLY, CODE
  3 .fini          00000000  000014cc  000014cc  00003018  2**0  CONTENTS, ALLOC, LOAD, CODE
  4 .dalign        00000000  20000000  20000000  00003018  2**0  CONTENTS
  5 .dlalign       00000000  000014cc  000014cc  00003018  2**0  CONTENTS
  6 .data          00000018  20000000  000014cc  00003000  2**2  CONTENTS, ALLOC, LOAD, DATA
  7 .bss           00000018  20000018  000014e4  00003018  2**2  ALLOC
  8 .stack         00000800  20004800  20004800  00003800  2**0  ALLOC
  9 .debug_info    00011d29  00000000  00000000  00003018  2**0  CONTENTS, READONLY, DEBUGGING
 10 .debug_abbrev  0000336e  00000000  00000000  00014d41  2**0  CONTENTS, READONLY, DEBUGGING
 11 .debug_aranges 00000990  00000000  00000000  000180b0  2**3  CONTENTS, READONLY, DEBUGGING
 12 .debug_ranges  00000898  00000000  00000000  00018a40  2**3  CONTENTS, READONLY, DEBUGGING
 13 .debug_line    0000c709  00000000  00000000  000192d8  2**0  CONTENTS, READONLY, DEBUGGING
 14 .debug_str     000035f6  00000000  00000000  000259e1  2**0  CONTENTS, READONLY, DEBUGGING
 15 .comment       00000033  00000000  00000000  00028fd7  2**0  CONTENTS, READONLY
 16 .debug_frame   00001518  00000000  00000000  0002900c  2**2  CONTENTS, READONLY, DEBUGGING
 17 .debug_loc     00005113  00000000  00000000  0002a524  2**0  CONTENTS, READONLY, DEBUGGING
 18 .stabstr       00000183  00000000  00000000  0002f637  2**0  CONTENTS, READONLY, DEBUGGING
SYMBOL TABLE:
00000000 l    d  .init	00000000 .init
00000038 l    d  .vector	00000000 .vector
00000140 l    d  .text	00000000 .text
000014cc l    d  .fini	00000000 .fini
20000000 l    d  .dalign	00000000 .dalign
000014cc l    d  .dlalign	00000000 .dlalign
20000000 l    d  .data	00000000 .data
20000018 l    d  .bss	00000000 .bss
20004800 l    d  .stack	00000000 .stack
00000000 l    d  .debug_info	00000000 .debug_info
00000000 l    d  .debug_abbrev	00000000 .debug_abbrev
00000000 l    d  .debug_aranges	00000000 .debug_aranges
00000000 l    d  .debug_ranges	00000000 .debug_ranges
00000000 l    d  .debug_line	00000000 .debug_line
00000000 l    d  .debug_str	00000000 .debug_str
00000000 l    d  .comment	00000000 .comment
00000000 l    d  .debug_frame	00000000 .debug_frame
00000000 l    d  .debug_loc	00000000 .debug_loc
00000000 l    d  .stabstr	00000000 .stabstr
00000000 l    df *ABS*	00000000 ./CH32V10x/CH32V10x_p/Startup/startup_ch32v10x.o
00000038 l       .vector	00000000 _vector_base
00000000 l    df *ABS*	00000000 isr.c
00000000 l    df *ABS*	00000000 main.c
00000000 l    df *ABS*	00000000 HF_L9110S_2.c
00000000 l    df *ABS*	00000000 HF_WS2812b.c
00000000 l    df *ABS*	00000000 board.c
00000000 l    df *ABS*	00000000 clock_config.c
00000000 l    df *ABS*	00000000 delay.c
2000001c l     O .bss	00000002 p_ms
2000001e l     O .bss	00000001 p_us
00000000 l    df *ABS*	00000000 hf_gpio.c
00000000 l    df *ABS*	00000000 hf_nvic.c
00000000 l    df *ABS*	00000000 hf_pwm.c
00000000 l    df *ABS*	00000000 hf_tim.c
00000000 l    df *ABS*	00000000 hf_uart.c
00000000 l    df *ABS*	00000000 car_init.c
00000000 l    df *ABS*	00000000 car_light.c
20000020 l     O .bss	00000003 rgb_off
00000000 l    df *ABS*	00000000 ch32v10x_dma.c
00000000 l    df *ABS*	00000000 ch32v10x_exti.c
00000000 l    df *ABS*	00000000 ch32v10x_gpio.c
00000000 l    df *ABS*	00000000 ch32v10x_rcc.c
20000000 l     O .data	00000010 APBAHBPrescTable
20000010 l     O .data	00000004 ADCPrescTable
00000000 l    df *ABS*	00000000 ch32v10x_tim.c
00000000 l    df *ABS*	00000000 ch32v10x_usart.c
00000000 l    df *ABS*	00000000 common.c
00000000 l    df *ABS*	00000000 close.c
0000015a g     F .text	0000000a EXTI2_IRQHandler
20000810 g       .data	00000000 __global_pointer$
00000210 g     F .text	00000074 TIM1_CC_IRQHandler
0000034e g     F .text	00000002 HardFault_Handler
00001290 g     F .text	00000012 TIM_OC1PreloadConfig
20000018 g     O .bss	00000004 sys_clk
0000034a g     F .text	00000004 NMI_Handler
00000af2 g     F .text	0000006a timbase_init
00000cba g     F .text	00000024 car_both_rgb_off
00000164 g     F .text	00000004 EXTI3_IRQHandler
000014ac g     O .text	00000010 TIMERN
20000018 g       .bss	00000000 _sbss
00000800 g       *ABS*	00000000 __stack_size
0000127a g     F .text	00000016 TIM_CtrlPWMOutputs
00000140 g     F .text	00000004 EXTI0_IRQHandler
0000125e g     F .text	0000001c TIM_Cmd
000012ce g     F .text	0000001a TIM_OC4PreloadConfig
00001314 g     F .text	0000000e TIM_ClearFlag
00000038 g       .init	00000000 _einit
0000071a g     F .text	00000018 sys_recover_irq
0000133e g     F .text	0000000e TIM_ClearITPendingBit
00000f3a g     F .text	0000001e RCC_APB2PeriphClockCmd
00000174 g     F .text	00000004 ADC1_2_IRQHandler
00000dba g     F .text	000000c2 GPIO_Init
00001424 g     F .text	0000001c USART_Cmd
0000112a g     F .text	000000b2 TIM_OC3Init
00001484 g     F .text	00000016 USART_ClearITPendingBit
00000f58 g     F .text	0000001e RCC_APB1PeriphClockCmd
00001308 g     F .text	0000000c TIM_GetFlagStatus
00000328 g     F .text	00000016 DMA1_Channel4_IRQHandler
00000c7c g     F .text	0000003e car_init
00000d58 g     F .text	00000020 DMA_GetFlagStatus
00000318 g     F .text	00000004 USART3_IRQHandler
00000db0 g     F .text	0000000a EXTI_ClearITPendingBit
20000030 g       .bss	00000000 _ebss
00001440 g     F .text	00000044 USART_GetITStatus
00000346 g     F .text	00000004 DMA1_Channel7_IRQHandler
00000fee g     F .text	00000088 TIM_OC1Init
000012bc g     F .text	00000012 TIM_OC3PreloadConfig
000005ac g     F .text	0000002a Delay_Init
000014bc g     O .text	00000010 UARTN
000009e6 g     F .text	0000010c pwm_init
000002c4 g     F .text	00000026 TIM4_IRQHandler
00000e7c g     F .text	0000000a GPIO_WriteBit
20000030 g       .bss	00000000 end
00001322 g     F .text	0000001c TIM_GetITStatus
00000e86 g     F .text	000000b4 RCC_GetClocksFreq
00000342 g     F .text	00000004 DMA1_Channel6_IRQHandler
00000c06 g     F .text	00000076 uart_init
0000134c g     F .text	000000d8 USART_Init
0000029e g     F .text	00000026 TIM3_IRQHandler
00000732 g     F .text	0000000a EnableGlobalIRQ
00000b5c g     F .text	000000aa uart_gpio_init
000001c8 g     F .text	00000048 TIM1_TRG_COM_IRQHandler
0000031c g     F .text	00000004 DMA1_Channel1_IRQHandler
00000000 g       .init	00000000 _start
000012a2 g     F .text	0000001a TIM_OC2PreloadConfig
000006e4 g     F .text	00000010 close_all_irq
00000170 g     F .text	00000004 EXTI15_10_IRQHandler
0000149c g     O .text	00000010 GPION
00001076 g     F .text	000000b4 TIM_OC2Init
20000000 g       .dalign	00000000 _data_vma
000003a8 g     F .text	00000024 ws2812b_init
000011dc g     F .text	00000082 TIM_OC4Init
0000016c g     F .text	00000004 EXTI9_5_IRQHandler
00000472 g     F .text	00000038 board_init
00000d92 g     F .text	0000001e EXTI_GetITStatus
00000350 g     F .text	0000000a main
000003cc g     F .text	000000a6 ws2812b_write
00001302 g     F .text	00000006 TIM_SetCounter
0000033e g     F .text	00000004 DMA1_Channel5_IRQHandler
00000168 g     F .text	00000004 EXTI4_IRQHandler
000005d6 g     F .text	00000030 Delay_Ms
000006f4 g     F .text	00000026 DisableGlobalIRQ
000004aa g     F .text	00000102 SystemInit
00000000 g       .init	00000000 _sinit
00000324 g     F .text	00000004 DMA1_Channel3_IRQHandler
20000024 g     O .bss	0000000c irq_status
000001a2 g     F .text	00000026 TIM1_UP_IRQHandler
00000284 g     F .text	0000001a TIM2_IRQHandler
20005000 g       .stack	00000000 _eusrstack
0000073c g     F .text	00000070 pwm_duty
00000178 g     F .text	0000002a TIM1_BRK_IRQHandler
00000144 g     F .text	00000016 EXTI1_IRQHandler
20000018 g       .data	00000000 _edata
00000f76 g     F .text	00000078 TIM_TimeBaseInit
000014cc g       .dlalign	00000000 _data_lma
000002ee g     F .text	0000002a USART2_IRQHandler
00000320 g     F .text	00000004 DMA1_Channel2_IRQHandler
00000d78 g     F .text	0000001a DMA_ClearFlag
00000cde  w      .text	00000000 handle_reset
000007ac g     F .text	0000023a pwm_gpio_init
0000035a g     F .text	0000004e l9110s_init
000002ea g     F .text	00000004 USART1_IRQHandler
00000606 g     F .text	000000de gpio_init
000012e8 g     F .text	0000001a TIM_OC2PolarityConfig



Disassembly of section .init:

00000000 <_sinit>:
_start():
C:/Users/Kanesh's laptop/Desktop/19创新基地/沁恒/例程/Libraries/Device/CH32V10x_p/Startup/startup_ch32v10x.S:13

	.section	.init,"ax",@progbits
	.global	_start
	.align	1
_start:
	j	handle_reset
   0:	4df0006f          	j	cde <handle_reset>
   4:	00000013          	nop
   8:	00000013          	nop
   c:	00000013          	nop
  10:	00000013          	nop
  14:	00000013          	nop
  18:	00000013          	nop
  1c:	00000013          	nop
  20:	00000013          	nop
  24:	00000013          	nop
  28:	00000013          	nop
  2c:	00000013          	nop
  30:	00000013          	nop
  34:	00100073          	ebreak

Disassembly of section .vector:

00000038 <_vector_base>:
_vector_base():
C:/Users/Kanesh's laptop/Desktop/19创新基地/沁恒/例程/Libraries/Device/CH32V10x_p/Startup/startup_ch32v10x.S:31
	.word 0x00100073
    .section    .vector,"ax",@progbits
    .align  1
_vector_base:
    .option norvc;
        j   _start
  38:	fc9ff06f          	j	0 <_sinit>
  3c:	0000                	unimp
  3e:	0000                	unimp
C:/Users/Kanesh's laptop/Desktop/19创新基地/沁恒/例程/Libraries/Device/CH32V10x_p/Startup/startup_ch32v10x.S:33
    .word   0
        j   NMI_Handler                 /* NMI Handler */
  40:	30a0006f          	j	34a <NMI_Handler>
C:/Users/Kanesh's laptop/Desktop/19创新基地/沁恒/例程/Libraries/Device/CH32V10x_p/Startup/startup_ch32v10x.S:34
        j   HardFault_Handler           /* Hard Fault Handler */
  44:	30a0006f          	j	34e <HardFault_Handler>
	...
C:/Users/Kanesh's laptop/Desktop/19创新基地/沁恒/例程/Libraries/Device/CH32V10x_p/Startup/startup_ch32v10x.S:43
    .word   0
    .word   0
    .word   0
    .word   0
    .word   0
        j   SysTick_Handler            /* SysTick Handler */
  68:	f99ff06f          	j	0 <_sinit>
  6c:	0000                	unimp
  6e:	0000                	unimp
C:/Users/Kanesh's laptop/Desktop/19创新基地/沁恒/例程/Libraries/Device/CH32V10x_p/Startup/startup_ch32v10x.S:45
    .word   0
        j   SW_handler                 /* SW Handler */
  70:	f91ff06f          	j	0 <_sinit>
  74:	0000                	unimp
  76:	0000                	unimp
C:/Users/Kanesh's laptop/Desktop/19创新基地/沁恒/例程/Libraries/Device/CH32V10x_p/Startup/startup_ch32v10x.S:48
    .word   0
    /* External Interrupts */
        j   WWDG_IRQHandler            /* Window Watchdog */
  78:	f89ff06f          	j	0 <_sinit>
C:/Users/Kanesh's laptop/Desktop/19创新基地/沁恒/例程/Libraries/Device/CH32V10x_p/Startup/startup_ch32v10x.S:49
        j   PVD_IRQHandler             /* PVD through EXTI Line detect */
  7c:	f85ff06f          	j	0 <_sinit>
C:/Users/Kanesh's laptop/Desktop/19创新基地/沁恒/例程/Libraries/Device/CH32V10x_p/Startup/startup_ch32v10x.S:50
        j   TAMPER_IRQHandler          /* TAMPER */
  80:	f81ff06f          	j	0 <_sinit>
C:/Users/Kanesh's laptop/Desktop/19创新基地/沁恒/例程/Libraries/Device/CH32V10x_p/Startup/startup_ch32v10x.S:51
        j   RTC_IRQHandler             /* RTC */
  84:	f7dff06f          	j	0 <_sinit>
C:/Users/Kanesh's laptop/Desktop/19创新基地/沁恒/例程/Libraries/Device/CH32V10x_p/Startup/startup_ch32v10x.S:52
        j   FLASH_IRQHandler           /* Flash */
  88:	f79ff06f          	j	0 <_sinit>
C:/Users/Kanesh's laptop/Desktop/19创新基地/沁恒/例程/Libraries/Device/CH32V10x_p/Startup/startup_ch32v10x.S:53
        j   RCC_IRQHandler             /* RCC */
  8c:	f75ff06f          	j	0 <_sinit>
C:/Users/Kanesh's laptop/Desktop/19创新基地/沁恒/例程/Libraries/Device/CH32V10x_p/Startup/startup_ch32v10x.S:54
        j   EXTI0_IRQHandler           /* EXTI Line 0 */
  90:	0b00006f          	j	140 <EXTI0_IRQHandler>
C:/Users/Kanesh's laptop/Desktop/19创新基地/沁恒/例程/Libraries/Device/CH32V10x_p/Startup/startup_ch32v10x.S:55
        j   EXTI1_IRQHandler           /* EXTI Line 1 */
  94:	0b00006f          	j	144 <EXTI1_IRQHandler>
C:/Users/Kanesh's laptop/Desktop/19创新基地/沁恒/例程/Libraries/Device/CH32V10x_p/Startup/startup_ch32v10x.S:56
        j   EXTI2_IRQHandler           /* EXTI Line 2 */
  98:	0c20006f          	j	15a <EXTI2_IRQHandler>
C:/Users/Kanesh's laptop/Desktop/19创新基地/沁恒/例程/Libraries/Device/CH32V10x_p/Startup/startup_ch32v10x.S:57
        j   EXTI3_IRQHandler           /* EXTI Line 3 */
  9c:	0c80006f          	j	164 <EXTI3_IRQHandler>
C:/Users/Kanesh's laptop/Desktop/19创新基地/沁恒/例程/Libraries/Device/CH32V10x_p/Startup/startup_ch32v10x.S:58
        j   EXTI4_IRQHandler           /* EXTI Line 4 */
  a0:	0c80006f          	j	168 <EXTI4_IRQHandler>
C:/Users/Kanesh's laptop/Desktop/19创新基地/沁恒/例程/Libraries/Device/CH32V10x_p/Startup/startup_ch32v10x.S:59
        j   DMA1_Channel1_IRQHandler   /* DMA1 Channel 1 */
  a4:	2780006f          	j	31c <DMA1_Channel1_IRQHandler>
C:/Users/Kanesh's laptop/Desktop/19创新基地/沁恒/例程/Libraries/Device/CH32V10x_p/Startup/startup_ch32v10x.S:60
        j   DMA1_Channel2_IRQHandler   /* DMA1 Channel 2 */
  a8:	2780006f          	j	320 <DMA1_Channel2_IRQHandler>
C:/Users/Kanesh's laptop/Desktop/19创新基地/沁恒/例程/Libraries/Device/CH32V10x_p/Startup/startup_ch32v10x.S:61
        j   DMA1_Channel3_IRQHandler   /* DMA1 Channel 3 */
  ac:	2780006f          	j	324 <DMA1_Channel3_IRQHandler>
C:/Users/Kanesh's laptop/Desktop/19创新基地/沁恒/例程/Libraries/Device/CH32V10x_p/Startup/startup_ch32v10x.S:62
        j   DMA1_Channel4_IRQHandler   /* DMA1 Channel 4 */
  b0:	2780006f          	j	328 <DMA1_Channel4_IRQHandler>
C:/Users/Kanesh's laptop/Desktop/19创新基地/沁恒/例程/Libraries/Device/CH32V10x_p/Startup/startup_ch32v10x.S:63
        j   DMA1_Channel5_IRQHandler   /* DMA1 Channel 5 */
  b4:	28a0006f          	j	33e <DMA1_Channel5_IRQHandler>
C:/Users/Kanesh's laptop/Desktop/19创新基地/沁恒/例程/Libraries/Device/CH32V10x_p/Startup/startup_ch32v10x.S:64
        j   DMA1_Channel6_IRQHandler   /* DMA1 Channel 6 */
  b8:	28a0006f          	j	342 <DMA1_Channel6_IRQHandler>
C:/Users/Kanesh's laptop/Desktop/19创新基地/沁恒/例程/Libraries/Device/CH32V10x_p/Startup/startup_ch32v10x.S:65
        j   DMA1_Channel7_IRQHandler   /* DMA1 Channel 7 */
  bc:	28a0006f          	j	346 <DMA1_Channel7_IRQHandler>
C:/Users/Kanesh's laptop/Desktop/19创新基地/沁恒/例程/Libraries/Device/CH32V10x_p/Startup/startup_ch32v10x.S:66
        j   ADC1_2_IRQHandler          /* ADC1_2 */
  c0:	0b40006f          	j	174 <ADC1_2_IRQHandler>
	...
C:/Users/Kanesh's laptop/Desktop/19创新基地/沁恒/例程/Libraries/Device/CH32V10x_p/Startup/startup_ch32v10x.S:71
        .word   0
        .word   0
        .word   0
        .word   0
        j   EXTI9_5_IRQHandler         /* EXTI Line 9..5 */
  d4:	0980006f          	j	16c <EXTI9_5_IRQHandler>
C:/Users/Kanesh's laptop/Desktop/19创新基地/沁恒/例程/Libraries/Device/CH32V10x_p/Startup/startup_ch32v10x.S:72
        j   TIM1_BRK_IRQHandler        /* TIM1 Break */
  d8:	0a00006f          	j	178 <TIM1_BRK_IRQHandler>
C:/Users/Kanesh's laptop/Desktop/19创新基地/沁恒/例程/Libraries/Device/CH32V10x_p/Startup/startup_ch32v10x.S:73
        j   TIM1_UP_IRQHandler         /* TIM1 Update */
  dc:	0c60006f          	j	1a2 <TIM1_UP_IRQHandler>
C:/Users/Kanesh's laptop/Desktop/19创新基地/沁恒/例程/Libraries/Device/CH32V10x_p/Startup/startup_ch32v10x.S:74
        j   TIM1_TRG_COM_IRQHandler    /* TIM1 Trigger and Commutation */
  e0:	0e80006f          	j	1c8 <TIM1_TRG_COM_IRQHandler>
C:/Users/Kanesh's laptop/Desktop/19创新基地/沁恒/例程/Libraries/Device/CH32V10x_p/Startup/startup_ch32v10x.S:75
        j   TIM1_CC_IRQHandler         /* TIM1 Capture Compare */
  e4:	12c0006f          	j	210 <TIM1_CC_IRQHandler>
C:/Users/Kanesh's laptop/Desktop/19创新基地/沁恒/例程/Libraries/Device/CH32V10x_p/Startup/startup_ch32v10x.S:76
        j   TIM2_IRQHandler            /* TIM2 */
  e8:	19c0006f          	j	284 <TIM2_IRQHandler>
C:/Users/Kanesh's laptop/Desktop/19创新基地/沁恒/例程/Libraries/Device/CH32V10x_p/Startup/startup_ch32v10x.S:77
        j   TIM3_IRQHandler            /* TIM3 */
  ec:	1b20006f          	j	29e <TIM3_IRQHandler>
C:/Users/Kanesh's laptop/Desktop/19创新基地/沁恒/例程/Libraries/Device/CH32V10x_p/Startup/startup_ch32v10x.S:78
        j   TIM4_IRQHandler            /* TIM4 */
  f0:	1d40006f          	j	2c4 <TIM4_IRQHandler>
C:/Users/Kanesh's laptop/Desktop/19创新基地/沁恒/例程/Libraries/Device/CH32V10x_p/Startup/startup_ch32v10x.S:79
        j   I2C1_EV_IRQHandler         /* I2C1 Event */
  f4:	f0dff06f          	j	0 <_sinit>
C:/Users/Kanesh's laptop/Desktop/19创新基地/沁恒/例程/Libraries/Device/CH32V10x_p/Startup/startup_ch32v10x.S:80
        j   I2C1_ER_IRQHandler         /* I2C1 Error */
  f8:	f09ff06f          	j	0 <_sinit>
C:/Users/Kanesh's laptop/Desktop/19创新基地/沁恒/例程/Libraries/Device/CH32V10x_p/Startup/startup_ch32v10x.S:81
        j   I2C2_EV_IRQHandler         /* I2C2 Event */
  fc:	f05ff06f          	j	0 <_sinit>
C:/Users/Kanesh's laptop/Desktop/19创新基地/沁恒/例程/Libraries/Device/CH32V10x_p/Startup/startup_ch32v10x.S:82
        j   I2C2_ER_IRQHandler         /* I2C2 Error */
 100:	f01ff06f          	j	0 <_sinit>
C:/Users/Kanesh's laptop/Desktop/19创新基地/沁恒/例程/Libraries/Device/CH32V10x_p/Startup/startup_ch32v10x.S:83
        j   SPI1_IRQHandler            /* SPI1 */
 104:	efdff06f          	j	0 <_sinit>
C:/Users/Kanesh's laptop/Desktop/19创新基地/沁恒/例程/Libraries/Device/CH32V10x_p/Startup/startup_ch32v10x.S:84
        j   SPI2_IRQHandler            /* SPI2 */
 108:	ef9ff06f          	j	0 <_sinit>
C:/Users/Kanesh's laptop/Desktop/19创新基地/沁恒/例程/Libraries/Device/CH32V10x_p/Startup/startup_ch32v10x.S:85
        j   USART1_IRQHandler          /* USART1 */
 10c:	1de0006f          	j	2ea <USART1_IRQHandler>
C:/Users/Kanesh's laptop/Desktop/19创新基地/沁恒/例程/Libraries/Device/CH32V10x_p/Startup/startup_ch32v10x.S:86
        j   USART2_IRQHandler          /* USART2 */
 110:	1de0006f          	j	2ee <USART2_IRQHandler>
C:/Users/Kanesh's laptop/Desktop/19创新基地/沁恒/例程/Libraries/Device/CH32V10x_p/Startup/startup_ch32v10x.S:87
        j   USART3_IRQHandler          /* USART3 */
 114:	2040006f          	j	318 <USART3_IRQHandler>
C:/Users/Kanesh's laptop/Desktop/19创新基地/沁恒/例程/Libraries/Device/CH32V10x_p/Startup/startup_ch32v10x.S:88
        j   EXTI15_10_IRQHandler       /* EXTI Line 15..10 */
 118:	0580006f          	j	170 <EXTI15_10_IRQHandler>
C:/Users/Kanesh's laptop/Desktop/19创新基地/沁恒/例程/Libraries/Device/CH32V10x_p/Startup/startup_ch32v10x.S:89
        j   RTCAlarm_IRQHandler        /* RTC Alarm through EXTI Line */
 11c:	ee5ff06f          	j	0 <_sinit>
C:/Users/Kanesh's laptop/Desktop/19创新基地/沁恒/例程/Libraries/Device/CH32V10x_p/Startup/startup_ch32v10x.S:90
        j   USBWakeUp_IRQHandler       /* USB Wakeup from suspend */
 120:	ee1ff06f          	j	0 <_sinit>
C:/Users/Kanesh's laptop/Desktop/19创新基地/沁恒/例程/Libraries/Device/CH32V10x_p/Startup/startup_ch32v10x.S:91
        j   USBHD_IRQHandler           /* USBHD */
 124:	eddff06f          	j	0 <_sinit>
	...

Disassembly of section .text:

00000140 <EXTI0_IRQHandler>:
EXTI0_IRQHandler():
     140:	30200073          	mret

00000144 <EXTI1_IRQHandler>:
EXTI1_IRQHandler():
C:/Users/Kanesh's laptop/Desktop/19创新基地/沁恒/V103_Car_Demo/0_Template/USER/src/isr.c:57
    ;
}

void EXTI1_IRQHandler(void)
{
    if(SET == EXTI_GetITStatus(EXTI_Line1))
     144:	4509                	li	a0,2
     146:	44d000ef          	jal	ra,d92 <EXTI_GetITStatus>
     14a:	4785                	li	a5,1
     14c:	00f51563          	bne	a0,a5,156 <EXTI1_IRQHandler+0x12>
C:/Users/Kanesh's laptop/Desktop/19创新基地/沁恒/V103_Car_Demo/0_Template/USER/src/isr.c:63
    {
//        if(camera_type == CAMERA_BIN_UART)
//            ov7725_uart_vsync();
//        else if(camera_type == CAMERA_GRAYSCALE)
//            mt9v03x_vsync();
        EXTI_ClearITPendingBit(EXTI_Line1);
     150:	4509                	li	a0,2
     152:	45f000ef          	jal	ra,db0 <EXTI_ClearITPendingBit>
C:/Users/Kanesh's laptop/Desktop/19创新基地/沁恒/V103_Car_Demo/0_Template/USER/src/isr.c:66
    }

}
     156:	30200073          	mret

0000015a <EXTI2_IRQHandler>:
EXTI2_IRQHandler():
C:/Users/Kanesh's laptop/Desktop/19创新基地/沁恒/V103_Car_Demo/0_Template/USER/src/isr.c:70

void EXTI2_IRQHandler(void)
{
    EXTI_ClearITPendingBit(EXTI_Line2);
     15a:	4511                	li	a0,4
     15c:	455000ef          	jal	ra,db0 <EXTI_ClearITPendingBit>
C:/Users/Kanesh's laptop/Desktop/19创新基地/沁恒/V103_Car_Demo/0_Template/USER/src/isr.c:71
}
     160:	30200073          	mret

00000164 <EXTI3_IRQHandler>:
EXTI3_IRQHandler():
     164:	30200073          	mret

00000168 <EXTI4_IRQHandler>:
EXTI4_IRQHandler():
     168:	30200073          	mret

0000016c <EXTI9_5_IRQHandler>:
EXTI9_5_IRQHandler():
     16c:	30200073          	mret

00000170 <EXTI15_10_IRQHandler>:
EXTI15_10_IRQHandler():
     170:	30200073          	mret

00000174 <ADC1_2_IRQHandler>:
ADC1_2_IRQHandler():
     174:	30200073          	mret

00000178 <TIM1_BRK_IRQHandler>:
TIM1_BRK_IRQHandler():
C:/Users/Kanesh's laptop/Desktop/19创新基地/沁恒/V103_Car_Demo/0_Template/USER/src/isr.c:102


}

void TIM1_BRK_IRQHandler(void)
{
     178:	1141                	addi	sp,sp,-16
     17a:	c622                	sw	s0,12(sp)
C:/Users/Kanesh's laptop/Desktop/19创新基地/沁恒/V103_Car_Demo/0_Template/USER/src/isr.c:103
    if(TIM_GetITStatus(TIM1, TIM_IT_Break) != RESET)
     17c:	40013437          	lui	s0,0x40013
     180:	08000593          	li	a1,128
     184:	c0040513          	addi	a0,s0,-1024 # 40012c00 <_eusrstack+0x2000dc00>
     188:	19a010ef          	jal	ra,1322 <TIM_GetITStatus>
     18c:	c519                	beqz	a0,19a <TIM1_BRK_IRQHandler+0x22>
C:/Users/Kanesh's laptop/Desktop/19创新基地/沁恒/V103_Car_Demo/0_Template/USER/src/isr.c:105
    {
        TIM_ClearITPendingBit(TIM1, TIM_IT_Break);
     18e:	08000593          	li	a1,128
     192:	c0040513          	addi	a0,s0,-1024
     196:	1a8010ef          	jal	ra,133e <TIM_ClearITPendingBit>
C:/Users/Kanesh's laptop/Desktop/19创新基地/沁恒/V103_Car_Demo/0_Template/USER/src/isr.c:108

    }
}
     19a:	4432                	lw	s0,12(sp)
     19c:	0141                	addi	sp,sp,16
     19e:	30200073          	mret

000001a2 <TIM1_UP_IRQHandler>:
TIM1_UP_IRQHandler():
C:/Users/Kanesh's laptop/Desktop/19创新基地/沁恒/V103_Car_Demo/0_Template/USER/src/isr.c:111

void TIM1_UP_IRQHandler(void)
{
     1a2:	1141                	addi	sp,sp,-16
     1a4:	c622                	sw	s0,12(sp)
C:/Users/Kanesh's laptop/Desktop/19创新基地/沁恒/V103_Car_Demo/0_Template/USER/src/isr.c:112
    if(TIM_GetITStatus(TIM1, TIM_IT_Update) != RESET)
     1a6:	40013437          	lui	s0,0x40013
     1aa:	4585                	li	a1,1
     1ac:	c0040513          	addi	a0,s0,-1024 # 40012c00 <_eusrstack+0x2000dc00>
     1b0:	172010ef          	jal	ra,1322 <TIM_GetITStatus>
     1b4:	c511                	beqz	a0,1c0 <TIM1_UP_IRQHandler+0x1e>
C:/Users/Kanesh's laptop/Desktop/19创新基地/沁恒/V103_Car_Demo/0_Template/USER/src/isr.c:114
    {
        TIM_ClearITPendingBit(TIM1, TIM_IT_Update);
     1b6:	4585                	li	a1,1
     1b8:	c0040513          	addi	a0,s0,-1024
     1bc:	182010ef          	jal	ra,133e <TIM_ClearITPendingBit>
C:/Users/Kanesh's laptop/Desktop/19创新基地/沁恒/V103_Car_Demo/0_Template/USER/src/isr.c:117

    }
}
     1c0:	4432                	lw	s0,12(sp)
     1c2:	0141                	addi	sp,sp,16
     1c4:	30200073          	mret

000001c8 <TIM1_TRG_COM_IRQHandler>:
TIM1_TRG_COM_IRQHandler():
C:/Users/Kanesh's laptop/Desktop/19创新基地/沁恒/V103_Car_Demo/0_Template/USER/src/isr.c:120

void TIM1_TRG_COM_IRQHandler(void)
{
     1c8:	1141                	addi	sp,sp,-16
     1ca:	c622                	sw	s0,12(sp)
C:/Users/Kanesh's laptop/Desktop/19创新基地/沁恒/V103_Car_Demo/0_Template/USER/src/isr.c:121
    if(TIM_GetITStatus(TIM1, TIM_IT_Trigger) != RESET)
     1cc:	40013437          	lui	s0,0x40013
     1d0:	04000593          	li	a1,64
     1d4:	c0040513          	addi	a0,s0,-1024 # 40012c00 <_eusrstack+0x2000dc00>
     1d8:	14a010ef          	jal	ra,1322 <TIM_GetITStatus>
     1dc:	c519                	beqz	a0,1ea <TIM1_TRG_COM_IRQHandler+0x22>
C:/Users/Kanesh's laptop/Desktop/19创新基地/沁恒/V103_Car_Demo/0_Template/USER/src/isr.c:123
    {
        TIM_ClearITPendingBit(TIM1, TIM_IT_Trigger);
     1de:	04000593          	li	a1,64
     1e2:	c0040513          	addi	a0,s0,-1024
     1e6:	158010ef          	jal	ra,133e <TIM_ClearITPendingBit>
C:/Users/Kanesh's laptop/Desktop/19创新基地/沁恒/V103_Car_Demo/0_Template/USER/src/isr.c:126

    }
    if(TIM_GetITStatus(TIM1, TIM_IT_COM) != RESET)
     1ea:	40013437          	lui	s0,0x40013
     1ee:	02000593          	li	a1,32
     1f2:	c0040513          	addi	a0,s0,-1024 # 40012c00 <_eusrstack+0x2000dc00>
     1f6:	12c010ef          	jal	ra,1322 <TIM_GetITStatus>
     1fa:	c519                	beqz	a0,208 <TIM1_TRG_COM_IRQHandler+0x40>
C:/Users/Kanesh's laptop/Desktop/19创新基地/沁恒/V103_Car_Demo/0_Template/USER/src/isr.c:128
    {
        TIM_ClearITPendingBit(TIM1, TIM_IT_COM);
     1fc:	02000593          	li	a1,32
     200:	c0040513          	addi	a0,s0,-1024
     204:	13a010ef          	jal	ra,133e <TIM_ClearITPendingBit>
C:/Users/Kanesh's laptop/Desktop/19创新基地/沁恒/V103_Car_Demo/0_Template/USER/src/isr.c:131

    }
}
     208:	4432                	lw	s0,12(sp)
     20a:	0141                	addi	sp,sp,16
     20c:	30200073          	mret

00000210 <TIM1_CC_IRQHandler>:
TIM1_CC_IRQHandler():
C:/Users/Kanesh's laptop/Desktop/19创新基地/沁恒/V103_Car_Demo/0_Template/USER/src/isr.c:134

void TIM1_CC_IRQHandler(void)
{
     210:	1141                	addi	sp,sp,-16
     212:	c622                	sw	s0,12(sp)
C:/Users/Kanesh's laptop/Desktop/19创新基地/沁恒/V103_Car_Demo/0_Template/USER/src/isr.c:135
    if(TIM_GetITStatus(TIM1, TIM_IT_CC1) != RESET)
     214:	40013437          	lui	s0,0x40013
     218:	4589                	li	a1,2
     21a:	c0040513          	addi	a0,s0,-1024 # 40012c00 <_eusrstack+0x2000dc00>
     21e:	104010ef          	jal	ra,1322 <TIM_GetITStatus>
     222:	c511                	beqz	a0,22e <TIM1_CC_IRQHandler+0x1e>
C:/Users/Kanesh's laptop/Desktop/19创新基地/沁恒/V103_Car_Demo/0_Template/USER/src/isr.c:137
    {
        TIM_ClearITPendingBit(TIM1, TIM_IT_CC1);
     224:	4589                	li	a1,2
     226:	c0040513          	addi	a0,s0,-1024
     22a:	114010ef          	jal	ra,133e <TIM_ClearITPendingBit>
C:/Users/Kanesh's laptop/Desktop/19创新基地/沁恒/V103_Car_Demo/0_Template/USER/src/isr.c:140

    }
    if(TIM_GetITStatus(TIM1, TIM_IT_CC2) != RESET)
     22e:	40013437          	lui	s0,0x40013
     232:	4591                	li	a1,4
     234:	c0040513          	addi	a0,s0,-1024 # 40012c00 <_eusrstack+0x2000dc00>
     238:	0ea010ef          	jal	ra,1322 <TIM_GetITStatus>
     23c:	c511                	beqz	a0,248 <TIM1_CC_IRQHandler+0x38>
C:/Users/Kanesh's laptop/Desktop/19创新基地/沁恒/V103_Car_Demo/0_Template/USER/src/isr.c:142
    {
        TIM_ClearITPendingBit(TIM1, TIM_IT_CC2);
     23e:	4591                	li	a1,4
     240:	c0040513          	addi	a0,s0,-1024
     244:	0fa010ef          	jal	ra,133e <TIM_ClearITPendingBit>
C:/Users/Kanesh's laptop/Desktop/19创新基地/沁恒/V103_Car_Demo/0_Template/USER/src/isr.c:145

    }
    if(TIM_GetITStatus(TIM1, TIM_IT_CC3) != RESET)
     248:	40013437          	lui	s0,0x40013
     24c:	45a1                	li	a1,8
     24e:	c0040513          	addi	a0,s0,-1024 # 40012c00 <_eusrstack+0x2000dc00>
     252:	0d0010ef          	jal	ra,1322 <TIM_GetITStatus>
     256:	c511                	beqz	a0,262 <TIM1_CC_IRQHandler+0x52>
C:/Users/Kanesh's laptop/Desktop/19创新基地/沁恒/V103_Car_Demo/0_Template/USER/src/isr.c:147
    {
        TIM_ClearITPendingBit(TIM1, TIM_IT_CC3);
     258:	45a1                	li	a1,8
     25a:	c0040513          	addi	a0,s0,-1024
     25e:	0e0010ef          	jal	ra,133e <TIM_ClearITPendingBit>
C:/Users/Kanesh's laptop/Desktop/19创新基地/沁恒/V103_Car_Demo/0_Template/USER/src/isr.c:150

    }
    if(TIM_GetITStatus(TIM1, TIM_IT_CC4) != RESET)
     262:	40013437          	lui	s0,0x40013
     266:	45c1                	li	a1,16
     268:	c0040513          	addi	a0,s0,-1024 # 40012c00 <_eusrstack+0x2000dc00>
     26c:	0b6010ef          	jal	ra,1322 <TIM_GetITStatus>
     270:	c511                	beqz	a0,27c <TIM1_CC_IRQHandler+0x6c>
C:/Users/Kanesh's laptop/Desktop/19创新基地/沁恒/V103_Car_Demo/0_Template/USER/src/isr.c:152
    {
        TIM_ClearITPendingBit(TIM1, TIM_IT_CC4);
     272:	45c1                	li	a1,16
     274:	c0040513          	addi	a0,s0,-1024
     278:	0c6010ef          	jal	ra,133e <TIM_ClearITPendingBit>
C:/Users/Kanesh's laptop/Desktop/19创新基地/沁恒/V103_Car_Demo/0_Template/USER/src/isr.c:155

    }
}
     27c:	4432                	lw	s0,12(sp)
     27e:	0141                	addi	sp,sp,16
     280:	30200073          	mret

00000284 <TIM2_IRQHandler>:
TIM2_IRQHandler():
C:/Users/Kanesh's laptop/Desktop/19创新基地/沁恒/V103_Car_Demo/0_Template/USER/src/isr.c:160

void TIM2_IRQHandler(void)
{

    if(TIM_GetITStatus(TIM2, TIM_IT_Update) != RESET)
     284:	4585                	li	a1,1
     286:	40000537          	lui	a0,0x40000
     28a:	098010ef          	jal	ra,1322 <TIM_GetITStatus>
     28e:	c511                	beqz	a0,29a <TIM2_IRQHandler+0x16>
C:/Users/Kanesh's laptop/Desktop/19创新基地/沁恒/V103_Car_Demo/0_Template/USER/src/isr.c:162
    {
        TIM_ClearITPendingBit(TIM2, TIM_IT_Update );
     290:	4585                	li	a1,1
     292:	40000537          	lui	a0,0x40000
     296:	0a8010ef          	jal	ra,133e <TIM_ClearITPendingBit>
C:/Users/Kanesh's laptop/Desktop/19创新基地/沁恒/V103_Car_Demo/0_Template/USER/src/isr.c:168
        //ccd_collect();//CCD数据采集
        //gpio_toggle(B5);
        //GPIO_PIN_RESET(B5);
        //GPIO_PIN_SET(B5);
    }
}
     29a:	30200073          	mret

0000029e <TIM3_IRQHandler>:
TIM3_IRQHandler():
C:/Users/Kanesh's laptop/Desktop/19创新基地/沁恒/V103_Car_Demo/0_Template/USER/src/isr.c:171

void TIM3_IRQHandler(void)
{
     29e:	1141                	addi	sp,sp,-16
     2a0:	c622                	sw	s0,12(sp)
C:/Users/Kanesh's laptop/Desktop/19创新基地/沁恒/V103_Car_Demo/0_Template/USER/src/isr.c:172
    if(TIM_GetITStatus(TIM3, TIM_IT_Update) != RESET)
     2a2:	40000437          	lui	s0,0x40000
     2a6:	4585                	li	a1,1
     2a8:	40040513          	addi	a0,s0,1024 # 40000400 <_eusrstack+0x1fffb400>
     2ac:	076010ef          	jal	ra,1322 <TIM_GetITStatus>
     2b0:	c511                	beqz	a0,2bc <TIM3_IRQHandler+0x1e>
C:/Users/Kanesh's laptop/Desktop/19创新基地/沁恒/V103_Car_Demo/0_Template/USER/src/isr.c:174
    {
        TIM_ClearITPendingBit(TIM3, TIM_IT_Update );
     2b2:	4585                	li	a1,1
     2b4:	40040513          	addi	a0,s0,1024
     2b8:	086010ef          	jal	ra,133e <TIM_ClearITPendingBit>
C:/Users/Kanesh's laptop/Desktop/19创新基地/沁恒/V103_Car_Demo/0_Template/USER/src/isr.c:177

    }
}
     2bc:	4432                	lw	s0,12(sp)
     2be:	0141                	addi	sp,sp,16
     2c0:	30200073          	mret

000002c4 <TIM4_IRQHandler>:
TIM4_IRQHandler():
C:/Users/Kanesh's laptop/Desktop/19创新基地/沁恒/V103_Car_Demo/0_Template/USER/src/isr.c:180

void TIM4_IRQHandler(void)
{
     2c4:	1141                	addi	sp,sp,-16
     2c6:	c622                	sw	s0,12(sp)
C:/Users/Kanesh's laptop/Desktop/19创新基地/沁恒/V103_Car_Demo/0_Template/USER/src/isr.c:181
    if(TIM_GetITStatus(TIM4, TIM_IT_Update) != RESET)
     2c8:	40001437          	lui	s0,0x40001
     2cc:	4585                	li	a1,1
     2ce:	80040513          	addi	a0,s0,-2048 # 40000800 <_eusrstack+0x1fffb800>
     2d2:	050010ef          	jal	ra,1322 <TIM_GetITStatus>
     2d6:	c511                	beqz	a0,2e2 <TIM4_IRQHandler+0x1e>
C:/Users/Kanesh's laptop/Desktop/19创新基地/沁恒/V103_Car_Demo/0_Template/USER/src/isr.c:183
    {
        TIM_ClearITPendingBit(TIM4, TIM_IT_Update );
     2d8:	4585                	li	a1,1
     2da:	80040513          	addi	a0,s0,-2048
     2de:	060010ef          	jal	ra,133e <TIM_ClearITPendingBit>
C:/Users/Kanesh's laptop/Desktop/19创新基地/沁恒/V103_Car_Demo/0_Template/USER/src/isr.c:186

    }
}
     2e2:	4432                	lw	s0,12(sp)
     2e4:	0141                	addi	sp,sp,16
     2e6:	30200073          	mret

000002ea <USART1_IRQHandler>:
USART1_IRQHandler():
     2ea:	30200073          	mret

000002ee <USART2_IRQHandler>:
USART2_IRQHandler():
C:/Users/Kanesh's laptop/Desktop/19创新基地/沁恒/V103_Car_Demo/0_Template/USER/src/isr.c:194
{

}

void USART2_IRQHandler(void)
{
     2ee:	1141                	addi	sp,sp,-16
     2f0:	c622                	sw	s0,12(sp)
C:/Users/Kanesh's laptop/Desktop/19创新基地/沁恒/V103_Car_Demo/0_Template/USER/src/isr.c:195
    if(USART_GetITStatus(USART2, USART_IT_RXNE) != RESET)
     2f2:	40004437          	lui	s0,0x40004
     2f6:	52500593          	li	a1,1317
     2fa:	40040513          	addi	a0,s0,1024 # 40004400 <_eusrstack+0x1ffff400>
     2fe:	142010ef          	jal	ra,1440 <USART_GetITStatus>
     302:	c519                	beqz	a0,310 <USART2_IRQHandler+0x22>
C:/Users/Kanesh's laptop/Desktop/19创新基地/沁恒/V103_Car_Demo/0_Template/USER/src/isr.c:197
    {
        USART_ClearITPendingBit(USART2, USART_IT_RXNE);
     304:	52500593          	li	a1,1317
     308:	40040513          	addi	a0,s0,1024
     30c:	178010ef          	jal	ra,1484 <USART_ClearITPendingBit>
C:/Users/Kanesh's laptop/Desktop/19创新基地/沁恒/V103_Car_Demo/0_Template/USER/src/isr.c:203
//        if(camera_type == CAMERA_BIN_UART)
//            ov7725_cof_uart_interrupt();
//        else if(camera_type == CAMERA_GRAYSCALE)
//            mt9v03x_uart_callback();
    }
}
     310:	4432                	lw	s0,12(sp)
     312:	0141                	addi	sp,sp,16
     314:	30200073          	mret

00000318 <USART3_IRQHandler>:
USART3_IRQHandler():
     318:	30200073          	mret

0000031c <DMA1_Channel1_IRQHandler>:
DMA1_Channel1_IRQHandler():
     31c:	30200073          	mret

00000320 <DMA1_Channel2_IRQHandler>:
DMA1_Channel2_IRQHandler():
     320:	30200073          	mret

00000324 <DMA1_Channel3_IRQHandler>:
DMA1_Channel3_IRQHandler():
     324:	30200073          	mret

00000328 <DMA1_Channel4_IRQHandler>:
DMA1_Channel4_IRQHandler():
C:/Users/Kanesh's laptop/Desktop/19创新基地/沁恒/V103_Car_Demo/0_Template/USER/src/isr.c:227

}

void DMA1_Channel4_IRQHandler(void)
{
    if(SET == DMA_GetFlagStatus(DMA1_FLAG_TC4))
     328:	6509                	lui	a0,0x2
     32a:	22f000ef          	jal	ra,d58 <DMA_GetFlagStatus>
     32e:	4785                	li	a5,1
     330:	00f51563          	bne	a0,a5,33a <DMA1_Channel4_IRQHandler+0x12>
C:/Users/Kanesh's laptop/Desktop/19创新基地/沁恒/V103_Car_Demo/0_Template/USER/src/isr.c:229
    {
        DMA_ClearFlag(DMA1_FLAG_TC4);
     334:	6509                	lui	a0,0x2
     336:	243000ef          	jal	ra,d78 <DMA_ClearFlag>
C:/Users/Kanesh's laptop/Desktop/19创新基地/沁恒/V103_Car_Demo/0_Template/USER/src/isr.c:231
    }
}
     33a:	30200073          	mret

0000033e <DMA1_Channel5_IRQHandler>:
DMA1_Channel5_IRQHandler():
     33e:	30200073          	mret

00000342 <DMA1_Channel6_IRQHandler>:
DMA1_Channel6_IRQHandler():
     342:	30200073          	mret

00000346 <DMA1_Channel7_IRQHandler>:
DMA1_Channel7_IRQHandler():
     346:	30200073          	mret

0000034a <NMI_Handler>:
NMI_Handler():
C:/Users/Kanesh's laptop/Desktop/19创新基地/沁恒/V103_Car_Demo/0_Template/USER/src/isr.c:257
* Return         : None
*******************************************************************************/
void NMI_Handler(void)
{

}
     34a:	30200073          	mret

0000034e <HardFault_Handler>:
HardFault_Handler():
C:/Users/Kanesh's laptop/Desktop/19创新基地/沁恒/V103_Car_Demo/0_Template/USER/src/isr.c:270 (discriminator 1)
void HardFault_Handler(void)
{

  while (1)
  {
  }
     34e:	a001                	j	34e <HardFault_Handler>

00000350 <main>:
main():
C:/Users/Kanesh's laptop/Desktop/19创新基地/沁恒/V103_Car_Demo/0_Template/USER/src/main.c:26
* 5. 如果需要写一些说明性的文档，可以放在doc文件夹的readme中

************************************************************************************************/

int main()
{
     350:	1141                	addi	sp,sp,-16
     352:	c606                	sw	ra,12(sp)
C:/Users/Kanesh's laptop/Desktop/19创新基地/沁恒/V103_Car_Demo/0_Template/USER/src/main.c:30
    /* 此处声明需要用到的局部变量 */

    /* 智能车初始化 */
    car_init();
     354:	129000ef          	jal	ra,c7c <car_init>
C:/Users/Kanesh's laptop/Desktop/19创新基地/沁恒/V103_Car_Demo/0_Template/USER/src/main.c:38 (discriminator 1)

    while(1)
    {
        /* 此处编写需要循环执行的代码 */

    }
     358:	a001                	j	358 <main+0x8>

0000035a <l9110s_init>:
l9110s_init():
C:/Users/Kanesh's laptop/Desktop/19创新基地/沁恒/V103_Car_Demo/Libraries/hefei_peripheral/HF_L9110S_2.c:19
// @return       void
// Sample usage:        PWM_9110_init(left); 
                        //初始化左电机PWM
//-------------------------------------------------------------------------------------------------------------------
void l9110s_init(left_or_right object)
{
     35a:	1141                	addi	sp,sp,-16
     35c:	c606                	sw	ra,12(sp)
C:/Users/Kanesh's laptop/Desktop/19创新基地/沁恒/V103_Car_Demo/Libraries/hefei_peripheral/HF_L9110S_2.c:20
    if(object == left)
     35e:	e10d                	bnez	a0,380 <l9110s_init+0x26>
C:/Users/Kanesh's laptop/Desktop/19创新基地/沁恒/V103_Car_Demo/Libraries/hefei_peripheral/HF_L9110S_2.c:22
    {
        pwm_init(L_PWM_F, 72, 0, TIM_OCPreload_Enable);
     360:	46a1                	li	a3,8
     362:	4601                	li	a2,0
     364:	04800593          	li	a1,72
     368:	30200513          	li	a0,770
     36c:	2dad                	jal	9e6 <pwm_init>
C:/Users/Kanesh's laptop/Desktop/19创新基地/沁恒/V103_Car_Demo/Libraries/hefei_peripheral/HF_L9110S_2.c:23
        pwm_init(L_PWM_B, 72, 0, TIM_OCPreload_Enable);
     36e:	46a1                	li	a3,8
     370:	4601                	li	a2,0
     372:	04800593          	li	a1,72
     376:	30300513          	li	a0,771
C:/Users/Kanesh's laptop/Desktop/19创新基地/沁恒/V103_Car_Demo/Libraries/hefei_peripheral/HF_L9110S_2.c:31
    else if(object == right)
    {
        pwm_init(R_PWM_F, 72, 0, TIM_OCPreload_Disable);
        pwm_init(R_PWM_B, 72, 0, TIM_OCPreload_Disable);
    }
}
     37a:	40b2                	lw	ra,12(sp)
     37c:	0141                	addi	sp,sp,16
C:/Users/Kanesh's laptop/Desktop/19创新基地/沁恒/V103_Car_Demo/Libraries/hefei_peripheral/HF_L9110S_2.c:29
        pwm_init(R_PWM_B, 72, 0, TIM_OCPreload_Disable);
     37e:	a5a5                	j	9e6 <pwm_init>
C:/Users/Kanesh's laptop/Desktop/19创新基地/沁恒/V103_Car_Demo/Libraries/hefei_peripheral/HF_L9110S_2.c:26
    else if(object == right)
     380:	4785                	li	a5,1
     382:	02f51063          	bne	a0,a5,3a2 <l9110s_init+0x48>
C:/Users/Kanesh's laptop/Desktop/19创新基地/沁恒/V103_Car_Demo/Libraries/hefei_peripheral/HF_L9110S_2.c:28
        pwm_init(R_PWM_F, 72, 0, TIM_OCPreload_Disable);
     386:	4681                	li	a3,0
     388:	4601                	li	a2,0
     38a:	04800593          	li	a1,72
     38e:	20200513          	li	a0,514
     392:	2d91                	jal	9e6 <pwm_init>
C:/Users/Kanesh's laptop/Desktop/19创新基地/沁恒/V103_Car_Demo/Libraries/hefei_peripheral/HF_L9110S_2.c:29
        pwm_init(R_PWM_B, 72, 0, TIM_OCPreload_Disable);
     394:	4681                	li	a3,0
     396:	4601                	li	a2,0
     398:	04800593          	li	a1,72
     39c:	20300513          	li	a0,515
     3a0:	bfe9                	j	37a <l9110s_init+0x20>
C:/Users/Kanesh's laptop/Desktop/19创新基地/沁恒/V103_Car_Demo/Libraries/hefei_peripheral/HF_L9110S_2.c:31
}
     3a2:	40b2                	lw	ra,12(sp)
     3a4:	0141                	addi	sp,sp,16
     3a6:	8082                	ret

000003a8 <ws2812b_init>:
ws2812b_init():
C:/Users/Kanesh's laptop/Desktop/19创新基地/沁恒/V103_Car_Demo/Libraries/hefei_peripheral/HF_WS2812b.c:21
//  Sample usage:           ws2812b_init();
//                          //初始化RGB等
//-------------------------------------------------------------------------------------------------------------------
void ws2812b_init()
{
    pwm_init(PWM2_CH2_A1, 180000, 0, TIM_OCPreload_Disable);
     3a8:	0002c5b7          	lui	a1,0x2c
C:/Users/Kanesh's laptop/Desktop/19创新基地/沁恒/V103_Car_Demo/Libraries/hefei_peripheral/HF_WS2812b.c:20
{
     3ac:	1141                	addi	sp,sp,-16
C:/Users/Kanesh's laptop/Desktop/19创新基地/沁恒/V103_Car_Demo/Libraries/hefei_peripheral/HF_WS2812b.c:21
    pwm_init(PWM2_CH2_A1, 180000, 0, TIM_OCPreload_Disable);
     3ae:	f2058593          	addi	a1,a1,-224 # 2bf20 <_data_lma+0x2aa54>
     3b2:	10100513          	li	a0,257
     3b6:	4681                	li	a3,0
     3b8:	4601                	li	a2,0
C:/Users/Kanesh's laptop/Desktop/19创新基地/沁恒/V103_Car_Demo/Libraries/hefei_peripheral/HF_WS2812b.c:20
{
     3ba:	c606                	sw	ra,12(sp)
C:/Users/Kanesh's laptop/Desktop/19创新基地/沁恒/V103_Car_Demo/Libraries/hefei_peripheral/HF_WS2812b.c:21
    pwm_init(PWM2_CH2_A1, 180000, 0, TIM_OCPreload_Disable);
     3bc:	252d                	jal	9e6 <pwm_init>
C:/Users/Kanesh's laptop/Desktop/19创新基地/沁恒/V103_Car_Demo/Libraries/hefei_peripheral/HF_WS2812b.c:23
    TIM_OC2PolarityConfig(TIM2, TIM_OCPolarity_Low);
}
     3be:	40b2                	lw	ra,12(sp)
C:/Users/Kanesh's laptop/Desktop/19创新基地/沁恒/V103_Car_Demo/Libraries/hefei_peripheral/HF_WS2812b.c:22
    TIM_OC2PolarityConfig(TIM2, TIM_OCPolarity_Low);
     3c0:	4589                	li	a1,2
     3c2:	40000537          	lui	a0,0x40000
C:/Users/Kanesh's laptop/Desktop/19创新基地/沁恒/V103_Car_Demo/Libraries/hefei_peripheral/HF_WS2812b.c:23
}
     3c6:	0141                	addi	sp,sp,16
C:/Users/Kanesh's laptop/Desktop/19创新基地/沁恒/V103_Car_Demo/Libraries/hefei_peripheral/HF_WS2812b.c:22
    TIM_OC2PolarityConfig(TIM2, TIM_OCPolarity_Low);
     3c8:	7210006f          	j	12e8 <TIM_OC2PolarityConfig>

000003cc <ws2812b_write>:
ws2812b_write():
C:/Users/Kanesh's laptop/Desktop/19创新基地/沁恒/V103_Car_Demo/Libraries/hefei_peripheral/HF_WS2812b.c:33
// @return       void
// Sample usage:        uint8_t RGB[3] = {0xff,0x00,0x00};  ws2812b_write(RGB);
                        //向RGB写入数组，显示红色
//-------------------------------------------------------------------------------------------------------------------
void ws2812b_write(uint8_t* RGB)
{
     3cc:	7179                	addi	sp,sp,-48
     3ce:	d226                	sw	s1,36(sp)
     3d0:	d04a                	sw	s2,32(sp)
     3d2:	ce4e                	sw	s3,28(sp)
     3d4:	cc52                	sw	s4,24(sp)
     3d6:	d606                	sw	ra,44(sp)
     3d8:	d422                	sw	s0,40(sp)
C:/Users/Kanesh's laptop/Desktop/19创新基地/沁恒/V103_Car_Demo/Libraries/hefei_peripheral/HF_WS2812b.c:37
    unsigned int num, i;
    unsigned char GRB[3] = {0,};

    GRB[0] = RGB[1];
     3da:	00154783          	lbu	a5,1(a0) # 40000001 <_eusrstack+0x1fffb001>
C:/Users/Kanesh's laptop/Desktop/19创新基地/沁恒/V103_Car_Demo/Libraries/hefei_peripheral/HF_WS2812b.c:40
    GRB[1] = RGB[0];
    GRB[2] = RGB[2];
    TIM_SetCounter(((TIM_TypeDef *)TIM2_BASE), 0);
     3de:	4581                	li	a1,0
     3e0:	0064                	addi	s1,sp,12
C:/Users/Kanesh's laptop/Desktop/19创新基地/沁恒/V103_Car_Demo/Libraries/hefei_peripheral/HF_WS2812b.c:37
    GRB[0] = RGB[1];
     3e2:	00f10623          	sb	a5,12(sp)
C:/Users/Kanesh's laptop/Desktop/19创新基地/沁恒/V103_Car_Demo/Libraries/hefei_peripheral/HF_WS2812b.c:38
    GRB[1] = RGB[0];
     3e6:	00054783          	lbu	a5,0(a0)
     3ea:	00f10993          	addi	s3,sp,15
     3ee:	00f106a3          	sb	a5,13(sp)
C:/Users/Kanesh's laptop/Desktop/19创新基地/沁恒/V103_Car_Demo/Libraries/hefei_peripheral/HF_WS2812b.c:39
    GRB[2] = RGB[2];
     3f2:	00254783          	lbu	a5,2(a0)
C:/Users/Kanesh's laptop/Desktop/19创新基地/沁恒/V103_Car_Demo/Libraries/hefei_peripheral/HF_WS2812b.c:40
    TIM_SetCounter(((TIM_TypeDef *)TIM2_BASE), 0);
     3f6:	40000537          	lui	a0,0x40000
C:/Users/Kanesh's laptop/Desktop/19创新基地/沁恒/V103_Car_Demo/Libraries/hefei_peripheral/HF_WS2812b.c:39
    GRB[2] = RGB[2];
     3fa:	00f10723          	sb	a5,14(sp)
C:/Users/Kanesh's laptop/Desktop/19创新基地/沁恒/V103_Car_Demo/Libraries/hefei_peripheral/HF_WS2812b.c:40
    TIM_SetCounter(((TIM_TypeDef *)TIM2_BASE), 0);
     3fe:	705000ef          	jal	ra,1302 <TIM_SetCounter>
C:/Users/Kanesh's laptop/Desktop/19创新基地/沁恒/V103_Car_Demo/Libraries/hefei_peripheral/HF_WS2812b.c:53
                //设置阈值(比较值,调节占空比的时候调节这个值)
                pwm_duty(PWM2_CH2_A1, 8500);/*发1*/
            }
            else
            {
                pwm_duty(PWM2_CH2_A1, 9500);/*发0*/
     402:	6589                	lui	a1,0x2
     404:	51c58a13          	addi	s4,a1,1308 # 251c <_data_lma+0x1050>
C:/Users/Kanesh's laptop/Desktop/19创新基地/沁恒/V103_Car_Demo/Libraries/hefei_peripheral/HF_WS2812b.c:49
                pwm_duty(PWM2_CH2_A1, 8500);/*发1*/
     408:	13458913          	addi	s2,a1,308
C:/Users/Kanesh's laptop/Desktop/19创新基地/沁恒/V103_Car_Demo/Libraries/hefei_peripheral/HF_WS2812b.c:44
        for(i = 8; i!=0; i--)
     40c:	4421                	li	s0,8
C:/Users/Kanesh's laptop/Desktop/19创新基地/沁恒/V103_Car_Demo/Libraries/hefei_peripheral/HF_WS2812b.c:46
            if((*(GRB+num)>>(i-1))&0x01)
     40e:	0004c783          	lbu	a5,0(s1)
     412:	147d                	addi	s0,s0,-1
C:/Users/Kanesh's laptop/Desktop/19创新基地/沁恒/V103_Car_Demo/Libraries/hefei_peripheral/HF_WS2812b.c:49
                pwm_duty(PWM2_CH2_A1, 8500);/*发1*/
     414:	85ca                	mv	a1,s2
C:/Users/Kanesh's laptop/Desktop/19创新基地/沁恒/V103_Car_Demo/Libraries/hefei_peripheral/HF_WS2812b.c:46
            if((*(GRB+num)>>(i-1))&0x01)
     416:	4087d7b3          	sra	a5,a5,s0
     41a:	8b85                	andi	a5,a5,1
     41c:	e391                	bnez	a5,420 <ws2812b_write+0x54>
C:/Users/Kanesh's laptop/Desktop/19创新基地/沁恒/V103_Car_Demo/Libraries/hefei_peripheral/HF_WS2812b.c:53
                pwm_duty(PWM2_CH2_A1, 9500);/*发0*/
     41e:	85d2                	mv	a1,s4
     420:	10100513          	li	a0,257
     424:	2e21                	jal	73c <pwm_duty>
C:/Users/Kanesh's laptop/Desktop/19创新基地/沁恒/V103_Car_Demo/Libraries/hefei_peripheral/HF_WS2812b.c:55
            }
            TIM_Cmd(((TIM_TypeDef *)TIM2_BASE), ENABLE);
     426:	4585                	li	a1,1
     428:	40000537          	lui	a0,0x40000
     42c:	633000ef          	jal	ra,125e <TIM_Cmd>
C:/Users/Kanesh's laptop/Desktop/19创新基地/沁恒/V103_Car_Demo/Libraries/hefei_peripheral/HF_WS2812b.c:56 (discriminator 1)
            while(!TIM_GetFlagStatus(((TIM_TypeDef *)TIM2_BASE), TIM_FLAG_Update));
     430:	4585                	li	a1,1
     432:	40000537          	lui	a0,0x40000
     436:	6d3000ef          	jal	ra,1308 <TIM_GetFlagStatus>
     43a:	d97d                	beqz	a0,430 <ws2812b_write+0x64>
C:/Users/Kanesh's laptop/Desktop/19创新基地/沁恒/V103_Car_Demo/Libraries/hefei_peripheral/HF_WS2812b.c:57 (discriminator 2)
            TIM_Cmd(((TIM_TypeDef *)TIM2_BASE), DISABLE);
     43c:	4581                	li	a1,0
     43e:	40000537          	lui	a0,0x40000
     442:	61d000ef          	jal	ra,125e <TIM_Cmd>
C:/Users/Kanesh's laptop/Desktop/19创新基地/沁恒/V103_Car_Demo/Libraries/hefei_peripheral/HF_WS2812b.c:58 (discriminator 2)
            TIM_ClearFlag(((TIM_TypeDef *)TIM2_BASE), TIM_FLAG_Update);
     446:	4585                	li	a1,1
     448:	40000537          	lui	a0,0x40000
     44c:	6c9000ef          	jal	ra,1314 <TIM_ClearFlag>
C:/Users/Kanesh's laptop/Desktop/19创新基地/沁恒/V103_Car_Demo/Libraries/hefei_peripheral/HF_WS2812b.c:59 (discriminator 2)
            TIM_SetCounter(((TIM_TypeDef *)TIM2_BASE), 0);
     450:	4581                	li	a1,0
     452:	40000537          	lui	a0,0x40000
     456:	6ad000ef          	jal	ra,1302 <TIM_SetCounter>
C:/Users/Kanesh's laptop/Desktop/19创新基地/沁恒/V103_Car_Demo/Libraries/hefei_peripheral/HF_WS2812b.c:44 (discriminator 2)
        for(i = 8; i!=0; i--)
     45a:	f855                	bnez	s0,40e <ws2812b_write+0x42>
     45c:	0485                	addi	s1,s1,1
C:/Users/Kanesh's laptop/Desktop/19创新基地/沁恒/V103_Car_Demo/Libraries/hefei_peripheral/HF_WS2812b.c:42 (discriminator 2)
    for(num = 0; num<3; num++)
     45e:	fa9997e3          	bne	s3,s1,40c <ws2812b_write+0x40>
C:/Users/Kanesh's laptop/Desktop/19创新基地/沁恒/V103_Car_Demo/Libraries/hefei_peripheral/HF_WS2812b.c:62
        }
    }
}
     462:	50b2                	lw	ra,44(sp)
     464:	5422                	lw	s0,40(sp)
     466:	5492                	lw	s1,36(sp)
     468:	5902                	lw	s2,32(sp)
     46a:	49f2                	lw	s3,28(sp)
     46c:	4a62                	lw	s4,24(sp)
     46e:	6145                	addi	sp,sp,48
     470:	8082                	ret

00000472 <board_init>:
board_init():
C:/Users/Kanesh's laptop/Desktop/19创新基地/沁恒/例程/Libraries/hefei_libraries/board/board.c:22
//  Sample usage:              board_init();
//-------------------------------------------------------------------------------------------------------------------
void board_init(void)
{
    //获取系统主频
    sys_clk = 8000000 * (((RCC->CFGR0 >> 18)&0x0F) + 2);
     472:	400217b7          	lui	a5,0x40021
     476:	43dc                	lw	a5,4(a5)
     478:	007a1737          	lui	a4,0x7a1
     47c:	20070713          	addi	a4,a4,512 # 7a1200 <_data_lma+0x79fd34>
     480:	83c9                	srli	a5,a5,0x12
     482:	8bbd                	andi	a5,a5,15
     484:	02e787b3          	mul	a5,a5,a4
     488:	00f42737          	lui	a4,0xf42
     48c:	40070713          	addi	a4,a4,1024 # f42400 <_data_lma+0xf40f34>
C:/Users/Kanesh's laptop/Desktop/19创新基地/沁恒/例程/Libraries/hefei_libraries/board/board.c:24
    //初始化DEBUG串口
    uart_init(DEBUG_UART, DEBUG_UART_BAUD, DEBUG_UART_TX_PIN, DEBUG_UART_RX_PIN);
     490:	65f1                	lui	a1,0x1c
     492:	4685                	li	a3,1
     494:	4601                	li	a2,0
     496:	20058593          	addi	a1,a1,512 # 1c200 <_data_lma+0x1ad34>
     49a:	4501                	li	a0,0
C:/Users/Kanesh's laptop/Desktop/19创新基地/沁恒/例程/Libraries/hefei_libraries/board/board.c:22
    sys_clk = 8000000 * (((RCC->CFGR0 >> 18)&0x0F) + 2);
     49c:	97ba                	add	a5,a5,a4
     49e:	20000737          	lui	a4,0x20000
     4a2:	00f72c23          	sw	a5,24(a4) # 20000018 <_edata>
C:/Users/Kanesh's laptop/Desktop/19创新基地/沁恒/例程/Libraries/hefei_libraries/board/board.c:24
    uart_init(DEBUG_UART, DEBUG_UART_BAUD, DEBUG_UART_TX_PIN, DEBUG_UART_RX_PIN);
     4a6:	7600006f          	j	c06 <uart_init>

000004aa <SystemInit>:
SystemInit():
C:/Users/Kanesh's laptop/Desktop/19创新基地/沁恒/例程/Libraries/hefei_libraries/board/clock_config.c:94
* Input          : None
* Return         : None
*******************************************************************************************/
void SystemInit (void)
{
    RCC->CTLR |= (uint32_t)0x00000001;
     4aa:	400217b7          	lui	a5,0x40021
     4ae:	4398                	lw	a4,0(a5)
C:/Users/Kanesh's laptop/Desktop/19创新基地/沁恒/例程/Libraries/hefei_libraries/board/clock_config.c:95
    RCC->CFGR0 &= (uint32_t)0xF8FF0000;
     4b0:	f8ff06b7          	lui	a3,0xf8ff0
C:/Users/Kanesh's laptop/Desktop/19创新基地/沁恒/例程/Libraries/hefei_libraries/board/clock_config.c:93
{
     4b4:	1141                	addi	sp,sp,-16
C:/Users/Kanesh's laptop/Desktop/19创新基地/沁恒/例程/Libraries/hefei_libraries/board/clock_config.c:94
    RCC->CTLR |= (uint32_t)0x00000001;
     4b6:	00176713          	ori	a4,a4,1
     4ba:	c398                	sw	a4,0(a5)
C:/Users/Kanesh's laptop/Desktop/19创新基地/沁恒/例程/Libraries/hefei_libraries/board/clock_config.c:95
    RCC->CFGR0 &= (uint32_t)0xF8FF0000;
     4bc:	43d8                	lw	a4,4(a5)
SetSysClock():
C:/Users/Kanesh's laptop/Desktop/19创新基地/沁恒/例程/Libraries/hefei_libraries/board/clock_config.c:28
        HSEStatus = RCC->CTLR & RCC_HSERDY;
     4be:	00020637          	lui	a2,0x20
SystemInit():
C:/Users/Kanesh's laptop/Desktop/19创新基地/沁恒/例程/Libraries/hefei_libraries/board/clock_config.c:95
    RCC->CFGR0 &= (uint32_t)0xF8FF0000;
     4c2:	8f75                	and	a4,a4,a3
     4c4:	c3d8                	sw	a4,4(a5)
C:/Users/Kanesh's laptop/Desktop/19创新基地/沁恒/例程/Libraries/hefei_libraries/board/clock_config.c:96
    RCC->CTLR &= (uint32_t)0xFEF6FFFF;
     4c6:	4398                	lw	a4,0(a5)
     4c8:	fef706b7          	lui	a3,0xfef70
     4cc:	16fd                	addi	a3,a3,-1
     4ce:	8f75                	and	a4,a4,a3
     4d0:	c398                	sw	a4,0(a5)
C:/Users/Kanesh's laptop/Desktop/19创新基地/沁恒/例程/Libraries/hefei_libraries/board/clock_config.c:97
    RCC->CTLR &= (uint32_t)0xFFFBFFFF;
     4d2:	4398                	lw	a4,0(a5)
     4d4:	fffc06b7          	lui	a3,0xfffc0
     4d8:	16fd                	addi	a3,a3,-1
     4da:	8f75                	and	a4,a4,a3
     4dc:	c398                	sw	a4,0(a5)
C:/Users/Kanesh's laptop/Desktop/19创新基地/沁恒/例程/Libraries/hefei_libraries/board/clock_config.c:98
    RCC->CFGR0 &= (uint32_t)0xFF80FFFF;
     4de:	43d8                	lw	a4,4(a5)
     4e0:	ff8106b7          	lui	a3,0xff810
     4e4:	16fd                	addi	a3,a3,-1
     4e6:	8f75                	and	a4,a4,a3
     4e8:	c3d8                	sw	a4,4(a5)
C:/Users/Kanesh's laptop/Desktop/19创新基地/沁恒/例程/Libraries/hefei_libraries/board/clock_config.c:99
    RCC->INTR = 0x009F0000;
     4ea:	009f0737          	lui	a4,0x9f0
     4ee:	c798                	sw	a4,8(a5)
SetSysClock():
C:/Users/Kanesh's laptop/Desktop/19创新基地/沁恒/例程/Libraries/hefei_libraries/board/clock_config.c:21
    __IO uint32_t StartUpCounter = 0, HSEStatus = 0;
     4f0:	c402                	sw	zero,8(sp)
     4f2:	c602                	sw	zero,12(sp)
C:/Users/Kanesh's laptop/Desktop/19创新基地/沁恒/例程/Libraries/hefei_libraries/board/clock_config.c:23
    RCC->CTLR |= ((uint32_t)RCC_HSEON);
     4f4:	4398                	lw	a4,0(a5)
     4f6:	66c1                	lui	a3,0x10
     4f8:	8f55                	or	a4,a4,a3
     4fa:	c398                	sw	a4,0(a5)
C:/Users/Kanesh's laptop/Desktop/19创新基地/沁恒/例程/Libraries/hefei_libraries/board/clock_config.c:28
        HSEStatus = RCC->CTLR & RCC_HSERDY;
     4fc:	400216b7          	lui	a3,0x40021
C:/Users/Kanesh's laptop/Desktop/19创新基地/沁恒/例程/Libraries/hefei_libraries/board/clock_config.c:30
    } while((HSEStatus == 0) && (StartUpCounter != HSE_STARTUP_TIMEOUT));
     500:	50000713          	li	a4,1280
C:/Users/Kanesh's laptop/Desktop/19创新基地/沁恒/例程/Libraries/hefei_libraries/board/clock_config.c:28
        HSEStatus = RCC->CTLR & RCC_HSERDY;
     504:	429c                	lw	a5,0(a3)
     506:	8ff1                	and	a5,a5,a2
     508:	c63e                	sw	a5,12(sp)
C:/Users/Kanesh's laptop/Desktop/19创新基地/沁恒/例程/Libraries/hefei_libraries/board/clock_config.c:29
        StartUpCounter++;
     50a:	47a2                	lw	a5,8(sp)
     50c:	0785                	addi	a5,a5,1
     50e:	c43e                	sw	a5,8(sp)
C:/Users/Kanesh's laptop/Desktop/19创新基地/沁恒/例程/Libraries/hefei_libraries/board/clock_config.c:30
    } while((HSEStatus == 0) && (StartUpCounter != HSE_STARTUP_TIMEOUT));
     510:	47b2                	lw	a5,12(sp)
     512:	e781                	bnez	a5,51a <SystemInit+0x70>
     514:	47a2                	lw	a5,8(sp)
     516:	fee797e3          	bne	a5,a4,504 <SystemInit+0x5a>
C:/Users/Kanesh's laptop/Desktop/19创新基地/沁恒/例程/Libraries/hefei_libraries/board/clock_config.c:32
    if ((RCC->CTLR & RCC_HSERDY) != RESET)
     51a:	400217b7          	lui	a5,0x40021
     51e:	439c                	lw	a5,0(a5)
     520:	00e79713          	slli	a4,a5,0xe
     524:	08075263          	bgez	a4,5a8 <SystemInit+0xfe>
C:/Users/Kanesh's laptop/Desktop/19创新基地/沁恒/例程/Libraries/hefei_libraries/board/clock_config.c:34
        HSEStatus = (uint32_t)0x01;
     528:	4785                	li	a5,1
     52a:	c63e                	sw	a5,12(sp)
C:/Users/Kanesh's laptop/Desktop/19创新基地/沁恒/例程/Libraries/hefei_libraries/board/clock_config.c:41
    if (HSEStatus == (uint32_t)0x01)
     52c:	4732                	lw	a4,12(sp)
     52e:	4785                	li	a5,1
     530:	06f71a63          	bne	a4,a5,5a4 <SystemInit+0xfa>
C:/Users/Kanesh's laptop/Desktop/19创新基地/沁恒/例程/Libraries/hefei_libraries/board/clock_config.c:44
        FLASH->ACTLR |= FLASH_ACTLR_PRFTBE;
     534:	400227b7          	lui	a5,0x40022
     538:	4398                	lw	a4,0(a5)
C:/Users/Kanesh's laptop/Desktop/19创新基地/沁恒/例程/Libraries/hefei_libraries/board/clock_config.c:58
        RCC->CFGR0 &= (uint32_t)((uint32_t)~(RCC_PLLSRC | RCC_PLLXTPRE |
     53a:	ffc106b7          	lui	a3,0xffc10
     53e:	16fd                	addi	a3,a3,-1
C:/Users/Kanesh's laptop/Desktop/19创新基地/沁恒/例程/Libraries/hefei_libraries/board/clock_config.c:44
        FLASH->ACTLR |= FLASH_ACTLR_PRFTBE;
     540:	01076713          	ori	a4,a4,16
     544:	c398                	sw	a4,0(a5)
C:/Users/Kanesh's laptop/Desktop/19创新基地/沁恒/例程/Libraries/hefei_libraries/board/clock_config.c:47
        FLASH->ACTLR &= (uint32_t)((uint32_t)~FLASH_ACTLR_LATENCY);
     546:	4398                	lw	a4,0(a5)
     548:	9b71                	andi	a4,a4,-4
     54a:	c398                	sw	a4,0(a5)
C:/Users/Kanesh's laptop/Desktop/19创新基地/沁恒/例程/Libraries/hefei_libraries/board/clock_config.c:48
        FLASH->ACTLR |= (uint32_t)FLASH_ACTLR_LATENCY_2;
     54c:	4398                	lw	a4,0(a5)
     54e:	00276713          	ori	a4,a4,2
     552:	c398                	sw	a4,0(a5)
C:/Users/Kanesh's laptop/Desktop/19创新基地/沁恒/例程/Libraries/hefei_libraries/board/clock_config.c:51
        RCC->CFGR0 |= (uint32_t)RCC_HPRE_DIV1;
     554:	400217b7          	lui	a5,0x40021
     558:	43d8                	lw	a4,4(a5)
     55a:	c3d8                	sw	a4,4(a5)
C:/Users/Kanesh's laptop/Desktop/19创新基地/沁恒/例程/Libraries/hefei_libraries/board/clock_config.c:53
        RCC->CFGR0 |= (uint32_t)RCC_PPRE2_DIV1;
     55c:	43d8                	lw	a4,4(a5)
     55e:	c3d8                	sw	a4,4(a5)
C:/Users/Kanesh's laptop/Desktop/19创新基地/沁恒/例程/Libraries/hefei_libraries/board/clock_config.c:55
        RCC->CFGR0 |= (uint32_t)RCC_PPRE1_DIV1;
     560:	43d8                	lw	a4,4(a5)
     562:	c3d8                	sw	a4,4(a5)
C:/Users/Kanesh's laptop/Desktop/19创新基地/沁恒/例程/Libraries/hefei_libraries/board/clock_config.c:58
        RCC->CFGR0 &= (uint32_t)((uint32_t)~(RCC_PLLSRC | RCC_PLLXTPRE |
     564:	43d8                	lw	a4,4(a5)
     566:	8f75                	and	a4,a4,a3
     568:	c3d8                	sw	a4,4(a5)
C:/Users/Kanesh's laptop/Desktop/19创新基地/沁恒/例程/Libraries/hefei_libraries/board/clock_config.c:61
        RCC->CFGR0 |= (uint32_t)(RCC_PLLSRC_HSE | RCC_PLLMULL11);
     56a:	43d8                	lw	a4,4(a5)
     56c:	002506b7          	lui	a3,0x250
     570:	8f55                	or	a4,a4,a3
     572:	c3d8                	sw	a4,4(a5)
C:/Users/Kanesh's laptop/Desktop/19创新基地/沁恒/例程/Libraries/hefei_libraries/board/clock_config.c:63
        RCC->CTLR |= RCC_PLLON;
     574:	4398                	lw	a4,0(a5)
     576:	010006b7          	lui	a3,0x1000
     57a:	8f55                	or	a4,a4,a3
     57c:	c398                	sw	a4,0(a5)
C:/Users/Kanesh's laptop/Desktop/19创新基地/沁恒/例程/Libraries/hefei_libraries/board/clock_config.c:65
        while((RCC->CTLR & RCC_PLLRDY) == 0)
     57e:	4398                	lw	a4,0(a5)
     580:	00671693          	slli	a3,a4,0x6
     584:	fe06dde3          	bgez	a3,57e <SystemInit+0xd4>
C:/Users/Kanesh's laptop/Desktop/19创新基地/沁恒/例程/Libraries/hefei_libraries/board/clock_config.c:69
        RCC->CFGR0 &= (uint32_t)((uint32_t)~(RCC_SW));
     588:	43d8                	lw	a4,4(a5)
C:/Users/Kanesh's laptop/Desktop/19创新基地/沁恒/例程/Libraries/hefei_libraries/board/clock_config.c:72
        while ((RCC->CFGR0 & (uint32_t)RCC_SWS) != (uint32_t)0x08)
     58a:	400216b7          	lui	a3,0x40021
C:/Users/Kanesh's laptop/Desktop/19创新基地/沁恒/例程/Libraries/hefei_libraries/board/clock_config.c:69
        RCC->CFGR0 &= (uint32_t)((uint32_t)~(RCC_SW));
     58e:	9b71                	andi	a4,a4,-4
     590:	c3d8                	sw	a4,4(a5)
C:/Users/Kanesh's laptop/Desktop/19创新基地/沁恒/例程/Libraries/hefei_libraries/board/clock_config.c:70
        RCC->CFGR0 |= (uint32_t)RCC_SW_PLL;
     592:	43d8                	lw	a4,4(a5)
     594:	00276713          	ori	a4,a4,2
     598:	c3d8                	sw	a4,4(a5)
C:/Users/Kanesh's laptop/Desktop/19创新基地/沁恒/例程/Libraries/hefei_libraries/board/clock_config.c:72
        while ((RCC->CFGR0 & (uint32_t)RCC_SWS) != (uint32_t)0x08)
     59a:	4721                	li	a4,8
     59c:	42dc                	lw	a5,4(a3)
     59e:	8bb1                	andi	a5,a5,12
     5a0:	fee79ee3          	bne	a5,a4,59c <SystemInit+0xf2>
SystemInit():
C:/Users/Kanesh's laptop/Desktop/19创新基地/沁恒/例程/Libraries/hefei_libraries/board/clock_config.c:101
    SetSysClock();
}
     5a4:	0141                	addi	sp,sp,16
     5a6:	8082                	ret
SetSysClock():
C:/Users/Kanesh's laptop/Desktop/19创新基地/沁恒/例程/Libraries/hefei_libraries/board/clock_config.c:38
        HSEStatus = (uint32_t)0x00;
     5a8:	c602                	sw	zero,12(sp)
     5aa:	b749                	j	52c <SystemInit+0x82>

000005ac <Delay_Init>:
Delay_Init():
C:/Users/Kanesh's laptop/Desktop/19创新基地/沁恒/例程/Libraries/hefei_libraries/delay.c:24
//  @return     void
//  Sample usage:           Delay_Init();
//-------------------------------------------------------------------------------------------------------------------
void Delay_Init(void)
{
    p_us=sys_clk/8000000;
     5ac:	200007b7          	lui	a5,0x20000
     5b0:	0187a783          	lw	a5,24(a5) # 20000018 <_edata>
     5b4:	007a1737          	lui	a4,0x7a1
     5b8:	20070713          	addi	a4,a4,512 # 7a1200 <_data_lma+0x79fd34>
     5bc:	02e7d7b3          	divu	a5,a5,a4
     5c0:	0ff7f793          	andi	a5,a5,255
     5c4:	80f18723          	sb	a5,-2034(gp) # 2000001e <p_us>
C:/Users/Kanesh's laptop/Desktop/19创新基地/沁恒/例程/Libraries/hefei_libraries/delay.c:25
    p_ms=(uint16_t)p_us*1000;
     5c8:	3e800713          	li	a4,1000
     5cc:	02e787b3          	mul	a5,a5,a4
     5d0:	80f19623          	sh	a5,-2036(gp) # 2000001c <p_ms>
C:/Users/Kanesh's laptop/Desktop/19创新基地/沁恒/例程/Libraries/hefei_libraries/delay.c:26
}
     5d4:	8082                	ret

000005d6 <Delay_Ms>:
Delay_Ms():
C:/Users/Kanesh's laptop/Desktop/19创新基地/沁恒/例程/Libraries/hefei_libraries/delay.c:61
//-------------------------------------------------------------------------------------------------------------------
void Delay_Ms (uint32_t n)
{
    uint32_t i;

    SysTick->CTLR = 0;
     5d6:	e000f7b7          	lui	a5,0xe000f
     5da:	0007a023          	sw	zero,0(a5) # e000f000 <_eusrstack+0xc000a000>
C:/Users/Kanesh's laptop/Desktop/19创新基地/沁恒/例程/Libraries/hefei_libraries/delay.c:62
    i = (uint32_t)n*p_ms;
     5de:	80c1d703          	lhu	a4,-2036(gp) # 2000001c <p_ms>
C:/Users/Kanesh's laptop/Desktop/19创新基地/沁恒/例程/Libraries/hefei_libraries/delay.c:64

    SysTick->CNTL0 = 0;
     5e2:	00078223          	sb	zero,4(a5)
C:/Users/Kanesh's laptop/Desktop/19创新基地/沁恒/例程/Libraries/hefei_libraries/delay.c:65
    SysTick->CNTL1 = 0;
     5e6:	000782a3          	sb	zero,5(a5)
C:/Users/Kanesh's laptop/Desktop/19创新基地/沁恒/例程/Libraries/hefei_libraries/delay.c:66
    SysTick->CNTL2 = 0;
     5ea:	00078323          	sb	zero,6(a5)
C:/Users/Kanesh's laptop/Desktop/19创新基地/沁恒/例程/Libraries/hefei_libraries/delay.c:62
    i = (uint32_t)n*p_ms;
     5ee:	02a70533          	mul	a0,a4,a0
C:/Users/Kanesh's laptop/Desktop/19创新基地/沁恒/例程/Libraries/hefei_libraries/delay.c:67
    SysTick->CNTL3 = 0;
     5f2:	000783a3          	sb	zero,7(a5)
C:/Users/Kanesh's laptop/Desktop/19创新基地/沁恒/例程/Libraries/hefei_libraries/delay.c:68
    SysTick->CTLR = 1;
     5f6:	4705                	li	a4,1
     5f8:	c398                	sw	a4,0(a5)
C:/Users/Kanesh's laptop/Desktop/19创新基地/沁恒/例程/Libraries/hefei_libraries/delay.c:70

  while((*(__IO uint32_t*)0xE000F004) <= i);
     5fa:	e000f737          	lui	a4,0xe000f
C:/Users/Kanesh's laptop/Desktop/19创新基地/沁恒/例程/Libraries/hefei_libraries/delay.c:70 (discriminator 1)
     5fe:	435c                	lw	a5,4(a4)
     600:	fef57fe3          	bgeu	a0,a5,5fe <Delay_Ms+0x28>
C:/Users/Kanesh's laptop/Desktop/19创新基地/沁恒/例程/Libraries/hefei_libraries/delay.c:71
}
     604:	8082                	ret

00000606 <gpio_init>:
gpio_init():
C:/Users/Kanesh's laptop/Desktop/19创新基地/沁恒/例程/Libraries/hefei_libraries/hf_gpio.c:31
    GPIO_InitTypeDef GPIO_InitStructure;
    uint8 io_group = (pin & 0xE0) >> 5;
    uint8 io_pin = pin & 0x1F;


    if(PIN_NULL == pin) return;
     606:	08000713          	li	a4,128
     60a:	0ce50c63          	beq	a0,a4,6e2 <gpio_init+0xdc>
C:/Users/Kanesh's laptop/Desktop/19创新基地/沁恒/例程/Libraries/hefei_libraries/hf_gpio.c:25
{
     60e:	7179                	addi	sp,sp,-48
     610:	d422                	sw	s0,40(sp)
     612:	d226                	sw	s1,36(sp)
     614:	d04a                	sw	s2,32(sp)
     616:	ce4e                	sw	s3,28(sp)
     618:	cc52                	sw	s4,24(sp)
     61a:	00555793          	srli	a5,a0,0x5
     61e:	d606                	sw	ra,44(sp)
     620:	0077fa13          	andi	s4,a5,7
     624:	01f57413          	andi	s0,a0,31
     628:	84b6                	mv	s1,a3
     62a:	89b2                	mv	s3,a2
     62c:	892e                	mv	s2,a1
C:/Users/Kanesh's laptop/Desktop/19创新基地/沁恒/例程/Libraries/hefei_libraries/hf_gpio.c:33
    //GPIO总线使能
    if(0 == (pin >> 5))      RCC_APB2PeriphClockCmd(RCC_APB2Periph_GPIOA, ENABLE);
     62e:	e3b5                	bnez	a5,692 <gpio_init+0x8c>
C:/Users/Kanesh's laptop/Desktop/19创新基地/沁恒/例程/Libraries/hefei_libraries/hf_gpio.c:33 (discriminator 1)
     630:	4585                	li	a1,1
     632:	4511                	li	a0,4
C:/Users/Kanesh's laptop/Desktop/19创新基地/沁恒/例程/Libraries/hefei_libraries/hf_gpio.c:39 (discriminator 1)
    else if(1 == (pin >> 5)) RCC_APB2PeriphClockCmd(RCC_APB2Periph_GPIOB, ENABLE);
    else if(2 == (pin >> 5)) RCC_APB2PeriphClockCmd(RCC_APB2Periph_GPIOC, ENABLE);
    else if(3 == (pin >> 5)) RCC_APB2PeriphClockCmd(RCC_APB2Periph_GPIOD, ENABLE);
    else if(4 == (pin >> 5)) RCC_APB2PeriphClockCmd(RCC_APB2Periph_GPIOE, ENABLE);
    else if(5 == (pin >> 5)) RCC_APB2PeriphClockCmd(RCC_APB2Periph_GPIOF, ENABLE);
    else if(6 == (pin >> 5)) RCC_APB2PeriphClockCmd(RCC_APB2Periph_GPIOG, ENABLE);
     634:	107000ef          	jal	ra,f3a <RCC_APB2PeriphClockCmd>
C:/Users/Kanesh's laptop/Desktop/19创新基地/沁恒/例程/Libraries/hefei_libraries/hf_gpio.c:43


    //设置引脚号
    GPIO_InitStructure.GPIO_Pin = (uint16)(1 << io_pin);
     638:	4785                	li	a5,1
     63a:	00879433          	sll	s0,a5,s0
     63e:	0442                	slli	s0,s0,0x10
     640:	8041                	srli	s0,s0,0x10
     642:	00811223          	sh	s0,4(sp)
C:/Users/Kanesh's laptop/Desktop/19创新基地/沁恒/例程/Libraries/hefei_libraries/hf_gpio.c:45

    if(GPO == dir)
     646:	00f91963          	bne	s2,a5,658 <gpio_init+0x52>
C:/Users/Kanesh's laptop/Desktop/19创新基地/沁恒/例程/Libraries/hefei_libraries/hf_gpio.c:48
    {
        //只有输出需要设置速度
        if((uint16)pinconf >> 8 == 0) GPIO_InitStructure.GPIO_Speed = (GPIOSpeed_TypeDef)(GPIO_Speed_50MHz);  //防止没有填写这个参数,默认设置50Mhz
     64a:	01049793          	slli	a5,s1,0x10
     64e:	83c1                	srli	a5,a5,0x10
     650:	83a1                	srli	a5,a5,0x8
     652:	e391                	bnez	a5,656 <gpio_init+0x50>
C:/Users/Kanesh's laptop/Desktop/19创新基地/沁恒/例程/Libraries/hefei_libraries/hf_gpio.c:48 (discriminator 1)
     654:	478d                	li	a5,3
C:/Users/Kanesh's laptop/Desktop/19创新基地/沁恒/例程/Libraries/hefei_libraries/hf_gpio.c:49
        else GPIO_InitStructure.GPIO_Speed = (GPIOSpeed_TypeDef)((uint16)pinconf >> 8);                       //已经填写了该参数。根据值来设置
     656:	c43e                	sw	a5,8(sp)
C:/Users/Kanesh's laptop/Desktop/19创新基地/沁恒/例程/Libraries/hefei_libraries/hf_gpio.c:54
    }

    //设置模式
    GPIO_InitStructure.GPIO_Mode = (GPIOMode_TypeDef)((uint16)pinconf & 0xff);
    GPIO_Init((GPIO_TypeDef *)(GPION[io_group]), &GPIO_InitStructure);
     658:	6785                	lui	a5,0x1
     65a:	0a0a                	slli	s4,s4,0x2
     65c:	49c78793          	addi	a5,a5,1180 # 149c <GPION>
     660:	97d2                	add	a5,a5,s4
C:/Users/Kanesh's laptop/Desktop/19创新基地/沁恒/例程/Libraries/hefei_libraries/hf_gpio.c:53
    GPIO_InitStructure.GPIO_Mode = (GPIOMode_TypeDef)((uint16)pinconf & 0xff);
     662:	0ff4f493          	andi	s1,s1,255
     666:	c626                	sw	s1,12(sp)
C:/Users/Kanesh's laptop/Desktop/19创新基地/沁恒/例程/Libraries/hefei_libraries/hf_gpio.c:54
    GPIO_Init((GPIO_TypeDef *)(GPION[io_group]), &GPIO_InitStructure);
     668:	4384                	lw	s1,0(a5)
     66a:	004c                	addi	a1,sp,4
     66c:	8526                	mv	a0,s1
     66e:	74c000ef          	jal	ra,dba <GPIO_Init>
C:/Users/Kanesh's laptop/Desktop/19创新基地/沁恒/例程/Libraries/hefei_libraries/hf_gpio.c:56

    if(GPO == dir)
     672:	4785                	li	a5,1
     674:	00f91763          	bne	s2,a5,682 <gpio_init+0x7c>
C:/Users/Kanesh's laptop/Desktop/19创新基地/沁恒/例程/Libraries/hefei_libraries/hf_gpio.c:59
    {
        //只有输出需要设置引脚状态
        GPIO_WriteBit((GPIO_TypeDef *)(GPION[io_group]), (uint16)(1 << io_pin), dat);
     678:	864e                	mv	a2,s3
     67a:	85a2                	mv	a1,s0
     67c:	8526                	mv	a0,s1
     67e:	7fe000ef          	jal	ra,e7c <GPIO_WriteBit>
C:/Users/Kanesh's laptop/Desktop/19创新基地/沁恒/例程/Libraries/hefei_libraries/hf_gpio.c:61
    }
}
     682:	50b2                	lw	ra,44(sp)
     684:	5422                	lw	s0,40(sp)
     686:	5492                	lw	s1,36(sp)
     688:	5902                	lw	s2,32(sp)
     68a:	49f2                	lw	s3,28(sp)
     68c:	4a62                	lw	s4,24(sp)
     68e:	6145                	addi	sp,sp,48
     690:	8082                	ret
C:/Users/Kanesh's laptop/Desktop/19创新基地/沁恒/例程/Libraries/hefei_libraries/hf_gpio.c:34
    else if(1 == (pin >> 5)) RCC_APB2PeriphClockCmd(RCC_APB2Periph_GPIOB, ENABLE);
     692:	4705                	li	a4,1
     694:	00e79563          	bne	a5,a4,69e <gpio_init+0x98>
C:/Users/Kanesh's laptop/Desktop/19创新基地/沁恒/例程/Libraries/hefei_libraries/hf_gpio.c:34 (discriminator 1)
     698:	4585                	li	a1,1
     69a:	4521                	li	a0,8
     69c:	bf61                	j	634 <gpio_init+0x2e>
C:/Users/Kanesh's laptop/Desktop/19创新基地/沁恒/例程/Libraries/hefei_libraries/hf_gpio.c:35
    else if(2 == (pin >> 5)) RCC_APB2PeriphClockCmd(RCC_APB2Periph_GPIOC, ENABLE);
     69e:	4709                	li	a4,2
     6a0:	00e79563          	bne	a5,a4,6aa <gpio_init+0xa4>
C:/Users/Kanesh's laptop/Desktop/19创新基地/沁恒/例程/Libraries/hefei_libraries/hf_gpio.c:35 (discriminator 1)
     6a4:	4585                	li	a1,1
     6a6:	4541                	li	a0,16
     6a8:	b771                	j	634 <gpio_init+0x2e>
C:/Users/Kanesh's laptop/Desktop/19创新基地/沁恒/例程/Libraries/hefei_libraries/hf_gpio.c:36
    else if(3 == (pin >> 5)) RCC_APB2PeriphClockCmd(RCC_APB2Periph_GPIOD, ENABLE);
     6aa:	470d                	li	a4,3
     6ac:	00e79663          	bne	a5,a4,6b8 <gpio_init+0xb2>
C:/Users/Kanesh's laptop/Desktop/19创新基地/沁恒/例程/Libraries/hefei_libraries/hf_gpio.c:36 (discriminator 1)
     6b0:	4585                	li	a1,1
     6b2:	02000513          	li	a0,32
     6b6:	bfbd                	j	634 <gpio_init+0x2e>
C:/Users/Kanesh's laptop/Desktop/19创新基地/沁恒/例程/Libraries/hefei_libraries/hf_gpio.c:37
    else if(4 == (pin >> 5)) RCC_APB2PeriphClockCmd(RCC_APB2Periph_GPIOE, ENABLE);
     6b8:	4711                	li	a4,4
     6ba:	00e79663          	bne	a5,a4,6c6 <gpio_init+0xc0>
C:/Users/Kanesh's laptop/Desktop/19创新基地/沁恒/例程/Libraries/hefei_libraries/hf_gpio.c:37 (discriminator 1)
     6be:	4585                	li	a1,1
     6c0:	04000513          	li	a0,64
     6c4:	bf85                	j	634 <gpio_init+0x2e>
C:/Users/Kanesh's laptop/Desktop/19创新基地/沁恒/例程/Libraries/hefei_libraries/hf_gpio.c:38
    else if(5 == (pin >> 5)) RCC_APB2PeriphClockCmd(RCC_APB2Periph_GPIOF, ENABLE);
     6c6:	4715                	li	a4,5
     6c8:	00e79663          	bne	a5,a4,6d4 <gpio_init+0xce>
C:/Users/Kanesh's laptop/Desktop/19创新基地/沁恒/例程/Libraries/hefei_libraries/hf_gpio.c:38 (discriminator 1)
     6cc:	4585                	li	a1,1
     6ce:	08000513          	li	a0,128
     6d2:	b78d                	j	634 <gpio_init+0x2e>
C:/Users/Kanesh's laptop/Desktop/19创新基地/沁恒/例程/Libraries/hefei_libraries/hf_gpio.c:39
    else if(6 == (pin >> 5)) RCC_APB2PeriphClockCmd(RCC_APB2Periph_GPIOG, ENABLE);
     6d4:	4719                	li	a4,6
     6d6:	f6e791e3          	bne	a5,a4,638 <gpio_init+0x32>
C:/Users/Kanesh's laptop/Desktop/19创新基地/沁恒/例程/Libraries/hefei_libraries/hf_gpio.c:39 (discriminator 1)
     6da:	4585                	li	a1,1
     6dc:	10000513          	li	a0,256
     6e0:	bf91                	j	634 <gpio_init+0x2e>
     6e2:	8082                	ret

000006e4 <close_all_irq>:
close_all_irq():
C:/Users/Kanesh's laptop/Desktop/19创新基地/沁恒/例程/Libraries/hefei_libraries/hf_nvic.c:82
//  Sample usage:       内部使用  用户无需关心
//-------------------------------------------------------------------------------------------------------------------
void close_all_irq(void)
{
    /* 写1，清空状态 */
    PFIC->IRER[0] = 0xffffffff;
     6e4:	e000e7b7          	lui	a5,0xe000e
     6e8:	577d                	li	a4,-1
     6ea:	18e7a023          	sw	a4,384(a5) # e000e180 <_eusrstack+0xc0009180>
C:/Users/Kanesh's laptop/Desktop/19创新基地/沁恒/例程/Libraries/hefei_libraries/hf_nvic.c:83
    PFIC->IRER[1] = 0xffffffff;
     6ee:	18e7a223          	sw	a4,388(a5)
C:/Users/Kanesh's laptop/Desktop/19创新基地/沁恒/例程/Libraries/hefei_libraries/hf_nvic.c:84
}
     6f2:	8082                	ret

000006f4 <DisableGlobalIRQ>:
DisableGlobalIRQ():
C:/Users/Kanesh's laptop/Desktop/19创新基地/沁恒/例程/Libraries/hefei_libraries/hf_nvic.c:48
{
     6f4:	1101                	addi	sp,sp,-32
     6f6:	ce06                	sw	ra,28(sp)
C:/Users/Kanesh's laptop/Desktop/19创新基地/沁恒/例程/Libraries/hefei_libraries/hf_nvic.c:50
    irq_status.flag = 1;
     6f8:	81418793          	addi	a5,gp,-2028 # 20000024 <irq_status>
     6fc:	4685                	li	a3,1
     6fe:	00d78423          	sb	a3,8(a5)
C:/Users/Kanesh's laptop/Desktop/19创新基地/沁恒/例程/Libraries/hefei_libraries/hf_nvic.c:51
    if((irq_status.ienr0 == 0) && (irq_status.ienr1 == 0))   state = 0;  //没有就返回0
     702:	8141a503          	lw	a0,-2028(gp) # 20000024 <irq_status>
     706:	43dc                	lw	a5,4(a5)
     708:	8d5d                	or	a0,a0,a5
     70a:	00a03533          	snez	a0,a0
     70e:	c62a                	sw	a0,12(sp)
C:/Users/Kanesh's laptop/Desktop/19创新基地/沁恒/例程/Libraries/hefei_libraries/hf_nvic.c:53
    close_all_irq();
     710:	3fd1                	jal	6e4 <close_all_irq>
C:/Users/Kanesh's laptop/Desktop/19创新基地/沁恒/例程/Libraries/hefei_libraries/hf_nvic.c:55
}
     712:	40f2                	lw	ra,28(sp)
     714:	4532                	lw	a0,12(sp)
     716:	6105                	addi	sp,sp,32
     718:	8082                	ret

0000071a <sys_recover_irq>:
sys_recover_irq():
C:/Users/Kanesh's laptop/Desktop/19创新基地/沁恒/例程/Libraries/hefei_libraries/hf_nvic.c:95
//  @since      v1.0
//  Sample usage:       内部使用  用户无需关心
//-------------------------------------------------------------------------------------------------------------------
void sys_recover_irq(void)
{
    PFIC->IENR[0] = irq_status.ienr0;
     71a:	8141a683          	lw	a3,-2028(gp) # 20000024 <irq_status>
     71e:	e000e737          	lui	a4,0xe000e
C:/Users/Kanesh's laptop/Desktop/19创新基地/沁恒/例程/Libraries/hefei_libraries/hf_nvic.c:96
    PFIC->IENR[1] = irq_status.ienr1;
     722:	81418793          	addi	a5,gp,-2028 # 20000024 <irq_status>
C:/Users/Kanesh's laptop/Desktop/19创新基地/沁恒/例程/Libraries/hefei_libraries/hf_nvic.c:95
    PFIC->IENR[0] = irq_status.ienr0;
     726:	10d72023          	sw	a3,256(a4) # e000e100 <_eusrstack+0xc0009100>
C:/Users/Kanesh's laptop/Desktop/19创新基地/沁恒/例程/Libraries/hefei_libraries/hf_nvic.c:96
    PFIC->IENR[1] = irq_status.ienr1;
     72a:	43dc                	lw	a5,4(a5)
     72c:	10f72223          	sw	a5,260(a4)
C:/Users/Kanesh's laptop/Desktop/19创新基地/沁恒/例程/Libraries/hefei_libraries/hf_nvic.c:97
}
     730:	8082                	ret

00000732 <EnableGlobalIRQ>:
EnableGlobalIRQ():
C:/Users/Kanesh's laptop/Desktop/19创新基地/沁恒/例程/Libraries/hefei_libraries/hf_nvic.c:66
    if(state == 0)
     732:	e501                	bnez	a0,73a <EnableGlobalIRQ+0x8>
C:/Users/Kanesh's laptop/Desktop/19创新基地/沁恒/例程/Libraries/hefei_libraries/hf_nvic.c:68
        irq_status.flag = 0;
     734:	80018e23          	sb	zero,-2020(gp) # 2000002c <irq_status+0x8>
C:/Users/Kanesh's laptop/Desktop/19创新基地/沁恒/例程/Libraries/hefei_libraries/hf_nvic.c:69
        sys_recover_irq();
     738:	b7cd                	j	71a <sys_recover_irq>
C:/Users/Kanesh's laptop/Desktop/19创新基地/沁恒/例程/Libraries/hefei_libraries/hf_nvic.c:71
}
     73a:	8082                	ret

0000073c <pwm_duty>:
pwm_duty():
C:/Users/Kanesh's laptop/Desktop/19创新基地/沁恒/V103_Car_Demo/Libraries/hefei_libraries/hf_pwm.c:103
void pwm_duty(PWMCH_enum pwmch, uint32 duty)
{
    uint16 match_temp;
    uint16 period_temp;

    period_temp = ((TIM_TypeDef *) TIMERN[pwmch>>8])->ATRLR;    //获取定时器的周期值
     73c:	00855713          	srli	a4,a0,0x8
     740:	6685                	lui	a3,0x1
     742:	00271793          	slli	a5,a4,0x2
     746:	4ac68693          	addi	a3,a3,1196 # 14ac <TIMERN>
     74a:	97b6                	add	a5,a5,a3
     74c:	439c                	lw	a5,0(a5)
     74e:	02c7d783          	lhu	a5,44(a5)
C:/Users/Kanesh's laptop/Desktop/19创新基地/沁恒/V103_Car_Demo/Libraries/hefei_libraries/hf_pwm.c:104
    match_temp = period_temp * duty / PWM_DUTY_MAX;             //占空比
     752:	02f585b3          	mul	a1,a1,a5
     756:	6789                	lui	a5,0x2
     758:	71078793          	addi	a5,a5,1808 # 2710 <_data_lma+0x1244>
     75c:	02f5d5b3          	divu	a1,a1,a5
C:/Users/Kanesh's laptop/Desktop/19创新基地/沁恒/V103_Car_Demo/Libraries/hefei_libraries/hf_pwm.c:106

    if((pwmch >> 8) == 0x00)
     760:	ef01                	bnez	a4,778 <pwm_duty+0x3c>
C:/Users/Kanesh's laptop/Desktop/19创新基地/沁恒/V103_Car_Demo/Libraries/hefei_libraries/hf_pwm.c:108
    {
        (*(volatile uint32*)(0x40012C34 + (pwmch&0x03) * 0x04)) = match_temp;
     762:	100057b7          	lui	a5,0x10005
     766:	890d                	andi	a0,a0,3
     768:	b0d78793          	addi	a5,a5,-1267 # 10004b0d <_data_lma+0x10003641>
C:/Users/Kanesh's laptop/Desktop/19创新基地/沁恒/V103_Car_Demo/Libraries/hefei_libraries/hf_pwm.c:132
        //0x4000043C TIM3->CH3CVR
        //0x40000440 TIM3->CH4CVR
    }
    else if((pwmch >> 8) == 0x03)
    {
        (*(volatile uint32*)(0x40000834 + (pwmch&0x03) * 0x04)) = match_temp;
     76c:	953e                	add	a0,a0,a5
     76e:	05c2                	slli	a1,a1,0x10
     770:	050a                	slli	a0,a0,0x2
     772:	81c1                	srli	a1,a1,0x10
     774:	c10c                	sw	a1,0(a0)
C:/Users/Kanesh's laptop/Desktop/19创新基地/沁恒/V103_Car_Demo/Libraries/hefei_libraries/hf_pwm.c:138
        //0x40000834 TIM4->CH1CVR
        //0x40000838 TIM4->CH2CVR
        //0x4000083C TIM4->CH3CVR
        //0x40000840 TIM4->CH4CVR
    }
}
     776:	8082                	ret
C:/Users/Kanesh's laptop/Desktop/19创新基地/沁恒/V103_Car_Demo/Libraries/hefei_libraries/hf_pwm.c:114
    else if((pwmch >> 8) == 0x01)
     778:	4785                	li	a5,1
     77a:	00f71763          	bne	a4,a5,788 <pwm_duty+0x4c>
C:/Users/Kanesh's laptop/Desktop/19创新基地/沁恒/V103_Car_Demo/Libraries/hefei_libraries/hf_pwm.c:116
        (*(volatile uint32*)(0x40000034 + (pwmch&0x03) * 0x04)) = match_temp;
     77e:	100007b7          	lui	a5,0x10000
     782:	890d                	andi	a0,a0,3
     784:	07b5                	addi	a5,a5,13
     786:	b7dd                	j	76c <pwm_duty+0x30>
C:/Users/Kanesh's laptop/Desktop/19创新基地/沁恒/V103_Car_Demo/Libraries/hefei_libraries/hf_pwm.c:122
    else if((pwmch >> 8) == 0x02)
     788:	4789                	li	a5,2
     78a:	00f71863          	bne	a4,a5,79a <pwm_duty+0x5e>
C:/Users/Kanesh's laptop/Desktop/19创新基地/沁恒/V103_Car_Demo/Libraries/hefei_libraries/hf_pwm.c:124
        (*(volatile uint32*)(0x40000434 + (pwmch&0x03) * 0x04)) = match_temp;
     78e:	100007b7          	lui	a5,0x10000
     792:	890d                	andi	a0,a0,3
     794:	10d78793          	addi	a5,a5,269 # 1000010d <_data_lma+0xfffec41>
     798:	bfd1                	j	76c <pwm_duty+0x30>
C:/Users/Kanesh's laptop/Desktop/19创新基地/沁恒/V103_Car_Demo/Libraries/hefei_libraries/hf_pwm.c:130
    else if((pwmch >> 8) == 0x03)
     79a:	478d                	li	a5,3
     79c:	fcf71de3          	bne	a4,a5,776 <pwm_duty+0x3a>
C:/Users/Kanesh's laptop/Desktop/19创新基地/沁恒/V103_Car_Demo/Libraries/hefei_libraries/hf_pwm.c:132
        (*(volatile uint32*)(0x40000834 + (pwmch&0x03) * 0x04)) = match_temp;
     7a0:	100007b7          	lui	a5,0x10000
     7a4:	890d                	andi	a0,a0,3
     7a6:	20d78793          	addi	a5,a5,525 # 1000020d <_data_lma+0xfffed41>
     7aa:	b7c9                	j	76c <pwm_duty+0x30>

000007ac <pwm_gpio_init>:
pwm_gpio_init():
C:/Users/Kanesh's laptop/Desktop/19创新基地/沁恒/V103_Car_Demo/Libraries/hefei_libraries/hf_pwm.c:183
//  @return     void
//  Sample usage:           内部使用  用户无需关心
//-------------------------------------------------------------------------------------------------------------------
void pwm_gpio_init(PWMCH_enum pwmch)
{
    switch(pwmch)
     7ac:	20000793          	li	a5,512
     7b0:	16f50b63          	beq	a0,a5,926 <__stack_size+0x126>
     7b4:	06a7e463          	bltu	a5,a0,81c <__stack_size+0x1c>
     7b8:	10100793          	li	a5,257
     7bc:	10f50863          	beq	a0,a5,8cc <__stack_size+0xcc>
     7c0:	02a7e463          	bltu	a5,a0,7e8 <pwm_gpio_init+0x3c>
     7c4:	4789                	li	a5,2
     7c6:	0ef50163          	beq	a0,a5,8a8 <__stack_size+0xa8>
     7ca:	00a7e763          	bltu	a5,a0,7d8 <pwm_gpio_init+0x2c>
     7ce:	c169                	beqz	a0,890 <__stack_size+0x90>
     7d0:	4785                	li	a5,1
     7d2:	0cf50563          	beq	a0,a5,89c <__stack_size+0x9c>
     7d6:	8082                	ret
     7d8:	478d                	li	a5,3
     7da:	0cf50d63          	beq	a0,a5,8b4 <__stack_size+0xb4>
     7de:	10000793          	li	a5,256
     7e2:	0cf50f63          	beq	a0,a5,8c0 <__stack_size+0xc0>
     7e6:	8082                	ret
     7e8:	11000793          	li	a5,272
     7ec:	10f50263          	beq	a0,a5,8f0 <__stack_size+0xf0>
     7f0:	00a7eb63          	bltu	a5,a0,806 <__stack_size+0x6>
     7f4:	10200793          	li	a5,258
     7f8:	0ef50063          	beq	a0,a5,8d8 <__stack_size+0xd8>
     7fc:	10300793          	li	a5,259
     800:	0ef50263          	beq	a0,a5,8e4 <__stack_size+0xe4>
     804:	8082                	ret
     806:	11200793          	li	a5,274
     80a:	10f50063          	beq	a0,a5,90a <__stack_size+0x10a>
     80e:	0ef56763          	bltu	a0,a5,8fc <__stack_size+0xfc>
     812:	11300793          	li	a5,275
     816:	10f50163          	beq	a0,a5,918 <__stack_size+0x118>
     81a:	8082                	ret
     81c:	21300793          	li	a5,531
     820:	16f50263          	beq	a0,a5,984 <__stack_size+0x184>
     824:	02a7ec63          	bltu	a5,a0,85c <__stack_size+0x5c>
     828:	20300793          	li	a5,515
     82c:	12f50063          	beq	a0,a5,94c <__stack_size+0x14c>
     830:	00a7eb63          	bltu	a5,a0,846 <__stack_size+0x46>
     834:	20100793          	li	a5,513
     838:	0ef50d63          	beq	a0,a5,932 <__stack_size+0x132>
     83c:	20200793          	li	a5,514
     840:	0ef50f63          	beq	a0,a5,93e <__stack_size+0x13e>
     844:	8082                	ret
     846:	21100793          	li	a5,529
     84a:	10f50f63          	beq	a0,a5,968 <__stack_size+0x168>
     84e:	12a7e463          	bltu	a5,a0,976 <__stack_size+0x176>
     852:	21000793          	li	a5,528
     856:	10f50263          	beq	a0,a5,95a <__stack_size+0x15a>
     85a:	8082                	ret
     85c:	30000793          	li	a5,768
     860:	14f50763          	beq	a0,a5,9ae <__stack_size+0x1ae>
     864:	00a7eb63          	bltu	a5,a0,87a <__stack_size+0x7a>
     868:	22000793          	li	a5,544
     86c:	12f50363          	beq	a0,a5,992 <__stack_size+0x192>
     870:	22100793          	li	a5,545
     874:	12f50663          	beq	a0,a5,9a0 <__stack_size+0x1a0>
     878:	8082                	ret
     87a:	30200793          	li	a5,770
     87e:	14f50663          	beq	a0,a5,9ca <__stack_size+0x1ca>
     882:	12f56d63          	bltu	a0,a5,9bc <__stack_size+0x1bc>
     886:	30300793          	li	a5,771
     88a:	14f50763          	beq	a0,a5,9d8 <__stack_size+0x1d8>
     88e:	8082                	ret
C:/Users/Kanesh's laptop/Desktop/19创新基地/沁恒/V103_Car_Demo/Libraries/hefei_libraries/hf_pwm.c:187
    {

        case PWM1_CH1_A8:
            gpio_init(A8, GPO, 0, SPEED_50MHZ|OUT_AF_PP);
     890:	31800693          	li	a3,792
     894:	4601                	li	a2,0
     896:	4585                	li	a1,1
     898:	4521                	li	a0,8
C:/Users/Kanesh's laptop/Desktop/19创新基地/沁恒/V103_Car_Demo/Libraries/hefei_libraries/hf_pwm.c:268
            break;
        case PWM4_CH3_B8:
            gpio_init(B8, GPO, 0, SPEED_50MHZ|OUT_AF_PP);
            break;
        case PWM4_CH4_B9:
            gpio_init(B9, GPO, 0, SPEED_50MHZ|OUT_AF_PP);
     89a:	b3b5                	j	606 <gpio_init>
C:/Users/Kanesh's laptop/Desktop/19创新基地/沁恒/V103_Car_Demo/Libraries/hefei_libraries/hf_pwm.c:190
            gpio_init(A9, GPO, 0, SPEED_50MHZ|OUT_AF_PP);
     89c:	31800693          	li	a3,792
     8a0:	4601                	li	a2,0
     8a2:	4585                	li	a1,1
     8a4:	4525                	li	a0,9
     8a6:	bfd5                	j	89a <__stack_size+0x9a>
C:/Users/Kanesh's laptop/Desktop/19创新基地/沁恒/V103_Car_Demo/Libraries/hefei_libraries/hf_pwm.c:193
            gpio_init(A10, GPO, 0, SPEED_50MHZ|OUT_AF_PP);
     8a8:	31800693          	li	a3,792
     8ac:	4601                	li	a2,0
     8ae:	4585                	li	a1,1
     8b0:	4529                	li	a0,10
     8b2:	b7e5                	j	89a <__stack_size+0x9a>
C:/Users/Kanesh's laptop/Desktop/19创新基地/沁恒/V103_Car_Demo/Libraries/hefei_libraries/hf_pwm.c:196
            gpio_init(A11, GPO, 0, SPEED_50MHZ|OUT_AF_PP);
     8b4:	31800693          	li	a3,792
     8b8:	4601                	li	a2,0
     8ba:	4585                	li	a1,1
     8bc:	452d                	li	a0,11
     8be:	bff1                	j	89a <__stack_size+0x9a>
C:/Users/Kanesh's laptop/Desktop/19创新基地/沁恒/V103_Car_Demo/Libraries/hefei_libraries/hf_pwm.c:200
            gpio_init(A0, GPO, 0, SPEED_50MHZ|OUT_AF_PP);
     8c0:	31800693          	li	a3,792
     8c4:	4601                	li	a2,0
     8c6:	4585                	li	a1,1
     8c8:	4501                	li	a0,0
     8ca:	bfc1                	j	89a <__stack_size+0x9a>
C:/Users/Kanesh's laptop/Desktop/19创新基地/沁恒/V103_Car_Demo/Libraries/hefei_libraries/hf_pwm.c:203
            gpio_init(A1, GPO, 0, SPEED_50MHZ|OUT_AF_PP);
     8cc:	31800693          	li	a3,792
     8d0:	4601                	li	a2,0
     8d2:	4585                	li	a1,1
     8d4:	4505                	li	a0,1
     8d6:	b7d1                	j	89a <__stack_size+0x9a>
C:/Users/Kanesh's laptop/Desktop/19创新基地/沁恒/V103_Car_Demo/Libraries/hefei_libraries/hf_pwm.c:206
            gpio_init(A2, GPO, 0, SPEED_50MHZ|OUT_AF_PP);
     8d8:	31800693          	li	a3,792
     8dc:	4601                	li	a2,0
     8de:	4585                	li	a1,1
     8e0:	4509                	li	a0,2
     8e2:	bf65                	j	89a <__stack_size+0x9a>
C:/Users/Kanesh's laptop/Desktop/19创新基地/沁恒/V103_Car_Demo/Libraries/hefei_libraries/hf_pwm.c:209
            gpio_init(A3, GPO, 0, SPEED_50MHZ|OUT_AF_PP);
     8e4:	31800693          	li	a3,792
     8e8:	4601                	li	a2,0
     8ea:	4585                	li	a1,1
     8ec:	450d                	li	a0,3
     8ee:	b775                	j	89a <__stack_size+0x9a>
C:/Users/Kanesh's laptop/Desktop/19创新基地/沁恒/V103_Car_Demo/Libraries/hefei_libraries/hf_pwm.c:213
            gpio_init(A15, GPO, 0, SPEED_50MHZ|OUT_AF_PP);
     8f0:	31800693          	li	a3,792
     8f4:	4601                	li	a2,0
     8f6:	4585                	li	a1,1
     8f8:	453d                	li	a0,15
     8fa:	b745                	j	89a <__stack_size+0x9a>
C:/Users/Kanesh's laptop/Desktop/19创新基地/沁恒/V103_Car_Demo/Libraries/hefei_libraries/hf_pwm.c:216
            gpio_init(B3, GPO, 0, SPEED_50MHZ|OUT_AF_PP);
     8fc:	31800693          	li	a3,792
     900:	4601                	li	a2,0
     902:	4585                	li	a1,1
     904:	02300513          	li	a0,35
     908:	bf49                	j	89a <__stack_size+0x9a>
C:/Users/Kanesh's laptop/Desktop/19创新基地/沁恒/V103_Car_Demo/Libraries/hefei_libraries/hf_pwm.c:219
            gpio_init(B10, GPO, 0, SPEED_50MHZ|OUT_AF_PP);
     90a:	31800693          	li	a3,792
     90e:	4601                	li	a2,0
     910:	4585                	li	a1,1
     912:	02a00513          	li	a0,42
     916:	b751                	j	89a <__stack_size+0x9a>
C:/Users/Kanesh's laptop/Desktop/19创新基地/沁恒/V103_Car_Demo/Libraries/hefei_libraries/hf_pwm.c:222
            gpio_init(B11, GPO, 0, SPEED_50MHZ|OUT_AF_PP);
     918:	31800693          	li	a3,792
     91c:	4601                	li	a2,0
     91e:	4585                	li	a1,1
     920:	02b00513          	li	a0,43
     924:	bf9d                	j	89a <__stack_size+0x9a>
C:/Users/Kanesh's laptop/Desktop/19创新基地/沁恒/V103_Car_Demo/Libraries/hefei_libraries/hf_pwm.c:226
            gpio_init(A6, GPO, 0, SPEED_50MHZ|OUT_AF_PP);
     926:	31800693          	li	a3,792
     92a:	4601                	li	a2,0
     92c:	4585                	li	a1,1
     92e:	4519                	li	a0,6
     930:	b7ad                	j	89a <__stack_size+0x9a>
C:/Users/Kanesh's laptop/Desktop/19创新基地/沁恒/V103_Car_Demo/Libraries/hefei_libraries/hf_pwm.c:229
            gpio_init(A7, GPO, 0, SPEED_50MHZ|OUT_AF_PP);
     932:	31800693          	li	a3,792
     936:	4601                	li	a2,0
     938:	4585                	li	a1,1
     93a:	451d                	li	a0,7
     93c:	bfb9                	j	89a <__stack_size+0x9a>
C:/Users/Kanesh's laptop/Desktop/19创新基地/沁恒/V103_Car_Demo/Libraries/hefei_libraries/hf_pwm.c:232
            gpio_init(B0, GPO, 0, SPEED_50MHZ|OUT_AF_PP);
     93e:	31800693          	li	a3,792
     942:	4601                	li	a2,0
     944:	4585                	li	a1,1
     946:	02000513          	li	a0,32
     94a:	bf81                	j	89a <__stack_size+0x9a>
C:/Users/Kanesh's laptop/Desktop/19创新基地/沁恒/V103_Car_Demo/Libraries/hefei_libraries/hf_pwm.c:235
            gpio_init(B1, GPO, 0, SPEED_50MHZ|OUT_AF_PP);
     94c:	31800693          	li	a3,792
     950:	4601                	li	a2,0
     952:	4585                	li	a1,1
     954:	02100513          	li	a0,33
     958:	b789                	j	89a <__stack_size+0x9a>
C:/Users/Kanesh's laptop/Desktop/19创新基地/沁恒/V103_Car_Demo/Libraries/hefei_libraries/hf_pwm.c:239
            gpio_init(C6, GPO, 0, SPEED_50MHZ|OUT_AF_PP);
     95a:	31800693          	li	a3,792
     95e:	4601                	li	a2,0
     960:	4585                	li	a1,1
     962:	04600513          	li	a0,70
     966:	bf15                	j	89a <__stack_size+0x9a>
C:/Users/Kanesh's laptop/Desktop/19创新基地/沁恒/V103_Car_Demo/Libraries/hefei_libraries/hf_pwm.c:242
            gpio_init(C7, GPO, 0, SPEED_50MHZ|OUT_AF_PP);
     968:	31800693          	li	a3,792
     96c:	4601                	li	a2,0
     96e:	4585                	li	a1,1
     970:	04700513          	li	a0,71
     974:	b71d                	j	89a <__stack_size+0x9a>
C:/Users/Kanesh's laptop/Desktop/19创新基地/沁恒/V103_Car_Demo/Libraries/hefei_libraries/hf_pwm.c:245
            gpio_init(C8, GPO, 0, SPEED_50MHZ|OUT_AF_PP);
     976:	31800693          	li	a3,792
     97a:	4601                	li	a2,0
     97c:	4585                	li	a1,1
     97e:	04800513          	li	a0,72
     982:	bf21                	j	89a <__stack_size+0x9a>
C:/Users/Kanesh's laptop/Desktop/19创新基地/沁恒/V103_Car_Demo/Libraries/hefei_libraries/hf_pwm.c:248
            gpio_init(C9, GPO, 0, SPEED_50MHZ|OUT_AF_PP);
     984:	31800693          	li	a3,792
     988:	4601                	li	a2,0
     98a:	4585                	li	a1,1
     98c:	04900513          	li	a0,73
     990:	b729                	j	89a <__stack_size+0x9a>
C:/Users/Kanesh's laptop/Desktop/19创新基地/沁恒/V103_Car_Demo/Libraries/hefei_libraries/hf_pwm.c:252
            gpio_init(B4, GPO, 0, SPEED_50MHZ|OUT_AF_PP);
     992:	31800693          	li	a3,792
     996:	4601                	li	a2,0
     998:	4585                	li	a1,1
     99a:	02400513          	li	a0,36
     99e:	bdf5                	j	89a <__stack_size+0x9a>
C:/Users/Kanesh's laptop/Desktop/19创新基地/沁恒/V103_Car_Demo/Libraries/hefei_libraries/hf_pwm.c:255
            gpio_init(B5, GPO, 0, SPEED_50MHZ|OUT_AF_PP);
     9a0:	31800693          	li	a3,792
     9a4:	4601                	li	a2,0
     9a6:	4585                	li	a1,1
     9a8:	02500513          	li	a0,37
     9ac:	b5fd                	j	89a <__stack_size+0x9a>
C:/Users/Kanesh's laptop/Desktop/19创新基地/沁恒/V103_Car_Demo/Libraries/hefei_libraries/hf_pwm.c:259
            gpio_init(B6, GPO, 0, SPEED_50MHZ|OUT_AF_PP);
     9ae:	31800693          	li	a3,792
     9b2:	4601                	li	a2,0
     9b4:	4585                	li	a1,1
     9b6:	02600513          	li	a0,38
     9ba:	b5c5                	j	89a <__stack_size+0x9a>
C:/Users/Kanesh's laptop/Desktop/19创新基地/沁恒/V103_Car_Demo/Libraries/hefei_libraries/hf_pwm.c:262
            gpio_init(B7, GPO, 0, SPEED_50MHZ|OUT_AF_PP);
     9bc:	31800693          	li	a3,792
     9c0:	4601                	li	a2,0
     9c2:	4585                	li	a1,1
     9c4:	02700513          	li	a0,39
     9c8:	bdc9                	j	89a <__stack_size+0x9a>
C:/Users/Kanesh's laptop/Desktop/19创新基地/沁恒/V103_Car_Demo/Libraries/hefei_libraries/hf_pwm.c:265
            gpio_init(B8, GPO, 0, SPEED_50MHZ|OUT_AF_PP);
     9ca:	31800693          	li	a3,792
     9ce:	4601                	li	a2,0
     9d0:	4585                	li	a1,1
     9d2:	02800513          	li	a0,40
     9d6:	b5d1                	j	89a <__stack_size+0x9a>
C:/Users/Kanesh's laptop/Desktop/19创新基地/沁恒/V103_Car_Demo/Libraries/hefei_libraries/hf_pwm.c:268
            gpio_init(B9, GPO, 0, SPEED_50MHZ|OUT_AF_PP);
     9d8:	31800693          	li	a3,792
     9dc:	4601                	li	a2,0
     9de:	4585                	li	a1,1
     9e0:	02900513          	li	a0,41
     9e4:	bd5d                	j	89a <__stack_size+0x9a>

000009e6 <pwm_init>:
pwm_init():
C:/Users/Kanesh's laptop/Desktop/19创新基地/沁恒/V103_Car_Demo/Libraries/hefei_libraries/hf_pwm.c:25
{
     9e6:	7139                	addi	sp,sp,-64
     9e8:	de06                	sw	ra,60(sp)
     9ea:	dc22                	sw	s0,56(sp)
     9ec:	da26                	sw	s1,52(sp)
     9ee:	d84a                	sw	s2,48(sp)
     9f0:	84aa                	mv	s1,a0
     9f2:	d64e                	sw	s3,44(sp)
     9f4:	d452                	sw	s4,40(sp)
     9f6:	89b6                	mv	s3,a3
     9f8:	8a32                	mv	s4,a2
     9fa:	c62e                	sw	a1,12(sp)
C:/Users/Kanesh's laptop/Desktop/19创新基地/沁恒/V103_Car_Demo/Libraries/hefei_libraries/hf_pwm.c:32
    pwm_gpio_init(pwmch);                                       //PWM引脚初始化
     9fc:	3b45                	jal	7ac <pwm_gpio_init>
C:/Users/Kanesh's laptop/Desktop/19创新基地/沁恒/V103_Car_Demo/Libraries/hefei_libraries/hf_pwm.c:36
    freq_div = (uint16)((sys_clk / freq) >> 16);                            //多少分频
     9fe:	45b2                	lw	a1,12(sp)
C:/Users/Kanesh's laptop/Desktop/19创新基地/沁恒/V103_Car_Demo/Libraries/hefei_libraries/hf_pwm.c:35
    sys_clk = (uint32)72000000;
     a00:	044aa7b7          	lui	a5,0x44aa
     a04:	20078793          	addi	a5,a5,512 # 44aa200 <_data_lma+0x44a8d34>
C:/Users/Kanesh's laptop/Desktop/19创新基地/沁恒/V103_Car_Demo/Libraries/hefei_libraries/hf_pwm.c:36
    freq_div = (uint16)((sys_clk / freq) >> 16);                            //多少分频
     a08:	02b7d633          	divu	a2,a5,a1
C:/Users/Kanesh's laptop/Desktop/19创新基地/沁恒/V103_Car_Demo/Libraries/hefei_libraries/hf_pwm.c:41
    timbase_init((pwmch >> 8), period_temp - 1, freq_div);
     a0c:	0084d913          	srli	s2,s1,0x8
C:/Users/Kanesh's laptop/Desktop/19创新基地/沁恒/V103_Car_Demo/Libraries/hefei_libraries/hf_pwm.c:35
    sys_clk = (uint32)72000000;
     a10:	20000737          	lui	a4,0x20000
C:/Users/Kanesh's laptop/Desktop/19创新基地/沁恒/V103_Car_Demo/Libraries/hefei_libraries/hf_pwm.c:41
    timbase_init((pwmch >> 8), period_temp - 1, freq_div);
     a14:	854a                	mv	a0,s2
C:/Users/Kanesh's laptop/Desktop/19创新基地/沁恒/V103_Car_Demo/Libraries/hefei_libraries/hf_pwm.c:35
    sys_clk = (uint32)72000000;
     a16:	00f72c23          	sw	a5,24(a4) # 20000018 <_edata>
C:/Users/Kanesh's laptop/Desktop/19创新基地/沁恒/V103_Car_Demo/Libraries/hefei_libraries/hf_pwm.c:36
    freq_div = (uint16)((sys_clk / freq) >> 16);                            //多少分频
     a1a:	090a                	slli	s2,s2,0x2
     a1c:	8241                	srli	a2,a2,0x10
C:/Users/Kanesh's laptop/Desktop/19创新基地/沁恒/V103_Car_Demo/Libraries/hefei_libraries/hf_pwm.c:37
    period_temp = (uint16)(sys_clk/(freq*(freq_div + 1)));                  //周期
     a1e:	00160413          	addi	s0,a2,1 # 20001 <_data_lma+0x1eb35>
     a22:	02b40433          	mul	s0,s0,a1
     a26:	0287d433          	divu	s0,a5,s0
C:/Users/Kanesh's laptop/Desktop/19创新基地/沁恒/V103_Car_Demo/Libraries/hefei_libraries/hf_pwm.c:41
    timbase_init((pwmch >> 8), period_temp - 1, freq_div);
     a2a:	fff40593          	addi	a1,s0,-1
     a2e:	05c2                	slli	a1,a1,0x10
     a30:	81c1                	srli	a1,a1,0x10
     a32:	20c1                	jal	af2 <timbase_init>
C:/Users/Kanesh's laptop/Desktop/19创新基地/沁恒/V103_Car_Demo/Libraries/hefei_libraries/hf_pwm.c:43
    RCC_APB2PeriphClockCmd(RCC_APB2Periph_AFIO, ENABLE);        //使能AFIO复用功能模块时钟
     a34:	4585                	li	a1,1
     a36:	4505                	li	a0,1
     a38:	2309                	jal	f3a <RCC_APB2PeriphClockCmd>
C:/Users/Kanesh's laptop/Desktop/19创新基地/沁恒/V103_Car_Demo/Libraries/hefei_libraries/hf_pwm.c:38
    match_temp = period_temp * duty / PWM_DUTY_MAX;                         //占空比
     a3a:	01041793          	slli	a5,s0,0x10
     a3e:	83c1                	srli	a5,a5,0x10
     a40:	034787b3          	mul	a5,a5,s4
     a44:	6409                	lui	s0,0x2
     a46:	71040413          	addi	s0,s0,1808 # 2710 <_data_lma+0x1244>
C:/Users/Kanesh's laptop/Desktop/19创新基地/沁恒/V103_Car_Demo/Libraries/hefei_libraries/hf_pwm.c:56
    TIM_OCInitStructure.TIM_OCMode = TIM_OCMode_PWM1;                       //选择定时器模式:TIM脉冲宽度调制模式2
     a4a:	6741                	lui	a4,0x10
     a4c:	06070713          	addi	a4,a4,96 # 10060 <_data_lma+0xeb94>
     a50:	c83a                	sw	a4,16(sp)
C:/Users/Kanesh's laptop/Desktop/19创新基地/沁恒/V103_Car_Demo/Libraries/hefei_libraries/hf_pwm.c:58
    TIM_OCInitStructure.TIM_Pulse = match_temp;
     a52:	6705                	lui	a4,0x1
     a54:	4ac70713          	addi	a4,a4,1196 # 14ac <TIMERN>
     a58:	993a                	add	s2,s2,a4
C:/Users/Kanesh's laptop/Desktop/19创新基地/沁恒/V103_Car_Demo/Libraries/hefei_libraries/hf_pwm.c:59
    TIM_OCInitStructure.TIM_OCPolarity = TIM_OCPolarity_High;               //输出极性:TIM输出比较极性高
     a5a:	00011c23          	sh	zero,24(sp)
C:/Users/Kanesh's laptop/Desktop/19创新基地/沁恒/V103_Car_Demo/Libraries/hefei_libraries/hf_pwm.c:38
    match_temp = period_temp * duty / PWM_DUTY_MAX;                         //占空比
     a5e:	0287d7b3          	divu	a5,a5,s0
C:/Users/Kanesh's laptop/Desktop/19创新基地/沁恒/V103_Car_Demo/Libraries/hefei_libraries/hf_pwm.c:60
    TIM_OCInitStructure.TIM_OCIdleState = TIM_OCIdleState_Reset;
     a62:	00011e23          	sh	zero,28(sp)
     a66:	00092403          	lw	s0,0(s2)
C:/Users/Kanesh's laptop/Desktop/19创新基地/沁恒/V103_Car_Demo/Libraries/hefei_libraries/hf_pwm.c:38
    match_temp = period_temp * duty / PWM_DUTY_MAX;                         //占空比
     a6a:	00f11b23          	sh	a5,22(sp)
C:/Users/Kanesh's laptop/Desktop/19创新基地/沁恒/V103_Car_Demo/Libraries/hefei_libraries/hf_pwm.c:62
    if((pwmch & 0x03) == 0x00)                                              //通道选择
     a6e:	0034f793          	andi	a5,s1,3
     a72:	eb85                	bnez	a5,aa2 <pwm_init+0xbc>
C:/Users/Kanesh's laptop/Desktop/19创新基地/沁恒/V103_Car_Demo/Libraries/hefei_libraries/hf_pwm.c:64
        TIM_OC1Init(((TIM_TypeDef *) TIMERN[pwmch>>8]), &TIM_OCInitStructure );                         //定时器通道1初始化
     a74:	080c                	addi	a1,sp,16
     a76:	8522                	mv	a0,s0
     a78:	2b9d                	jal	fee <TIM_OC1Init>
C:/Users/Kanesh's laptop/Desktop/19创新基地/沁恒/V103_Car_Demo/Libraries/hefei_libraries/hf_pwm.c:65
        TIM_CtrlPWMOutputs(((TIM_TypeDef *) TIMERN[pwmch>>8]), ENABLE );
     a7a:	4585                	li	a1,1
     a7c:	8522                	mv	a0,s0
     a7e:	7fc000ef          	jal	ra,127a <TIM_CtrlPWMOutputs>
C:/Users/Kanesh's laptop/Desktop/19创新基地/沁恒/V103_Car_Demo/Libraries/hefei_libraries/hf_pwm.c:66
        TIM_OC1PreloadConfig(((TIM_TypeDef *) TIMERN[pwmch>>8]), TIM_OCPreload_Enable_Disable);         //定时器预装载配置
     a82:	85ce                	mv	a1,s3
     a84:	8522                	mv	a0,s0
     a86:	00b000ef          	jal	ra,1290 <TIM_OC1PreloadConfig>
C:/Users/Kanesh's laptop/Desktop/19创新基地/沁恒/V103_Car_Demo/Libraries/hefei_libraries/hf_pwm.c:87
    TIM_Cmd(((TIM_TypeDef *) TIMERN[pwmch>>8]), ENABLE);                                              //定时器使能
     a8a:	8522                	mv	a0,s0
     a8c:	4585                	li	a1,1
     a8e:	7d0000ef          	jal	ra,125e <TIM_Cmd>
C:/Users/Kanesh's laptop/Desktop/19创新基地/沁恒/V103_Car_Demo/Libraries/hefei_libraries/hf_pwm.c:88
}
     a92:	50f2                	lw	ra,60(sp)
     a94:	5462                	lw	s0,56(sp)
     a96:	54d2                	lw	s1,52(sp)
     a98:	5942                	lw	s2,48(sp)
     a9a:	59b2                	lw	s3,44(sp)
     a9c:	5a22                	lw	s4,40(sp)
     a9e:	6121                	addi	sp,sp,64
     aa0:	8082                	ret
C:/Users/Kanesh's laptop/Desktop/19创新基地/沁恒/V103_Car_Demo/Libraries/hefei_libraries/hf_pwm.c:68
    else if((pwmch & 0x03) == 0x01)
     aa2:	4705                	li	a4,1
     aa4:	00e79e63          	bne	a5,a4,ac0 <pwm_init+0xda>
C:/Users/Kanesh's laptop/Desktop/19创新基地/沁恒/V103_Car_Demo/Libraries/hefei_libraries/hf_pwm.c:70
        TIM_OC2Init(((TIM_TypeDef *) TIMERN[pwmch>>8]), &TIM_OCInitStructure );
     aa8:	080c                	addi	a1,sp,16
     aaa:	8522                	mv	a0,s0
     aac:	23e9                	jal	1076 <TIM_OC2Init>
C:/Users/Kanesh's laptop/Desktop/19创新基地/沁恒/V103_Car_Demo/Libraries/hefei_libraries/hf_pwm.c:71
        TIM_CtrlPWMOutputs(((TIM_TypeDef *) TIMERN[pwmch>>8]), ENABLE );
     aae:	8522                	mv	a0,s0
     ab0:	4585                	li	a1,1
     ab2:	7c8000ef          	jal	ra,127a <TIM_CtrlPWMOutputs>
C:/Users/Kanesh's laptop/Desktop/19创新基地/沁恒/V103_Car_Demo/Libraries/hefei_libraries/hf_pwm.c:72
        TIM_OC2PreloadConfig(((TIM_TypeDef *) TIMERN[pwmch>>8]), TIM_OCPreload_Enable_Disable);
     ab6:	85ce                	mv	a1,s3
     ab8:	8522                	mv	a0,s0
     aba:	7e8000ef          	jal	ra,12a2 <TIM_OC2PreloadConfig>
     abe:	b7f1                	j	a8a <pwm_init+0xa4>
C:/Users/Kanesh's laptop/Desktop/19创新基地/沁恒/V103_Car_Demo/Libraries/hefei_libraries/hf_pwm.c:74
    else if((pwmch & 0x03) == 0x02)
     ac0:	4709                	li	a4,2
C:/Users/Kanesh's laptop/Desktop/19创新基地/沁恒/V103_Car_Demo/Libraries/hefei_libraries/hf_pwm.c:76
        TIM_OC3Init(((TIM_TypeDef *) TIMERN[pwmch>>8]), &TIM_OCInitStructure );
     ac2:	080c                	addi	a1,sp,16
     ac4:	8522                	mv	a0,s0
C:/Users/Kanesh's laptop/Desktop/19创新基地/沁恒/V103_Car_Demo/Libraries/hefei_libraries/hf_pwm.c:74
    else if((pwmch & 0x03) == 0x02)
     ac6:	00e79c63          	bne	a5,a4,ade <pwm_init+0xf8>
C:/Users/Kanesh's laptop/Desktop/19创新基地/沁恒/V103_Car_Demo/Libraries/hefei_libraries/hf_pwm.c:76
        TIM_OC3Init(((TIM_TypeDef *) TIMERN[pwmch>>8]), &TIM_OCInitStructure );
     aca:	2585                	jal	112a <TIM_OC3Init>
C:/Users/Kanesh's laptop/Desktop/19创新基地/沁恒/V103_Car_Demo/Libraries/hefei_libraries/hf_pwm.c:77
        TIM_CtrlPWMOutputs(((TIM_TypeDef *) TIMERN[pwmch>>8]), ENABLE );
     acc:	8522                	mv	a0,s0
     ace:	4585                	li	a1,1
     ad0:	7aa000ef          	jal	ra,127a <TIM_CtrlPWMOutputs>
C:/Users/Kanesh's laptop/Desktop/19创新基地/沁恒/V103_Car_Demo/Libraries/hefei_libraries/hf_pwm.c:78
        TIM_OC3PreloadConfig(((TIM_TypeDef *) TIMERN[pwmch>>8]), TIM_OCPreload_Enable_Disable);
     ad4:	85ce                	mv	a1,s3
     ad6:	8522                	mv	a0,s0
     ad8:	7e4000ef          	jal	ra,12bc <TIM_OC3PreloadConfig>
     adc:	b77d                	j	a8a <pwm_init+0xa4>
C:/Users/Kanesh's laptop/Desktop/19创新基地/沁恒/V103_Car_Demo/Libraries/hefei_libraries/hf_pwm.c:82
        TIM_OC4Init(((TIM_TypeDef *) TIMERN[pwmch>>8]), &TIM_OCInitStructure );
     ade:	2dfd                	jal	11dc <TIM_OC4Init>
C:/Users/Kanesh's laptop/Desktop/19创新基地/沁恒/V103_Car_Demo/Libraries/hefei_libraries/hf_pwm.c:83
        TIM_CtrlPWMOutputs(((TIM_TypeDef *) TIMERN[pwmch>>8]), ENABLE );
     ae0:	8522                	mv	a0,s0
     ae2:	4585                	li	a1,1
     ae4:	796000ef          	jal	ra,127a <TIM_CtrlPWMOutputs>
C:/Users/Kanesh's laptop/Desktop/19创新基地/沁恒/V103_Car_Demo/Libraries/hefei_libraries/hf_pwm.c:84
        TIM_OC4PreloadConfig(((TIM_TypeDef *) TIMERN[pwmch>>8]), TIM_OCPreload_Enable_Disable);
     ae8:	85ce                	mv	a1,s3
     aea:	8522                	mv	a0,s0
     aec:	7e2000ef          	jal	ra,12ce <TIM_OC4PreloadConfig>
     af0:	bf69                	j	a8a <pwm_init+0xa4>

00000af2 <timbase_init>:
timbase_init():
C:/Users/Kanesh's laptop/Desktop/19创新基地/沁恒/例程/Libraries/hefei_libraries/hf_tim.c:24
//  @return     void
//  Sample usage:           timbase_init(TIMER_2, 71, 0);
//                          //时基初始化为定时器2,频率为1MHz
//-------------------------------------------------------------------------------------------------------------------
void timbase_init(TIMERN_enum TIMER_x, uint16 arr, uint16 pre)
{
     af2:	1101                	addi	sp,sp,-32
     af4:	cc22                	sw	s0,24(sp)
     af6:	ca26                	sw	s1,20(sp)
     af8:	c84a                	sw	s2,16(sp)
     afa:	ce06                	sw	ra,28(sp)
     afc:	842a                	mv	s0,a0
     afe:	892e                	mv	s2,a1
     b00:	84b2                	mv	s1,a2
C:/Users/Kanesh's laptop/Desktop/19创新基地/沁恒/例程/Libraries/hefei_libraries/hf_tim.c:27
    TIM_TimeBaseInitTypeDef  TIM_TimeBaseStructure;

    if(TIMER_1 == TIMER_x)
     b02:	ed15                	bnez	a0,b3e <timbase_init+0x4c>
C:/Users/Kanesh's laptop/Desktop/19创新基地/沁恒/例程/Libraries/hefei_libraries/hf_tim.c:28
        RCC_APB2PeriphClockCmd(RCC_APB2Periph_TIM1, ENABLE);                //时钟使能
     b04:	6505                	lui	a0,0x1
     b06:	4585                	li	a1,1
     b08:	80050513          	addi	a0,a0,-2048 # 800 <__stack_size>
     b0c:	213d                	jal	f3a <RCC_APB2PeriphClockCmd>
C:/Users/Kanesh's laptop/Desktop/19创新基地/沁恒/例程/Libraries/hefei_libraries/hf_tim.c:42
    TIM_TimeBaseStructure.TIM_Period = arr;                    //计数44000
    TIM_TimeBaseStructure.TIM_Prescaler = pre;                      //设置为1MHZ计数一次,也就是1us计数一次
    TIM_TimeBaseStructure.TIM_ClockDivision = TIM_CKD_DIV1;                 //设置时钟分割:TDTS = Tck_tim
    TIM_TimeBaseStructure.TIM_CounterMode = TIM_CounterMode_Up;             //TIM向上计数模式
    TIM_TimeBaseStructure.TIM_RepetitionCounter = 0;                        //重复计数器设置为0
    TIM_TimeBaseInit((TIM_TypeDef *)TIMERN[TIMER_x], &TIM_TimeBaseStructure);//根据指定的参数初始化TIMx的时间基数单位
     b0e:	6785                	lui	a5,0x1
     b10:	4ac78793          	addi	a5,a5,1196 # 14ac <TIMERN>
     b14:	040a                	slli	s0,s0,0x2
     b16:	943e                	add	s0,s0,a5
     b18:	4008                	lw	a0,0(s0)
     b1a:	004c                	addi	a1,sp,4
C:/Users/Kanesh's laptop/Desktop/19创新基地/沁恒/例程/Libraries/hefei_libraries/hf_tim.c:37
    TIM_TimeBaseStructure.TIM_Period = arr;                    //计数44000
     b1c:	01211423          	sh	s2,8(sp)
C:/Users/Kanesh's laptop/Desktop/19创新基地/沁恒/例程/Libraries/hefei_libraries/hf_tim.c:38
    TIM_TimeBaseStructure.TIM_Prescaler = pre;                      //设置为1MHZ计数一次,也就是1us计数一次
     b20:	00911223          	sh	s1,4(sp)
C:/Users/Kanesh's laptop/Desktop/19创新基地/沁恒/例程/Libraries/hefei_libraries/hf_tim.c:39
    TIM_TimeBaseStructure.TIM_ClockDivision = TIM_CKD_DIV1;                 //设置时钟分割:TDTS = Tck_tim
     b24:	00011523          	sh	zero,10(sp)
C:/Users/Kanesh's laptop/Desktop/19创新基地/沁恒/例程/Libraries/hefei_libraries/hf_tim.c:40
    TIM_TimeBaseStructure.TIM_CounterMode = TIM_CounterMode_Up;             //TIM向上计数模式
     b28:	00011323          	sh	zero,6(sp)
C:/Users/Kanesh's laptop/Desktop/19创新基地/沁恒/例程/Libraries/hefei_libraries/hf_tim.c:41
    TIM_TimeBaseStructure.TIM_RepetitionCounter = 0;                        //重复计数器设置为0
     b2c:	00010623          	sb	zero,12(sp)
C:/Users/Kanesh's laptop/Desktop/19创新基地/沁恒/例程/Libraries/hefei_libraries/hf_tim.c:42
    TIM_TimeBaseInit((TIM_TypeDef *)TIMERN[TIMER_x], &TIM_TimeBaseStructure);//根据指定的参数初始化TIMx的时间基数单位
     b30:	2199                	jal	f76 <TIM_TimeBaseInit>
C:/Users/Kanesh's laptop/Desktop/19创新基地/沁恒/例程/Libraries/hefei_libraries/hf_tim.c:43
}
     b32:	40f2                	lw	ra,28(sp)
     b34:	4462                	lw	s0,24(sp)
     b36:	44d2                	lw	s1,20(sp)
     b38:	4942                	lw	s2,16(sp)
     b3a:	6105                	addi	sp,sp,32
     b3c:	8082                	ret
C:/Users/Kanesh's laptop/Desktop/19创新基地/沁恒/例程/Libraries/hefei_libraries/hf_tim.c:29
    else if(TIMER_2 == TIMER_x)
     b3e:	4785                	li	a5,1
     b40:	00f51563          	bne	a0,a5,b4a <timbase_init+0x58>
C:/Users/Kanesh's laptop/Desktop/19创新基地/沁恒/例程/Libraries/hefei_libraries/hf_tim.c:32
        RCC_APB1PeriphClockCmd(RCC_APB1Periph_TIM3, ENABLE);                //时钟使能
     b44:	4585                	li	a1,1
C:/Users/Kanesh's laptop/Desktop/19创新基地/沁恒/例程/Libraries/hefei_libraries/hf_tim.c:34
        RCC_APB1PeriphClockCmd(RCC_APB1Periph_TIM4, ENABLE);                //时钟使能
     b46:	2909                	jal	f58 <RCC_APB1PeriphClockCmd>
     b48:	b7d9                	j	b0e <timbase_init+0x1c>
C:/Users/Kanesh's laptop/Desktop/19创新基地/沁恒/例程/Libraries/hefei_libraries/hf_tim.c:31
    else if(TIMER_3 == TIMER_x)
     b4a:	4789                	li	a5,2
     b4c:	fef50ce3          	beq	a0,a5,b44 <timbase_init+0x52>
C:/Users/Kanesh's laptop/Desktop/19创新基地/沁恒/例程/Libraries/hefei_libraries/hf_tim.c:33
    else if(TIMER_4 == TIMER_x)
     b50:	478d                	li	a5,3
     b52:	faf51ee3          	bne	a0,a5,b0e <timbase_init+0x1c>
C:/Users/Kanesh's laptop/Desktop/19创新基地/沁恒/例程/Libraries/hefei_libraries/hf_tim.c:34
        RCC_APB1PeriphClockCmd(RCC_APB1Periph_TIM4, ENABLE);                //时钟使能
     b56:	4585                	li	a1,1
     b58:	4511                	li	a0,4
     b5a:	b7f5                	j	b46 <timbase_init+0x54>

00000b5c <uart_gpio_init>:
uart_gpio_init():
C:/Users/Kanesh's laptop/Desktop/19创新基地/沁恒/例程/Libraries/hefei_libraries/hf_uart.c:164
//  @param      rx_pin      串口接收引脚号
//  @return     void
//  Sample usage:           内部使用，用户无需关心
//-------------------------------------------------------------------------------------------------------------------
void uart_gpio_init(UARTPIN_enum tx_pin, UARTPIN_enum rx_pin)
{
     b5c:	1141                	addi	sp,sp,-16
     b5e:	c606                	sw	ra,12(sp)
C:/Users/Kanesh's laptop/Desktop/19创新基地/沁恒/例程/Libraries/hefei_libraries/hf_uart.c:165
    if(tx_pin == UART1_TX_A9 && rx_pin == UART1_RX_A10)
     b60:	e105                	bnez	a0,b80 <uart_gpio_init+0x24>
C:/Users/Kanesh's laptop/Desktop/19创新基地/沁恒/例程/Libraries/hefei_libraries/hf_uart.c:165 (discriminator 1)
     b62:	4785                	li	a5,1
     b64:	08f59e63          	bne	a1,a5,c00 <uart_gpio_init+0xa4>
C:/Users/Kanesh's laptop/Desktop/19创新基地/沁恒/例程/Libraries/hefei_libraries/hf_uart.c:167
    {
        gpio_init(A9, GPO, 0, SPEED_50MHZ|OUT_AF_PP);
     b68:	31800693          	li	a3,792
     b6c:	4601                	li	a2,0
     b6e:	4525                	li	a0,9
     b70:	3c59                	jal	606 <gpio_init>
C:/Users/Kanesh's laptop/Desktop/19创新基地/沁恒/例程/Libraries/hefei_libraries/hf_uart.c:168
        gpio_init(A10, GPI, 0, IN_FLOAT);
     b72:	4691                	li	a3,4
     b74:	4601                	li	a2,0
     b76:	4581                	li	a1,0
     b78:	4529                	li	a0,10
C:/Users/Kanesh's laptop/Desktop/19创新基地/沁恒/例程/Libraries/hefei_libraries/hf_uart.c:193
    else if(tx_pin == UART3_TX_C10)
    {
        gpio_init(C10, GPO, 0, SPEED_50MHZ|OUT_PP);
        gpio_init(C11, GPI, 0, IN_FLOAT);
    }
}
     b7a:	40b2                	lw	ra,12(sp)
     b7c:	0141                	addi	sp,sp,16
C:/Users/Kanesh's laptop/Desktop/19创新基地/沁恒/例程/Libraries/hefei_libraries/hf_uart.c:191
        gpio_init(C11, GPI, 0, IN_FLOAT);
     b7e:	b461                	j	606 <gpio_init>
C:/Users/Kanesh's laptop/Desktop/19创新基地/沁恒/例程/Libraries/hefei_libraries/hf_uart.c:170
    else if(tx_pin == UART1_TX_B6)
     b80:	4789                	li	a5,2
     b82:	00f51f63          	bne	a0,a5,ba0 <uart_gpio_init+0x44>
C:/Users/Kanesh's laptop/Desktop/19创新基地/沁恒/例程/Libraries/hefei_libraries/hf_uart.c:172
        gpio_init(B6, GPO, 0, SPEED_50MHZ|OUT_AF_PP);
     b86:	31800693          	li	a3,792
     b8a:	4601                	li	a2,0
     b8c:	4585                	li	a1,1
     b8e:	02600513          	li	a0,38
     b92:	3c95                	jal	606 <gpio_init>
C:/Users/Kanesh's laptop/Desktop/19创新基地/沁恒/例程/Libraries/hefei_libraries/hf_uart.c:173
        gpio_init(B7, GPI, 0, IN_FLOAT);
     b94:	4691                	li	a3,4
     b96:	4601                	li	a2,0
     b98:	4581                	li	a1,0
     b9a:	02700513          	li	a0,39
     b9e:	bff1                	j	b7a <uart_gpio_init+0x1e>
C:/Users/Kanesh's laptop/Desktop/19创新基地/沁恒/例程/Libraries/hefei_libraries/hf_uart.c:176
    else if(tx_pin == UART2_TX_A2)
     ba0:	47c1                	li	a5,16
     ba2:	00f51d63          	bne	a0,a5,bbc <uart_gpio_init+0x60>
C:/Users/Kanesh's laptop/Desktop/19创新基地/沁恒/例程/Libraries/hefei_libraries/hf_uart.c:178
        gpio_init(A2, GPO, 0, SPEED_50MHZ|OUT_AF_PP);
     ba6:	31800693          	li	a3,792
     baa:	4601                	li	a2,0
     bac:	4585                	li	a1,1
     bae:	4509                	li	a0,2
     bb0:	3c99                	jal	606 <gpio_init>
C:/Users/Kanesh's laptop/Desktop/19创新基地/沁恒/例程/Libraries/hefei_libraries/hf_uart.c:179
        gpio_init(A3, GPI, 0, IN_FLOAT);
     bb2:	4691                	li	a3,4
     bb4:	4601                	li	a2,0
     bb6:	4581                	li	a1,0
     bb8:	450d                	li	a0,3
     bba:	b7c1                	j	b7a <uart_gpio_init+0x1e>
C:/Users/Kanesh's laptop/Desktop/19创新基地/沁恒/例程/Libraries/hefei_libraries/hf_uart.c:182
    else if(tx_pin == UART3_TX_B10)
     bbc:	02000793          	li	a5,32
     bc0:	00f51f63          	bne	a0,a5,bde <uart_gpio_init+0x82>
C:/Users/Kanesh's laptop/Desktop/19创新基地/沁恒/例程/Libraries/hefei_libraries/hf_uart.c:184
        gpio_init(B10, GPO, 0, SPEED_50MHZ|OUT_AF_PP);
     bc4:	31800693          	li	a3,792
     bc8:	4601                	li	a2,0
     bca:	4585                	li	a1,1
     bcc:	02a00513          	li	a0,42
     bd0:	3c1d                	jal	606 <gpio_init>
C:/Users/Kanesh's laptop/Desktop/19创新基地/沁恒/例程/Libraries/hefei_libraries/hf_uart.c:185
        gpio_init(B11, GPI, 0, IN_FLOAT);
     bd2:	4691                	li	a3,4
     bd4:	4601                	li	a2,0
     bd6:	4581                	li	a1,0
     bd8:	02b00513          	li	a0,43
     bdc:	bf79                	j	b7a <uart_gpio_init+0x1e>
C:/Users/Kanesh's laptop/Desktop/19创新基地/沁恒/例程/Libraries/hefei_libraries/hf_uart.c:188
    else if(tx_pin == UART3_TX_C10)
     bde:	02200793          	li	a5,34
     be2:	00f51f63          	bne	a0,a5,c00 <uart_gpio_init+0xa4>
C:/Users/Kanesh's laptop/Desktop/19创新基地/沁恒/例程/Libraries/hefei_libraries/hf_uart.c:190
        gpio_init(C10, GPO, 0, SPEED_50MHZ|OUT_PP);
     be6:	31000693          	li	a3,784
     bea:	4601                	li	a2,0
     bec:	4585                	li	a1,1
     bee:	04a00513          	li	a0,74
     bf2:	3c11                	jal	606 <gpio_init>
C:/Users/Kanesh's laptop/Desktop/19创新基地/沁恒/例程/Libraries/hefei_libraries/hf_uart.c:191
        gpio_init(C11, GPI, 0, IN_FLOAT);
     bf4:	4691                	li	a3,4
     bf6:	4601                	li	a2,0
     bf8:	4581                	li	a1,0
     bfa:	04b00513          	li	a0,75
     bfe:	bfb5                	j	b7a <uart_gpio_init+0x1e>
C:/Users/Kanesh's laptop/Desktop/19创新基地/沁恒/例程/Libraries/hefei_libraries/hf_uart.c:193
}
     c00:	40b2                	lw	ra,12(sp)
     c02:	0141                	addi	sp,sp,16
     c04:	8082                	ret

00000c06 <uart_init>:
uart_init():
C:/Users/Kanesh's laptop/Desktop/19创新基地/沁恒/例程/Libraries/hefei_libraries/hf_uart.c:25
{
     c06:	7179                	addi	sp,sp,-48
     c08:	d422                	sw	s0,40(sp)
     c0a:	d226                	sw	s1,36(sp)
     c0c:	d04a                	sw	s2,32(sp)
     c0e:	ce4e                	sw	s3,28(sp)
     c10:	d606                	sw	ra,44(sp)
     c12:	842a                	mv	s0,a0
     c14:	84ae                	mv	s1,a1
     c16:	8932                	mv	s2,a2
     c18:	89b6                	mv	s3,a3
C:/Users/Kanesh's laptop/Desktop/19创新基地/沁恒/例程/Libraries/hefei_libraries/hf_uart.c:29
    if(UART_1 == UART_x) RCC_APB2PeriphClockCmd(RCC_APB2Periph_USART1, ENABLE);
     c1a:	e131                	bnez	a0,c5e <uart_init+0x58>
C:/Users/Kanesh's laptop/Desktop/19创新基地/沁恒/例程/Libraries/hefei_libraries/hf_uart.c:29 (discriminator 1)
     c1c:	4585                	li	a1,1
     c1e:	6511                	lui	a0,0x4
     c20:	2e29                	jal	f3a <RCC_APB2PeriphClockCmd>
C:/Users/Kanesh's laptop/Desktop/19创新基地/沁恒/例程/Libraries/hefei_libraries/hf_uart.c:34
    uart_gpio_init(tx_pin, rx_pin);
     c22:	85ce                	mv	a1,s3
     c24:	854a                	mv	a0,s2
     c26:	3f1d                	jal	b5c <uart_gpio_init>
C:/Users/Kanesh's laptop/Desktop/19创新基地/沁恒/例程/Libraries/hefei_libraries/hf_uart.c:40
    USART_InitStructure.USART_Parity = USART_Parity_No;
     c28:	000c07b7          	lui	a5,0xc0
     c2c:	c43e                	sw	a5,8(sp)
C:/Users/Kanesh's laptop/Desktop/19创新基地/沁恒/例程/Libraries/hefei_libraries/hf_uart.c:45
    USART_Init((USART_TypeDef*)UARTN[UART_x], &USART_InitStructure);
     c2e:	6785                	lui	a5,0x1
     c30:	4bc78793          	addi	a5,a5,1212 # 14bc <UARTN>
     c34:	040a                	slli	s0,s0,0x2
     c36:	943e                	add	s0,s0,a5
     c38:	4000                	lw	s0,0(s0)
     c3a:	858a                	mv	a1,sp
C:/Users/Kanesh's laptop/Desktop/19创新基地/沁恒/例程/Libraries/hefei_libraries/hf_uart.c:37
    USART_InitStructure.USART_BaudRate = baud;
     c3c:	c026                	sw	s1,0(sp)
C:/Users/Kanesh's laptop/Desktop/19创新基地/沁恒/例程/Libraries/hefei_libraries/hf_uart.c:45
    USART_Init((USART_TypeDef*)UARTN[UART_x], &USART_InitStructure);
     c3e:	8522                	mv	a0,s0
C:/Users/Kanesh's laptop/Desktop/19创新基地/沁恒/例程/Libraries/hefei_libraries/hf_uart.c:38
    USART_InitStructure.USART_WordLength = USART_WordLength_8b;
     c40:	c202                	sw	zero,4(sp)
C:/Users/Kanesh's laptop/Desktop/19创新基地/沁恒/例程/Libraries/hefei_libraries/hf_uart.c:41
    USART_InitStructure.USART_HardwareFlowControl = USART_HardwareFlowControl_None;
     c42:	00011623          	sh	zero,12(sp)
C:/Users/Kanesh's laptop/Desktop/19创新基地/沁恒/例程/Libraries/hefei_libraries/hf_uart.c:45
    USART_Init((USART_TypeDef*)UARTN[UART_x], &USART_InitStructure);
     c46:	2719                	jal	134c <USART_Init>
C:/Users/Kanesh's laptop/Desktop/19创新基地/沁恒/例程/Libraries/hefei_libraries/hf_uart.c:46
    USART_Cmd((USART_TypeDef*)UARTN[UART_x], ENABLE);
     c48:	8522                	mv	a0,s0
     c4a:	4585                	li	a1,1
     c4c:	7d8000ef          	jal	ra,1424 <USART_Cmd>
C:/Users/Kanesh's laptop/Desktop/19创新基地/沁恒/例程/Libraries/hefei_libraries/hf_uart.c:48
}
     c50:	50b2                	lw	ra,44(sp)
     c52:	5422                	lw	s0,40(sp)
     c54:	5492                	lw	s1,36(sp)
     c56:	5902                	lw	s2,32(sp)
     c58:	49f2                	lw	s3,28(sp)
     c5a:	6145                	addi	sp,sp,48
     c5c:	8082                	ret
C:/Users/Kanesh's laptop/Desktop/19创新基地/沁恒/例程/Libraries/hefei_libraries/hf_uart.c:30
    else if(UART_2 == UART_x) RCC_APB1PeriphClockCmd(RCC_APB1Periph_USART2, ENABLE);
     c5e:	4785                	li	a5,1
     c60:	00f51763          	bne	a0,a5,c6e <uart_init+0x68>
C:/Users/Kanesh's laptop/Desktop/19创新基地/沁恒/例程/Libraries/hefei_libraries/hf_uart.c:30 (discriminator 1)
     c64:	4585                	li	a1,1
     c66:	00020537          	lui	a0,0x20
C:/Users/Kanesh's laptop/Desktop/19创新基地/沁恒/例程/Libraries/hefei_libraries/hf_uart.c:31 (discriminator 1)
    else if(UART_3 == UART_x) RCC_APB1PeriphClockCmd(RCC_APB1Periph_USART3, ENABLE);
     c6a:	24fd                	jal	f58 <RCC_APB1PeriphClockCmd>
     c6c:	bf5d                	j	c22 <uart_init+0x1c>
C:/Users/Kanesh's laptop/Desktop/19创新基地/沁恒/例程/Libraries/hefei_libraries/hf_uart.c:31
     c6e:	4789                	li	a5,2
     c70:	faf519e3          	bne	a0,a5,c22 <uart_init+0x1c>
C:/Users/Kanesh's laptop/Desktop/19创新基地/沁恒/例程/Libraries/hefei_libraries/hf_uart.c:31 (discriminator 1)
     c74:	4585                	li	a1,1
     c76:	00040537          	lui	a0,0x40
     c7a:	bfc5                	j	c6a <uart_init+0x64>

00000c7c <car_init>:
car_init():
C:/Users/Kanesh's laptop/Desktop/19创新基地/沁恒/V103_Car_Demo/0_Template/CODE/car_init.c:20
// Sample usage:        car_init(); 
                        //智能车初始化
//-------------------------------------------------------------------------------------------------------------------

void car_init()
{
     c7c:	1141                	addi	sp,sp,-16
     c7e:	c606                	sw	ra,12(sp)
C:/Users/Kanesh's laptop/Desktop/19创新基地/沁恒/V103_Car_Demo/0_Template/CODE/car_init.c:21
    DisableGlobalIRQ();                                         //默认关所有中断
     c80:	3c95                	jal	6f4 <DisableGlobalIRQ>
C:/Users/Kanesh's laptop/Desktop/19创新基地/沁恒/V103_Car_Demo/0_Template/CODE/car_init.c:22
    uart_init(UART_1, 115200U, UART1_TX_A9, UART1_RX_A10);      //配置TYPE-C串行通信接口，用于printf打印数据
     c82:	65f1                	lui	a1,0x1c
     c84:	4685                	li	a3,1
     c86:	4601                	li	a2,0
     c88:	20058593          	addi	a1,a1,512 # 1c200 <_data_lma+0x1ad34>
     c8c:	4501                	li	a0,0
     c8e:	3fa5                	jal	c06 <uart_init>
C:/Users/Kanesh's laptop/Desktop/19创新基地/沁恒/V103_Car_Demo/0_Template/CODE/car_init.c:23
    board_init();                                               //务必保留，本函数用于初始化MPU,时钟/调试串口
     c90:	fe2ff0ef          	jal	ra,472 <board_init>
C:/Users/Kanesh's laptop/Desktop/19创新基地/沁恒/V103_Car_Demo/0_Template/CODE/car_init.c:24
    Delay_Init();
     c94:	919ff0ef          	jal	ra,5ac <Delay_Init>
C:/Users/Kanesh's laptop/Desktop/19创新基地/沁恒/V103_Car_Demo/0_Template/CODE/car_init.c:25
    l9110s_init(left);
     c98:	4501                	li	a0,0
     c9a:	ec0ff0ef          	jal	ra,35a <l9110s_init>
C:/Users/Kanesh's laptop/Desktop/19创新基地/沁恒/V103_Car_Demo/0_Template/CODE/car_init.c:26
    l9110s_init(right);
     c9e:	4505                	li	a0,1
     ca0:	ebaff0ef          	jal	ra,35a <l9110s_init>
C:/Users/Kanesh's laptop/Desktop/19创新基地/沁恒/V103_Car_Demo/0_Template/CODE/car_init.c:28

    ws2812b_init();
     ca4:	f04ff0ef          	jal	ra,3a8 <ws2812b_init>
C:/Users/Kanesh's laptop/Desktop/19创新基地/沁恒/V103_Car_Demo/0_Template/CODE/car_init.c:29
    car_both_rgb_off();
     ca8:	2809                	jal	cba <car_both_rgb_off>
C:/Users/Kanesh's laptop/Desktop/19创新基地/沁恒/V103_Car_Demo/0_Template/CODE/car_init.c:30
    Delay_Ms(1);
     caa:	4505                	li	a0,1
     cac:	92bff0ef          	jal	ra,5d6 <Delay_Ms>
C:/Users/Kanesh's laptop/Desktop/19创新基地/沁恒/V103_Car_Demo/0_Template/CODE/car_init.c:31
    car_both_rgb_off();
     cb0:	2029                	jal	cba <car_both_rgb_off>
C:/Users/Kanesh's laptop/Desktop/19创新基地/沁恒/V103_Car_Demo/0_Template/CODE/car_init.c:36


    /* 总中断最后开启 */
    EnableGlobalIRQ(0);
}	
     cb2:	40b2                	lw	ra,12(sp)
C:/Users/Kanesh's laptop/Desktop/19创新基地/沁恒/V103_Car_Demo/0_Template/CODE/car_init.c:35
    EnableGlobalIRQ(0);
     cb4:	4501                	li	a0,0
C:/Users/Kanesh's laptop/Desktop/19创新基地/沁恒/V103_Car_Demo/0_Template/CODE/car_init.c:36
}	
     cb6:	0141                	addi	sp,sp,16
C:/Users/Kanesh's laptop/Desktop/19创新基地/沁恒/V103_Car_Demo/0_Template/CODE/car_init.c:35
    EnableGlobalIRQ(0);
     cb8:	bcad                	j	732 <EnableGlobalIRQ>

00000cba <car_both_rgb_off>:
car_both_rgb_off():
C:/Users/Kanesh's laptop/Desktop/19创新基地/沁恒/V103_Car_Demo/0_Template/CODE/car_light.c:77
// @param        void
// @return       void
// Sample usage:        car_both_rgb_off();//尾灯熄灭
//-------------------------------------------------------------------------------------------------------------------
void car_both_rgb_off()
{
     cba:	1141                	addi	sp,sp,-16
     cbc:	c422                	sw	s0,8(sp)
C:/Users/Kanesh's laptop/Desktop/19创新基地/沁恒/V103_Car_Demo/0_Template/CODE/car_light.c:78
    ws2812b_write(rgb_off);
     cbe:	81018513          	addi	a0,gp,-2032 # 20000020 <rgb_off>
C:/Users/Kanesh's laptop/Desktop/19创新基地/沁恒/V103_Car_Demo/0_Template/CODE/car_light.c:77
{
     cc2:	c606                	sw	ra,12(sp)
C:/Users/Kanesh's laptop/Desktop/19创新基地/沁恒/V103_Car_Demo/0_Template/CODE/car_light.c:78
    ws2812b_write(rgb_off);
     cc4:	f08ff0ef          	jal	ra,3cc <ws2812b_write>
C:/Users/Kanesh's laptop/Desktop/19创新基地/沁恒/V103_Car_Demo/0_Template/CODE/car_light.c:79
    ws2812b_write(rgb_off);
     cc8:	81018513          	addi	a0,gp,-2032 # 20000020 <rgb_off>
     ccc:	f00ff0ef          	jal	ra,3cc <ws2812b_write>
C:/Users/Kanesh's laptop/Desktop/19创新基地/沁恒/V103_Car_Demo/0_Template/CODE/car_light.c:81
    Delay_Ms(50);
}
     cd0:	4422                	lw	s0,8(sp)
     cd2:	40b2                	lw	ra,12(sp)
C:/Users/Kanesh's laptop/Desktop/19创新基地/沁恒/V103_Car_Demo/0_Template/CODE/car_light.c:80
    Delay_Ms(50);
     cd4:	03200513          	li	a0,50
C:/Users/Kanesh's laptop/Desktop/19创新基地/沁恒/V103_Car_Demo/0_Template/CODE/car_light.c:81
}
     cd8:	0141                	addi	sp,sp,16
C:/Users/Kanesh's laptop/Desktop/19创新基地/沁恒/V103_Car_Demo/0_Template/CODE/car_light.c:80
    Delay_Ms(50);
     cda:	8fdff06f          	j	5d6 <Delay_Ms>

00000cde <handle_reset>:
handle_reset():
C:/Users/Kanesh's laptop/Desktop/19创新基地/沁恒/例程/Libraries/Device/CH32V10x_p/Startup/startup_ch32v10x.S:147
	.weak	handle_reset
	.align	1
handle_reset:
.option push 
.option	norelax 
	la gp, __global_pointer$
     cde:	20000197          	auipc	gp,0x20000
     ce2:	b3218193          	addi	gp,gp,-1230 # 20000810 <__global_pointer$>
C:/Users/Kanesh's laptop/Desktop/19创新基地/沁恒/例程/Libraries/Device/CH32V10x_p/Startup/startup_ch32v10x.S:150
.option	pop 
1:
	la sp, _eusrstack 
     ce6:	20004117          	auipc	sp,0x20004
     cea:	31a10113          	addi	sp,sp,794 # 20005000 <_eusrstack>
C:/Users/Kanesh's laptop/Desktop/19创新基地/沁恒/例程/Libraries/Device/CH32V10x_p/Startup/startup_ch32v10x.S:153
2:
	/* Load data section from flash to RAM */
	la a0, _data_lma
     cee:	00000517          	auipc	a0,0x0
     cf2:	7de50513          	addi	a0,a0,2014 # 14cc <_data_lma>
C:/Users/Kanesh's laptop/Desktop/19创新基地/沁恒/例程/Libraries/Device/CH32V10x_p/Startup/startup_ch32v10x.S:154
	la a1, _data_vma
     cf6:	1ffff597          	auipc	a1,0x1ffff
     cfa:	30a58593          	addi	a1,a1,778 # 20000000 <_data_vma>
C:/Users/Kanesh's laptop/Desktop/19创新基地/沁恒/例程/Libraries/Device/CH32V10x_p/Startup/startup_ch32v10x.S:155
	la a2, _edata
     cfe:	80818613          	addi	a2,gp,-2040 # 20000018 <_edata>
C:/Users/Kanesh's laptop/Desktop/19创新基地/沁恒/例程/Libraries/Device/CH32V10x_p/Startup/startup_ch32v10x.S:156
	bgeu a1, a2, 2f
     d02:	00c5fa63          	bgeu	a1,a2,d16 <handle_reset+0x38>
C:/Users/Kanesh's laptop/Desktop/19创新基地/沁恒/例程/Libraries/Device/CH32V10x_p/Startup/startup_ch32v10x.S:158
1:
	lw t0, (a0)
     d06:	00052283          	lw	t0,0(a0)
C:/Users/Kanesh's laptop/Desktop/19创新基地/沁恒/例程/Libraries/Device/CH32V10x_p/Startup/startup_ch32v10x.S:159
	sw t0, (a1)
     d0a:	0055a023          	sw	t0,0(a1)
C:/Users/Kanesh's laptop/Desktop/19创新基地/沁恒/例程/Libraries/Device/CH32V10x_p/Startup/startup_ch32v10x.S:160
	addi a0, a0, 4
     d0e:	0511                	addi	a0,a0,4
C:/Users/Kanesh's laptop/Desktop/19创新基地/沁恒/例程/Libraries/Device/CH32V10x_p/Startup/startup_ch32v10x.S:161
	addi a1, a1, 4
     d10:	0591                	addi	a1,a1,4
C:/Users/Kanesh's laptop/Desktop/19创新基地/沁恒/例程/Libraries/Device/CH32V10x_p/Startup/startup_ch32v10x.S:162
	bltu a1, a2, 1b
     d12:	fec5eae3          	bltu	a1,a2,d06 <handle_reset+0x28>
C:/Users/Kanesh's laptop/Desktop/19创新基地/沁恒/例程/Libraries/Device/CH32V10x_p/Startup/startup_ch32v10x.S:165
2:
	/* clear bss section */
	la a0, _sbss
     d16:	80818513          	addi	a0,gp,-2040 # 20000018 <_edata>
C:/Users/Kanesh's laptop/Desktop/19创新基地/沁恒/例程/Libraries/Device/CH32V10x_p/Startup/startup_ch32v10x.S:166
	la a1, _ebss
     d1a:	82018593          	addi	a1,gp,-2016 # 20000030 <_ebss>
C:/Users/Kanesh's laptop/Desktop/19创新基地/沁恒/例程/Libraries/Device/CH32V10x_p/Startup/startup_ch32v10x.S:167
	bgeu a0, a1, 2f
     d1e:	00b57763          	bgeu	a0,a1,d2c <handle_reset+0x4e>
C:/Users/Kanesh's laptop/Desktop/19创新基地/沁恒/例程/Libraries/Device/CH32V10x_p/Startup/startup_ch32v10x.S:169
1:
	sw zero, (a0)
     d22:	00052023          	sw	zero,0(a0)
C:/Users/Kanesh's laptop/Desktop/19创新基地/沁恒/例程/Libraries/Device/CH32V10x_p/Startup/startup_ch32v10x.S:170
	addi a0, a0, 4
     d26:	0511                	addi	a0,a0,4
C:/Users/Kanesh's laptop/Desktop/19创新基地/沁恒/例程/Libraries/Device/CH32V10x_p/Startup/startup_ch32v10x.S:171
	bltu a0, a1, 1b
     d28:	feb56de3          	bltu	a0,a1,d22 <handle_reset+0x44>
C:/Users/Kanesh's laptop/Desktop/19创新基地/沁恒/例程/Libraries/Device/CH32V10x_p/Startup/startup_ch32v10x.S:174
2:
	/* enable all interrupt */
  li t0, 0x88
     d2c:	08800293          	li	t0,136
C:/Users/Kanesh's laptop/Desktop/19创新基地/沁恒/例程/Libraries/Device/CH32V10x_p/Startup/startup_ch32v10x.S:175
  csrs mstatus, t0
     d30:	3002a073          	csrs	mstatus,t0
C:/Users/Kanesh's laptop/Desktop/19创新基地/沁恒/例程/Libraries/Device/CH32V10x_p/Startup/startup_ch32v10x.S:176
	la t0, _vector_base
     d34:	fffff297          	auipc	t0,0xfffff
     d38:	30428293          	addi	t0,t0,772 # 38 <_einit>
C:/Users/Kanesh's laptop/Desktop/19创新基地/沁恒/例程/Libraries/Device/CH32V10x_p/Startup/startup_ch32v10x.S:177
  ori t0, t0, 1
     d3c:	0012e293          	ori	t0,t0,1
C:/Users/Kanesh's laptop/Desktop/19创新基地/沁恒/例程/Libraries/Device/CH32V10x_p/Startup/startup_ch32v10x.S:178
	csrw mtvec, t0
     d40:	30529073          	csrw	mtvec,t0
C:/Users/Kanesh's laptop/Desktop/19创新基地/沁恒/例程/Libraries/Device/CH32V10x_p/Startup/startup_ch32v10x.S:180

  jal  SystemInit
     d44:	f66ff0ef          	jal	ra,4aa <SystemInit>
C:/Users/Kanesh's laptop/Desktop/19创新基地/沁恒/例程/Libraries/Device/CH32V10x_p/Startup/startup_ch32v10x.S:181
	la t0, main
     d48:	fffff297          	auipc	t0,0xfffff
     d4c:	60828293          	addi	t0,t0,1544 # 350 <main>
C:/Users/Kanesh's laptop/Desktop/19创新基地/沁恒/例程/Libraries/Device/CH32V10x_p/Startup/startup_ch32v10x.S:182
	csrw mepc, t0
     d50:	34129073          	csrw	mepc,t0
C:/Users/Kanesh's laptop/Desktop/19创新基地/沁恒/例程/Libraries/Device/CH32V10x_p/Startup/startup_ch32v10x.S:183
	mret
     d54:	30200073          	mret

00000d58 <DMA_GetFlagStatus>:
DMA_GetFlagStatus():
C:/Users/Kanesh's laptop/Desktop/19创新基地/沁恒/例程/Libraries/Device/CH32V10x_p/CH32V10x_Lib/ch32v10x_dma.c:294
FlagStatus DMA_GetFlagStatus(uint32_t DMAy_FLAG)
{
  FlagStatus bitstatus = RESET;
  uint32_t tmpreg = 0;
  
  if ((DMAy_FLAG & FLAG_Mask) != (uint32_t)RESET)
     d58:	00351793          	slli	a5,a0,0x3
     d5c:	0007da63          	bgez	a5,d70 <DMA_GetFlagStatus+0x18>
C:/Users/Kanesh's laptop/Desktop/19创新基地/沁恒/例程/Libraries/Device/CH32V10x_p/CH32V10x_Lib/ch32v10x_dma.c:296
  {
    tmpreg = DMA2->INTFR ;
     d60:	400207b7          	lui	a5,0x40020
     d64:	4007a783          	lw	a5,1024(a5) # 40020400 <_eusrstack+0x2001b400>
C:/Users/Kanesh's laptop/Desktop/19创新基地/沁恒/例程/Libraries/Device/CH32V10x_p/CH32V10x_Lib/ch32v10x_dma.c:303
  else
  {
    tmpreg = DMA1->INTFR ;
  }

  if ((tmpreg & DMAy_FLAG) != (uint32_t)RESET)
     d68:	8d7d                	and	a0,a0,a5
C:/Users/Kanesh's laptop/Desktop/19创新基地/沁恒/例程/Libraries/Device/CH32V10x_p/CH32V10x_Lib/ch32v10x_dma.c:313
  {
    bitstatus = RESET;
  }
  
  return  bitstatus;
}
     d6a:	00a03533          	snez	a0,a0
     d6e:	8082                	ret
C:/Users/Kanesh's laptop/Desktop/19创新基地/沁恒/例程/Libraries/Device/CH32V10x_p/CH32V10x_Lib/ch32v10x_dma.c:300
    tmpreg = DMA1->INTFR ;
     d70:	400207b7          	lui	a5,0x40020
     d74:	439c                	lw	a5,0(a5)
     d76:	bfcd                	j	d68 <DMA_GetFlagStatus+0x10>

00000d78 <DMA_ClearFlag>:
DMA_ClearFlag():
C:/Users/Kanesh's laptop/Desktop/19创新基地/沁恒/例程/Libraries/Device/CH32V10x_p/CH32V10x_Lib/ch32v10x_dma.c:372
*                      DMA2_FLAG_TE5: DMA2 Channel5 transfer error flag.
* Return         : None 
*********************************************************************************/
void DMA_ClearFlag(uint32_t DMAy_FLAG)
{
  if ((DMAy_FLAG & FLAG_Mask) != (uint32_t)RESET)
     d78:	00351793          	slli	a5,a0,0x3
     d7c:	0007d763          	bgez	a5,d8a <DMA_ClearFlag+0x12>
C:/Users/Kanesh's laptop/Desktop/19创新基地/沁恒/例程/Libraries/Device/CH32V10x_p/CH32V10x_Lib/ch32v10x_dma.c:374
  {
    DMA2->INTFCR = DMAy_FLAG;
     d80:	400207b7          	lui	a5,0x40020
     d84:	40a7a223          	sw	a0,1028(a5) # 40020404 <_eusrstack+0x2001b404>
     d88:	8082                	ret
C:/Users/Kanesh's laptop/Desktop/19创新基地/沁恒/例程/Libraries/Device/CH32V10x_p/CH32V10x_Lib/ch32v10x_dma.c:378
  }
  else
  {
    DMA1->INTFCR = DMAy_FLAG;
     d8a:	400207b7          	lui	a5,0x40020
     d8e:	c3c8                	sw	a0,4(a5)
C:/Users/Kanesh's laptop/Desktop/19创新基地/沁恒/例程/Libraries/Device/CH32V10x_p/CH32V10x_Lib/ch32v10x_dma.c:380
  }
}
     d90:	8082                	ret

00000d92 <EXTI_GetITStatus>:
EXTI_GetITStatus():
C:/Users/Kanesh's laptop/Desktop/19创新基地/沁恒/例程/Libraries/Device/CH32V10x_p/CH32V10x_Lib/ch32v10x_exti.c:135
ITStatus EXTI_GetITStatus(uint32_t EXTI_Line)
{
  ITStatus bitstatus = RESET;
  uint32_t enablestatus = 0;
  
  enablestatus =  EXTI->INTENR & EXTI_Line;
     d92:	400107b7          	lui	a5,0x40010
     d96:	40078713          	addi	a4,a5,1024 # 40010400 <_eusrstack+0x2000b400>
     d9a:	4007a783          	lw	a5,1024(a5)
C:/Users/Kanesh's laptop/Desktop/19创新基地/沁恒/例程/Libraries/Device/CH32V10x_p/CH32V10x_Lib/ch32v10x_exti.c:136
  if (((EXTI->INTFR & EXTI_Line) != (uint32_t)RESET) && (enablestatus != (uint32_t)RESET))
     d9e:	4b58                	lw	a4,20(a4)
     da0:	8f69                	and	a4,a4,a0
     da2:	c709                	beqz	a4,dac <EXTI_GetITStatus+0x1a>
C:/Users/Kanesh's laptop/Desktop/19创新基地/沁恒/例程/Libraries/Device/CH32V10x_p/CH32V10x_Lib/ch32v10x_exti.c:135 (discriminator 1)
  enablestatus =  EXTI->INTENR & EXTI_Line;
     da4:	8d7d                	and	a0,a0,a5
C:/Users/Kanesh's laptop/Desktop/19创新基地/沁恒/例程/Libraries/Device/CH32V10x_p/CH32V10x_Lib/ch32v10x_exti.c:136 (discriminator 1)
  if (((EXTI->INTFR & EXTI_Line) != (uint32_t)RESET) && (enablestatus != (uint32_t)RESET))
     da6:	00a03533          	snez	a0,a0
     daa:	8082                	ret
C:/Users/Kanesh's laptop/Desktop/19创新基地/沁恒/例程/Libraries/Device/CH32V10x_p/CH32V10x_Lib/ch32v10x_exti.c:142
  {
    bitstatus = SET;
  }
  else
  {
    bitstatus = RESET;
     dac:	4501                	li	a0,0
C:/Users/Kanesh's laptop/Desktop/19创新基地/沁恒/例程/Libraries/Device/CH32V10x_p/CH32V10x_Lib/ch32v10x_exti.c:145
  }
  return bitstatus;
}
     dae:	8082                	ret

00000db0 <EXTI_ClearITPendingBit>:
EXTI_ClearITPendingBit():
     db0:	400107b7          	lui	a5,0x40010
     db4:	40a7aa23          	sw	a0,1044(a5) # 40010414 <_eusrstack+0x2000b414>
     db8:	8082                	ret

00000dba <GPIO_Init>:
GPIO_Init():
C:/Users/Kanesh's laptop/Desktop/19创新基地/沁恒/例程/Libraries/Device/CH32V10x_p/CH32V10x_Lib/ch32v10x_gpio.c:92
void GPIO_Init(GPIO_TypeDef* GPIOx, GPIO_InitTypeDef* GPIO_InitStruct)
{
  uint32_t currentmode = 0x00, currentpin = 0x00, pinpos = 0x00, pos = 0x00;
  uint32_t tmpreg = 0x00, pinmask = 0x00;

  currentmode = ((uint32_t)GPIO_InitStruct->GPIO_Mode) & ((uint32_t)0x0F);
     dba:	459c                	lw	a5,8(a1)
C:/Users/Kanesh's laptop/Desktop/19创新基地/沁恒/例程/Libraries/Device/CH32V10x_p/CH32V10x_Lib/ch32v10x_gpio.c:94
	
  if ((((uint32_t)GPIO_InitStruct->GPIO_Mode) & ((uint32_t)0x10)) != 0x00)
     dbc:	0107f713          	andi	a4,a5,16
C:/Users/Kanesh's laptop/Desktop/19创新基地/沁恒/例程/Libraries/Device/CH32V10x_p/CH32V10x_Lib/ch32v10x_gpio.c:92
  currentmode = ((uint32_t)GPIO_InitStruct->GPIO_Mode) & ((uint32_t)0x0F);
     dc0:	00f7f813          	andi	a6,a5,15
C:/Users/Kanesh's laptop/Desktop/19创新基地/沁恒/例程/Libraries/Device/CH32V10x_p/CH32V10x_Lib/ch32v10x_gpio.c:94
  if ((((uint32_t)GPIO_InitStruct->GPIO_Mode) & ((uint32_t)0x10)) != 0x00)
     dc4:	c701                	beqz	a4,dcc <GPIO_Init+0x12>
C:/Users/Kanesh's laptop/Desktop/19创新基地/沁恒/例程/Libraries/Device/CH32V10x_p/CH32V10x_Lib/ch32v10x_gpio.c:96
  { 
    currentmode |= (uint32_t)GPIO_InitStruct->GPIO_Speed;
     dc6:	41d8                	lw	a4,4(a1)
     dc8:	00e86833          	or	a6,a6,a4
C:/Users/Kanesh's laptop/Desktop/19创新基地/沁恒/例程/Libraries/Device/CH32V10x_p/CH32V10x_Lib/ch32v10x_gpio.c:99
  }

  if (((uint32_t)GPIO_InitStruct->GPIO_Pin & ((uint32_t)0x00FF)) != 0x00)
     dcc:	0005d583          	lhu	a1,0(a1)
     dd0:	0ff5f713          	andi	a4,a1,255
     dd4:	c339                	beqz	a4,e1a <GPIO_Init+0x60>
C:/Users/Kanesh's laptop/Desktop/19创新基地/沁恒/例程/Libraries/Device/CH32V10x_p/CH32V10x_Lib/ch32v10x_gpio.c:101
  {
    tmpreg = GPIOx->CFGLR;
     dd6:	4118                	lw	a4,0(a0)
C:/Users/Kanesh's laptop/Desktop/19创新基地/沁恒/例程/Libraries/Device/CH32V10x_p/CH32V10x_Lib/ch32v10x_gpio.c:103
		
    for (pinpos = 0x00; pinpos < 0x08; pinpos++)
     dd8:	4681                	li	a3,0
C:/Users/Kanesh's laptop/Desktop/19创新基地/沁恒/例程/Libraries/Device/CH32V10x_p/CH32V10x_Lib/ch32v10x_gpio.c:105
    {
      pos = ((uint32_t)0x01) << pinpos;
     dda:	4e85                	li	t4,1
C:/Users/Kanesh's laptop/Desktop/19创新基地/沁恒/例程/Libraries/Device/CH32V10x_p/CH32V10x_Lib/ch32v10x_gpio.c:111
      currentpin = (GPIO_InitStruct->GPIO_Pin) & pos;
			
      if (currentpin == pos)
      {
        pos = pinpos << 2;
        pinmask = ((uint32_t)0x0F) << pos;
     ddc:	4f3d                	li	t5,15
C:/Users/Kanesh's laptop/Desktop/19创新基地/沁恒/例程/Libraries/Device/CH32V10x_p/CH32V10x_Lib/ch32v10x_gpio.c:115
        tmpreg &= ~pinmask;
        tmpreg |= (currentmode << pos);

        if (GPIO_InitStruct->GPIO_Mode == GPIO_Mode_IPD)
     dde:	02800f93          	li	t6,40
C:/Users/Kanesh's laptop/Desktop/19创新基地/沁恒/例程/Libraries/Device/CH32V10x_p/CH32V10x_Lib/ch32v10x_gpio.c:121
        {
          GPIOx->BCR = (((uint32_t)0x01) << pinpos);
        }
        else
        {
          if (GPIO_InitStruct->GPIO_Mode == GPIO_Mode_IPU)
     de2:	04800293          	li	t0,72
C:/Users/Kanesh's laptop/Desktop/19创新基地/沁恒/例程/Libraries/Device/CH32V10x_p/CH32V10x_Lib/ch32v10x_gpio.c:103
    for (pinpos = 0x00; pinpos < 0x08; pinpos++)
     de6:	4e21                	li	t3,8
C:/Users/Kanesh's laptop/Desktop/19创新基地/沁恒/例程/Libraries/Device/CH32V10x_p/CH32V10x_Lib/ch32v10x_gpio.c:105
      pos = ((uint32_t)0x01) << pinpos;
     de8:	00de9633          	sll	a2,t4,a3
C:/Users/Kanesh's laptop/Desktop/19创新基地/沁恒/例程/Libraries/Device/CH32V10x_p/CH32V10x_Lib/ch32v10x_gpio.c:106
      currentpin = (GPIO_InitStruct->GPIO_Pin) & pos;
     dec:	00c5f8b3          	and	a7,a1,a2
C:/Users/Kanesh's laptop/Desktop/19创新基地/沁恒/例程/Libraries/Device/CH32V10x_p/CH32V10x_Lib/ch32v10x_gpio.c:108
      if (currentpin == pos)
     df0:	03161163          	bne	a2,a7,e12 <GPIO_Init+0x58>
C:/Users/Kanesh's laptop/Desktop/19创新基地/沁恒/例程/Libraries/Device/CH32V10x_p/CH32V10x_Lib/ch32v10x_gpio.c:110
        pos = pinpos << 2;
     df4:	00269893          	slli	a7,a3,0x2
C:/Users/Kanesh's laptop/Desktop/19创新基地/沁恒/例程/Libraries/Device/CH32V10x_p/CH32V10x_Lib/ch32v10x_gpio.c:111
        pinmask = ((uint32_t)0x0F) << pos;
     df8:	011f1333          	sll	t1,t5,a7
C:/Users/Kanesh's laptop/Desktop/19创新基地/沁恒/例程/Libraries/Device/CH32V10x_p/CH32V10x_Lib/ch32v10x_gpio.c:112
        tmpreg &= ~pinmask;
     dfc:	fff34313          	not	t1,t1
     e00:	00e37733          	and	a4,t1,a4
C:/Users/Kanesh's laptop/Desktop/19创新基地/沁恒/例程/Libraries/Device/CH32V10x_p/CH32V10x_Lib/ch32v10x_gpio.c:113
        tmpreg |= (currentmode << pos);
     e04:	011818b3          	sll	a7,a6,a7
     e08:	00e8e733          	or	a4,a7,a4
C:/Users/Kanesh's laptop/Desktop/19创新基地/沁恒/例程/Libraries/Device/CH32V10x_p/CH32V10x_Lib/ch32v10x_gpio.c:115
        if (GPIO_InitStruct->GPIO_Mode == GPIO_Mode_IPD)
     e0c:	05f79f63          	bne	a5,t6,e6a <GPIO_Init+0xb0>
C:/Users/Kanesh's laptop/Desktop/19创新基地/沁恒/例程/Libraries/Device/CH32V10x_p/CH32V10x_Lib/ch32v10x_gpio.c:117
          GPIOx->BCR = (((uint32_t)0x01) << pinpos);
     e10:	c950                	sw	a2,20(a0)
C:/Users/Kanesh's laptop/Desktop/19创新基地/沁恒/例程/Libraries/Device/CH32V10x_p/CH32V10x_Lib/ch32v10x_gpio.c:103 (discriminator 2)
    for (pinpos = 0x00; pinpos < 0x08; pinpos++)
     e12:	0685                	addi	a3,a3,1
     e14:	fdc69ae3          	bne	a3,t3,de8 <GPIO_Init+0x2e>
C:/Users/Kanesh's laptop/Desktop/19创新基地/沁恒/例程/Libraries/Device/CH32V10x_p/CH32V10x_Lib/ch32v10x_gpio.c:128
            GPIOx->BSHR = (((uint32_t)0x01) << pinpos);
          }
        }
      }
    }
    GPIOx->CFGLR = tmpreg;
     e18:	c118                	sw	a4,0(a0)
C:/Users/Kanesh's laptop/Desktop/19创新基地/沁恒/例程/Libraries/Device/CH32V10x_p/CH32V10x_Lib/ch32v10x_gpio.c:131
  }

  if (GPIO_InitStruct->GPIO_Pin > 0x00FF)
     e1a:	0ff00713          	li	a4,255
     e1e:	04b77563          	bgeu	a4,a1,e68 <GPIO_Init+0xae>
C:/Users/Kanesh's laptop/Desktop/19创新基地/沁恒/例程/Libraries/Device/CH32V10x_p/CH32V10x_Lib/ch32v10x_gpio.c:133
  {
    tmpreg = GPIOx->CFGHR;
     e22:	4154                	lw	a3,4(a0)
     e24:	4621                	li	a2,8
C:/Users/Kanesh's laptop/Desktop/19创新基地/沁恒/例程/Libraries/Device/CH32V10x_p/CH32V10x_Lib/ch32v10x_gpio.c:137
		
    for (pinpos = 0x00; pinpos < 0x08; pinpos++)
    {
      pos = (((uint32_t)0x01) << (pinpos + 0x08));
     e26:	4e85                	li	t4,1
C:/Users/Kanesh's laptop/Desktop/19创新基地/沁恒/例程/Libraries/Device/CH32V10x_p/CH32V10x_Lib/ch32v10x_gpio.c:143
      currentpin = ((GPIO_InitStruct->GPIO_Pin) & pos);
			
      if (currentpin == pos)
      {
        pos = pinpos << 2;
        pinmask = ((uint32_t)0x0F) << pos;
     e28:	4f3d                	li	t5,15
C:/Users/Kanesh's laptop/Desktop/19创新基地/沁恒/例程/Libraries/Device/CH32V10x_p/CH32V10x_Lib/ch32v10x_gpio.c:147
        tmpreg &= ~pinmask;
        tmpreg |= (currentmode << pos);

        if (GPIO_InitStruct->GPIO_Mode == GPIO_Mode_IPD)
     e2a:	02800f93          	li	t6,40
C:/Users/Kanesh's laptop/Desktop/19创新基地/沁恒/例程/Libraries/Device/CH32V10x_p/CH32V10x_Lib/ch32v10x_gpio.c:152
        {
          GPIOx->BCR = (((uint32_t)0x01) << (pinpos + 0x08));
        }

        if (GPIO_InitStruct->GPIO_Mode == GPIO_Mode_IPU)
     e2e:	04800293          	li	t0,72
C:/Users/Kanesh's laptop/Desktop/19创新基地/沁恒/例程/Libraries/Device/CH32V10x_p/CH32V10x_Lib/ch32v10x_gpio.c:135
    for (pinpos = 0x00; pinpos < 0x08; pinpos++)
     e32:	4e41                	li	t3,16
C:/Users/Kanesh's laptop/Desktop/19创新基地/沁恒/例程/Libraries/Device/CH32V10x_p/CH32V10x_Lib/ch32v10x_gpio.c:137
      pos = (((uint32_t)0x01) << (pinpos + 0x08));
     e34:	00ce98b3          	sll	a7,t4,a2
C:/Users/Kanesh's laptop/Desktop/19创新基地/沁恒/例程/Libraries/Device/CH32V10x_p/CH32V10x_Lib/ch32v10x_gpio.c:138
      currentpin = ((GPIO_InitStruct->GPIO_Pin) & pos);
     e38:	0115f733          	and	a4,a1,a7
C:/Users/Kanesh's laptop/Desktop/19创新基地/沁恒/例程/Libraries/Device/CH32V10x_p/CH32V10x_Lib/ch32v10x_gpio.c:140
      if (currentpin == pos)
     e3c:	02e89263          	bne	a7,a4,e60 <GPIO_Init+0xa6>
C:/Users/Kanesh's laptop/Desktop/19创新基地/沁恒/例程/Libraries/Device/CH32V10x_p/CH32V10x_Lib/ch32v10x_gpio.c:142
        pos = pinpos << 2;
     e40:	00261713          	slli	a4,a2,0x2
     e44:	1701                	addi	a4,a4,-32
C:/Users/Kanesh's laptop/Desktop/19创新基地/沁恒/例程/Libraries/Device/CH32V10x_p/CH32V10x_Lib/ch32v10x_gpio.c:143
        pinmask = ((uint32_t)0x0F) << pos;
     e46:	00ef1333          	sll	t1,t5,a4
C:/Users/Kanesh's laptop/Desktop/19创新基地/沁恒/例程/Libraries/Device/CH32V10x_p/CH32V10x_Lib/ch32v10x_gpio.c:144
        tmpreg &= ~pinmask;
     e4a:	fff34313          	not	t1,t1
     e4e:	00d376b3          	and	a3,t1,a3
C:/Users/Kanesh's laptop/Desktop/19创新基地/沁恒/例程/Libraries/Device/CH32V10x_p/CH32V10x_Lib/ch32v10x_gpio.c:145
        tmpreg |= (currentmode << pos);
     e52:	00e81733          	sll	a4,a6,a4
     e56:	8ed9                	or	a3,a3,a4
C:/Users/Kanesh's laptop/Desktop/19创新基地/沁恒/例程/Libraries/Device/CH32V10x_p/CH32V10x_Lib/ch32v10x_gpio.c:147
        if (GPIO_InitStruct->GPIO_Mode == GPIO_Mode_IPD)
     e58:	01f79d63          	bne	a5,t6,e72 <GPIO_Init+0xb8>
C:/Users/Kanesh's laptop/Desktop/19创新基地/沁恒/例程/Libraries/Device/CH32V10x_p/CH32V10x_Lib/ch32v10x_gpio.c:149
          GPIOx->BCR = (((uint32_t)0x01) << (pinpos + 0x08));
     e5c:	01152a23          	sw	a7,20(a0)
C:/Users/Kanesh's laptop/Desktop/19创新基地/沁恒/例程/Libraries/Device/CH32V10x_p/CH32V10x_Lib/ch32v10x_gpio.c:152
        if (GPIO_InitStruct->GPIO_Mode == GPIO_Mode_IPU)
     e60:	0605                	addi	a2,a2,1
C:/Users/Kanesh's laptop/Desktop/19创新基地/沁恒/例程/Libraries/Device/CH32V10x_p/CH32V10x_Lib/ch32v10x_gpio.c:135 (discriminator 2)
    for (pinpos = 0x00; pinpos < 0x08; pinpos++)
     e62:	fdc619e3          	bne	a2,t3,e34 <GPIO_Init+0x7a>
C:/Users/Kanesh's laptop/Desktop/19创新基地/沁恒/例程/Libraries/Device/CH32V10x_p/CH32V10x_Lib/ch32v10x_gpio.c:158
        {
          GPIOx->BSHR = (((uint32_t)0x01) << (pinpos + 0x08));
        }
      }
    }
    GPIOx->CFGHR = tmpreg;
     e66:	c154                	sw	a3,4(a0)
C:/Users/Kanesh's laptop/Desktop/19创新基地/沁恒/例程/Libraries/Device/CH32V10x_p/CH32V10x_Lib/ch32v10x_gpio.c:160
  }
}
     e68:	8082                	ret
C:/Users/Kanesh's laptop/Desktop/19创新基地/沁恒/例程/Libraries/Device/CH32V10x_p/CH32V10x_Lib/ch32v10x_gpio.c:121
          if (GPIO_InitStruct->GPIO_Mode == GPIO_Mode_IPU)
     e6a:	fa5794e3          	bne	a5,t0,e12 <GPIO_Init+0x58>
C:/Users/Kanesh's laptop/Desktop/19创新基地/沁恒/例程/Libraries/Device/CH32V10x_p/CH32V10x_Lib/ch32v10x_gpio.c:123
            GPIOx->BSHR = (((uint32_t)0x01) << pinpos);
     e6e:	c910                	sw	a2,16(a0)
     e70:	b74d                	j	e12 <GPIO_Init+0x58>
C:/Users/Kanesh's laptop/Desktop/19创新基地/沁恒/例程/Libraries/Device/CH32V10x_p/CH32V10x_Lib/ch32v10x_gpio.c:152
        if (GPIO_InitStruct->GPIO_Mode == GPIO_Mode_IPU)
     e72:	fe5797e3          	bne	a5,t0,e60 <GPIO_Init+0xa6>
C:/Users/Kanesh's laptop/Desktop/19创新基地/沁恒/例程/Libraries/Device/CH32V10x_p/CH32V10x_Lib/ch32v10x_gpio.c:154
          GPIOx->BSHR = (((uint32_t)0x01) << (pinpos + 0x08));
     e76:	01152823          	sw	a7,16(a0)
     e7a:	b7dd                	j	e60 <GPIO_Init+0xa6>

00000e7c <GPIO_WriteBit>:
GPIO_WriteBit():
C:/Users/Kanesh's laptop/Desktop/19创新基地/沁恒/例程/Libraries/Device/CH32V10x_p/CH32V10x_Lib/ch32v10x_gpio.c:283
*                    Bit_SetH: to set the port pin.                  
* Return         : None
*******************************************************************************/
void GPIO_WriteBit(GPIO_TypeDef* GPIOx, uint16_t GPIO_Pin, BitAction BitVal)
{
  if (BitVal != Bit_RESET)
     e7c:	c219                	beqz	a2,e82 <GPIO_WriteBit+0x6>
C:/Users/Kanesh's laptop/Desktop/19创新基地/沁恒/例程/Libraries/Device/CH32V10x_p/CH32V10x_Lib/ch32v10x_gpio.c:285
  {
    GPIOx->BSHR = GPIO_Pin;
     e7e:	c90c                	sw	a1,16(a0)
     e80:	8082                	ret
C:/Users/Kanesh's laptop/Desktop/19创新基地/沁恒/例程/Libraries/Device/CH32V10x_p/CH32V10x_Lib/ch32v10x_gpio.c:289
  }
  else
  {
    GPIOx->BCR = GPIO_Pin;
     e82:	c94c                	sw	a1,20(a0)
C:/Users/Kanesh's laptop/Desktop/19创新基地/沁恒/例程/Libraries/Device/CH32V10x_p/CH32V10x_Lib/ch32v10x_gpio.c:291
  }
}
     e84:	8082                	ret

00000e86 <RCC_GetClocksFreq>:
RCC_GetClocksFreq():
C:/Users/Kanesh's laptop/Desktop/19创新基地/沁恒/例程/Libraries/Device/CH32V10x_p/CH32V10x_Lib/ch32v10x_rcc.c:472
********************************************************************************/
void RCC_GetClocksFreq(RCC_ClocksTypeDef* RCC_Clocks)
{
  uint32_t tmp = 0, pllmull = 0, pllsource = 0, presc = 0;
  
  tmp = RCC->CFGR0 & CFGR0_SWS_Mask;
     e86:	40021737          	lui	a4,0x40021
     e8a:	435c                	lw	a5,4(a4)
     e8c:	4691                	li	a3,4
     e8e:	8bb1                	andi	a5,a5,12
C:/Users/Kanesh's laptop/Desktop/19创新基地/沁恒/例程/Libraries/Device/CH32V10x_p/CH32V10x_Lib/ch32v10x_rcc.c:474
  
  switch (tmp)
     e90:	00d78563          	beq	a5,a3,e9a <RCC_GetClocksFreq+0x14>
     e94:	46a1                	li	a3,8
     e96:	06d78863          	beq	a5,a3,f06 <RCC_GetClocksFreq+0x80>
C:/Users/Kanesh's laptop/Desktop/19创新基地/沁恒/例程/Libraries/Device/CH32V10x_p/CH32V10x_Lib/ch32v10x_rcc.c:477
  {
    case 0x00: 
      RCC_Clocks->SYSCLK_Frequency = HSI_VALUE;
     e9a:	007a17b7          	lui	a5,0x7a1
     e9e:	20078793          	addi	a5,a5,512 # 7a1200 <_data_lma+0x79fd34>
C:/Users/Kanesh's laptop/Desktop/19创新基地/沁恒/例程/Libraries/Device/CH32V10x_p/CH32V10x_Lib/ch32v10x_rcc.c:501
        {
          RCC_Clocks->SYSCLK_Frequency = (HSE_VALUE >> 1) * pllmull;
        }
        else
        {
          RCC_Clocks->SYSCLK_Frequency = HSE_VALUE * pllmull;
     ea2:	c11c                	sw	a5,0(a0)
C:/Users/Kanesh's laptop/Desktop/19创新基地/沁恒/例程/Libraries/Device/CH32V10x_p/CH32V10x_Lib/ch32v10x_rcc.c:511
    default:
      RCC_Clocks->SYSCLK_Frequency = HSI_VALUE;
      break;
  }

  tmp = RCC->CFGR0 & CFGR0_HPRE_Set_Mask;
     ea4:	40021637          	lui	a2,0x40021
     ea8:	425c                	lw	a5,4(a2)
C:/Users/Kanesh's laptop/Desktop/19创新基地/沁恒/例程/Libraries/Device/CH32V10x_p/CH32V10x_Lib/ch32v10x_rcc.c:513
  tmp = tmp >> 4;
  presc = APBAHBPrescTable[tmp];
     eaa:	20000737          	lui	a4,0x20000
     eae:	00070713          	mv	a4,a4
C:/Users/Kanesh's laptop/Desktop/19创新基地/沁恒/例程/Libraries/Device/CH32V10x_p/CH32V10x_Lib/ch32v10x_rcc.c:512
  tmp = tmp >> 4;
     eb2:	8391                	srli	a5,a5,0x4
     eb4:	8bbd                	andi	a5,a5,15
C:/Users/Kanesh's laptop/Desktop/19创新基地/沁恒/例程/Libraries/Device/CH32V10x_p/CH32V10x_Lib/ch32v10x_rcc.c:513
  presc = APBAHBPrescTable[tmp];
     eb6:	97ba                	add	a5,a5,a4
     eb8:	0007c683          	lbu	a3,0(a5)
C:/Users/Kanesh's laptop/Desktop/19创新基地/沁恒/例程/Libraries/Device/CH32V10x_p/CH32V10x_Lib/ch32v10x_rcc.c:514
  RCC_Clocks->HCLK_Frequency = RCC_Clocks->SYSCLK_Frequency >> presc;
     ebc:	411c                	lw	a5,0(a0)
     ebe:	00d7d7b3          	srl	a5,a5,a3
     ec2:	c15c                	sw	a5,4(a0)
C:/Users/Kanesh's laptop/Desktop/19创新基地/沁恒/例程/Libraries/Device/CH32V10x_p/CH32V10x_Lib/ch32v10x_rcc.c:515
  tmp = RCC->CFGR0 & CFGR0_PPRE1_Set_Mask;
     ec4:	4254                	lw	a3,4(a2)
C:/Users/Kanesh's laptop/Desktop/19创新基地/沁恒/例程/Libraries/Device/CH32V10x_p/CH32V10x_Lib/ch32v10x_rcc.c:516
  tmp = tmp >> 8;
     ec6:	82a1                	srli	a3,a3,0x8
     ec8:	8a9d                	andi	a3,a3,7
C:/Users/Kanesh's laptop/Desktop/19创新基地/沁恒/例程/Libraries/Device/CH32V10x_p/CH32V10x_Lib/ch32v10x_rcc.c:517
  presc = APBAHBPrescTable[tmp];
     eca:	96ba                	add	a3,a3,a4
     ecc:	0006c683          	lbu	a3,0(a3)
C:/Users/Kanesh's laptop/Desktop/19创新基地/沁恒/例程/Libraries/Device/CH32V10x_p/CH32V10x_Lib/ch32v10x_rcc.c:518
  RCC_Clocks->PCLK1_Frequency = RCC_Clocks->HCLK_Frequency >> presc;
     ed0:	00d7d6b3          	srl	a3,a5,a3
     ed4:	c514                	sw	a3,8(a0)
C:/Users/Kanesh's laptop/Desktop/19创新基地/沁恒/例程/Libraries/Device/CH32V10x_p/CH32V10x_Lib/ch32v10x_rcc.c:519
  tmp = RCC->CFGR0 & CFGR0_PPRE2_Set_Mask;
     ed6:	4254                	lw	a3,4(a2)
C:/Users/Kanesh's laptop/Desktop/19创新基地/沁恒/例程/Libraries/Device/CH32V10x_p/CH32V10x_Lib/ch32v10x_rcc.c:520
  tmp = tmp >> 11;
     ed8:	82ad                	srli	a3,a3,0xb
     eda:	8a9d                	andi	a3,a3,7
C:/Users/Kanesh's laptop/Desktop/19创新基地/沁恒/例程/Libraries/Device/CH32V10x_p/CH32V10x_Lib/ch32v10x_rcc.c:521
  presc = APBAHBPrescTable[tmp];
     edc:	9736                	add	a4,a4,a3
     ede:	00074703          	lbu	a4,0(a4) # 20000000 <_data_vma>
C:/Users/Kanesh's laptop/Desktop/19创新基地/沁恒/例程/Libraries/Device/CH32V10x_p/CH32V10x_Lib/ch32v10x_rcc.c:522
  RCC_Clocks->PCLK2_Frequency = RCC_Clocks->HCLK_Frequency >> presc;
     ee2:	00e7d7b3          	srl	a5,a5,a4
     ee6:	c55c                	sw	a5,12(a0)
C:/Users/Kanesh's laptop/Desktop/19创新基地/沁恒/例程/Libraries/Device/CH32V10x_p/CH32V10x_Lib/ch32v10x_rcc.c:523
  tmp = RCC->CFGR0 & CFGR0_ADCPRE_Set_Mask;
     ee8:	4258                	lw	a4,4(a2)
C:/Users/Kanesh's laptop/Desktop/19创新基地/沁恒/例程/Libraries/Device/CH32V10x_p/CH32V10x_Lib/ch32v10x_rcc.c:524
  tmp = tmp >> 14;
     eea:	8339                	srli	a4,a4,0xe
     eec:	00377693          	andi	a3,a4,3
C:/Users/Kanesh's laptop/Desktop/19创新基地/沁恒/例程/Libraries/Device/CH32V10x_p/CH32V10x_Lib/ch32v10x_rcc.c:525
  presc = ADCPrescTable[tmp];
     ef0:	20000737          	lui	a4,0x20000
     ef4:	01070713          	addi	a4,a4,16 # 20000010 <ADCPrescTable>
     ef8:	9736                	add	a4,a4,a3
     efa:	00074703          	lbu	a4,0(a4)
C:/Users/Kanesh's laptop/Desktop/19创新基地/沁恒/例程/Libraries/Device/CH32V10x_p/CH32V10x_Lib/ch32v10x_rcc.c:526
  RCC_Clocks->ADCCLK_Frequency = RCC_Clocks->PCLK2_Frequency / presc;
     efe:	02e7d7b3          	divu	a5,a5,a4
     f02:	c91c                	sw	a5,16(a0)
C:/Users/Kanesh's laptop/Desktop/19创新基地/沁恒/例程/Libraries/Device/CH32V10x_p/CH32V10x_Lib/ch32v10x_rcc.c:527
}
     f04:	8082                	ret
C:/Users/Kanesh's laptop/Desktop/19创新基地/沁恒/例程/Libraries/Device/CH32V10x_p/CH32V10x_Lib/ch32v10x_rcc.c:485
      pllmull = RCC->CFGR0 & CFGR0_PLLMull_Mask;
     f06:	435c                	lw	a5,4(a4)
C:/Users/Kanesh's laptop/Desktop/19创新基地/沁恒/例程/Libraries/Device/CH32V10x_p/CH32V10x_Lib/ch32v10x_rcc.c:486
      pllsource = RCC->CFGR0 & CFGR0_PLLSRC_Mask;    
     f08:	4354                	lw	a3,4(a4)
C:/Users/Kanesh's laptop/Desktop/19创新基地/沁恒/例程/Libraries/Device/CH32V10x_p/CH32V10x_Lib/ch32v10x_rcc.c:487
      pllmull = ( pllmull >> 18) + 2;
     f0a:	83c9                	srli	a5,a5,0x12
     f0c:	8bbd                	andi	a5,a5,15
C:/Users/Kanesh's laptop/Desktop/19创新基地/沁恒/例程/Libraries/Device/CH32V10x_p/CH32V10x_Lib/ch32v10x_rcc.c:489
      if (pllsource == 0x00)
     f0e:	00f69613          	slli	a2,a3,0xf
C:/Users/Kanesh's laptop/Desktop/19创新基地/沁恒/例程/Libraries/Device/CH32V10x_p/CH32V10x_Lib/ch32v10x_rcc.c:487
      pllmull = ( pllmull >> 18) + 2;
     f12:	0789                	addi	a5,a5,2
C:/Users/Kanesh's laptop/Desktop/19创新基地/沁恒/例程/Libraries/Device/CH32V10x_p/CH32V10x_Lib/ch32v10x_rcc.c:489
      if (pllsource == 0x00)
     f14:	00064963          	bltz	a2,f26 <RCC_GetClocksFreq+0xa0>
C:/Users/Kanesh's laptop/Desktop/19创新基地/沁恒/例程/Libraries/Device/CH32V10x_p/CH32V10x_Lib/ch32v10x_rcc.c:497
          RCC_Clocks->SYSCLK_Frequency = (HSE_VALUE >> 1) * pllmull;
     f18:	003d1737          	lui	a4,0x3d1
     f1c:	90070713          	addi	a4,a4,-1792 # 3d0900 <_data_lma+0x3cf434>
C:/Users/Kanesh's laptop/Desktop/19创新基地/沁恒/例程/Libraries/Device/CH32V10x_p/CH32V10x_Lib/ch32v10x_rcc.c:501
          RCC_Clocks->SYSCLK_Frequency = HSE_VALUE * pllmull;
     f20:	02e787b3          	mul	a5,a5,a4
     f24:	bfbd                	j	ea2 <RCC_GetClocksFreq+0x1c>
C:/Users/Kanesh's laptop/Desktop/19创新基地/沁恒/例程/Libraries/Device/CH32V10x_p/CH32V10x_Lib/ch32v10x_rcc.c:495
        if ((RCC->CFGR0 & CFGR0_PLLXTPRE_Mask) != (uint32_t)RESET)
     f26:	4358                	lw	a4,4(a4)
     f28:	00e71693          	slli	a3,a4,0xe
     f2c:	fe06c6e3          	bltz	a3,f18 <RCC_GetClocksFreq+0x92>
C:/Users/Kanesh's laptop/Desktop/19创新基地/沁恒/例程/Libraries/Device/CH32V10x_p/CH32V10x_Lib/ch32v10x_rcc.c:501
          RCC_Clocks->SYSCLK_Frequency = HSE_VALUE * pllmull;
     f30:	007a1737          	lui	a4,0x7a1
     f34:	20070713          	addi	a4,a4,512 # 7a1200 <_data_lma+0x79fd34>
     f38:	b7e5                	j	f20 <RCC_GetClocksFreq+0x9a>

00000f3a <RCC_APB2PeriphClockCmd>:
RCC_APB2PeriphClockCmd():
C:/Users/Kanesh's laptop/Desktop/19创新基地/沁恒/例程/Libraries/Device/CH32V10x_p/CH32V10x_Lib/ch32v10x_rcc.c:571
*                  NewState: ENABLE or DISABLE
* Return         : None
*******************************************************************************/	
void RCC_APB2PeriphClockCmd(uint32_t RCC_APB2Periph, FunctionalState NewState)
{
  if (NewState != DISABLE)
     f3a:	c599                	beqz	a1,f48 <RCC_APB2PeriphClockCmd+0xe>
C:/Users/Kanesh's laptop/Desktop/19创新基地/沁恒/例程/Libraries/Device/CH32V10x_p/CH32V10x_Lib/ch32v10x_rcc.c:573
  {
    RCC->APB2PCENR |= RCC_APB2Periph;
     f3c:	40021737          	lui	a4,0x40021
     f40:	4f1c                	lw	a5,24(a4)
     f42:	8d5d                	or	a0,a0,a5
     f44:	cf08                	sw	a0,24(a4)
     f46:	8082                	ret
C:/Users/Kanesh's laptop/Desktop/19创新基地/沁恒/例程/Libraries/Device/CH32V10x_p/CH32V10x_Lib/ch32v10x_rcc.c:577
  }
  else
  {
    RCC->APB2PCENR &= ~RCC_APB2Periph;
     f48:	400217b7          	lui	a5,0x40021
     f4c:	4f98                	lw	a4,24(a5)
     f4e:	fff54513          	not	a0,a0
     f52:	8d79                	and	a0,a0,a4
     f54:	cf88                	sw	a0,24(a5)
C:/Users/Kanesh's laptop/Desktop/19创新基地/沁恒/例程/Libraries/Device/CH32V10x_p/CH32V10x_Lib/ch32v10x_rcc.c:579
  }
}
     f56:	8082                	ret

00000f58 <RCC_APB1PeriphClockCmd>:
RCC_APB1PeriphClockCmd():
C:/Users/Kanesh's laptop/Desktop/19创新基地/沁恒/例程/Libraries/Device/CH32V10x_p/CH32V10x_Lib/ch32v10x_rcc.c:604
*                  NewState: ENABLE or DISABLE.
* Return         : None
*******************************************************************************/	
void RCC_APB1PeriphClockCmd(uint32_t RCC_APB1Periph, FunctionalState NewState)
{
  if (NewState != DISABLE)
     f58:	c599                	beqz	a1,f66 <RCC_APB1PeriphClockCmd+0xe>
C:/Users/Kanesh's laptop/Desktop/19创新基地/沁恒/例程/Libraries/Device/CH32V10x_p/CH32V10x_Lib/ch32v10x_rcc.c:606
  {
    RCC->APB1PCENR |= RCC_APB1Periph;
     f5a:	40021737          	lui	a4,0x40021
     f5e:	4f5c                	lw	a5,28(a4)
     f60:	8d5d                	or	a0,a0,a5
     f62:	cf48                	sw	a0,28(a4)
     f64:	8082                	ret
C:/Users/Kanesh's laptop/Desktop/19创新基地/沁恒/例程/Libraries/Device/CH32V10x_p/CH32V10x_Lib/ch32v10x_rcc.c:610
  }
  else
  {
    RCC->APB1PCENR &= ~RCC_APB1Periph;
     f66:	400217b7          	lui	a5,0x40021
     f6a:	4fd8                	lw	a4,28(a5)
     f6c:	fff54513          	not	a0,a0
     f70:	8d79                	and	a0,a0,a4
     f72:	cfc8                	sw	a0,28(a5)
C:/Users/Kanesh's laptop/Desktop/19创新基地/沁恒/例程/Libraries/Device/CH32V10x_p/CH32V10x_Lib/ch32v10x_rcc.c:612
  }
}
     f74:	8082                	ret

00000f76 <TIM_TimeBaseInit>:
TIM_TimeBaseInit():
C:/Users/Kanesh's laptop/Desktop/19创新基地/沁恒/例程/Libraries/Device/CH32V10x_p/CH32V10x_Lib/ch32v10x_tim.c:70
*******************************************************************************/
void TIM_TimeBaseInit(TIM_TypeDef* TIMx, TIM_TimeBaseInitTypeDef* TIM_TimeBaseInitStruct)
{
  uint16_t tmpcr1 = 0;

  tmpcr1 = TIMx->CTLR1;  
     f76:	00055783          	lhu	a5,0(a0)
C:/Users/Kanesh's laptop/Desktop/19创新基地/沁恒/例程/Libraries/Device/CH32V10x_p/CH32V10x_Lib/ch32v10x_tim.c:72

  if((TIMx == TIM1) || (TIMx == TIM2) || (TIMx == TIM3)|| (TIMx == TIM4)) 
     f7a:	40013737          	lui	a4,0x40013
     f7e:	c0070713          	addi	a4,a4,-1024 # 40012c00 <_eusrstack+0x2000dc00>
C:/Users/Kanesh's laptop/Desktop/19创新基地/沁恒/例程/Libraries/Device/CH32V10x_p/CH32V10x_Lib/ch32v10x_tim.c:70
  tmpcr1 = TIMx->CTLR1;  
     f82:	07c2                	slli	a5,a5,0x10
     f84:	83c1                	srli	a5,a5,0x10
C:/Users/Kanesh's laptop/Desktop/19创新基地/沁恒/例程/Libraries/Device/CH32V10x_p/CH32V10x_Lib/ch32v10x_tim.c:72
  if((TIMx == TIM1) || (TIMx == TIM2) || (TIMx == TIM3)|| (TIMx == TIM4)) 
     f86:	02e50063          	beq	a0,a4,fa6 <TIM_TimeBaseInit+0x30>
C:/Users/Kanesh's laptop/Desktop/19创新基地/沁恒/例程/Libraries/Device/CH32V10x_p/CH32V10x_Lib/ch32v10x_tim.c:72 (discriminator 1)
     f8a:	40000737          	lui	a4,0x40000
     f8e:	00e50c63          	beq	a0,a4,fa6 <TIM_TimeBaseInit+0x30>
C:/Users/Kanesh's laptop/Desktop/19创新基地/沁恒/例程/Libraries/Device/CH32V10x_p/CH32V10x_Lib/ch32v10x_tim.c:72 (discriminator 2)
     f92:	40070713          	addi	a4,a4,1024 # 40000400 <_eusrstack+0x1fffb400>
     f96:	00e50863          	beq	a0,a4,fa6 <TIM_TimeBaseInit+0x30>
C:/Users/Kanesh's laptop/Desktop/19创新基地/沁恒/例程/Libraries/Device/CH32V10x_p/CH32V10x_Lib/ch32v10x_tim.c:72 (discriminator 3)
     f9a:	40001737          	lui	a4,0x40001
     f9e:	80070713          	addi	a4,a4,-2048 # 40000800 <_eusrstack+0x1fffb800>
     fa2:	00e51763          	bne	a0,a4,fb0 <TIM_TimeBaseInit+0x3a>
C:/Users/Kanesh's laptop/Desktop/19创新基地/沁恒/例程/Libraries/Device/CH32V10x_p/CH32V10x_Lib/ch32v10x_tim.c:75
  {
    tmpcr1 &= (uint16_t)(~((uint16_t)(TIM_DIR | TIM_CMS)));
    tmpcr1 |= (uint32_t)TIM_TimeBaseInitStruct->TIM_CounterMode;
     fa6:	0025d703          	lhu	a4,2(a1)
C:/Users/Kanesh's laptop/Desktop/19创新基地/沁恒/例程/Libraries/Device/CH32V10x_p/CH32V10x_Lib/ch32v10x_tim.c:74
    tmpcr1 &= (uint16_t)(~((uint16_t)(TIM_DIR | TIM_CMS)));
     faa:	f8f7f793          	andi	a5,a5,-113
C:/Users/Kanesh's laptop/Desktop/19创新基地/沁恒/例程/Libraries/Device/CH32V10x_p/CH32V10x_Lib/ch32v10x_tim.c:75
    tmpcr1 |= (uint32_t)TIM_TimeBaseInitStruct->TIM_CounterMode;
     fae:	8fd9                	or	a5,a5,a4
C:/Users/Kanesh's laptop/Desktop/19创新基地/沁恒/例程/Libraries/Device/CH32V10x_p/CH32V10x_Lib/ch32v10x_tim.c:79
  }

  tmpcr1 &= (uint16_t)(~((uint16_t)TIM_CTLR1_CKD));
  tmpcr1 |= (uint32_t)TIM_TimeBaseInitStruct->TIM_ClockDivision;
     fb0:	0065d703          	lhu	a4,6(a1)
C:/Users/Kanesh's laptop/Desktop/19创新基地/沁恒/例程/Libraries/Device/CH32V10x_p/CH32V10x_Lib/ch32v10x_tim.c:78
  tmpcr1 &= (uint16_t)(~((uint16_t)TIM_CTLR1_CKD));
     fb4:	cff7f793          	andi	a5,a5,-769
     fb8:	07c2                	slli	a5,a5,0x10
     fba:	83c1                	srli	a5,a5,0x10
C:/Users/Kanesh's laptop/Desktop/19创新基地/沁恒/例程/Libraries/Device/CH32V10x_p/CH32V10x_Lib/ch32v10x_tim.c:79
  tmpcr1 |= (uint32_t)TIM_TimeBaseInitStruct->TIM_ClockDivision;
     fbc:	8fd9                	or	a5,a5,a4
C:/Users/Kanesh's laptop/Desktop/19创新基地/沁恒/例程/Libraries/Device/CH32V10x_p/CH32V10x_Lib/ch32v10x_tim.c:81

  TIMx->CTLR1 = tmpcr1;
     fbe:	00f51023          	sh	a5,0(a0)
C:/Users/Kanesh's laptop/Desktop/19创新基地/沁恒/例程/Libraries/Device/CH32V10x_p/CH32V10x_Lib/ch32v10x_tim.c:82
  TIMx->ATRLR = TIM_TimeBaseInitStruct->TIM_Period ;
     fc2:	0045d783          	lhu	a5,4(a1)
     fc6:	02f51623          	sh	a5,44(a0)
C:/Users/Kanesh's laptop/Desktop/19创新基地/沁恒/例程/Libraries/Device/CH32V10x_p/CH32V10x_Lib/ch32v10x_tim.c:83
  TIMx->PSC = TIM_TimeBaseInitStruct->TIM_Prescaler;
     fca:	0005d783          	lhu	a5,0(a1)
     fce:	02f51423          	sh	a5,40(a0)
C:/Users/Kanesh's laptop/Desktop/19创新基地/沁恒/例程/Libraries/Device/CH32V10x_p/CH32V10x_Lib/ch32v10x_tim.c:85
    
  if (TIMx == TIM1)  
     fd2:	400137b7          	lui	a5,0x40013
     fd6:	c0078793          	addi	a5,a5,-1024 # 40012c00 <_eusrstack+0x2000dc00>
     fda:	00f51663          	bne	a0,a5,fe6 <TIM_TimeBaseInit+0x70>
C:/Users/Kanesh's laptop/Desktop/19创新基地/沁恒/例程/Libraries/Device/CH32V10x_p/CH32V10x_Lib/ch32v10x_tim.c:87
  {
    TIMx->RPTCR = TIM_TimeBaseInitStruct->TIM_RepetitionCounter;
     fde:	0085c783          	lbu	a5,8(a1)
     fe2:	02f51823          	sh	a5,48(a0)
C:/Users/Kanesh's laptop/Desktop/19创新基地/沁恒/例程/Libraries/Device/CH32V10x_p/CH32V10x_Lib/ch32v10x_tim.c:90
  }

  TIMx->SWEVGR = TIM_PSCReloadMode_Immediate;           
     fe6:	4785                	li	a5,1
     fe8:	00f51a23          	sh	a5,20(a0)
C:/Users/Kanesh's laptop/Desktop/19创新基地/沁恒/例程/Libraries/Device/CH32V10x_p/CH32V10x_Lib/ch32v10x_tim.c:91
}
     fec:	8082                	ret

00000fee <TIM_OC1Init>:
TIM_OC1Init():
C:/Users/Kanesh's laptop/Desktop/19创新基地/沁恒/例程/Libraries/Device/CH32V10x_p/CH32V10x_Lib/ch32v10x_tim.c:105
*******************************************************************************/
void TIM_OC1Init(TIM_TypeDef* TIMx, TIM_OCInitTypeDef* TIM_OCInitStruct)
{
  uint16_t tmpccmrx = 0, tmpccer = 0, tmpcr2 = 0;
     
  TIMx->CCER &= (uint16_t)(~(uint16_t)TIM_CC1E);
     fee:	02055783          	lhu	a5,32(a0)
C:/Users/Kanesh's laptop/Desktop/19创新基地/沁恒/例程/Libraries/Device/CH32V10x_p/CH32V10x_Lib/ch32v10x_tim.c:111
  tmpccer = TIMx->CCER;
  tmpcr2 =  TIMx->CTLR2;
  tmpccmrx = TIMx->CHCTLR1;
  tmpccmrx &= (uint16_t)(~((uint16_t)TIM_OC1M));
  tmpccmrx &= (uint16_t)(~((uint16_t)TIM_CC1S));
  tmpccmrx |= TIM_OCInitStruct->TIM_OCMode;
     ff2:	0005d603          	lhu	a2,0(a1)
C:/Users/Kanesh's laptop/Desktop/19创新基地/沁恒/例程/Libraries/Device/CH32V10x_p/CH32V10x_Lib/ch32v10x_tim.c:114
  tmpccer &= (uint16_t)(~((uint16_t)TIM_CC1P));
  tmpccer |= TIM_OCInitStruct->TIM_OCPolarity;
  tmpccer |= TIM_OCInitStruct->TIM_OutputState;
     ff6:	0025d803          	lhu	a6,2(a1)
C:/Users/Kanesh's laptop/Desktop/19创新基地/沁恒/例程/Libraries/Device/CH32V10x_p/CH32V10x_Lib/ch32v10x_tim.c:105
  TIMx->CCER &= (uint16_t)(~(uint16_t)TIM_CC1E);
     ffa:	07c2                	slli	a5,a5,0x10
     ffc:	83c1                	srli	a5,a5,0x10
     ffe:	9bf9                	andi	a5,a5,-2
    1000:	07c2                	slli	a5,a5,0x10
    1002:	83c1                	srli	a5,a5,0x10
    1004:	02f51023          	sh	a5,32(a0)
C:/Users/Kanesh's laptop/Desktop/19创新基地/沁恒/例程/Libraries/Device/CH32V10x_p/CH32V10x_Lib/ch32v10x_tim.c:106
  tmpccer = TIMx->CCER;
    1008:	02055783          	lhu	a5,32(a0)
C:/Users/Kanesh's laptop/Desktop/19创新基地/沁恒/例程/Libraries/Device/CH32V10x_p/CH32V10x_Lib/ch32v10x_tim.c:107
  tmpcr2 =  TIMx->CTLR2;
    100c:	00455683          	lhu	a3,4(a0)
C:/Users/Kanesh's laptop/Desktop/19创新基地/沁恒/例程/Libraries/Device/CH32V10x_p/CH32V10x_Lib/ch32v10x_tim.c:108
  tmpccmrx = TIMx->CHCTLR1;
    1010:	01855703          	lhu	a4,24(a0)
C:/Users/Kanesh's laptop/Desktop/19创新基地/沁恒/例程/Libraries/Device/CH32V10x_p/CH32V10x_Lib/ch32v10x_tim.c:106
  tmpccer = TIMx->CCER;
    1014:	07c2                	slli	a5,a5,0x10
    1016:	83c1                	srli	a5,a5,0x10
C:/Users/Kanesh's laptop/Desktop/19创新基地/沁恒/例程/Libraries/Device/CH32V10x_p/CH32V10x_Lib/ch32v10x_tim.c:108
  tmpccmrx = TIMx->CHCTLR1;
    1018:	0742                	slli	a4,a4,0x10
    101a:	8341                	srli	a4,a4,0x10
C:/Users/Kanesh's laptop/Desktop/19创新基地/沁恒/例程/Libraries/Device/CH32V10x_p/CH32V10x_Lib/ch32v10x_tim.c:110
  tmpccmrx &= (uint16_t)(~((uint16_t)TIM_CC1S));
    101c:	f8c77713          	andi	a4,a4,-116
C:/Users/Kanesh's laptop/Desktop/19创新基地/沁恒/例程/Libraries/Device/CH32V10x_p/CH32V10x_Lib/ch32v10x_tim.c:111
  tmpccmrx |= TIM_OCInitStruct->TIM_OCMode;
    1020:	8f51                	or	a4,a4,a2
C:/Users/Kanesh's laptop/Desktop/19创新基地/沁恒/例程/Libraries/Device/CH32V10x_p/CH32V10x_Lib/ch32v10x_tim.c:114
  tmpccer |= TIM_OCInitStruct->TIM_OutputState;
    1022:	0085d603          	lhu	a2,8(a1)
C:/Users/Kanesh's laptop/Desktop/19创新基地/沁恒/例程/Libraries/Device/CH32V10x_p/CH32V10x_Lib/ch32v10x_tim.c:112
  tmpccer &= (uint16_t)(~((uint16_t)TIM_CC1P));
    1026:	9bf5                	andi	a5,a5,-3
C:/Users/Kanesh's laptop/Desktop/19创新基地/沁恒/例程/Libraries/Device/CH32V10x_p/CH32V10x_Lib/ch32v10x_tim.c:107
  tmpcr2 =  TIMx->CTLR2;
    1028:	06c2                	slli	a3,a3,0x10
C:/Users/Kanesh's laptop/Desktop/19创新基地/沁恒/例程/Libraries/Device/CH32V10x_p/CH32V10x_Lib/ch32v10x_tim.c:114
  tmpccer |= TIM_OCInitStruct->TIM_OutputState;
    102a:	01066633          	or	a2,a2,a6
    102e:	8fd1                	or	a5,a5,a2
C:/Users/Kanesh's laptop/Desktop/19创新基地/沁恒/例程/Libraries/Device/CH32V10x_p/CH32V10x_Lib/ch32v10x_tim.c:116
    
  if(TIMx == TIM1)
    1030:	40013637          	lui	a2,0x40013
    1034:	c0060613          	addi	a2,a2,-1024 # 40012c00 <_eusrstack+0x2000dc00>
C:/Users/Kanesh's laptop/Desktop/19创新基地/沁恒/例程/Libraries/Device/CH32V10x_p/CH32V10x_Lib/ch32v10x_tim.c:107
  tmpcr2 =  TIMx->CTLR2;
    1038:	82c1                	srli	a3,a3,0x10
C:/Users/Kanesh's laptop/Desktop/19创新基地/沁恒/例程/Libraries/Device/CH32V10x_p/CH32V10x_Lib/ch32v10x_tim.c:116
  if(TIMx == TIM1)
    103a:	02c51363          	bne	a0,a2,1060 <TIM_OC1Init+0x72>
C:/Users/Kanesh's laptop/Desktop/19创新基地/沁恒/例程/Libraries/Device/CH32V10x_p/CH32V10x_Lib/ch32v10x_tim.c:119
  {
    tmpccer &= (uint16_t)(~((uint16_t)TIM_CC1NP));
    tmpccer |= TIM_OCInitStruct->TIM_OCNPolarity;
    103e:	00a5d603          	lhu	a2,10(a1)
C:/Users/Kanesh's laptop/Desktop/19创新基地/沁恒/例程/Libraries/Device/CH32V10x_p/CH32V10x_Lib/ch32v10x_tim.c:118
    tmpccer &= (uint16_t)(~((uint16_t)TIM_CC1NP));
    1042:	9bdd                	andi	a5,a5,-9
C:/Users/Kanesh's laptop/Desktop/19创新基地/沁恒/例程/Libraries/Device/CH32V10x_p/CH32V10x_Lib/ch32v10x_tim.c:128
    
    tmpcr2 &= (uint16_t)(~((uint16_t)TIM_OIS1));
    tmpcr2 &= (uint16_t)(~((uint16_t)TIM_OIS1N));
    
    tmpcr2 |= TIM_OCInitStruct->TIM_OCIdleState;
    tmpcr2 |= TIM_OCInitStruct->TIM_OCNIdleState;
    1044:	00e5d803          	lhu	a6,14(a1)
C:/Users/Kanesh's laptop/Desktop/19创新基地/沁恒/例程/Libraries/Device/CH32V10x_p/CH32V10x_Lib/ch32v10x_tim.c:119
    tmpccer |= TIM_OCInitStruct->TIM_OCNPolarity;
    1048:	8fd1                	or	a5,a5,a2
C:/Users/Kanesh's laptop/Desktop/19创新基地/沁恒/例程/Libraries/Device/CH32V10x_p/CH32V10x_Lib/ch32v10x_tim.c:122
    tmpccer |= TIM_OCInitStruct->TIM_OutputNState;
    104a:	0045d603          	lhu	a2,4(a1)
C:/Users/Kanesh's laptop/Desktop/19创新基地/沁恒/例程/Libraries/Device/CH32V10x_p/CH32V10x_Lib/ch32v10x_tim.c:121
    tmpccer &= (uint16_t)(~((uint16_t)TIM_CC1NE));    
    104e:	9bed                	andi	a5,a5,-5
C:/Users/Kanesh's laptop/Desktop/19创新基地/沁恒/例程/Libraries/Device/CH32V10x_p/CH32V10x_Lib/ch32v10x_tim.c:125
    tmpcr2 &= (uint16_t)(~((uint16_t)TIM_OIS1N));
    1050:	cff6f693          	andi	a3,a3,-769
C:/Users/Kanesh's laptop/Desktop/19创新基地/沁恒/例程/Libraries/Device/CH32V10x_p/CH32V10x_Lib/ch32v10x_tim.c:122
    tmpccer |= TIM_OCInitStruct->TIM_OutputNState;
    1054:	8fd1                	or	a5,a5,a2
C:/Users/Kanesh's laptop/Desktop/19创新基地/沁恒/例程/Libraries/Device/CH32V10x_p/CH32V10x_Lib/ch32v10x_tim.c:128
    tmpcr2 |= TIM_OCInitStruct->TIM_OCNIdleState;
    1056:	00c5d603          	lhu	a2,12(a1)
    105a:	01066633          	or	a2,a2,a6
    105e:	8ed1                	or	a3,a3,a2
C:/Users/Kanesh's laptop/Desktop/19创新基地/沁恒/例程/Libraries/Device/CH32V10x_p/CH32V10x_Lib/ch32v10x_tim.c:131
  }

  TIMx->CTLR2 = tmpcr2;
    1060:	00d51223          	sh	a3,4(a0)
C:/Users/Kanesh's laptop/Desktop/19创新基地/沁恒/例程/Libraries/Device/CH32V10x_p/CH32V10x_Lib/ch32v10x_tim.c:132
  TIMx->CHCTLR1 = tmpccmrx;
    1064:	00e51c23          	sh	a4,24(a0)
C:/Users/Kanesh's laptop/Desktop/19创新基地/沁恒/例程/Libraries/Device/CH32V10x_p/CH32V10x_Lib/ch32v10x_tim.c:133
  TIMx->CH1CVR = TIM_OCInitStruct->TIM_Pulse; 
    1068:	0065d703          	lhu	a4,6(a1)
    106c:	02e51a23          	sh	a4,52(a0)
C:/Users/Kanesh's laptop/Desktop/19创新基地/沁恒/例程/Libraries/Device/CH32V10x_p/CH32V10x_Lib/ch32v10x_tim.c:134
  TIMx->CCER = tmpccer;
    1070:	02f51023          	sh	a5,32(a0)
C:/Users/Kanesh's laptop/Desktop/19创新基地/沁恒/例程/Libraries/Device/CH32V10x_p/CH32V10x_Lib/ch32v10x_tim.c:135
}
    1074:	8082                	ret

00001076 <TIM_OC2Init>:
TIM_OC2Init():
C:/Users/Kanesh's laptop/Desktop/19创新基地/沁恒/例程/Libraries/Device/CH32V10x_p/CH32V10x_Lib/ch32v10x_tim.c:149
*******************************************************************************/
void TIM_OC2Init(TIM_TypeDef* TIMx, TIM_OCInitTypeDef* TIM_OCInitStruct)
{
  uint16_t tmpccmrx = 0, tmpccer = 0, tmpcr2 = 0;
   
  TIMx->CCER &= (uint16_t)(~((uint16_t)TIM_CC2E)); 
    1076:	02055783          	lhu	a5,32(a0)
C:/Users/Kanesh's laptop/Desktop/19创新基地/沁恒/例程/Libraries/Device/CH32V10x_p/CH32V10x_Lib/ch32v10x_tim.c:154
  tmpccer = TIMx->CCER;
  tmpcr2 =  TIMx->CTLR2;
  tmpccmrx = TIMx->CHCTLR1;
  tmpccmrx &= (uint16_t)(~((uint16_t)TIM_OC2M));
  tmpccmrx &= (uint16_t)(~((uint16_t)TIM_CC2S));
    107a:	7765                	lui	a4,0xffff9
    107c:	cff70713          	addi	a4,a4,-769 # ffff8cff <_eusrstack+0xdfff3cff>
C:/Users/Kanesh's laptop/Desktop/19创新基地/沁恒/例程/Libraries/Device/CH32V10x_p/CH32V10x_Lib/ch32v10x_tim.c:149
  TIMx->CCER &= (uint16_t)(~((uint16_t)TIM_CC2E)); 
    1080:	07c2                	slli	a5,a5,0x10
    1082:	83c1                	srli	a5,a5,0x10
    1084:	9bbd                	andi	a5,a5,-17
    1086:	07c2                	slli	a5,a5,0x10
    1088:	83c1                	srli	a5,a5,0x10
    108a:	02f51023          	sh	a5,32(a0)
C:/Users/Kanesh's laptop/Desktop/19创新基地/沁恒/例程/Libraries/Device/CH32V10x_p/CH32V10x_Lib/ch32v10x_tim.c:150
  tmpccer = TIMx->CCER;
    108e:	02055783          	lhu	a5,32(a0)
C:/Users/Kanesh's laptop/Desktop/19创新基地/沁恒/例程/Libraries/Device/CH32V10x_p/CH32V10x_Lib/ch32v10x_tim.c:151
  tmpcr2 =  TIMx->CTLR2;
    1092:	00455683          	lhu	a3,4(a0)
C:/Users/Kanesh's laptop/Desktop/19创新基地/沁恒/例程/Libraries/Device/CH32V10x_p/CH32V10x_Lib/ch32v10x_tim.c:157
  tmpccmrx |= (uint16_t)(TIM_OCInitStruct->TIM_OCMode << 8);
  tmpccer &= (uint16_t)(~((uint16_t)TIM_CC2P));
  tmpccer |= (uint16_t)(TIM_OCInitStruct->TIM_OCPolarity << 4);
    1096:	0085d803          	lhu	a6,8(a1)
C:/Users/Kanesh's laptop/Desktop/19创新基地/沁恒/例程/Libraries/Device/CH32V10x_p/CH32V10x_Lib/ch32v10x_tim.c:150
  tmpccer = TIMx->CCER;
    109a:	07c2                	slli	a5,a5,0x10
C:/Users/Kanesh's laptop/Desktop/19创新基地/沁恒/例程/Libraries/Device/CH32V10x_p/CH32V10x_Lib/ch32v10x_tim.c:151
  tmpcr2 =  TIMx->CTLR2;
    109c:	01069613          	slli	a2,a3,0x10
C:/Users/Kanesh's laptop/Desktop/19创新基地/沁恒/例程/Libraries/Device/CH32V10x_p/CH32V10x_Lib/ch32v10x_tim.c:152
  tmpccmrx = TIMx->CHCTLR1;
    10a0:	01855683          	lhu	a3,24(a0)
C:/Users/Kanesh's laptop/Desktop/19创新基地/沁恒/例程/Libraries/Device/CH32V10x_p/CH32V10x_Lib/ch32v10x_tim.c:150
  tmpccer = TIMx->CCER;
    10a4:	83c1                	srli	a5,a5,0x10
C:/Users/Kanesh's laptop/Desktop/19创新基地/沁恒/例程/Libraries/Device/CH32V10x_p/CH32V10x_Lib/ch32v10x_tim.c:156
  tmpccer &= (uint16_t)(~((uint16_t)TIM_CC2P));
    10a6:	fdf7f793          	andi	a5,a5,-33
C:/Users/Kanesh's laptop/Desktop/19创新基地/沁恒/例程/Libraries/Device/CH32V10x_p/CH32V10x_Lib/ch32v10x_tim.c:154
  tmpccmrx &= (uint16_t)(~((uint16_t)TIM_CC2S));
    10aa:	8f75                	and	a4,a4,a3
C:/Users/Kanesh's laptop/Desktop/19创新基地/沁恒/例程/Libraries/Device/CH32V10x_p/CH32V10x_Lib/ch32v10x_tim.c:155
  tmpccmrx |= (uint16_t)(TIM_OCInitStruct->TIM_OCMode << 8);
    10ac:	0005d683          	lhu	a3,0(a1)
C:/Users/Kanesh's laptop/Desktop/19创新基地/沁恒/例程/Libraries/Device/CH32V10x_p/CH32V10x_Lib/ch32v10x_tim.c:151
  tmpcr2 =  TIMx->CTLR2;
    10b0:	8241                	srli	a2,a2,0x10
C:/Users/Kanesh's laptop/Desktop/19创新基地/沁恒/例程/Libraries/Device/CH32V10x_p/CH32V10x_Lib/ch32v10x_tim.c:155
  tmpccmrx |= (uint16_t)(TIM_OCInitStruct->TIM_OCMode << 8);
    10b2:	06a2                	slli	a3,a3,0x8
    10b4:	8f55                	or	a4,a4,a3
C:/Users/Kanesh's laptop/Desktop/19创新基地/沁恒/例程/Libraries/Device/CH32V10x_p/CH32V10x_Lib/ch32v10x_tim.c:158
  tmpccer |= (uint16_t)(TIM_OCInitStruct->TIM_OutputState << 4);
    10b6:	0025d683          	lhu	a3,2(a1)
C:/Users/Kanesh's laptop/Desktop/19创新基地/沁恒/例程/Libraries/Device/CH32V10x_p/CH32V10x_Lib/ch32v10x_tim.c:155
  tmpccmrx |= (uint16_t)(TIM_OCInitStruct->TIM_OCMode << 8);
    10ba:	0742                	slli	a4,a4,0x10
    10bc:	8341                	srli	a4,a4,0x10
C:/Users/Kanesh's laptop/Desktop/19创新基地/沁恒/例程/Libraries/Device/CH32V10x_p/CH32V10x_Lib/ch32v10x_tim.c:158
  tmpccer |= (uint16_t)(TIM_OCInitStruct->TIM_OutputState << 4);
    10be:	0106e6b3          	or	a3,a3,a6
    10c2:	0692                	slli	a3,a3,0x4
    10c4:	8fd5                	or	a5,a5,a3
C:/Users/Kanesh's laptop/Desktop/19创新基地/沁恒/例程/Libraries/Device/CH32V10x_p/CH32V10x_Lib/ch32v10x_tim.c:160
    
  if(TIMx == TIM1)
    10c6:	400136b7          	lui	a3,0x40013
C:/Users/Kanesh's laptop/Desktop/19创新基地/沁恒/例程/Libraries/Device/CH32V10x_p/CH32V10x_Lib/ch32v10x_tim.c:158
  tmpccer |= (uint16_t)(TIM_OCInitStruct->TIM_OutputState << 4);
    10ca:	07c2                	slli	a5,a5,0x10
C:/Users/Kanesh's laptop/Desktop/19创新基地/沁恒/例程/Libraries/Device/CH32V10x_p/CH32V10x_Lib/ch32v10x_tim.c:160
  if(TIMx == TIM1)
    10cc:	c0068693          	addi	a3,a3,-1024 # 40012c00 <_eusrstack+0x2000dc00>
C:/Users/Kanesh's laptop/Desktop/19创新基地/沁恒/例程/Libraries/Device/CH32V10x_p/CH32V10x_Lib/ch32v10x_tim.c:158
  tmpccer |= (uint16_t)(TIM_OCInitStruct->TIM_OutputState << 4);
    10d0:	83c1                	srli	a5,a5,0x10
C:/Users/Kanesh's laptop/Desktop/19创新基地/沁恒/例程/Libraries/Device/CH32V10x_p/CH32V10x_Lib/ch32v10x_tim.c:160
  if(TIMx == TIM1)
    10d2:	04d51163          	bne	a0,a3,1114 <TIM_OC2Init+0x9e>
C:/Users/Kanesh's laptop/Desktop/19创新基地/沁恒/例程/Libraries/Device/CH32V10x_p/CH32V10x_Lib/ch32v10x_tim.c:163
  {
    tmpccer &= (uint16_t)(~((uint16_t)TIM_CC2NP));
    tmpccer |= (uint16_t)(TIM_OCInitStruct->TIM_OCNPolarity << 4);
    10d6:	00a5d683          	lhu	a3,10(a1)
C:/Users/Kanesh's laptop/Desktop/19创新基地/沁恒/例程/Libraries/Device/CH32V10x_p/CH32V10x_Lib/ch32v10x_tim.c:162
    tmpccer &= (uint16_t)(~((uint16_t)TIM_CC2NP));
    10da:	f7f7f793          	andi	a5,a5,-129
C:/Users/Kanesh's laptop/Desktop/19创新基地/沁恒/例程/Libraries/Device/CH32V10x_p/CH32V10x_Lib/ch32v10x_tim.c:169
    tmpccer &= (uint16_t)(~((uint16_t)TIM_CC2NE));    
    tmpccer |= (uint16_t)(TIM_OCInitStruct->TIM_OutputNState << 4);
    
    tmpcr2 &= (uint16_t)(~((uint16_t)TIM_OIS2));
    tmpcr2 &= (uint16_t)(~((uint16_t)TIM_OIS2N));
    tmpcr2 |= (uint16_t)(TIM_OCInitStruct->TIM_OCIdleState << 2);
    10de:	00c5d803          	lhu	a6,12(a1)
C:/Users/Kanesh's laptop/Desktop/19创新基地/沁恒/例程/Libraries/Device/CH32V10x_p/CH32V10x_Lib/ch32v10x_tim.c:163
    tmpccer |= (uint16_t)(TIM_OCInitStruct->TIM_OCNPolarity << 4);
    10e2:	0692                	slli	a3,a3,0x4
    10e4:	8fd5                	or	a5,a5,a3
C:/Users/Kanesh's laptop/Desktop/19创新基地/沁恒/例程/Libraries/Device/CH32V10x_p/CH32V10x_Lib/ch32v10x_tim.c:165
    tmpccer |= (uint16_t)(TIM_OCInitStruct->TIM_OutputNState << 4);
    10e6:	0045d683          	lhu	a3,4(a1)
C:/Users/Kanesh's laptop/Desktop/19创新基地/沁恒/例程/Libraries/Device/CH32V10x_p/CH32V10x_Lib/ch32v10x_tim.c:163
    tmpccer |= (uint16_t)(TIM_OCInitStruct->TIM_OCNPolarity << 4);
    10ea:	07c2                	slli	a5,a5,0x10
    10ec:	83c1                	srli	a5,a5,0x10
C:/Users/Kanesh's laptop/Desktop/19创新基地/沁恒/例程/Libraries/Device/CH32V10x_p/CH32V10x_Lib/ch32v10x_tim.c:165
    tmpccer |= (uint16_t)(TIM_OCInitStruct->TIM_OutputNState << 4);
    10ee:	0692                	slli	a3,a3,0x4
C:/Users/Kanesh's laptop/Desktop/19创新基地/沁恒/例程/Libraries/Device/CH32V10x_p/CH32V10x_Lib/ch32v10x_tim.c:164
    tmpccer &= (uint16_t)(~((uint16_t)TIM_CC2NE));    
    10f0:	fbf7f793          	andi	a5,a5,-65
C:/Users/Kanesh's laptop/Desktop/19创新基地/沁恒/例程/Libraries/Device/CH32V10x_p/CH32V10x_Lib/ch32v10x_tim.c:165
    tmpccer |= (uint16_t)(TIM_OCInitStruct->TIM_OutputNState << 4);
    10f4:	8fd5                	or	a5,a5,a3
C:/Users/Kanesh's laptop/Desktop/19创新基地/沁恒/例程/Libraries/Device/CH32V10x_p/CH32V10x_Lib/ch32v10x_tim.c:168
    tmpcr2 &= (uint16_t)(~((uint16_t)TIM_OIS2N));
    10f6:	76fd                	lui	a3,0xfffff
    10f8:	3ff68693          	addi	a3,a3,1023 # fffff3ff <_eusrstack+0xdfffa3ff>
    10fc:	8ef1                	and	a3,a3,a2
C:/Users/Kanesh's laptop/Desktop/19创新基地/沁恒/例程/Libraries/Device/CH32V10x_p/CH32V10x_Lib/ch32v10x_tim.c:170
    tmpcr2 |= (uint16_t)(TIM_OCInitStruct->TIM_OCNIdleState << 2);
    10fe:	00e5d603          	lhu	a2,14(a1)
C:/Users/Kanesh's laptop/Desktop/19创新基地/沁恒/例程/Libraries/Device/CH32V10x_p/CH32V10x_Lib/ch32v10x_tim.c:165
    tmpccer |= (uint16_t)(TIM_OCInitStruct->TIM_OutputNState << 4);
    1102:	07c2                	slli	a5,a5,0x10
    1104:	83c1                	srli	a5,a5,0x10
C:/Users/Kanesh's laptop/Desktop/19创新基地/沁恒/例程/Libraries/Device/CH32V10x_p/CH32V10x_Lib/ch32v10x_tim.c:170
    tmpcr2 |= (uint16_t)(TIM_OCInitStruct->TIM_OCNIdleState << 2);
    1106:	01066633          	or	a2,a2,a6
    110a:	060a                	slli	a2,a2,0x2
    110c:	8ed1                	or	a3,a3,a2
    110e:	01069613          	slli	a2,a3,0x10
    1112:	8241                	srli	a2,a2,0x10
C:/Users/Kanesh's laptop/Desktop/19创新基地/沁恒/例程/Libraries/Device/CH32V10x_p/CH32V10x_Lib/ch32v10x_tim.c:173
  }

  TIMx->CTLR2 = tmpcr2;
    1114:	00c51223          	sh	a2,4(a0)
C:/Users/Kanesh's laptop/Desktop/19创新基地/沁恒/例程/Libraries/Device/CH32V10x_p/CH32V10x_Lib/ch32v10x_tim.c:174
  TIMx->CHCTLR1 = tmpccmrx;
    1118:	00e51c23          	sh	a4,24(a0)
C:/Users/Kanesh's laptop/Desktop/19创新基地/沁恒/例程/Libraries/Device/CH32V10x_p/CH32V10x_Lib/ch32v10x_tim.c:175
  TIMx->CH2CVR = TIM_OCInitStruct->TIM_Pulse;
    111c:	0065d703          	lhu	a4,6(a1)
    1120:	02e51c23          	sh	a4,56(a0)
C:/Users/Kanesh's laptop/Desktop/19创新基地/沁恒/例程/Libraries/Device/CH32V10x_p/CH32V10x_Lib/ch32v10x_tim.c:176
  TIMx->CCER = tmpccer;
    1124:	02f51023          	sh	a5,32(a0)
C:/Users/Kanesh's laptop/Desktop/19创新基地/沁恒/例程/Libraries/Device/CH32V10x_p/CH32V10x_Lib/ch32v10x_tim.c:177
}
    1128:	8082                	ret

0000112a <TIM_OC3Init>:
TIM_OC3Init():
C:/Users/Kanesh's laptop/Desktop/19创新基地/沁恒/例程/Libraries/Device/CH32V10x_p/CH32V10x_Lib/ch32v10x_tim.c:191
*******************************************************************************/
void TIM_OC3Init(TIM_TypeDef* TIMx, TIM_OCInitTypeDef* TIM_OCInitStruct)
{
  uint16_t tmpccmrx = 0, tmpccer = 0, tmpcr2 = 0;
   
  TIMx->CCER &= (uint16_t)(~((uint16_t)TIM_CC3E));
    112a:	02055783          	lhu	a5,32(a0)
C:/Users/Kanesh's laptop/Desktop/19创新基地/沁恒/例程/Libraries/Device/CH32V10x_p/CH32V10x_Lib/ch32v10x_tim.c:199
  tmpccmrx = TIMx->CHCTLR2;
  tmpccmrx &= (uint16_t)(~((uint16_t)TIM_OC3M));
  tmpccmrx &= (uint16_t)(~((uint16_t)TIM_CC3S));  
  tmpccmrx |= TIM_OCInitStruct->TIM_OCMode;
  tmpccer &= (uint16_t)(~((uint16_t)TIM_CC3P));
  tmpccer |= (uint16_t)(TIM_OCInitStruct->TIM_OCPolarity << 8);
    112e:	0085d803          	lhu	a6,8(a1)
C:/Users/Kanesh's laptop/Desktop/19创新基地/沁恒/例程/Libraries/Device/CH32V10x_p/CH32V10x_Lib/ch32v10x_tim.c:191
  TIMx->CCER &= (uint16_t)(~((uint16_t)TIM_CC3E));
    1132:	07c2                	slli	a5,a5,0x10
    1134:	83c1                	srli	a5,a5,0x10
    1136:	eff7f793          	andi	a5,a5,-257
    113a:	07c2                	slli	a5,a5,0x10
    113c:	83c1                	srli	a5,a5,0x10
    113e:	02f51023          	sh	a5,32(a0)
C:/Users/Kanesh's laptop/Desktop/19创新基地/沁恒/例程/Libraries/Device/CH32V10x_p/CH32V10x_Lib/ch32v10x_tim.c:192
  tmpccer = TIMx->CCER;
    1142:	02055783          	lhu	a5,32(a0)
C:/Users/Kanesh's laptop/Desktop/19创新基地/沁恒/例程/Libraries/Device/CH32V10x_p/CH32V10x_Lib/ch32v10x_tim.c:193
  tmpcr2 =  TIMx->CTLR2;
    1146:	00455683          	lhu	a3,4(a0)
C:/Users/Kanesh's laptop/Desktop/19创新基地/沁恒/例程/Libraries/Device/CH32V10x_p/CH32V10x_Lib/ch32v10x_tim.c:194
  tmpccmrx = TIMx->CHCTLR2;
    114a:	01c55703          	lhu	a4,28(a0)
C:/Users/Kanesh's laptop/Desktop/19创新基地/沁恒/例程/Libraries/Device/CH32V10x_p/CH32V10x_Lib/ch32v10x_tim.c:192
  tmpccer = TIMx->CCER;
    114e:	07c2                	slli	a5,a5,0x10
C:/Users/Kanesh's laptop/Desktop/19创新基地/沁恒/例程/Libraries/Device/CH32V10x_p/CH32V10x_Lib/ch32v10x_tim.c:193
  tmpcr2 =  TIMx->CTLR2;
    1150:	01069613          	slli	a2,a3,0x10
C:/Users/Kanesh's laptop/Desktop/19创新基地/沁恒/例程/Libraries/Device/CH32V10x_p/CH32V10x_Lib/ch32v10x_tim.c:194
  tmpccmrx = TIMx->CHCTLR2;
    1154:	0742                	slli	a4,a4,0x10
C:/Users/Kanesh's laptop/Desktop/19创新基地/沁恒/例程/Libraries/Device/CH32V10x_p/CH32V10x_Lib/ch32v10x_tim.c:197
  tmpccmrx |= TIM_OCInitStruct->TIM_OCMode;
    1156:	0005d683          	lhu	a3,0(a1)
C:/Users/Kanesh's laptop/Desktop/19创新基地/沁恒/例程/Libraries/Device/CH32V10x_p/CH32V10x_Lib/ch32v10x_tim.c:194
  tmpccmrx = TIMx->CHCTLR2;
    115a:	8341                	srli	a4,a4,0x10
C:/Users/Kanesh's laptop/Desktop/19创新基地/沁恒/例程/Libraries/Device/CH32V10x_p/CH32V10x_Lib/ch32v10x_tim.c:196
  tmpccmrx &= (uint16_t)(~((uint16_t)TIM_CC3S));  
    115c:	f8c77713          	andi	a4,a4,-116
C:/Users/Kanesh's laptop/Desktop/19创新基地/沁恒/例程/Libraries/Device/CH32V10x_p/CH32V10x_Lib/ch32v10x_tim.c:197
  tmpccmrx |= TIM_OCInitStruct->TIM_OCMode;
    1160:	8f55                	or	a4,a4,a3
C:/Users/Kanesh's laptop/Desktop/19创新基地/沁恒/例程/Libraries/Device/CH32V10x_p/CH32V10x_Lib/ch32v10x_tim.c:200
  tmpccer |= (uint16_t)(TIM_OCInitStruct->TIM_OutputState << 8);
    1162:	0025d683          	lhu	a3,2(a1)
C:/Users/Kanesh's laptop/Desktop/19创新基地/沁恒/例程/Libraries/Device/CH32V10x_p/CH32V10x_Lib/ch32v10x_tim.c:192
  tmpccer = TIMx->CCER;
    1166:	83c1                	srli	a5,a5,0x10
C:/Users/Kanesh's laptop/Desktop/19创新基地/沁恒/例程/Libraries/Device/CH32V10x_p/CH32V10x_Lib/ch32v10x_tim.c:198
  tmpccer &= (uint16_t)(~((uint16_t)TIM_CC3P));
    1168:	dff7f793          	andi	a5,a5,-513
C:/Users/Kanesh's laptop/Desktop/19创新基地/沁恒/例程/Libraries/Device/CH32V10x_p/CH32V10x_Lib/ch32v10x_tim.c:200
  tmpccer |= (uint16_t)(TIM_OCInitStruct->TIM_OutputState << 8);
    116c:	0106e6b3          	or	a3,a3,a6
    1170:	06a2                	slli	a3,a3,0x8
    1172:	8fd5                	or	a5,a5,a3
C:/Users/Kanesh's laptop/Desktop/19创新基地/沁恒/例程/Libraries/Device/CH32V10x_p/CH32V10x_Lib/ch32v10x_tim.c:202
    
  if(TIMx == TIM1)
    1174:	400136b7          	lui	a3,0x40013
C:/Users/Kanesh's laptop/Desktop/19创新基地/沁恒/例程/Libraries/Device/CH32V10x_p/CH32V10x_Lib/ch32v10x_tim.c:200
  tmpccer |= (uint16_t)(TIM_OCInitStruct->TIM_OutputState << 8);
    1178:	07c2                	slli	a5,a5,0x10
C:/Users/Kanesh's laptop/Desktop/19创新基地/沁恒/例程/Libraries/Device/CH32V10x_p/CH32V10x_Lib/ch32v10x_tim.c:202
  if(TIMx == TIM1)
    117a:	c0068693          	addi	a3,a3,-1024 # 40012c00 <_eusrstack+0x2000dc00>
C:/Users/Kanesh's laptop/Desktop/19创新基地/沁恒/例程/Libraries/Device/CH32V10x_p/CH32V10x_Lib/ch32v10x_tim.c:193
  tmpcr2 =  TIMx->CTLR2;
    117e:	8241                	srli	a2,a2,0x10
C:/Users/Kanesh's laptop/Desktop/19创新基地/沁恒/例程/Libraries/Device/CH32V10x_p/CH32V10x_Lib/ch32v10x_tim.c:200
  tmpccer |= (uint16_t)(TIM_OCInitStruct->TIM_OutputState << 8);
    1180:	83c1                	srli	a5,a5,0x10
C:/Users/Kanesh's laptop/Desktop/19创新基地/沁恒/例程/Libraries/Device/CH32V10x_p/CH32V10x_Lib/ch32v10x_tim.c:202
  if(TIMx == TIM1)
    1182:	04d51263          	bne	a0,a3,11c6 <TIM_OC3Init+0x9c>
C:/Users/Kanesh's laptop/Desktop/19创新基地/沁恒/例程/Libraries/Device/CH32V10x_p/CH32V10x_Lib/ch32v10x_tim.c:204
  {
    tmpccer &= (uint16_t)(~((uint16_t)TIM_CC3NP));
    1186:	76fd                	lui	a3,0xfffff
    1188:	7ff68693          	addi	a3,a3,2047 # fffff7ff <_eusrstack+0xdfffa7ff>
    118c:	8ff5                	and	a5,a5,a3
C:/Users/Kanesh's laptop/Desktop/19创新基地/沁恒/例程/Libraries/Device/CH32V10x_p/CH32V10x_Lib/ch32v10x_tim.c:205
    tmpccer |= (uint16_t)(TIM_OCInitStruct->TIM_OCNPolarity << 8);
    118e:	00a5d683          	lhu	a3,10(a1)
C:/Users/Kanesh's laptop/Desktop/19创新基地/沁恒/例程/Libraries/Device/CH32V10x_p/CH32V10x_Lib/ch32v10x_tim.c:210
    tmpccer &= (uint16_t)(~((uint16_t)TIM_CC3NE));
    tmpccer |= (uint16_t)(TIM_OCInitStruct->TIM_OutputNState << 8);
    tmpcr2 &= (uint16_t)(~((uint16_t)TIM_OIS3));
    tmpcr2 &= (uint16_t)(~((uint16_t)TIM_OIS3N));
    tmpcr2 |= (uint16_t)(TIM_OCInitStruct->TIM_OCIdleState << 4);
    1192:	00c5d803          	lhu	a6,12(a1)
C:/Users/Kanesh's laptop/Desktop/19创新基地/沁恒/例程/Libraries/Device/CH32V10x_p/CH32V10x_Lib/ch32v10x_tim.c:205
    tmpccer |= (uint16_t)(TIM_OCInitStruct->TIM_OCNPolarity << 8);
    1196:	06a2                	slli	a3,a3,0x8
    1198:	8fd5                	or	a5,a5,a3
C:/Users/Kanesh's laptop/Desktop/19创新基地/沁恒/例程/Libraries/Device/CH32V10x_p/CH32V10x_Lib/ch32v10x_tim.c:207
    tmpccer |= (uint16_t)(TIM_OCInitStruct->TIM_OutputNState << 8);
    119a:	0045d683          	lhu	a3,4(a1)
C:/Users/Kanesh's laptop/Desktop/19创新基地/沁恒/例程/Libraries/Device/CH32V10x_p/CH32V10x_Lib/ch32v10x_tim.c:205
    tmpccer |= (uint16_t)(TIM_OCInitStruct->TIM_OCNPolarity << 8);
    119e:	07c2                	slli	a5,a5,0x10
    11a0:	83c1                	srli	a5,a5,0x10
C:/Users/Kanesh's laptop/Desktop/19创新基地/沁恒/例程/Libraries/Device/CH32V10x_p/CH32V10x_Lib/ch32v10x_tim.c:207
    tmpccer |= (uint16_t)(TIM_OCInitStruct->TIM_OutputNState << 8);
    11a2:	06a2                	slli	a3,a3,0x8
C:/Users/Kanesh's laptop/Desktop/19创新基地/沁恒/例程/Libraries/Device/CH32V10x_p/CH32V10x_Lib/ch32v10x_tim.c:206
    tmpccer &= (uint16_t)(~((uint16_t)TIM_CC3NE));
    11a4:	bff7f793          	andi	a5,a5,-1025
C:/Users/Kanesh's laptop/Desktop/19创新基地/沁恒/例程/Libraries/Device/CH32V10x_p/CH32V10x_Lib/ch32v10x_tim.c:207
    tmpccer |= (uint16_t)(TIM_OCInitStruct->TIM_OutputNState << 8);
    11a8:	8fd5                	or	a5,a5,a3
C:/Users/Kanesh's laptop/Desktop/19创新基地/沁恒/例程/Libraries/Device/CH32V10x_p/CH32V10x_Lib/ch32v10x_tim.c:209
    tmpcr2 &= (uint16_t)(~((uint16_t)TIM_OIS3N));
    11aa:	76f5                	lui	a3,0xffffd
    11ac:	16fd                	addi	a3,a3,-1
    11ae:	8ef1                	and	a3,a3,a2
C:/Users/Kanesh's laptop/Desktop/19创新基地/沁恒/例程/Libraries/Device/CH32V10x_p/CH32V10x_Lib/ch32v10x_tim.c:211
    tmpcr2 |= (uint16_t)(TIM_OCInitStruct->TIM_OCNIdleState << 4);
    11b0:	00e5d603          	lhu	a2,14(a1)
C:/Users/Kanesh's laptop/Desktop/19创新基地/沁恒/例程/Libraries/Device/CH32V10x_p/CH32V10x_Lib/ch32v10x_tim.c:207
    tmpccer |= (uint16_t)(TIM_OCInitStruct->TIM_OutputNState << 8);
    11b4:	07c2                	slli	a5,a5,0x10
    11b6:	83c1                	srli	a5,a5,0x10
C:/Users/Kanesh's laptop/Desktop/19创新基地/沁恒/例程/Libraries/Device/CH32V10x_p/CH32V10x_Lib/ch32v10x_tim.c:211
    tmpcr2 |= (uint16_t)(TIM_OCInitStruct->TIM_OCNIdleState << 4);
    11b8:	01066633          	or	a2,a2,a6
    11bc:	0612                	slli	a2,a2,0x4
    11be:	8ed1                	or	a3,a3,a2
    11c0:	01069613          	slli	a2,a3,0x10
    11c4:	8241                	srli	a2,a2,0x10
C:/Users/Kanesh's laptop/Desktop/19创新基地/沁恒/例程/Libraries/Device/CH32V10x_p/CH32V10x_Lib/ch32v10x_tim.c:214
  }

  TIMx->CTLR2 = tmpcr2;
    11c6:	00c51223          	sh	a2,4(a0)
C:/Users/Kanesh's laptop/Desktop/19创新基地/沁恒/例程/Libraries/Device/CH32V10x_p/CH32V10x_Lib/ch32v10x_tim.c:215
  TIMx->CHCTLR2 = tmpccmrx;
    11ca:	00e51e23          	sh	a4,28(a0)
C:/Users/Kanesh's laptop/Desktop/19创新基地/沁恒/例程/Libraries/Device/CH32V10x_p/CH32V10x_Lib/ch32v10x_tim.c:216
  TIMx->CH3CVR = TIM_OCInitStruct->TIM_Pulse;
    11ce:	0065d703          	lhu	a4,6(a1)
    11d2:	02e51e23          	sh	a4,60(a0)
C:/Users/Kanesh's laptop/Desktop/19创新基地/沁恒/例程/Libraries/Device/CH32V10x_p/CH32V10x_Lib/ch32v10x_tim.c:217
  TIMx->CCER = tmpccer;
    11d6:	02f51023          	sh	a5,32(a0)
C:/Users/Kanesh's laptop/Desktop/19创新基地/沁恒/例程/Libraries/Device/CH32V10x_p/CH32V10x_Lib/ch32v10x_tim.c:218
}
    11da:	8082                	ret

000011dc <TIM_OC4Init>:
TIM_OC4Init():
C:/Users/Kanesh's laptop/Desktop/19创新基地/沁恒/例程/Libraries/Device/CH32V10x_p/CH32V10x_Lib/ch32v10x_tim.c:232
*******************************************************************************/
void TIM_OC4Init(TIM_TypeDef* TIMx, TIM_OCInitTypeDef* TIM_OCInitStruct)
{
  uint16_t tmpccmrx = 0, tmpccer = 0, tmpcr2 = 0;

  TIMx->CCER &= (uint16_t)(~((uint16_t)TIM_CC4E));
    11dc:	02055703          	lhu	a4,32(a0)
    11e0:	77fd                	lui	a5,0xfffff
    11e2:	17fd                	addi	a5,a5,-1
    11e4:	8ff9                	and	a5,a5,a4
    11e6:	02f51023          	sh	a5,32(a0)
C:/Users/Kanesh's laptop/Desktop/19创新基地/沁恒/例程/Libraries/Device/CH32V10x_p/CH32V10x_Lib/ch32v10x_tim.c:233
  tmpccer = TIMx->CCER;
    11ea:	02055803          	lhu	a6,32(a0)
C:/Users/Kanesh's laptop/Desktop/19创新基地/沁恒/例程/Libraries/Device/CH32V10x_p/CH32V10x_Lib/ch32v10x_tim.c:234
  tmpcr2 =  TIMx->CTLR2;
    11ee:	00455683          	lhu	a3,4(a0)
C:/Users/Kanesh's laptop/Desktop/19创新基地/沁恒/例程/Libraries/Device/CH32V10x_p/CH32V10x_Lib/ch32v10x_tim.c:235
  tmpccmrx = TIMx->CHCTLR2;
    11f2:	01c55783          	lhu	a5,28(a0)
C:/Users/Kanesh's laptop/Desktop/19创新基地/沁恒/例程/Libraries/Device/CH32V10x_p/CH32V10x_Lib/ch32v10x_tim.c:237
  tmpccmrx &= (uint16_t)(~((uint16_t)TIM_OC4M));
  tmpccmrx &= (uint16_t)(~((uint16_t)TIM_CC4S));
    11f6:	7765                	lui	a4,0xffff9
C:/Users/Kanesh's laptop/Desktop/19创新基地/沁恒/例程/Libraries/Device/CH32V10x_p/CH32V10x_Lib/ch32v10x_tim.c:238
  tmpccmrx |= (uint16_t)(TIM_OCInitStruct->TIM_OCMode << 8);
    11f8:	0005d603          	lhu	a2,0(a1)
C:/Users/Kanesh's laptop/Desktop/19创新基地/沁恒/例程/Libraries/Device/CH32V10x_p/CH32V10x_Lib/ch32v10x_tim.c:237
  tmpccmrx &= (uint16_t)(~((uint16_t)TIM_CC4S));
    11fc:	cff70713          	addi	a4,a4,-769 # ffff8cff <_eusrstack+0xdfff3cff>
    1200:	8f7d                	and	a4,a4,a5
C:/Users/Kanesh's laptop/Desktop/19创新基地/沁恒/例程/Libraries/Device/CH32V10x_p/CH32V10x_Lib/ch32v10x_tim.c:239
  tmpccer &= (uint16_t)(~((uint16_t)TIM_CC4P));
    1202:	77f9                	lui	a5,0xffffe
C:/Users/Kanesh's laptop/Desktop/19创新基地/沁恒/例程/Libraries/Device/CH32V10x_p/CH32V10x_Lib/ch32v10x_tim.c:238
  tmpccmrx |= (uint16_t)(TIM_OCInitStruct->TIM_OCMode << 8);
    1204:	0622                	slli	a2,a2,0x8
C:/Users/Kanesh's laptop/Desktop/19创新基地/沁恒/例程/Libraries/Device/CH32V10x_p/CH32V10x_Lib/ch32v10x_tim.c:239
  tmpccer &= (uint16_t)(~((uint16_t)TIM_CC4P));
    1206:	17fd                	addi	a5,a5,-1
C:/Users/Kanesh's laptop/Desktop/19创新基地/沁恒/例程/Libraries/Device/CH32V10x_p/CH32V10x_Lib/ch32v10x_tim.c:238
  tmpccmrx |= (uint16_t)(TIM_OCInitStruct->TIM_OCMode << 8);
    1208:	8f51                	or	a4,a4,a2
C:/Users/Kanesh's laptop/Desktop/19创新基地/沁恒/例程/Libraries/Device/CH32V10x_p/CH32V10x_Lib/ch32v10x_tim.c:239
  tmpccer &= (uint16_t)(~((uint16_t)TIM_CC4P));
    120a:	0107f7b3          	and	a5,a5,a6
C:/Users/Kanesh's laptop/Desktop/19创新基地/沁恒/例程/Libraries/Device/CH32V10x_p/CH32V10x_Lib/ch32v10x_tim.c:241
  tmpccer |= (uint16_t)(TIM_OCInitStruct->TIM_OCPolarity << 12);
  tmpccer |= (uint16_t)(TIM_OCInitStruct->TIM_OutputState << 12);
    120e:	0025d603          	lhu	a2,2(a1)
C:/Users/Kanesh's laptop/Desktop/19创新基地/沁恒/例程/Libraries/Device/CH32V10x_p/CH32V10x_Lib/ch32v10x_tim.c:240
  tmpccer |= (uint16_t)(TIM_OCInitStruct->TIM_OCPolarity << 12);
    1212:	0085d803          	lhu	a6,8(a1)
C:/Users/Kanesh's laptop/Desktop/19创新基地/沁恒/例程/Libraries/Device/CH32V10x_p/CH32V10x_Lib/ch32v10x_tim.c:234
  tmpcr2 =  TIMx->CTLR2;
    1216:	06c2                	slli	a3,a3,0x10
C:/Users/Kanesh's laptop/Desktop/19创新基地/沁恒/例程/Libraries/Device/CH32V10x_p/CH32V10x_Lib/ch32v10x_tim.c:238
  tmpccmrx |= (uint16_t)(TIM_OCInitStruct->TIM_OCMode << 8);
    1218:	0742                	slli	a4,a4,0x10
C:/Users/Kanesh's laptop/Desktop/19创新基地/沁恒/例程/Libraries/Device/CH32V10x_p/CH32V10x_Lib/ch32v10x_tim.c:241
  tmpccer |= (uint16_t)(TIM_OCInitStruct->TIM_OutputState << 12);
    121a:	01066633          	or	a2,a2,a6
    121e:	0632                	slli	a2,a2,0xc
    1220:	8fd1                	or	a5,a5,a2
C:/Users/Kanesh's laptop/Desktop/19创新基地/沁恒/例程/Libraries/Device/CH32V10x_p/CH32V10x_Lib/ch32v10x_tim.c:243
    
  if(TIMx == TIM1)
    1222:	40013637          	lui	a2,0x40013
C:/Users/Kanesh's laptop/Desktop/19创新基地/沁恒/例程/Libraries/Device/CH32V10x_p/CH32V10x_Lib/ch32v10x_tim.c:241
  tmpccer |= (uint16_t)(TIM_OCInitStruct->TIM_OutputState << 12);
    1226:	07c2                	slli	a5,a5,0x10
C:/Users/Kanesh's laptop/Desktop/19创新基地/沁恒/例程/Libraries/Device/CH32V10x_p/CH32V10x_Lib/ch32v10x_tim.c:243
  if(TIMx == TIM1)
    1228:	c0060613          	addi	a2,a2,-1024 # 40012c00 <_eusrstack+0x2000dc00>
C:/Users/Kanesh's laptop/Desktop/19创新基地/沁恒/例程/Libraries/Device/CH32V10x_p/CH32V10x_Lib/ch32v10x_tim.c:234
  tmpcr2 =  TIMx->CTLR2;
    122c:	82c1                	srli	a3,a3,0x10
C:/Users/Kanesh's laptop/Desktop/19创新基地/沁恒/例程/Libraries/Device/CH32V10x_p/CH32V10x_Lib/ch32v10x_tim.c:238
  tmpccmrx |= (uint16_t)(TIM_OCInitStruct->TIM_OCMode << 8);
    122e:	8341                	srli	a4,a4,0x10
C:/Users/Kanesh's laptop/Desktop/19创新基地/沁恒/例程/Libraries/Device/CH32V10x_p/CH32V10x_Lib/ch32v10x_tim.c:241
  tmpccer |= (uint16_t)(TIM_OCInitStruct->TIM_OutputState << 12);
    1230:	83c1                	srli	a5,a5,0x10
C:/Users/Kanesh's laptop/Desktop/19创新基地/沁恒/例程/Libraries/Device/CH32V10x_p/CH32V10x_Lib/ch32v10x_tim.c:243
  if(TIMx == TIM1)
    1232:	00c51b63          	bne	a0,a2,1248 <TIM_OC4Init+0x6c>
C:/Users/Kanesh's laptop/Desktop/19创新基地/沁恒/例程/Libraries/Device/CH32V10x_p/CH32V10x_Lib/ch32v10x_tim.c:245
  {
    tmpcr2 &= (uint16_t)(~((uint16_t)TIM_OIS4));
    1236:	7671                	lui	a2,0xffffc
    1238:	167d                	addi	a2,a2,-1
    123a:	8ef1                	and	a3,a3,a2
C:/Users/Kanesh's laptop/Desktop/19创新基地/沁恒/例程/Libraries/Device/CH32V10x_p/CH32V10x_Lib/ch32v10x_tim.c:246
    tmpcr2 |= (uint16_t)(TIM_OCInitStruct->TIM_OCIdleState << 6);
    123c:	00c5d603          	lhu	a2,12(a1)
    1240:	061a                	slli	a2,a2,0x6
    1242:	8ed1                	or	a3,a3,a2
    1244:	06c2                	slli	a3,a3,0x10
    1246:	82c1                	srli	a3,a3,0x10
C:/Users/Kanesh's laptop/Desktop/19创新基地/沁恒/例程/Libraries/Device/CH32V10x_p/CH32V10x_Lib/ch32v10x_tim.c:249
  }

  TIMx->CTLR2 = tmpcr2; 
    1248:	00d51223          	sh	a3,4(a0)
C:/Users/Kanesh's laptop/Desktop/19创新基地/沁恒/例程/Libraries/Device/CH32V10x_p/CH32V10x_Lib/ch32v10x_tim.c:250
  TIMx->CHCTLR2 = tmpccmrx;
    124c:	00e51e23          	sh	a4,28(a0)
C:/Users/Kanesh's laptop/Desktop/19创新基地/沁恒/例程/Libraries/Device/CH32V10x_p/CH32V10x_Lib/ch32v10x_tim.c:251
  TIMx->CH4CVR = TIM_OCInitStruct->TIM_Pulse;
    1250:	0065d703          	lhu	a4,6(a1)
    1254:	04e51023          	sh	a4,64(a0)
C:/Users/Kanesh's laptop/Desktop/19创新基地/沁恒/例程/Libraries/Device/CH32V10x_p/CH32V10x_Lib/ch32v10x_tim.c:252
  TIMx->CCER = tmpccer;
    1258:	02f51023          	sh	a5,32(a0)
C:/Users/Kanesh's laptop/Desktop/19创新基地/沁恒/例程/Libraries/Device/CH32V10x_p/CH32V10x_Lib/ch32v10x_tim.c:253
}
    125c:	8082                	ret

0000125e <TIM_Cmd>:
TIM_Cmd():
C:/Users/Kanesh's laptop/Desktop/19创新基地/沁恒/例程/Libraries/Device/CH32V10x_p/CH32V10x_Lib/ch32v10x_tim.c:436
*******************************************************************************/
void TIM_Cmd(TIM_TypeDef* TIMx, FunctionalState NewState)
{ 
  if (NewState != DISABLE)
  {
    TIMx->CTLR1 |= TIM_CEN;
    125e:	00055783          	lhu	a5,0(a0)
C:/Users/Kanesh's laptop/Desktop/19创新基地/沁恒/例程/Libraries/Device/CH32V10x_p/CH32V10x_Lib/ch32v10x_tim.c:434
  if (NewState != DISABLE)
    1262:	c591                	beqz	a1,126e <TIM_Cmd+0x10>
C:/Users/Kanesh's laptop/Desktop/19创新基地/沁恒/例程/Libraries/Device/CH32V10x_p/CH32V10x_Lib/ch32v10x_tim.c:436
    TIMx->CTLR1 |= TIM_CEN;
    1264:	0017e793          	ori	a5,a5,1
C:/Users/Kanesh's laptop/Desktop/19创新基地/沁恒/例程/Libraries/Device/CH32V10x_p/CH32V10x_Lib/ch32v10x_tim.c:440
  }
  else
  {
    TIMx->CTLR1 &= (uint16_t)(~((uint16_t)TIM_CEN));
    1268:	00f51023          	sh	a5,0(a0)
C:/Users/Kanesh's laptop/Desktop/19创新基地/沁恒/例程/Libraries/Device/CH32V10x_p/CH32V10x_Lib/ch32v10x_tim.c:442
  }
}
    126c:	8082                	ret
C:/Users/Kanesh's laptop/Desktop/19创新基地/沁恒/例程/Libraries/Device/CH32V10x_p/CH32V10x_Lib/ch32v10x_tim.c:440
    TIMx->CTLR1 &= (uint16_t)(~((uint16_t)TIM_CEN));
    126e:	07c2                	slli	a5,a5,0x10
    1270:	83c1                	srli	a5,a5,0x10
    1272:	9bf9                	andi	a5,a5,-2
    1274:	07c2                	slli	a5,a5,0x10
    1276:	83c1                	srli	a5,a5,0x10
    1278:	bfc5                	j	1268 <TIM_Cmd+0xa>

0000127a <TIM_CtrlPWMOutputs>:
TIM_CtrlPWMOutputs():
C:/Users/Kanesh's laptop/Desktop/19创新基地/沁恒/例程/Libraries/Device/CH32V10x_p/CH32V10x_Lib/ch32v10x_tim.c:455
*******************************************************************************/
void TIM_CtrlPWMOutputs(TIM_TypeDef* TIMx, FunctionalState NewState)
{
  if (NewState != DISABLE)
  {
    TIMx->BDTR |= TIM_MOE;
    127a:	04455783          	lhu	a5,68(a0)
C:/Users/Kanesh's laptop/Desktop/19创新基地/沁恒/例程/Libraries/Device/CH32V10x_p/CH32V10x_Lib/ch32v10x_tim.c:453
  if (NewState != DISABLE)
    127e:	c591                	beqz	a1,128a <TIM_CtrlPWMOutputs+0x10>
C:/Users/Kanesh's laptop/Desktop/19创新基地/沁恒/例程/Libraries/Device/CH32V10x_p/CH32V10x_Lib/ch32v10x_tim.c:455
    TIMx->BDTR |= TIM_MOE;
    1280:	6721                	lui	a4,0x8
    1282:	8fd9                	or	a5,a5,a4
C:/Users/Kanesh's laptop/Desktop/19创新基地/沁恒/例程/Libraries/Device/CH32V10x_p/CH32V10x_Lib/ch32v10x_tim.c:459
  }
  else
  {
    TIMx->BDTR &= (uint16_t)(~((uint16_t)TIM_MOE));
    1284:	04f51223          	sh	a5,68(a0)
C:/Users/Kanesh's laptop/Desktop/19创新基地/沁恒/例程/Libraries/Device/CH32V10x_p/CH32V10x_Lib/ch32v10x_tim.c:461
  }  
}
    1288:	8082                	ret
C:/Users/Kanesh's laptop/Desktop/19创新基地/沁恒/例程/Libraries/Device/CH32V10x_p/CH32V10x_Lib/ch32v10x_tim.c:459
    TIMx->BDTR &= (uint16_t)(~((uint16_t)TIM_MOE));
    128a:	07c6                	slli	a5,a5,0x11
    128c:	83c5                	srli	a5,a5,0x11
    128e:	bfdd                	j	1284 <TIM_CtrlPWMOutputs+0xa>

00001290 <TIM_OC1PreloadConfig>:
TIM_OC1PreloadConfig():
C:/Users/Kanesh's laptop/Desktop/19创新基地/沁恒/例程/Libraries/Device/CH32V10x_p/CH32V10x_Lib/ch32v10x_tim.c:984
*******************************************************************************/
void TIM_OC1PreloadConfig(TIM_TypeDef* TIMx, uint16_t TIM_OCPreload)
{
  uint16_t tmpccmr1 = 0;

  tmpccmr1 = TIMx->CHCTLR1;
    1290:	01855783          	lhu	a5,24(a0)
    1294:	07c2                	slli	a5,a5,0x10
    1296:	83c1                	srli	a5,a5,0x10
C:/Users/Kanesh's laptop/Desktop/19创新基地/沁恒/例程/Libraries/Device/CH32V10x_p/CH32V10x_Lib/ch32v10x_tim.c:985
  tmpccmr1 &= (uint16_t)~((uint16_t)TIM_OC1PE);
    1298:	9bdd                	andi	a5,a5,-9
C:/Users/Kanesh's laptop/Desktop/19创新基地/沁恒/例程/Libraries/Device/CH32V10x_p/CH32V10x_Lib/ch32v10x_tim.c:986
  tmpccmr1 |= TIM_OCPreload;
    129a:	8ddd                	or	a1,a1,a5
C:/Users/Kanesh's laptop/Desktop/19创新基地/沁恒/例程/Libraries/Device/CH32V10x_p/CH32V10x_Lib/ch32v10x_tim.c:987
  TIMx->CHCTLR1 = tmpccmr1;
    129c:	00b51c23          	sh	a1,24(a0)
C:/Users/Kanesh's laptop/Desktop/19创新基地/沁恒/例程/Libraries/Device/CH32V10x_p/CH32V10x_Lib/ch32v10x_tim.c:988
}
    12a0:	8082                	ret

000012a2 <TIM_OC2PreloadConfig>:
TIM_OC2PreloadConfig():
C:/Users/Kanesh's laptop/Desktop/19创新基地/沁恒/例程/Libraries/Device/CH32V10x_p/CH32V10x_Lib/ch32v10x_tim.c:1003
*******************************************************************************/
void TIM_OC2PreloadConfig(TIM_TypeDef* TIMx, uint16_t TIM_OCPreload)
{
  uint16_t tmpccmr1 = 0;

  tmpccmr1 = TIMx->CHCTLR1;
    12a2:	01855703          	lhu	a4,24(a0)
C:/Users/Kanesh's laptop/Desktop/19创新基地/沁恒/例程/Libraries/Device/CH32V10x_p/CH32V10x_Lib/ch32v10x_tim.c:1004
  tmpccmr1 &= (uint16_t)~((uint16_t)TIM_OC2PE);
    12a6:	77fd                	lui	a5,0xfffff
    12a8:	7ff78793          	addi	a5,a5,2047 # fffff7ff <_eusrstack+0xdfffa7ff>
    12ac:	8ff9                	and	a5,a5,a4
C:/Users/Kanesh's laptop/Desktop/19创新基地/沁恒/例程/Libraries/Device/CH32V10x_p/CH32V10x_Lib/ch32v10x_tim.c:1005
  tmpccmr1 |= (uint16_t)(TIM_OCPreload << 8);	
    12ae:	05a2                	slli	a1,a1,0x8
    12b0:	8fcd                	or	a5,a5,a1
    12b2:	07c2                	slli	a5,a5,0x10
    12b4:	83c1                	srli	a5,a5,0x10
C:/Users/Kanesh's laptop/Desktop/19创新基地/沁恒/例程/Libraries/Device/CH32V10x_p/CH32V10x_Lib/ch32v10x_tim.c:1006
  TIMx->CHCTLR1 = tmpccmr1;
    12b6:	00f51c23          	sh	a5,24(a0)
C:/Users/Kanesh's laptop/Desktop/19创新基地/沁恒/例程/Libraries/Device/CH32V10x_p/CH32V10x_Lib/ch32v10x_tim.c:1007
}
    12ba:	8082                	ret

000012bc <TIM_OC3PreloadConfig>:
TIM_OC3PreloadConfig():
C:/Users/Kanesh's laptop/Desktop/19创新基地/沁恒/例程/Libraries/Device/CH32V10x_p/CH32V10x_Lib/ch32v10x_tim.c:1022
*******************************************************************************/
void TIM_OC3PreloadConfig(TIM_TypeDef* TIMx, uint16_t TIM_OCPreload)
{
  uint16_t tmpccmr2 = 0;

  tmpccmr2 = TIMx->CHCTLR2;
    12bc:	01c55783          	lhu	a5,28(a0)
    12c0:	07c2                	slli	a5,a5,0x10
    12c2:	83c1                	srli	a5,a5,0x10
C:/Users/Kanesh's laptop/Desktop/19创新基地/沁恒/例程/Libraries/Device/CH32V10x_p/CH32V10x_Lib/ch32v10x_tim.c:1023
  tmpccmr2 &= (uint16_t)~((uint16_t)TIM_OC3PE);
    12c4:	9bdd                	andi	a5,a5,-9
C:/Users/Kanesh's laptop/Desktop/19创新基地/沁恒/例程/Libraries/Device/CH32V10x_p/CH32V10x_Lib/ch32v10x_tim.c:1024
  tmpccmr2 |= TIM_OCPreload;
    12c6:	8ddd                	or	a1,a1,a5
C:/Users/Kanesh's laptop/Desktop/19创新基地/沁恒/例程/Libraries/Device/CH32V10x_p/CH32V10x_Lib/ch32v10x_tim.c:1025
  TIMx->CHCTLR2 = tmpccmr2;
    12c8:	00b51e23          	sh	a1,28(a0)
C:/Users/Kanesh's laptop/Desktop/19创新基地/沁恒/例程/Libraries/Device/CH32V10x_p/CH32V10x_Lib/ch32v10x_tim.c:1026
}
    12cc:	8082                	ret

000012ce <TIM_OC4PreloadConfig>:
TIM_OC4PreloadConfig():
C:/Users/Kanesh's laptop/Desktop/19创新基地/沁恒/例程/Libraries/Device/CH32V10x_p/CH32V10x_Lib/ch32v10x_tim.c:1041
*******************************************************************************/
void TIM_OC4PreloadConfig(TIM_TypeDef* TIMx, uint16_t TIM_OCPreload)
{
  uint16_t tmpccmr2 = 0;

  tmpccmr2 = TIMx->CHCTLR2;
    12ce:	01c55703          	lhu	a4,28(a0)
C:/Users/Kanesh's laptop/Desktop/19创新基地/沁恒/例程/Libraries/Device/CH32V10x_p/CH32V10x_Lib/ch32v10x_tim.c:1042
  tmpccmr2 &= (uint16_t)~((uint16_t)TIM_OC4PE);
    12d2:	77fd                	lui	a5,0xfffff
    12d4:	7ff78793          	addi	a5,a5,2047 # fffff7ff <_eusrstack+0xdfffa7ff>
    12d8:	8ff9                	and	a5,a5,a4
C:/Users/Kanesh's laptop/Desktop/19创新基地/沁恒/例程/Libraries/Device/CH32V10x_p/CH32V10x_Lib/ch32v10x_tim.c:1043
  tmpccmr2 |= (uint16_t)(TIM_OCPreload << 8);
    12da:	05a2                	slli	a1,a1,0x8
    12dc:	8fcd                	or	a5,a5,a1
    12de:	07c2                	slli	a5,a5,0x10
    12e0:	83c1                	srli	a5,a5,0x10
C:/Users/Kanesh's laptop/Desktop/19创新基地/沁恒/例程/Libraries/Device/CH32V10x_p/CH32V10x_Lib/ch32v10x_tim.c:1044
  TIMx->CHCTLR2 = tmpccmr2;
    12e2:	00f51e23          	sh	a5,28(a0)
C:/Users/Kanesh's laptop/Desktop/19创新基地/沁恒/例程/Libraries/Device/CH32V10x_p/CH32V10x_Lib/ch32v10x_tim.c:1045
}
    12e6:	8082                	ret

000012e8 <TIM_OC2PolarityConfig>:
TIM_OC2PolarityConfig():
C:/Users/Kanesh's laptop/Desktop/19创新基地/沁恒/例程/Libraries/Device/CH32V10x_p/CH32V10x_Lib/ch32v10x_tim.c:1250
*******************************************************************************/
void TIM_OC2PolarityConfig(TIM_TypeDef* TIMx, uint16_t TIM_OCPolarity)
{
  uint16_t tmpccer = 0;

  tmpccer = TIMx->CCER;
    12e8:	02055783          	lhu	a5,32(a0)
C:/Users/Kanesh's laptop/Desktop/19创新基地/沁恒/例程/Libraries/Device/CH32V10x_p/CH32V10x_Lib/ch32v10x_tim.c:1252
  tmpccer &= (uint16_t)~((uint16_t)TIM_CC2P);
  tmpccer |= (uint16_t)(TIM_OCPolarity << 4);
    12ec:	0592                	slli	a1,a1,0x4
C:/Users/Kanesh's laptop/Desktop/19创新基地/沁恒/例程/Libraries/Device/CH32V10x_p/CH32V10x_Lib/ch32v10x_tim.c:1250
  tmpccer = TIMx->CCER;
    12ee:	07c2                	slli	a5,a5,0x10
    12f0:	83c1                	srli	a5,a5,0x10
C:/Users/Kanesh's laptop/Desktop/19创新基地/沁恒/例程/Libraries/Device/CH32V10x_p/CH32V10x_Lib/ch32v10x_tim.c:1251
  tmpccer &= (uint16_t)~((uint16_t)TIM_CC2P);
    12f2:	fdf7f793          	andi	a5,a5,-33
C:/Users/Kanesh's laptop/Desktop/19创新基地/沁恒/例程/Libraries/Device/CH32V10x_p/CH32V10x_Lib/ch32v10x_tim.c:1252
  tmpccer |= (uint16_t)(TIM_OCPolarity << 4);
    12f6:	8fcd                	or	a5,a5,a1
    12f8:	07c2                	slli	a5,a5,0x10
    12fa:	83c1                	srli	a5,a5,0x10
C:/Users/Kanesh's laptop/Desktop/19创新基地/沁恒/例程/Libraries/Device/CH32V10x_p/CH32V10x_Lib/ch32v10x_tim.c:1253
  TIMx->CCER = tmpccer;
    12fc:	02f51023          	sh	a5,32(a0)
C:/Users/Kanesh's laptop/Desktop/19创新基地/沁恒/例程/Libraries/Device/CH32V10x_p/CH32V10x_Lib/ch32v10x_tim.c:1254
}
    1300:	8082                	ret

00001302 <TIM_SetCounter>:
TIM_SetCounter():
C:/Users/Kanesh's laptop/Desktop/19创新基地/沁恒/例程/Libraries/Device/CH32V10x_p/CH32V10x_Lib/ch32v10x_tim.c:1565
*                  Counter: specifies the Counter register new value.
* Return         : None
*******************************************************************************/
void TIM_SetCounter(TIM_TypeDef* TIMx, uint16_t Counter)
{
  TIMx->CNT = Counter;
    1302:	02b51223          	sh	a1,36(a0)
C:/Users/Kanesh's laptop/Desktop/19创新基地/沁恒/例程/Libraries/Device/CH32V10x_p/CH32V10x_Lib/ch32v10x_tim.c:1566
}
    1306:	8082                	ret

00001308 <TIM_GetFlagStatus>:
TIM_GetFlagStatus():
C:/Users/Kanesh's laptop/Desktop/19创新基地/沁恒/例程/Libraries/Device/CH32V10x_p/CH32V10x_Lib/ch32v10x_tim.c:1801
*******************************************************************************/
FlagStatus TIM_GetFlagStatus(TIM_TypeDef* TIMx, uint16_t TIM_FLAG)
{ 
  ITStatus bitstatus = RESET;  
  
  if ((TIMx->INTFR & TIM_FLAG) != (uint16_t)RESET)
    1308:	01055503          	lhu	a0,16(a0)
    130c:	8d6d                	and	a0,a0,a1
C:/Users/Kanesh's laptop/Desktop/19创新基地/沁恒/例程/Libraries/Device/CH32V10x_p/CH32V10x_Lib/ch32v10x_tim.c:1811
  {
    bitstatus = RESET;
  }
	
  return bitstatus;
}
    130e:	00a03533          	snez	a0,a0
    1312:	8082                	ret

00001314 <TIM_ClearFlag>:
TIM_ClearFlag():
C:/Users/Kanesh's laptop/Desktop/19创新基地/沁恒/例程/Libraries/Device/CH32V10x_p/CH32V10x_Lib/ch32v10x_tim.c:1834
*                    TIM_FLAG_CC4OF: TIM Capture Compare 4 overcapture Flag.
* Return         : None
*******************************************************************************/
void TIM_ClearFlag(TIM_TypeDef* TIMx, uint16_t TIM_FLAG)
{  
  TIMx->INTFR = (uint16_t)~TIM_FLAG;
    1314:	fff5c593          	not	a1,a1
    1318:	05c2                	slli	a1,a1,0x10
    131a:	81c1                	srli	a1,a1,0x10
    131c:	00b51823          	sh	a1,16(a0)
C:/Users/Kanesh's laptop/Desktop/19创新基地/沁恒/例程/Libraries/Device/CH32V10x_p/CH32V10x_Lib/ch32v10x_tim.c:1835
}
    1320:	8082                	ret

00001322 <TIM_GetITStatus>:
TIM_GetITStatus():
C:/Users/Kanesh's laptop/Desktop/19创新基地/沁恒/例程/Libraries/Device/CH32V10x_p/CH32V10x_Lib/ch32v10x_tim.c:1857
ITStatus TIM_GetITStatus(TIM_TypeDef* TIMx, uint16_t TIM_IT)
{
  ITStatus bitstatus = RESET;  
  uint16_t itstatus = 0x0, itenable = 0x0;
   
  itstatus = TIMx->INTFR & TIM_IT;
    1322:	01055783          	lhu	a5,16(a0)
C:/Users/Kanesh's laptop/Desktop/19创新基地/沁恒/例程/Libraries/Device/CH32V10x_p/CH32V10x_Lib/ch32v10x_tim.c:1859
  
  itenable = TIMx->DMAINTENR & TIM_IT;
    1326:	00c55503          	lhu	a0,12(a0)
C:/Users/Kanesh's laptop/Desktop/19创新基地/沁恒/例程/Libraries/Device/CH32V10x_p/CH32V10x_Lib/ch32v10x_tim.c:1860
  if ((itstatus != (uint16_t)RESET) && (itenable != (uint16_t)RESET))
    132a:	8fed                	and	a5,a5,a1
C:/Users/Kanesh's laptop/Desktop/19创新基地/沁恒/例程/Libraries/Device/CH32V10x_p/CH32V10x_Lib/ch32v10x_tim.c:1859
  itenable = TIMx->DMAINTENR & TIM_IT;
    132c:	0542                	slli	a0,a0,0x10
    132e:	8141                	srli	a0,a0,0x10
C:/Users/Kanesh's laptop/Desktop/19创新基地/沁恒/例程/Libraries/Device/CH32V10x_p/CH32V10x_Lib/ch32v10x_tim.c:1860
  if ((itstatus != (uint16_t)RESET) && (itenable != (uint16_t)RESET))
    1330:	c789                	beqz	a5,133a <TIM_GetITStatus+0x18>
C:/Users/Kanesh's laptop/Desktop/19创新基地/沁恒/例程/Libraries/Device/CH32V10x_p/CH32V10x_Lib/ch32v10x_tim.c:1860 (discriminator 1)
    1332:	8d6d                	and	a0,a0,a1
    1334:	00a03533          	snez	a0,a0
    1338:	8082                	ret
C:/Users/Kanesh's laptop/Desktop/19创新基地/沁恒/例程/Libraries/Device/CH32V10x_p/CH32V10x_Lib/ch32v10x_tim.c:1866
  {
    bitstatus = SET;
  }
  else
  {
    bitstatus = RESET;
    133a:	4501                	li	a0,0
C:/Users/Kanesh's laptop/Desktop/19创新基地/沁恒/例程/Libraries/Device/CH32V10x_p/CH32V10x_Lib/ch32v10x_tim.c:1870
  }
	
  return bitstatus;
}
    133c:	8082                	ret

0000133e <TIM_ClearITPendingBit>:
TIM_ClearITPendingBit():
    133e:	fff5c593          	not	a1,a1
    1342:	05c2                	slli	a1,a1,0x10
    1344:	81c1                	srli	a1,a1,0x10
    1346:	00b51823          	sh	a1,16(a0)
    134a:	8082                	ret

0000134c <USART_Init>:
USART_Init():
C:/Users/Kanesh's laptop/Desktop/19创新基地/沁恒/例程/Libraries/Device/CH32V10x_p/CH32V10x_Lib/ch32v10x_usart.c:117
  if (USART_InitStruct->USART_HardwareFlowControl != USART_HardwareFlowControl_None)
  {
  }

  usartxbase = (uint32_t)USARTx;
  tmpreg = USARTx->CTLR2;
    134c:	01055683          	lhu	a3,16(a0)
    1350:	77f5                	lui	a5,0xffffd
    1352:	17fd                	addi	a5,a5,-1
    1354:	8ff5                	and	a5,a5,a3
    1356:	0065d683          	lhu	a3,6(a1)
C:/Users/Kanesh's laptop/Desktop/19创新基地/沁恒/例程/Libraries/Device/CH32V10x_p/CH32V10x_Lib/ch32v10x_usart.c:105
{
    135a:	7139                	addi	sp,sp,-64
    135c:	dc22                	sw	s0,56(sp)
    135e:	de06                	sw	ra,60(sp)
    1360:	8fd5                	or	a5,a5,a3
C:/Users/Kanesh's laptop/Desktop/19创新基地/沁恒/例程/Libraries/Device/CH32V10x_p/CH32V10x_Lib/ch32v10x_usart.c:112
  if (USART_InitStruct->USART_HardwareFlowControl != USART_HardwareFlowControl_None)
    1362:	00c5d703          	lhu	a4,12(a1)
C:/Users/Kanesh's laptop/Desktop/19创新基地/沁恒/例程/Libraries/Device/CH32V10x_p/CH32V10x_Lib/ch32v10x_usart.c:121
  tmpreg &= CTLR2_STOP_CLEAR_Mask;
  tmpreg |= (uint32_t)USART_InitStruct->USART_StopBits;  
	
  USARTx->CTLR2 = (uint16_t)tmpreg;
    1366:	00f51823          	sh	a5,16(a0)
C:/Users/Kanesh's laptop/Desktop/19创新基地/沁恒/例程/Libraries/Device/CH32V10x_p/CH32V10x_Lib/ch32v10x_usart.c:122
  tmpreg = USARTx->CTLR1;
    136a:	00c55683          	lhu	a3,12(a0)
C:/Users/Kanesh's laptop/Desktop/19创新基地/沁恒/例程/Libraries/Device/CH32V10x_p/CH32V10x_Lib/ch32v10x_usart.c:124
  tmpreg &= CTLR1_CLEAR_Mask;
  tmpreg |= (uint32_t)USART_InitStruct->USART_WordLength | USART_InitStruct->USART_Parity |
    136e:	77fd                	lui	a5,0xfffff
    1370:	9f378793          	addi	a5,a5,-1549 # ffffe9f3 <_eusrstack+0xdfff99f3>
    1374:	8ff5                	and	a5,a5,a3
    1376:	0045d683          	lhu	a3,4(a1)
C:/Users/Kanesh's laptop/Desktop/19创新基地/沁恒/例程/Libraries/Device/CH32V10x_p/CH32V10x_Lib/ch32v10x_usart.c:105
{
    137a:	842a                	mv	s0,a0
    137c:	c62e                	sw	a1,12(sp)
    137e:	8fd5                	or	a5,a5,a3
    1380:	0085d683          	lhu	a3,8(a1)
    1384:	8fd5                	or	a5,a5,a3
    1386:	00a5d683          	lhu	a3,10(a1)
    138a:	8fd5                	or	a5,a5,a3
C:/Users/Kanesh's laptop/Desktop/19创新基地/沁恒/例程/Libraries/Device/CH32V10x_p/CH32V10x_Lib/ch32v10x_usart.c:126
            USART_InitStruct->USART_Mode;
  USARTx->CTLR1 = (uint16_t)tmpreg;
    138c:	00f51623          	sh	a5,12(a0)
C:/Users/Kanesh's laptop/Desktop/19创新基地/沁恒/例程/Libraries/Device/CH32V10x_p/CH32V10x_Lib/ch32v10x_usart.c:128
 
  tmpreg = USARTx->CTLR3;
    1390:	01455783          	lhu	a5,20(a0)
    1394:	07c2                	slli	a5,a5,0x10
    1396:	83c1                	srli	a5,a5,0x10
C:/Users/Kanesh's laptop/Desktop/19创新基地/沁恒/例程/Libraries/Device/CH32V10x_p/CH32V10x_Lib/ch32v10x_usart.c:130
  tmpreg &= CTLR3_CLEAR_Mask;
  tmpreg |= USART_InitStruct->USART_HardwareFlowControl;
    1398:	cff7f793          	andi	a5,a5,-769
    139c:	8fd9                	or	a5,a5,a4
C:/Users/Kanesh's laptop/Desktop/19创新基地/沁恒/例程/Libraries/Device/CH32V10x_p/CH32V10x_Lib/ch32v10x_usart.c:131
  USARTx->CTLR3 = (uint16_t)tmpreg;
    139e:	00f51a23          	sh	a5,20(a0)
C:/Users/Kanesh's laptop/Desktop/19创新基地/沁恒/例程/Libraries/Device/CH32V10x_p/CH32V10x_Lib/ch32v10x_usart.c:133

  RCC_GetClocksFreq(&RCC_ClocksStatus);
    13a2:	0868                	addi	a0,sp,28
    13a4:	34cd                	jal	e86 <RCC_GetClocksFreq>
C:/Users/Kanesh's laptop/Desktop/19创新基地/沁恒/例程/Libraries/Device/CH32V10x_p/CH32V10x_Lib/ch32v10x_usart.c:135
	
  if (usartxbase == USART1_BASE)
    13a6:	400147b7          	lui	a5,0x40014
    13aa:	80078793          	addi	a5,a5,-2048 # 40013800 <_eusrstack+0x2000e800>
    13ae:	45b2                	lw	a1,12(sp)
    13b0:	04f41e63          	bne	s0,a5,140c <USART_Init+0xc0>
C:/Users/Kanesh's laptop/Desktop/19创新基地/沁恒/例程/Libraries/Device/CH32V10x_p/CH32V10x_Lib/ch32v10x_usart.c:137
  {
    apbclock = RCC_ClocksStatus.PCLK2_Frequency;
    13b4:	57a2                	lw	a5,40(sp)
C:/Users/Kanesh's laptop/Desktop/19创新基地/沁恒/例程/Libraries/Device/CH32V10x_p/CH32V10x_Lib/ch32v10x_usart.c:144
  else
  {
    apbclock = RCC_ClocksStatus.PCLK1_Frequency;
  }
  
  if ((USARTx->CTLR1 & CTLR1_OVER8_Set) != 0)
    13b6:	00c45683          	lhu	a3,12(s0)
    13ba:	4765                	li	a4,25
    13bc:	02e787b3          	mul	a5,a5,a4
    13c0:	06c2                	slli	a3,a3,0x10
    13c2:	86c1                	srai	a3,a3,0x10
    13c4:	4198                	lw	a4,0(a1)
    13c6:	0406d563          	bgez	a3,1410 <USART_Init+0xc4>
C:/Users/Kanesh's laptop/Desktop/19创新基地/沁恒/例程/Libraries/Device/CH32V10x_p/CH32V10x_Lib/ch32v10x_usart.c:146
  {
    integerdivider = ((25 * apbclock) / (2 * (USART_InitStruct->USART_BaudRate)));    
    13ca:	0706                	slli	a4,a4,0x1
C:/Users/Kanesh's laptop/Desktop/19创新基地/沁恒/例程/Libraries/Device/CH32V10x_p/CH32V10x_Lib/ch32v10x_usart.c:156
  }
  tmpreg = (integerdivider / 100) << 4;

  fractionaldivider = integerdivider - (100 * (tmpreg >> 4));

  if ((USARTx->CTLR1 & CTLR1_OVER8_Set) != 0)
    13cc:	00c45603          	lhu	a2,12(s0)
    13d0:	0642                	slli	a2,a2,0x10
C:/Users/Kanesh's laptop/Desktop/19创新基地/沁恒/例程/Libraries/Device/CH32V10x_p/CH32V10x_Lib/ch32v10x_usart.c:150
    integerdivider = ((25 * apbclock) / (4 * (USART_InitStruct->USART_BaudRate)));    
    13d2:	02e7d7b3          	divu	a5,a5,a4
C:/Users/Kanesh's laptop/Desktop/19创新基地/沁恒/例程/Libraries/Device/CH32V10x_p/CH32V10x_Lib/ch32v10x_usart.c:152
  tmpreg = (integerdivider / 100) << 4;
    13d6:	06400713          	li	a4,100
C:/Users/Kanesh's laptop/Desktop/19创新基地/沁恒/例程/Libraries/Device/CH32V10x_p/CH32V10x_Lib/ch32v10x_usart.c:156
  if ((USARTx->CTLR1 & CTLR1_OVER8_Set) != 0)
    13da:	8641                	srai	a2,a2,0x10
C:/Users/Kanesh's laptop/Desktop/19创新基地/沁恒/例程/Libraries/Device/CH32V10x_p/CH32V10x_Lib/ch32v10x_usart.c:152
  tmpreg = (integerdivider / 100) << 4;
    13dc:	02e7d6b3          	divu	a3,a5,a4
    13e0:	02e7f7b3          	remu	a5,a5,a4
    13e4:	0692                	slli	a3,a3,0x4
C:/Users/Kanesh's laptop/Desktop/19创新基地/沁恒/例程/Libraries/Device/CH32V10x_p/CH32V10x_Lib/ch32v10x_usart.c:156
  if ((USARTx->CTLR1 & CTLR1_OVER8_Set) != 0)
    13e6:	02065763          	bgez	a2,1414 <USART_Init+0xc8>
C:/Users/Kanesh's laptop/Desktop/19创新基地/沁恒/例程/Libraries/Device/CH32V10x_p/CH32V10x_Lib/ch32v10x_usart.c:158
  {
    tmpreg |= ((((fractionaldivider * 8) + 50) / 100)) & ((uint8_t)0x07);
    13ea:	078e                	slli	a5,a5,0x3
    13ec:	03278793          	addi	a5,a5,50
    13f0:	02e7d7b3          	divu	a5,a5,a4
    13f4:	0077f713          	andi	a4,a5,7
    13f8:	00d767b3          	or	a5,a4,a3
C:/Users/Kanesh's laptop/Desktop/19创新基地/沁恒/例程/Libraries/Device/CH32V10x_p/CH32V10x_Lib/ch32v10x_usart.c:165
  else 
  {
    tmpreg |= ((((fractionaldivider * 16) + 50) / 100)) & ((uint8_t)0x0F);
  }
  
  USARTx->BRR = (uint16_t)tmpreg;
    13fc:	07c2                	slli	a5,a5,0x10
    13fe:	83c1                	srli	a5,a5,0x10
    1400:	00f41423          	sh	a5,8(s0)
C:/Users/Kanesh's laptop/Desktop/19创新基地/沁恒/例程/Libraries/Device/CH32V10x_p/CH32V10x_Lib/ch32v10x_usart.c:166
}
    1404:	50f2                	lw	ra,60(sp)
    1406:	5462                	lw	s0,56(sp)
    1408:	6121                	addi	sp,sp,64
    140a:	8082                	ret
C:/Users/Kanesh's laptop/Desktop/19创新基地/沁恒/例程/Libraries/Device/CH32V10x_p/CH32V10x_Lib/ch32v10x_usart.c:141
    apbclock = RCC_ClocksStatus.PCLK1_Frequency;
    140c:	5792                	lw	a5,36(sp)
    140e:	b765                	j	13b6 <USART_Init+0x6a>
C:/Users/Kanesh's laptop/Desktop/19创新基地/沁恒/例程/Libraries/Device/CH32V10x_p/CH32V10x_Lib/ch32v10x_usart.c:150
    integerdivider = ((25 * apbclock) / (4 * (USART_InitStruct->USART_BaudRate)));    
    1410:	070a                	slli	a4,a4,0x2
    1412:	bf6d                	j	13cc <USART_Init+0x80>
C:/Users/Kanesh's laptop/Desktop/19创新基地/沁恒/例程/Libraries/Device/CH32V10x_p/CH32V10x_Lib/ch32v10x_usart.c:162
    tmpreg |= ((((fractionaldivider * 16) + 50) / 100)) & ((uint8_t)0x0F);
    1414:	0792                	slli	a5,a5,0x4
    1416:	03278793          	addi	a5,a5,50
    141a:	02e7d7b3          	divu	a5,a5,a4
    141e:	8bbd                	andi	a5,a5,15
    1420:	8fd5                	or	a5,a5,a3
    1422:	bfe9                	j	13fc <USART_Init+0xb0>

00001424 <USART_Cmd>:
USART_Cmd():
C:/Users/Kanesh's laptop/Desktop/19创新基地/沁恒/例程/Libraries/Device/CH32V10x_p/CH32V10x_Lib/ch32v10x_usart.c:230
*                  NewState: ENABLE or DISABLE.
* Return         : None
*******************************************************************************/
void USART_Cmd(USART_TypeDef* USARTx, FunctionalState NewState)
{
  if (NewState != DISABLE)
    1424:	c981                	beqz	a1,1434 <USART_Cmd+0x10>
C:/Users/Kanesh's laptop/Desktop/19创新基地/沁恒/例程/Libraries/Device/CH32V10x_p/CH32V10x_Lib/ch32v10x_usart.c:232
  {
    USARTx->CTLR1 |= CTLR1_UE_Set;
    1426:	00c55783          	lhu	a5,12(a0)
    142a:	6709                	lui	a4,0x2
    142c:	8fd9                	or	a5,a5,a4
C:/Users/Kanesh's laptop/Desktop/19创新基地/沁恒/例程/Libraries/Device/CH32V10x_p/CH32V10x_Lib/ch32v10x_usart.c:236
  }
  else
  {
    USARTx->CTLR1 &= CTLR1_UE_Reset;
    142e:	00f51623          	sh	a5,12(a0)
C:/Users/Kanesh's laptop/Desktop/19创新基地/沁恒/例程/Libraries/Device/CH32V10x_p/CH32V10x_Lib/ch32v10x_usart.c:238
  }
}
    1432:	8082                	ret
C:/Users/Kanesh's laptop/Desktop/19创新基地/沁恒/例程/Libraries/Device/CH32V10x_p/CH32V10x_Lib/ch32v10x_usart.c:236
    USARTx->CTLR1 &= CTLR1_UE_Reset;
    1434:	00c55703          	lhu	a4,12(a0)
    1438:	77f9                	lui	a5,0xffffe
    143a:	17fd                	addi	a5,a5,-1
    143c:	8ff9                	and	a5,a5,a4
    143e:	bfc5                	j	142e <USART_Cmd+0xa>

00001440 <USART_GetITStatus>:
USART_GetITStatus():
C:/Users/Kanesh's laptop/Desktop/19创新基地/沁恒/例程/Libraries/Device/CH32V10x_p/CH32V10x_Lib/ch32v10x_usart.c:668

  if (USART_IT == USART_IT_CTS)
  {
  }   
  
  usartreg = (((uint8_t)USART_IT) >> 0x05);
    1440:	0ff5f713          	andi	a4,a1,255
C:/Users/Kanesh's laptop/Desktop/19创新基地/沁恒/例程/Libraries/Device/CH32V10x_p/CH32V10x_Lib/ch32v10x_usart.c:670
  itmask = USART_IT & IT_Mask;
  itmask = (uint32_t)0x01 << itmask;
    1444:	4685                	li	a3,1
C:/Users/Kanesh's laptop/Desktop/19创新基地/沁恒/例程/Libraries/Device/CH32V10x_p/CH32V10x_Lib/ch32v10x_usart.c:668
  usartreg = (((uint8_t)USART_IT) >> 0x05);
    1446:	8315                	srli	a4,a4,0x5
C:/Users/Kanesh's laptop/Desktop/19创新基地/沁恒/例程/Libraries/Device/CH32V10x_p/CH32V10x_Lib/ch32v10x_usart.c:670
  itmask = (uint32_t)0x01 << itmask;
    1448:	00b697b3          	sll	a5,a3,a1
C:/Users/Kanesh's laptop/Desktop/19创新基地/沁恒/例程/Libraries/Device/CH32V10x_p/CH32V10x_Lib/ch32v10x_usart.c:672
  
  if (usartreg == 0x01) 
    144c:	02d71363          	bne	a4,a3,1472 <USART_GetITStatus+0x32>
C:/Users/Kanesh's laptop/Desktop/19创新基地/沁恒/例程/Libraries/Device/CH32V10x_p/CH32V10x_Lib/ch32v10x_usart.c:674
  {
    itmask &= USARTx->CTLR1;
    1450:	00c55703          	lhu	a4,12(a0)
C:/Users/Kanesh's laptop/Desktop/19创新基地/沁恒/例程/Libraries/Device/CH32V10x_p/CH32V10x_Lib/ch32v10x_usart.c:682
  {
    itmask &= USARTx->CTLR2;
  }
  else 
  {
    itmask &= USARTx->CTLR3;
    1454:	8ff9                	and	a5,a5,a4
C:/Users/Kanesh's laptop/Desktop/19创新基地/沁恒/例程/Libraries/Device/CH32V10x_p/CH32V10x_Lib/ch32v10x_usart.c:687
  }
  
  bitpos = USART_IT >> 0x08;
  bitpos = (uint32_t)0x01 << bitpos;
  bitpos &= USARTx->STATR;
    1456:	00055703          	lhu	a4,0(a0)
C:/Users/Kanesh's laptop/Desktop/19创新基地/沁恒/例程/Libraries/Device/CH32V10x_p/CH32V10x_Lib/ch32v10x_usart.c:695
  {
    bitstatus = SET;
  }
  else
  {
    bitstatus = RESET;
    145a:	4501                	li	a0,0
C:/Users/Kanesh's laptop/Desktop/19创新基地/沁恒/例程/Libraries/Device/CH32V10x_p/CH32V10x_Lib/ch32v10x_usart.c:687
  bitpos &= USARTx->STATR;
    145c:	0742                	slli	a4,a4,0x10
    145e:	8341                	srli	a4,a4,0x10
C:/Users/Kanesh's laptop/Desktop/19创新基地/沁恒/例程/Libraries/Device/CH32V10x_p/CH32V10x_Lib/ch32v10x_usart.c:689
  if ((itmask != (uint16_t)RESET)&&(bitpos != (uint16_t)RESET))
    1460:	cb81                	beqz	a5,1470 <USART_GetITStatus+0x30>
C:/Users/Kanesh's laptop/Desktop/19创新基地/沁恒/例程/Libraries/Device/CH32V10x_p/CH32V10x_Lib/ch32v10x_usart.c:686 (discriminator 1)
  bitpos = (uint32_t)0x01 << bitpos;
    1462:	4505                	li	a0,1
C:/Users/Kanesh's laptop/Desktop/19创新基地/沁恒/例程/Libraries/Device/CH32V10x_p/CH32V10x_Lib/ch32v10x_usart.c:685 (discriminator 1)
  bitpos = USART_IT >> 0x08;
    1464:	81a1                	srli	a1,a1,0x8
C:/Users/Kanesh's laptop/Desktop/19创新基地/沁恒/例程/Libraries/Device/CH32V10x_p/CH32V10x_Lib/ch32v10x_usart.c:686 (discriminator 1)
  bitpos = (uint32_t)0x01 << bitpos;
    1466:	00b515b3          	sll	a1,a0,a1
C:/Users/Kanesh's laptop/Desktop/19创新基地/沁恒/例程/Libraries/Device/CH32V10x_p/CH32V10x_Lib/ch32v10x_usart.c:687 (discriminator 1)
  bitpos &= USARTx->STATR;
    146a:	8f6d                	and	a4,a4,a1
C:/Users/Kanesh's laptop/Desktop/19创新基地/沁恒/例程/Libraries/Device/CH32V10x_p/CH32V10x_Lib/ch32v10x_usart.c:689 (discriminator 1)
  if ((itmask != (uint16_t)RESET)&&(bitpos != (uint16_t)RESET))
    146c:	00e03533          	snez	a0,a4
C:/Users/Kanesh's laptop/Desktop/19创新基地/沁恒/例程/Libraries/Device/CH32V10x_p/CH32V10x_Lib/ch32v10x_usart.c:699
  }
  
  return bitstatus;  
}
    1470:	8082                	ret
C:/Users/Kanesh's laptop/Desktop/19创新基地/沁恒/例程/Libraries/Device/CH32V10x_p/CH32V10x_Lib/ch32v10x_usart.c:676
  else if (usartreg == 0x02) 
    1472:	4689                	li	a3,2
    1474:	00d71563          	bne	a4,a3,147e <USART_GetITStatus+0x3e>
C:/Users/Kanesh's laptop/Desktop/19创新基地/沁恒/例程/Libraries/Device/CH32V10x_p/CH32V10x_Lib/ch32v10x_usart.c:678
    itmask &= USARTx->CTLR2;
    1478:	01055703          	lhu	a4,16(a0)
    147c:	bfe1                	j	1454 <USART_GetITStatus+0x14>
C:/Users/Kanesh's laptop/Desktop/19创新基地/沁恒/例程/Libraries/Device/CH32V10x_p/CH32V10x_Lib/ch32v10x_usart.c:682
    itmask &= USARTx->CTLR3;
    147e:	01455703          	lhu	a4,20(a0)
    1482:	bfc9                	j	1454 <USART_GetITStatus+0x14>

00001484 <USART_ClearITPendingBit>:
USART_ClearITPendingBit():
C:/Users/Kanesh's laptop/Desktop/19创新基地/沁恒/例程/Libraries/Device/CH32V10x_p/CH32V10x_Lib/ch32v10x_usart.c:721
  if (USART_IT == USART_IT_CTS)
  {
  }   
  
  bitpos = USART_IT >> 0x08;
  itmask = ((uint16_t)0x01 << (uint16_t)bitpos);
    1484:	81a1                	srli	a1,a1,0x8
    1486:	4785                	li	a5,1
    1488:	00b797b3          	sll	a5,a5,a1
C:/Users/Kanesh's laptop/Desktop/19创新基地/沁恒/例程/Libraries/Device/CH32V10x_p/CH32V10x_Lib/ch32v10x_usart.c:722
  USARTx->STATR = (uint16_t)~itmask;
    148c:	fff7c793          	not	a5,a5
    1490:	07c2                	slli	a5,a5,0x10
    1492:	83c1                	srli	a5,a5,0x10
    1494:	00f51023          	sh	a5,0(a0)
C:/Users/Kanesh's laptop/Desktop/19创新基地/沁恒/例程/Libraries/Device/CH32V10x_p/CH32V10x_Lib/ch32v10x_usart.c:723
}
    1498:	8082                	ret
	...

0000149c <GPION>:
    149c:	0800 4001 0c00 4001 1000 4001 1400 4001     ...@...@...@...@

000014ac <TIMERN>:
    14ac:	2c00 4001 0000 4000 0400 4000 0800 4000     .,.@...@...@...@

000014bc <UARTN>:
    14bc:	3800 4001 4400 4000 4800 4000 4c00 4000     .8.@.D.@.H.@.L.@
