
02-Car_Light.elf:     file format elf32-littleriscv
02-Car_Light.elf
architecture: riscv:rv32, flags 0x00000112:
EXEC_P, HAS_SYMS, D_PAGED
start address 0x00000000

Program Header:
    LOAD off    0x00001000 vaddr 0x00000000 paddr 0x00000000 align 2**12
         filesz 0x00003b40 memsz 0x00003b40 flags r-x
    LOAD off    0x00005000 vaddr 0x20000000 paddr 0x00003b40 align 2**12
         filesz 0x00000038 memsz 0x00000050 flags rw-
    LOAD off    0x00005800 vaddr 0x20004800 paddr 0x20004800 align 2**12
         filesz 0x00000000 memsz 0x00000800 flags rw-

Sections:
Idx Name           Size      VMA       LMA       File off  Algn  Flags
  0 .init          00000038  00000000  00000000  00001000  2**1  CONTENTS, ALLOC, LOAD, READONLY, CODE
  1 .vector        00000108  00000038  00000038  00001038  2**1  CONTENTS, ALLOC, LOAD, READONLY, CODE
  2 .text          00003a00  00000140  00000140  00001140  2**2  CONTENTS, ALLOC, LOAD, READONLY, CODE
  3 .fini          00000000  00003b40  00003b40  00005038  2**0  CONTENTS, ALLOC, LOAD, CODE
  4 .dalign        00000000  20000000  20000000  00005038  2**0  CONTENTS
  5 .dlalign       00000000  00003b40  00003b40  00005038  2**0  CONTENTS
  6 .data          00000038  20000000  00003b40  00005000  2**2  CONTENTS, ALLOC, LOAD, DATA
  7 .bss           00000018  20000038  00003b78  00005038  2**2  ALLOC
  8 .stack         00000800  20004800  20004800  00005800  2**0  ALLOC
  9 .debug_info    00016ead  00000000  00000000  00005038  2**0  CONTENTS, READONLY, DEBUGGING
 10 .debug_abbrev  00003fcb  00000000  00000000  0001bee5  2**0  CONTENTS, READONLY, DEBUGGING
 11 .debug_aranges 00000c68  00000000  00000000  0001feb0  2**3  CONTENTS, READONLY, DEBUGGING
 12 .debug_ranges  00000a88  00000000  00000000  00020b18  2**3  CONTENTS, READONLY, DEBUGGING
 13 .debug_line    0000d762  00000000  00000000  000215a0  2**0  CONTENTS, READONLY, DEBUGGING
 14 .debug_str     00003d1e  00000000  00000000  0002ed02  2**0  CONTENTS, READONLY, DEBUGGING
 15 .comment       00000033  00000000  00000000  00032a20  2**0  CONTENTS, READONLY
 16 .debug_frame   00002944  00000000  00000000  00032a54  2**2  CONTENTS, READONLY, DEBUGGING
 17 .stabstr       00000183  00000000  00000000  00035398  2**0  CONTENTS, READONLY, DEBUGGING
SYMBOL TABLE:
00000000 l    d  .init	00000000 .init
00000038 l    d  .vector	00000000 .vector
00000140 l    d  .text	00000000 .text
00003b40 l    d  .fini	00000000 .fini
20000000 l    d  .dalign	00000000 .dalign
00003b40 l    d  .dlalign	00000000 .dlalign
20000000 l    d  .data	00000000 .data
20000038 l    d  .bss	00000000 .bss
20004800 l    d  .stack	00000000 .stack
00000000 l    d  .debug_info	00000000 .debug_info
00000000 l    d  .debug_abbrev	00000000 .debug_abbrev
00000000 l    d  .debug_aranges	00000000 .debug_aranges
00000000 l    d  .debug_ranges	00000000 .debug_ranges
00000000 l    d  .debug_line	00000000 .debug_line
00000000 l    d  .debug_str	00000000 .debug_str
00000000 l    d  .comment	00000000 .comment
00000000 l    d  .debug_frame	00000000 .debug_frame
00000000 l    d  .stabstr	00000000 .stabstr
00000000 l    df *ABS*	00000000 ./CH32V10x/CH32V10x_p/Startup/startup_ch32v10x.o
00000038 l       .vector	00000000 _vector_base
00000000 l    df *ABS*	00000000 isr.c
00000000 l    df *ABS*	00000000 main.c
00000000 l    df *ABS*	00000000 HF_L9110S_2.c
00000000 l    df *ABS*	00000000 HF_TM1637.c
00000000 l    df *ABS*	00000000 HF_WS2812b.c
00000000 l    df *ABS*	00000000 board.c
00000000 l    df *ABS*	00000000 clock_config.c
00000834 l     F .text	00000140 SetSysClock
00000000 l    df *ABS*	00000000 delay.c
2000003c l     O .bss	00000001 p_us
2000003e l     O .bss	00000002 p_ms
00000000 l    df *ABS*	00000000 hf_adc.c
00000000 l    df *ABS*	00000000 hf_gpio.c
00000000 l    df *ABS*	00000000 hf_nvic.c
00000000 l    df *ABS*	00000000 hf_pwm.c
00000000 l    df *ABS*	00000000 hf_tim.c
00000000 l    df *ABS*	00000000 hf_uart.c
00000000 l    df *ABS*	00000000 board_led.c
00000000 l    df *ABS*	00000000 car_4keys.c
00000000 l    df *ABS*	00000000 car_adc.c
00000000 l    df *ABS*	00000000 car_buzzer.c
00000000 l    df *ABS*	00000000 car_init.c
00000000 l    df *ABS*	00000000 car_light.c
20000040 l     O .bss	00000003 rgb_off
20000010 l     O .data	00000003 rgb_blue
20000014 l     O .data	00000003 rgb_green
20000018 l     O .data	00000003 rgb_cyan
2000001c l     O .data	00000003 rgb_red
20000020 l     O .data	00000003 rgb_purple
20000024 l     O .data	00000003 rgb_yellow
20000028 l     O .data	00000003 rgb_white
2000002c l     O .data	00000003 rgb_user_define
00000000 l    df *ABS*	00000000 car_motion.c
00000000 l    df *ABS*	00000000 car_reed_switch.c
00000000 l    df *ABS*	00000000 ch32v10x_adc.c
00000000 l    df *ABS*	00000000 ch32v10x_exti.c
00000000 l    df *ABS*	00000000 ch32v10x_gpio.c
00000000 l    df *ABS*	00000000 ch32v10x_rcc.c
20000000 l     O .data	00000010 APBAHBPrescTable
20000030 l     O .data	00000004 ADCPrescTable
00000000 l    df *ABS*	00000000 ch32v10x_tim.c
00000000 l    df *ABS*	00000000 ch32v10x_usart.c
00000000 l    df *ABS*	00000000 common.c
00000000 l    df *ABS*	00000000 close.c
00000188 g     F .text	00000010 EXTI2_IRQHandler
20000810 g       .data	00000000 __global_pointer$
00000150 g     F .text	00000008 HardFault_Handler
000023ac g     F .text	0000002a car_turnright
00001a34 g     F .text	00000080 key_init
00003454 g     F .text	0000004c TIM_OC1PreloadConfig
0000262a g     F .text	00000022 ADC_StartCalibration
20000038 g     O .bss	00000004 sys_clk
00002382 g     F .text	0000002a car_turnleft
00000140 g     F .text	00000010 NMI_Handler
00001796 g     F .text	000000ac timbase_init
00001cea g     F .text	0000002a car_both_rgb_off
00000198 g     F .text	00000010 EXTI3_IRQHandler
00001ad2 g     F .text	0000001e buzzer_init
00003b20 g     O .text	00000010 TIMERN
20000038 g       .bss	00000000 _sbss
00000800 g       *ABS*	00000000 __stack_size
00000682 g     F .text	00000026 tm1637_command
00001b9e g     F .text	0000014c car_both_rgb_on
000033f4 g     F .text	00000060 TIM_CtrlPWMOutputs
0000259a g     F .text	0000003e ADC_Cmd
00000eec g     F .text	0000007e gpio_bit_output
00000158 g     F .text	00000020 EXTI0_IRQHandler
0000339c g     F .text	00000058 TIM_Cmd
00003546 g     F .text	0000005a TIM_OC4PreloadConfig
00003660 g     F .text	0000002e TIM_ClearFlag
000019e8 g     F .text	0000004c board_led_init
00000038 g       .init	00000000 _einit
00000ff0 g     F .text	00000028 sys_recover_irq
000036fe g     F .text	0000002e TIM_ClearITPendingBit
00002bb0 g     F .text	00000046 RCC_APB2PeriphClockCmd
000001d8 g     F .text	00000010 ADC1_2_IRQHandler
000026f2 g     F .text	0000022a GPIO_Init
00000438 g     F .text	0000005e l9110s_forward
00002954 g     F .text	00000046 RCC_ADCCLKConfig
000025d8 g     F .text	00000022 ADC_ResetCalibration
00003960 g     F .text	00000060 USART_Cmd
00000bc8 g     F .text	00000180 adc_gpio_init
000030a2 g     F .text	000001b0 TIM_OC3Init
0000230c g     F .text	0000002a car_forward
00003ac2 g     F .text	0000004e USART_ClearITPendingBit
00001ab4 g     F .text	0000001e adc_channel_init
00002bf6 g     F .text	00000046 RCC_APB1PeriphClockCmd
00000a32 g     F .text	00000066 Delay_Us
0000361a g     F .text	00000046 TIM_GetFlagStatus
00001b10 g     F .text	00000080 car_init
00000308 g     F .text	00000034 USART3_IRQHandler
000026d2 g     F .text	00000020 EXTI_ClearITPendingBit
00002010 g     F .text	000002fc car_right_rgb_flash
0000264c g     F .text	00000030 ADC_GetCalibrationStatus
20000050 g       .bss	00000000 _ebss
000039c0 g     F .text	00000102 USART_GetITStatus
000005c0 g     F .text	0000003a tm1637_stop
00002d7c g     F .text	00000170 TIM_OC1Init
000034fa g     F .text	0000004c TIM_OC3PreloadConfig
000025fa g     F .text	00000030 ADC_GetResetCalibrationStatus
000009f0 g     F .text	00000042 Delay_Init
00003b30 g     O .text	00000010 UARTN
00001018 g     F .text	0000029a pwm_init
00000270 g     F .text	00000030 TIM4_IRQHandler
0000291c g     F .text	00000038 GPIO_WriteBit
20000050 g       .bss	00000000 end
0000368e g     F .text	00000070 TIM_GetITStatus
0000299a g     F .text	00000216 RCC_GetClocksFreq
00001842 g     F .text	000000ba uart_init
0000372c g     F .text	00000234 USART_Init
00000240 g     F .text	00000030 TIM3_IRQHandler
00000fa6 g     F .text	00000028 EnableGlobalIRQ
000018fc g     F .text	000000ec uart_gpio_init
0000052e g     F .text	0000004a tm1637_start
00000000 g       .init	00000000 _start
000034a0 g     F .text	0000005a TIM_OC2PreloadConfig
00000fce g     F .text	00000022 close_all_irq
000001c8 g     F .text	00000010 EXTI15_10_IRQHandler
00003b10 g     O .text	00000010 GPION
00002eec g     F .text	000001b6 TIM_OC2Init
20000000 g       .dalign	00000000 _data_vma
000023d6 g     F .text	00000022 reed_init
000006a8 g     F .text	00000052 ws2812b_init
00003252 g     F .text	0000014a TIM_OC4Init
000001b8 g     F .text	00000010 EXTI9_5_IRQHandler
000007ec g     F .text	00000048 board_init
00002360 g     F .text	00000022 car_stop
0000267c g     F .text	00000056 EXTI_GetITStatus
00000578 g     F .text	00000048 tm1637_wait_ack
0000033c g     F .text	00000094 main
00000496 g     F .text	0000005e l9110s_back
000006fa g     F .text	000000f2 ws2812b_write
000035f6 g     F .text	00000024 TIM_SetCounter
000001a8 g     F .text	00000010 EXTI4_IRQHandler
00000a98 g     F .text	00000066 Delay_Ms
00000f6a g     F .text	0000003c DisableGlobalIRQ
00000974 g     F .text	0000007c SystemInit
00000000 g       .init	00000000 _sinit
20000044 g     O .bss	0000000c irq_status
000001e8 g     F .text	00000030 TIM1_UP_IRQHandler
00001b90 g     F .text	0000000e int_init
00000afe g     F .text	000000ca adc_init
000013a4 g     F .text	0000008e pwm_freq
00000218 g     F .text	00000028 TIM2_IRQHandler
20005000 g       .stack	00000000 _eusrstack
00002336 g     F .text	0000002a car_back
000012b2 g     F .text	000000f2 pwm_duty
00002472 g     F .text	00000036 ADC_DeInit
000024a8 g     F .text	000000f2 ADC_Init
00000178 g     F .text	00000010 EXTI1_IRQHandler
20000038 g       .data	00000000 _edata
00001af0 g     F .text	00000020 buzzer_freq
000005fa g     F .text	00000088 tm1637_write_byte
00002c82 g     F .text	000000fa TIM_TimeBaseInit
00003b40 g       .dlalign	00000000 _data_lma
000002d4 g     F .text	00000034 USART2_IRQHandler
000023f8  w      .text	00000000 handle_reset
00001432 g     F .text	00000364 pwm_gpio_init
000003d0 g     F .text	00000068 l9110s_init
000002a0 g     F .text	00000034 USART1_IRQHandler
00002c3c g     F .text	00000046 RCC_APB2PeriphResetCmd
000004f4 g     F .text	0000003a tm1637_init
00000d48 g     F .text	000001a4 gpio_init
000035a0 g     F .text	00000056 TIM_OC2PolarityConfig
00001d14 g     F .text	000002fc car_left_rgb_flash



Disassembly of section .init:

00000000 <_sinit>:
_start():
D:/Desktop/智能车基地/CH32V103_SmartCar_V1.0/4.Demo/Libraries/Device/CH32V10x_p/Startup/startup_ch32v10x.S:13

	.section	.init,"ax",@progbits
	.global	_start
	.align	1
_start:
	j	handle_reset
   0:	3f80206f          	j	23f8 <handle_reset>
   4:	00000013          	nop
   8:	00000013          	nop
   c:	00000013          	nop
  10:	00000013          	nop
  14:	00000013          	nop
  18:	00000013          	nop
  1c:	00000013          	nop
  20:	00000013          	nop
  24:	00000013          	nop
  28:	00000013          	nop
  2c:	00000013          	nop
  30:	00000013          	nop
  34:	00100073          	ebreak

Disassembly of section .vector:

00000038 <_vector_base>:
_vector_base():
D:/Desktop/智能车基地/CH32V103_SmartCar_V1.0/4.Demo/Libraries/Device/CH32V10x_p/Startup/startup_ch32v10x.S:31
	.word 0x00100073
    .section    .vector,"ax",@progbits
    .align  1
_vector_base:
    .option norvc;
        j   _start
  38:	fc9ff06f          	j	0 <_sinit>
  3c:	0000                	unimp
  3e:	0000                	unimp
D:/Desktop/智能车基地/CH32V103_SmartCar_V1.0/4.Demo/Libraries/Device/CH32V10x_p/Startup/startup_ch32v10x.S:33
    .word   0
        j   NMI_Handler                 /* NMI Handler */
  40:	1000006f          	j	140 <NMI_Handler>
D:/Desktop/智能车基地/CH32V103_SmartCar_V1.0/4.Demo/Libraries/Device/CH32V10x_p/Startup/startup_ch32v10x.S:34
        j   HardFault_Handler           /* Hard Fault Handler */
  44:	10c0006f          	j	150 <HardFault_Handler>
	...
D:/Desktop/智能车基地/CH32V103_SmartCar_V1.0/4.Demo/Libraries/Device/CH32V10x_p/Startup/startup_ch32v10x.S:43
    .word   0
    .word   0
    .word   0
    .word   0
    .word   0
        j   SysTick_Handler            /* SysTick Handler */
  68:	f99ff06f          	j	0 <_sinit>
  6c:	0000                	unimp
  6e:	0000                	unimp
D:/Desktop/智能车基地/CH32V103_SmartCar_V1.0/4.Demo/Libraries/Device/CH32V10x_p/Startup/startup_ch32v10x.S:45
    .word   0
        j   SW_handler                 /* SW Handler */
  70:	f91ff06f          	j	0 <_sinit>
  74:	0000                	unimp
  76:	0000                	unimp
D:/Desktop/智能车基地/CH32V103_SmartCar_V1.0/4.Demo/Libraries/Device/CH32V10x_p/Startup/startup_ch32v10x.S:48
    .word   0
    /* External Interrupts */
        j   WWDG_IRQHandler            /* Window Watchdog */
  78:	f89ff06f          	j	0 <_sinit>
D:/Desktop/智能车基地/CH32V103_SmartCar_V1.0/4.Demo/Libraries/Device/CH32V10x_p/Startup/startup_ch32v10x.S:49
        j   PVD_IRQHandler             /* PVD through EXTI Line detect */
  7c:	f85ff06f          	j	0 <_sinit>
D:/Desktop/智能车基地/CH32V103_SmartCar_V1.0/4.Demo/Libraries/Device/CH32V10x_p/Startup/startup_ch32v10x.S:50
        j   TAMPER_IRQHandler          /* TAMPER */
  80:	f81ff06f          	j	0 <_sinit>
D:/Desktop/智能车基地/CH32V103_SmartCar_V1.0/4.Demo/Libraries/Device/CH32V10x_p/Startup/startup_ch32v10x.S:51
        j   RTC_IRQHandler             /* RTC */
  84:	f7dff06f          	j	0 <_sinit>
D:/Desktop/智能车基地/CH32V103_SmartCar_V1.0/4.Demo/Libraries/Device/CH32V10x_p/Startup/startup_ch32v10x.S:52
        j   FLASH_IRQHandler           /* Flash */
  88:	f79ff06f          	j	0 <_sinit>
D:/Desktop/智能车基地/CH32V103_SmartCar_V1.0/4.Demo/Libraries/Device/CH32V10x_p/Startup/startup_ch32v10x.S:53
        j   RCC_IRQHandler             /* RCC */
  8c:	f75ff06f          	j	0 <_sinit>
D:/Desktop/智能车基地/CH32V103_SmartCar_V1.0/4.Demo/Libraries/Device/CH32V10x_p/Startup/startup_ch32v10x.S:54
        j   EXTI0_IRQHandler           /* EXTI Line 0 */
  90:	0c80006f          	j	158 <EXTI0_IRQHandler>
D:/Desktop/智能车基地/CH32V103_SmartCar_V1.0/4.Demo/Libraries/Device/CH32V10x_p/Startup/startup_ch32v10x.S:55
        j   EXTI1_IRQHandler           /* EXTI Line 1 */
  94:	0e40006f          	j	178 <EXTI1_IRQHandler>
D:/Desktop/智能车基地/CH32V103_SmartCar_V1.0/4.Demo/Libraries/Device/CH32V10x_p/Startup/startup_ch32v10x.S:56
        j   EXTI2_IRQHandler           /* EXTI Line 2 */
  98:	0f00006f          	j	188 <EXTI2_IRQHandler>
D:/Desktop/智能车基地/CH32V103_SmartCar_V1.0/4.Demo/Libraries/Device/CH32V10x_p/Startup/startup_ch32v10x.S:57
        j   EXTI3_IRQHandler           /* EXTI Line 3 */
  9c:	0fc0006f          	j	198 <EXTI3_IRQHandler>
D:/Desktop/智能车基地/CH32V103_SmartCar_V1.0/4.Demo/Libraries/Device/CH32V10x_p/Startup/startup_ch32v10x.S:58
        j   EXTI4_IRQHandler           /* EXTI Line 4 */
  a0:	1080006f          	j	1a8 <EXTI4_IRQHandler>
D:/Desktop/智能车基地/CH32V103_SmartCar_V1.0/4.Demo/Libraries/Device/CH32V10x_p/Startup/startup_ch32v10x.S:59
        j   DMA1_Channel1_IRQHandler   /* DMA1 Channel 1 */
  a4:	f5dff06f          	j	0 <_sinit>
D:/Desktop/智能车基地/CH32V103_SmartCar_V1.0/4.Demo/Libraries/Device/CH32V10x_p/Startup/startup_ch32v10x.S:60
        j   DMA1_Channel2_IRQHandler   /* DMA1 Channel 2 */
  a8:	f59ff06f          	j	0 <_sinit>
D:/Desktop/智能车基地/CH32V103_SmartCar_V1.0/4.Demo/Libraries/Device/CH32V10x_p/Startup/startup_ch32v10x.S:61
        j   DMA1_Channel3_IRQHandler   /* DMA1 Channel 3 */
  ac:	f55ff06f          	j	0 <_sinit>
D:/Desktop/智能车基地/CH32V103_SmartCar_V1.0/4.Demo/Libraries/Device/CH32V10x_p/Startup/startup_ch32v10x.S:62
        j   DMA1_Channel4_IRQHandler   /* DMA1 Channel 4 */
  b0:	f51ff06f          	j	0 <_sinit>
D:/Desktop/智能车基地/CH32V103_SmartCar_V1.0/4.Demo/Libraries/Device/CH32V10x_p/Startup/startup_ch32v10x.S:63
        j   DMA1_Channel5_IRQHandler   /* DMA1 Channel 5 */
  b4:	f4dff06f          	j	0 <_sinit>
D:/Desktop/智能车基地/CH32V103_SmartCar_V1.0/4.Demo/Libraries/Device/CH32V10x_p/Startup/startup_ch32v10x.S:64
        j   DMA1_Channel6_IRQHandler   /* DMA1 Channel 6 */
  b8:	f49ff06f          	j	0 <_sinit>
D:/Desktop/智能车基地/CH32V103_SmartCar_V1.0/4.Demo/Libraries/Device/CH32V10x_p/Startup/startup_ch32v10x.S:65
        j   DMA1_Channel7_IRQHandler   /* DMA1 Channel 7 */
  bc:	f45ff06f          	j	0 <_sinit>
D:/Desktop/智能车基地/CH32V103_SmartCar_V1.0/4.Demo/Libraries/Device/CH32V10x_p/Startup/startup_ch32v10x.S:66
        j   ADC1_2_IRQHandler          /* ADC1_2 */
  c0:	1180006f          	j	1d8 <ADC1_2_IRQHandler>
	...
D:/Desktop/智能车基地/CH32V103_SmartCar_V1.0/4.Demo/Libraries/Device/CH32V10x_p/Startup/startup_ch32v10x.S:71
        .word   0
        .word   0
        .word   0
        .word   0
        j   EXTI9_5_IRQHandler         /* EXTI Line 9..5 */
  d4:	0e40006f          	j	1b8 <EXTI9_5_IRQHandler>
D:/Desktop/智能车基地/CH32V103_SmartCar_V1.0/4.Demo/Libraries/Device/CH32V10x_p/Startup/startup_ch32v10x.S:72
        j   TIM1_BRK_IRQHandler        /* TIM1 Break */
  d8:	f29ff06f          	j	0 <_sinit>
D:/Desktop/智能车基地/CH32V103_SmartCar_V1.0/4.Demo/Libraries/Device/CH32V10x_p/Startup/startup_ch32v10x.S:73
        j   TIM1_UP_IRQHandler         /* TIM1 Update */
  dc:	10c0006f          	j	1e8 <TIM1_UP_IRQHandler>
D:/Desktop/智能车基地/CH32V103_SmartCar_V1.0/4.Demo/Libraries/Device/CH32V10x_p/Startup/startup_ch32v10x.S:74
        j   TIM1_TRG_COM_IRQHandler    /* TIM1 Trigger and Commutation */
  e0:	f21ff06f          	j	0 <_sinit>
D:/Desktop/智能车基地/CH32V103_SmartCar_V1.0/4.Demo/Libraries/Device/CH32V10x_p/Startup/startup_ch32v10x.S:75
        j   TIM1_CC_IRQHandler         /* TIM1 Capture Compare */
  e4:	f1dff06f          	j	0 <_sinit>
D:/Desktop/智能车基地/CH32V103_SmartCar_V1.0/4.Demo/Libraries/Device/CH32V10x_p/Startup/startup_ch32v10x.S:76
        j   TIM2_IRQHandler            /* TIM2 */
  e8:	1300006f          	j	218 <TIM2_IRQHandler>
D:/Desktop/智能车基地/CH32V103_SmartCar_V1.0/4.Demo/Libraries/Device/CH32V10x_p/Startup/startup_ch32v10x.S:77
        j   TIM3_IRQHandler            /* TIM3 */
  ec:	1540006f          	j	240 <TIM3_IRQHandler>
D:/Desktop/智能车基地/CH32V103_SmartCar_V1.0/4.Demo/Libraries/Device/CH32V10x_p/Startup/startup_ch32v10x.S:78
        j   TIM4_IRQHandler            /* TIM4 */
  f0:	1800006f          	j	270 <TIM4_IRQHandler>
D:/Desktop/智能车基地/CH32V103_SmartCar_V1.0/4.Demo/Libraries/Device/CH32V10x_p/Startup/startup_ch32v10x.S:79
        j   I2C1_EV_IRQHandler         /* I2C1 Event */
  f4:	f0dff06f          	j	0 <_sinit>
D:/Desktop/智能车基地/CH32V103_SmartCar_V1.0/4.Demo/Libraries/Device/CH32V10x_p/Startup/startup_ch32v10x.S:80
        j   I2C1_ER_IRQHandler         /* I2C1 Error */
  f8:	f09ff06f          	j	0 <_sinit>
D:/Desktop/智能车基地/CH32V103_SmartCar_V1.0/4.Demo/Libraries/Device/CH32V10x_p/Startup/startup_ch32v10x.S:81
        j   I2C2_EV_IRQHandler         /* I2C2 Event */
  fc:	f05ff06f          	j	0 <_sinit>
D:/Desktop/智能车基地/CH32V103_SmartCar_V1.0/4.Demo/Libraries/Device/CH32V10x_p/Startup/startup_ch32v10x.S:82
        j   I2C2_ER_IRQHandler         /* I2C2 Error */
 100:	f01ff06f          	j	0 <_sinit>
D:/Desktop/智能车基地/CH32V103_SmartCar_V1.0/4.Demo/Libraries/Device/CH32V10x_p/Startup/startup_ch32v10x.S:83
        j   SPI1_IRQHandler            /* SPI1 */
 104:	efdff06f          	j	0 <_sinit>
D:/Desktop/智能车基地/CH32V103_SmartCar_V1.0/4.Demo/Libraries/Device/CH32V10x_p/Startup/startup_ch32v10x.S:84
        j   SPI2_IRQHandler            /* SPI2 */
 108:	ef9ff06f          	j	0 <_sinit>
D:/Desktop/智能车基地/CH32V103_SmartCar_V1.0/4.Demo/Libraries/Device/CH32V10x_p/Startup/startup_ch32v10x.S:85
        j   USART1_IRQHandler          /* USART1 */
 10c:	1940006f          	j	2a0 <USART1_IRQHandler>
D:/Desktop/智能车基地/CH32V103_SmartCar_V1.0/4.Demo/Libraries/Device/CH32V10x_p/Startup/startup_ch32v10x.S:86
        j   USART2_IRQHandler          /* USART2 */
 110:	1c40006f          	j	2d4 <USART2_IRQHandler>
D:/Desktop/智能车基地/CH32V103_SmartCar_V1.0/4.Demo/Libraries/Device/CH32V10x_p/Startup/startup_ch32v10x.S:87
        j   USART3_IRQHandler          /* USART3 */
 114:	1f40006f          	j	308 <USART3_IRQHandler>
D:/Desktop/智能车基地/CH32V103_SmartCar_V1.0/4.Demo/Libraries/Device/CH32V10x_p/Startup/startup_ch32v10x.S:88
        j   EXTI15_10_IRQHandler       /* EXTI Line 15..10 */
 118:	0b00006f          	j	1c8 <EXTI15_10_IRQHandler>
D:/Desktop/智能车基地/CH32V103_SmartCar_V1.0/4.Demo/Libraries/Device/CH32V10x_p/Startup/startup_ch32v10x.S:89
        j   RTCAlarm_IRQHandler        /* RTC Alarm through EXTI Line */
 11c:	ee5ff06f          	j	0 <_sinit>
D:/Desktop/智能车基地/CH32V103_SmartCar_V1.0/4.Demo/Libraries/Device/CH32V10x_p/Startup/startup_ch32v10x.S:90
        j   USBWakeUp_IRQHandler       /* USB Wakeup from suspend */
 120:	ee1ff06f          	j	0 <_sinit>
D:/Desktop/智能车基地/CH32V103_SmartCar_V1.0/4.Demo/Libraries/Device/CH32V10x_p/Startup/startup_ch32v10x.S:91
        j   USBHD_IRQHandler           /* USBHD */
 124:	eddff06f          	j	0 <_sinit>
	...

Disassembly of section .text:

00000140 <NMI_Handler>:
NMI_Handler():
D:/Desktop/智能车基地/CH32V103_SmartCar_V1.0/4.Demo/02-Car_Light/USER/src/isr.c:38
* Description    : This function handles NMI exception.
* Input          : None
* Return         : None
*******************************************************************************/
void NMI_Handler(void)
{
     140:	1141                	addi	sp,sp,-16
     142:	c622                	sw	s0,12(sp)
     144:	0800                	addi	s0,sp,16
D:/Desktop/智能车基地/CH32V103_SmartCar_V1.0/4.Demo/02-Car_Light/USER/src/isr.c:40
    ;
}
     146:	0001                	nop
     148:	4432                	lw	s0,12(sp)
     14a:	0141                	addi	sp,sp,16
     14c:	30200073          	mret

00000150 <HardFault_Handler>:
HardFault_Handler():
D:/Desktop/智能车基地/CH32V103_SmartCar_V1.0/4.Demo/02-Car_Light/USER/src/isr.c:49
* Description    : This function handles Hard Fault exception.
* Input          : None
* Return         : None
*******************************************************************************/
void HardFault_Handler(void)
{
     150:	1141                	addi	sp,sp,-16
     152:	c622                	sw	s0,12(sp)
     154:	0800                	addi	s0,sp,16
D:/Desktop/智能车基地/CH32V103_SmartCar_V1.0/4.Demo/02-Car_Light/USER/src/isr.c:51 (discriminator 1)

  while (1)
     156:	a001                	j	156 <HardFault_Handler+0x6>

00000158 <EXTI0_IRQHandler>:
EXTI0_IRQHandler():
D:/Desktop/智能车基地/CH32V103_SmartCar_V1.0/4.Demo/02-Car_Light/USER/src/isr.c:62

//以下为中断服务函数，用户可根据需要，在对应函数内添加内容

/* EXTI0 中断服务函数 */
void EXTI0_IRQHandler(void)
{
     158:	1141                	addi	sp,sp,-16
     15a:	c622                	sw	s0,12(sp)
     15c:	0800                	addi	s0,sp,16
D:/Desktop/智能车基地/CH32V103_SmartCar_V1.0/4.Demo/02-Car_Light/USER/src/isr.c:63
    if(RESET != EXTI_GetITStatus(EXTI_Line0))
     15e:	4505                	li	a0,1
     160:	51c020ef          	jal	ra,267c <EXTI_GetITStatus>
     164:	87aa                	mv	a5,a0
     166:	c781                	beqz	a5,16e <EXTI0_IRQHandler+0x16>
D:/Desktop/智能车基地/CH32V103_SmartCar_V1.0/4.Demo/02-Car_Light/USER/src/isr.c:65
    {
        EXTI_ClearITPendingBit(EXTI_Line0);
     168:	4505                	li	a0,1
     16a:	568020ef          	jal	ra,26d2 <EXTI_ClearITPendingBit>
D:/Desktop/智能车基地/CH32V103_SmartCar_V1.0/4.Demo/02-Car_Light/USER/src/isr.c:70

    }


}
     16e:	0001                	nop
     170:	4432                	lw	s0,12(sp)
     172:	0141                	addi	sp,sp,16
     174:	30200073          	mret

00000178 <EXTI1_IRQHandler>:
EXTI1_IRQHandler():
D:/Desktop/智能车基地/CH32V103_SmartCar_V1.0/4.Demo/02-Car_Light/USER/src/isr.c:74

/* EXTI1 中断服务函数 */
void EXTI1_IRQHandler(void)
{
     178:	1141                	addi	sp,sp,-16
     17a:	c622                	sw	s0,12(sp)
     17c:	0800                	addi	s0,sp,16
D:/Desktop/智能车基地/CH32V103_SmartCar_V1.0/4.Demo/02-Car_Light/USER/src/isr.c:76
    ;
}
     17e:	0001                	nop
     180:	4432                	lw	s0,12(sp)
     182:	0141                	addi	sp,sp,16
     184:	30200073          	mret

00000188 <EXTI2_IRQHandler>:
EXTI2_IRQHandler():
D:/Desktop/智能车基地/CH32V103_SmartCar_V1.0/4.Demo/02-Car_Light/USER/src/isr.c:80

/* EXTI2 中断服务函数 */
void EXTI2_IRQHandler(void)
{
     188:	1141                	addi	sp,sp,-16
     18a:	c622                	sw	s0,12(sp)
     18c:	0800                	addi	s0,sp,16
D:/Desktop/智能车基地/CH32V103_SmartCar_V1.0/4.Demo/02-Car_Light/USER/src/isr.c:82
    ;
}
     18e:	0001                	nop
     190:	4432                	lw	s0,12(sp)
     192:	0141                	addi	sp,sp,16
     194:	30200073          	mret

00000198 <EXTI3_IRQHandler>:
EXTI3_IRQHandler():
D:/Desktop/智能车基地/CH32V103_SmartCar_V1.0/4.Demo/02-Car_Light/USER/src/isr.c:86

/* EXTI3 中断服务函数 */
void EXTI3_IRQHandler(void)
{
     198:	1141                	addi	sp,sp,-16
     19a:	c622                	sw	s0,12(sp)
     19c:	0800                	addi	s0,sp,16
D:/Desktop/智能车基地/CH32V103_SmartCar_V1.0/4.Demo/02-Car_Light/USER/src/isr.c:88
    ;
}
     19e:	0001                	nop
     1a0:	4432                	lw	s0,12(sp)
     1a2:	0141                	addi	sp,sp,16
     1a4:	30200073          	mret

000001a8 <EXTI4_IRQHandler>:
EXTI4_IRQHandler():
D:/Desktop/智能车基地/CH32V103_SmartCar_V1.0/4.Demo/02-Car_Light/USER/src/isr.c:92

/* EXTI4 中断服务函数 */
void EXTI4_IRQHandler(void)
{
     1a8:	1141                	addi	sp,sp,-16
     1aa:	c622                	sw	s0,12(sp)
     1ac:	0800                	addi	s0,sp,16
D:/Desktop/智能车基地/CH32V103_SmartCar_V1.0/4.Demo/02-Car_Light/USER/src/isr.c:94
    ;
}
     1ae:	0001                	nop
     1b0:	4432                	lw	s0,12(sp)
     1b2:	0141                	addi	sp,sp,16
     1b4:	30200073          	mret

000001b8 <EXTI9_5_IRQHandler>:
EXTI9_5_IRQHandler():
D:/Desktop/智能车基地/CH32V103_SmartCar_V1.0/4.Demo/02-Car_Light/USER/src/isr.c:98

/* EXTI9_5 中断服务函数 */
void EXTI9_5_IRQHandler(void)
{
     1b8:	1141                	addi	sp,sp,-16
     1ba:	c622                	sw	s0,12(sp)
     1bc:	0800                	addi	s0,sp,16
D:/Desktop/智能车基地/CH32V103_SmartCar_V1.0/4.Demo/02-Car_Light/USER/src/isr.c:100
    ;
}
     1be:	0001                	nop
     1c0:	4432                	lw	s0,12(sp)
     1c2:	0141                	addi	sp,sp,16
     1c4:	30200073          	mret

000001c8 <EXTI15_10_IRQHandler>:
EXTI15_10_IRQHandler():
D:/Desktop/智能车基地/CH32V103_SmartCar_V1.0/4.Demo/02-Car_Light/USER/src/isr.c:104

/* EXTI15_10 中断服务函数 */
void EXTI15_10_IRQHandler(void)
{
     1c8:	1141                	addi	sp,sp,-16
     1ca:	c622                	sw	s0,12(sp)
     1cc:	0800                	addi	s0,sp,16
D:/Desktop/智能车基地/CH32V103_SmartCar_V1.0/4.Demo/02-Car_Light/USER/src/isr.c:106
    ;
}
     1ce:	0001                	nop
     1d0:	4432                	lw	s0,12(sp)
     1d2:	0141                	addi	sp,sp,16
     1d4:	30200073          	mret

000001d8 <ADC1_2_IRQHandler>:
ADC1_2_IRQHandler():
D:/Desktop/智能车基地/CH32V103_SmartCar_V1.0/4.Demo/02-Car_Light/USER/src/isr.c:110

/* ADC1_2 中断服务函数 */
void ADC1_2_IRQHandler(void)
{
     1d8:	1141                	addi	sp,sp,-16
     1da:	c622                	sw	s0,12(sp)
     1dc:	0800                	addi	s0,sp,16
D:/Desktop/智能车基地/CH32V103_SmartCar_V1.0/4.Demo/02-Car_Light/USER/src/isr.c:112
    ;
}
     1de:	0001                	nop
     1e0:	4432                	lw	s0,12(sp)
     1e2:	0141                	addi	sp,sp,16
     1e4:	30200073          	mret

000001e8 <TIM1_UP_IRQHandler>:
TIM1_UP_IRQHandler():
D:/Desktop/智能车基地/CH32V103_SmartCar_V1.0/4.Demo/02-Car_Light/USER/src/isr.c:116

/* TIM1_UP 中断服务函数 */
void TIM1_UP_IRQHandler(void)
{
     1e8:	1141                	addi	sp,sp,-16
     1ea:	c622                	sw	s0,12(sp)
     1ec:	0800                	addi	s0,sp,16
D:/Desktop/智能车基地/CH32V103_SmartCar_V1.0/4.Demo/02-Car_Light/USER/src/isr.c:117
    if(TIM_GetITStatus(TIM1, TIM_IT_Update) != RESET)
     1ee:	4585                	li	a1,1
     1f0:	400137b7          	lui	a5,0x40013
     1f4:	c0078513          	addi	a0,a5,-1024 # 40012c00 <_eusrstack+0x2000dc00>
     1f8:	496030ef          	jal	ra,368e <TIM_GetITStatus>
     1fc:	87aa                	mv	a5,a0
     1fe:	cb81                	beqz	a5,20e <TIM1_UP_IRQHandler+0x26>
D:/Desktop/智能车基地/CH32V103_SmartCar_V1.0/4.Demo/02-Car_Light/USER/src/isr.c:119
    {
        TIM_ClearITPendingBit(TIM1, TIM_IT_Update);
     200:	4585                	li	a1,1
     202:	400137b7          	lui	a5,0x40013
     206:	c0078513          	addi	a0,a5,-1024 # 40012c00 <_eusrstack+0x2000dc00>
     20a:	4f4030ef          	jal	ra,36fe <TIM_ClearITPendingBit>
D:/Desktop/智能车基地/CH32V103_SmartCar_V1.0/4.Demo/02-Car_Light/USER/src/isr.c:122

    }
}
     20e:	0001                	nop
     210:	4432                	lw	s0,12(sp)
     212:	0141                	addi	sp,sp,16
     214:	30200073          	mret

00000218 <TIM2_IRQHandler>:
TIM2_IRQHandler():
D:/Desktop/智能车基地/CH32V103_SmartCar_V1.0/4.Demo/02-Car_Light/USER/src/isr.c:126

/* TIM2 中断服务函数 */
void TIM2_IRQHandler(void)
{
     218:	1141                	addi	sp,sp,-16
     21a:	c622                	sw	s0,12(sp)
     21c:	0800                	addi	s0,sp,16
D:/Desktop/智能车基地/CH32V103_SmartCar_V1.0/4.Demo/02-Car_Light/USER/src/isr.c:127
    if(TIM_GetITStatus(TIM2, TIM_IT_Update) != RESET)
     21e:	4585                	li	a1,1
     220:	40000537          	lui	a0,0x40000
     224:	46a030ef          	jal	ra,368e <TIM_GetITStatus>
     228:	87aa                	mv	a5,a0
     22a:	c791                	beqz	a5,236 <TIM2_IRQHandler+0x1e>
D:/Desktop/智能车基地/CH32V103_SmartCar_V1.0/4.Demo/02-Car_Light/USER/src/isr.c:129
    {
        TIM_ClearITPendingBit(TIM2, TIM_IT_Update);
     22c:	4585                	li	a1,1
     22e:	40000537          	lui	a0,0x40000
     232:	4cc030ef          	jal	ra,36fe <TIM_ClearITPendingBit>
D:/Desktop/智能车基地/CH32V103_SmartCar_V1.0/4.Demo/02-Car_Light/USER/src/isr.c:132

    }
}
     236:	0001                	nop
     238:	4432                	lw	s0,12(sp)
     23a:	0141                	addi	sp,sp,16
     23c:	30200073          	mret

00000240 <TIM3_IRQHandler>:
TIM3_IRQHandler():
D:/Desktop/智能车基地/CH32V103_SmartCar_V1.0/4.Demo/02-Car_Light/USER/src/isr.c:136

/* TIM3 中断服务函数 */
void TIM3_IRQHandler(void)
{
     240:	1141                	addi	sp,sp,-16
     242:	c622                	sw	s0,12(sp)
     244:	0800                	addi	s0,sp,16
D:/Desktop/智能车基地/CH32V103_SmartCar_V1.0/4.Demo/02-Car_Light/USER/src/isr.c:137
    if(TIM_GetITStatus(TIM3, TIM_IT_Update) != RESET)
     246:	4585                	li	a1,1
     248:	400007b7          	lui	a5,0x40000
     24c:	40078513          	addi	a0,a5,1024 # 40000400 <_eusrstack+0x1fffb400>
     250:	43e030ef          	jal	ra,368e <TIM_GetITStatus>
     254:	87aa                	mv	a5,a0
     256:	cb81                	beqz	a5,266 <TIM3_IRQHandler+0x26>
D:/Desktop/智能车基地/CH32V103_SmartCar_V1.0/4.Demo/02-Car_Light/USER/src/isr.c:139
    {
        TIM_ClearITPendingBit(TIM3, TIM_IT_Update);
     258:	4585                	li	a1,1
     25a:	400007b7          	lui	a5,0x40000
     25e:	40078513          	addi	a0,a5,1024 # 40000400 <_eusrstack+0x1fffb400>
     262:	49c030ef          	jal	ra,36fe <TIM_ClearITPendingBit>
D:/Desktop/智能车基地/CH32V103_SmartCar_V1.0/4.Demo/02-Car_Light/USER/src/isr.c:142

    }
}
     266:	0001                	nop
     268:	4432                	lw	s0,12(sp)
     26a:	0141                	addi	sp,sp,16
     26c:	30200073          	mret

00000270 <TIM4_IRQHandler>:
TIM4_IRQHandler():
D:/Desktop/智能车基地/CH32V103_SmartCar_V1.0/4.Demo/02-Car_Light/USER/src/isr.c:146

/* TIM4 中断服务函数 */
void TIM4_IRQHandler(void)
{
     270:	1141                	addi	sp,sp,-16
     272:	c622                	sw	s0,12(sp)
     274:	0800                	addi	s0,sp,16
D:/Desktop/智能车基地/CH32V103_SmartCar_V1.0/4.Demo/02-Car_Light/USER/src/isr.c:147
    if(TIM_GetITStatus(TIM4, TIM_IT_Update) != RESET)
     276:	4585                	li	a1,1
     278:	400017b7          	lui	a5,0x40001
     27c:	80078513          	addi	a0,a5,-2048 # 40000800 <_eusrstack+0x1fffb800>
     280:	40e030ef          	jal	ra,368e <TIM_GetITStatus>
     284:	87aa                	mv	a5,a0
     286:	cb81                	beqz	a5,296 <TIM4_IRQHandler+0x26>
D:/Desktop/智能车基地/CH32V103_SmartCar_V1.0/4.Demo/02-Car_Light/USER/src/isr.c:149
    {
        TIM_ClearITPendingBit(TIM4, TIM_IT_Update);
     288:	4585                	li	a1,1
     28a:	400017b7          	lui	a5,0x40001
     28e:	80078513          	addi	a0,a5,-2048 # 40000800 <_eusrstack+0x1fffb800>
     292:	46c030ef          	jal	ra,36fe <TIM_ClearITPendingBit>
D:/Desktop/智能车基地/CH32V103_SmartCar_V1.0/4.Demo/02-Car_Light/USER/src/isr.c:152

    }
}
     296:	0001                	nop
     298:	4432                	lw	s0,12(sp)
     29a:	0141                	addi	sp,sp,16
     29c:	30200073          	mret

000002a0 <USART1_IRQHandler>:
USART1_IRQHandler():
D:/Desktop/智能车基地/CH32V103_SmartCar_V1.0/4.Demo/02-Car_Light/USER/src/isr.c:156

/* USART1 中断服务函数 */
void USART1_IRQHandler(void)
{
     2a0:	1141                	addi	sp,sp,-16
     2a2:	c622                	sw	s0,12(sp)
     2a4:	0800                	addi	s0,sp,16
D:/Desktop/智能车基地/CH32V103_SmartCar_V1.0/4.Demo/02-Car_Light/USER/src/isr.c:157
    if(USART_GetITStatus(USART1, USART_IT_RXNE) != RESET)
     2a6:	52500593          	li	a1,1317
     2aa:	400147b7          	lui	a5,0x40014
     2ae:	80078513          	addi	a0,a5,-2048 # 40013800 <_eusrstack+0x2000e800>
     2b2:	70e030ef          	jal	ra,39c0 <USART_GetITStatus>
     2b6:	87aa                	mv	a5,a0
     2b8:	cb89                	beqz	a5,2ca <USART1_IRQHandler+0x2a>
D:/Desktop/智能车基地/CH32V103_SmartCar_V1.0/4.Demo/02-Car_Light/USER/src/isr.c:159
    {
        USART_ClearITPendingBit(USART1, USART_IT_RXNE);
     2ba:	52500593          	li	a1,1317
     2be:	400147b7          	lui	a5,0x40014
     2c2:	80078513          	addi	a0,a5,-2048 # 40013800 <_eusrstack+0x2000e800>
     2c6:	7fc030ef          	jal	ra,3ac2 <USART_ClearITPendingBit>
D:/Desktop/智能车基地/CH32V103_SmartCar_V1.0/4.Demo/02-Car_Light/USER/src/isr.c:162

    }
}
     2ca:	0001                	nop
     2cc:	4432                	lw	s0,12(sp)
     2ce:	0141                	addi	sp,sp,16
     2d0:	30200073          	mret

000002d4 <USART2_IRQHandler>:
USART2_IRQHandler():
D:/Desktop/智能车基地/CH32V103_SmartCar_V1.0/4.Demo/02-Car_Light/USER/src/isr.c:166

/* USART2 中断服务函数 */
void USART2_IRQHandler(void)
{
     2d4:	1141                	addi	sp,sp,-16
     2d6:	c622                	sw	s0,12(sp)
     2d8:	0800                	addi	s0,sp,16
D:/Desktop/智能车基地/CH32V103_SmartCar_V1.0/4.Demo/02-Car_Light/USER/src/isr.c:167
    if(USART_GetITStatus(USART2, USART_IT_RXNE) != RESET)
     2da:	52500593          	li	a1,1317
     2de:	400047b7          	lui	a5,0x40004
     2e2:	40078513          	addi	a0,a5,1024 # 40004400 <_eusrstack+0x1ffff400>
     2e6:	6da030ef          	jal	ra,39c0 <USART_GetITStatus>
     2ea:	87aa                	mv	a5,a0
     2ec:	cb89                	beqz	a5,2fe <USART2_IRQHandler+0x2a>
D:/Desktop/智能车基地/CH32V103_SmartCar_V1.0/4.Demo/02-Car_Light/USER/src/isr.c:169
    {
        USART_ClearITPendingBit(USART2, USART_IT_RXNE);
     2ee:	52500593          	li	a1,1317
     2f2:	400047b7          	lui	a5,0x40004
     2f6:	40078513          	addi	a0,a5,1024 # 40004400 <_eusrstack+0x1ffff400>
     2fa:	7c8030ef          	jal	ra,3ac2 <USART_ClearITPendingBit>
D:/Desktop/智能车基地/CH32V103_SmartCar_V1.0/4.Demo/02-Car_Light/USER/src/isr.c:172

    }
}
     2fe:	0001                	nop
     300:	4432                	lw	s0,12(sp)
     302:	0141                	addi	sp,sp,16
     304:	30200073          	mret

00000308 <USART3_IRQHandler>:
USART3_IRQHandler():
D:/Desktop/智能车基地/CH32V103_SmartCar_V1.0/4.Demo/02-Car_Light/USER/src/isr.c:176

/* USART3 中断服务函数 */
void USART3_IRQHandler(void)
{
     308:	1141                	addi	sp,sp,-16
     30a:	c622                	sw	s0,12(sp)
     30c:	0800                	addi	s0,sp,16
D:/Desktop/智能车基地/CH32V103_SmartCar_V1.0/4.Demo/02-Car_Light/USER/src/isr.c:177
    if(USART_GetITStatus(USART3, USART_IT_RXNE) != RESET)
     30e:	52500593          	li	a1,1317
     312:	400057b7          	lui	a5,0x40005
     316:	80078513          	addi	a0,a5,-2048 # 40004800 <_eusrstack+0x1ffff800>
     31a:	6a6030ef          	jal	ra,39c0 <USART_GetITStatus>
     31e:	87aa                	mv	a5,a0
     320:	cb89                	beqz	a5,332 <USART3_IRQHandler+0x2a>
D:/Desktop/智能车基地/CH32V103_SmartCar_V1.0/4.Demo/02-Car_Light/USER/src/isr.c:179
    {
        USART_ClearITPendingBit(USART3, USART_IT_RXNE);
     322:	52500593          	li	a1,1317
     326:	400057b7          	lui	a5,0x40005
     32a:	80078513          	addi	a0,a5,-2048 # 40004800 <_eusrstack+0x1ffff800>
     32e:	794030ef          	jal	ra,3ac2 <USART_ClearITPendingBit>
D:/Desktop/智能车基地/CH32V103_SmartCar_V1.0/4.Demo/02-Car_Light/USER/src/isr.c:182

    }
}
     332:	0001                	nop
     334:	4432                	lw	s0,12(sp)
     336:	0141                	addi	sp,sp,16
     338:	30200073          	mret

0000033c <main>:
main():
D:/Desktop/智能车基地/CH32V103_SmartCar_V1.0/4.Demo/02-Car_Light/USER/src/main.c:33
/* 全局变量声明 */


/* 主函数 */
int main()
{
     33c:	1141                	addi	sp,sp,-16
     33e:	c606                	sw	ra,12(sp)
     340:	c422                	sw	s0,8(sp)
     342:	0800                	addi	s0,sp,16
D:/Desktop/智能车基地/CH32V103_SmartCar_V1.0/4.Demo/02-Car_Light/USER/src/main.c:37
    /* 此处声明需要用到的局部变量 */

    /* 智能车初始化 */
    car_init();
     344:	7cc010ef          	jal	ra,1b10 <car_init>
D:/Desktop/智能车基地/CH32V103_SmartCar_V1.0/4.Demo/02-Car_Light/USER/src/main.c:45 (discriminator 1)


    while(1)
    {
        /* 此处编写需要循环执行的代码 */
        car_forward();                          //智能车前进
     348:	7c5010ef          	jal	ra,230c <car_forward>
D:/Desktop/智能车基地/CH32V103_SmartCar_V1.0/4.Demo/02-Car_Light/USER/src/main.c:46 (discriminator 1)
        Delay_Ms(5000);                         //等待5s
     34c:	6785                	lui	a5,0x1
     34e:	38878513          	addi	a0,a5,904 # 1388 <pwm_duty+0xd6>
     352:	746000ef          	jal	ra,a98 <Delay_Ms>
D:/Desktop/智能车基地/CH32V103_SmartCar_V1.0/4.Demo/02-Car_Light/USER/src/main.c:48 (discriminator 1)

        car_turnleft();                         //智能车左转
     356:	02c020ef          	jal	ra,2382 <car_turnleft>
D:/Desktop/智能车基地/CH32V103_SmartCar_V1.0/4.Demo/02-Car_Light/USER/src/main.c:49 (discriminator 1)
        car_left_rgb_flash(yellow, 3, 500);     //智能车尾灯左灯闪烁黄色三次，间隔500ms
     35a:	1f400613          	li	a2,500
     35e:	458d                	li	a1,3
     360:	4505                	li	a0,1
     362:	1b3010ef          	jal	ra,1d14 <car_left_rgb_flash>
D:/Desktop/智能车基地/CH32V103_SmartCar_V1.0/4.Demo/02-Car_Light/USER/src/main.c:51 (discriminator 1)

        car_forward();                          //智能车前进
     366:	7a7010ef          	jal	ra,230c <car_forward>
D:/Desktop/智能车基地/CH32V103_SmartCar_V1.0/4.Demo/02-Car_Light/USER/src/main.c:52 (discriminator 1)
        Delay_Ms(5000);                         //等待5s
     36a:	6785                	lui	a5,0x1
     36c:	38878513          	addi	a0,a5,904 # 1388 <pwm_duty+0xd6>
     370:	728000ef          	jal	ra,a98 <Delay_Ms>
D:/Desktop/智能车基地/CH32V103_SmartCar_V1.0/4.Demo/02-Car_Light/USER/src/main.c:54 (discriminator 1)

        car_turnright();                        //智能车右转
     374:	038020ef          	jal	ra,23ac <car_turnright>
D:/Desktop/智能车基地/CH32V103_SmartCar_V1.0/4.Demo/02-Car_Light/USER/src/main.c:55 (discriminator 1)
        car_right_rgb_flash(yellow, 3, 500);    //智能车尾灯右灯闪烁黄色三次，间隔500ms
     378:	1f400613          	li	a2,500
     37c:	458d                	li	a1,3
     37e:	4505                	li	a0,1
     380:	491010ef          	jal	ra,2010 <car_right_rgb_flash>
D:/Desktop/智能车基地/CH32V103_SmartCar_V1.0/4.Demo/02-Car_Light/USER/src/main.c:57 (discriminator 1)

        car_forward();                          //智能车前进
     384:	789010ef          	jal	ra,230c <car_forward>
D:/Desktop/智能车基地/CH32V103_SmartCar_V1.0/4.Demo/02-Car_Light/USER/src/main.c:58 (discriminator 1)
        Delay_Ms(5000);                         //等待5s
     388:	6785                	lui	a5,0x1
     38a:	38878513          	addi	a0,a5,904 # 1388 <pwm_duty+0xd6>
     38e:	70a000ef          	jal	ra,a98 <Delay_Ms>
D:/Desktop/智能车基地/CH32V103_SmartCar_V1.0/4.Demo/02-Car_Light/USER/src/main.c:60 (discriminator 1)

        car_stop();                             //智能车停止
     392:	7cf010ef          	jal	ra,2360 <car_stop>
D:/Desktop/智能车基地/CH32V103_SmartCar_V1.0/4.Demo/02-Car_Light/USER/src/main.c:61 (discriminator 1)
        car_both_rgb_on(red, 5000);             //智能车尾灯两灯显示红色，等待5000s
     396:	6785                	lui	a5,0x1
     398:	38878593          	addi	a1,a5,904 # 1388 <pwm_duty+0xd6>
     39c:	4501                	li	a0,0
     39e:	001010ef          	jal	ra,1b9e <car_both_rgb_on>
D:/Desktop/智能车基地/CH32V103_SmartCar_V1.0/4.Demo/02-Car_Light/USER/src/main.c:62 (discriminator 1)
        car_both_rgb_off();                     //智能车尾灯关闭
     3a2:	149010ef          	jal	ra,1cea <car_both_rgb_off>
D:/Desktop/智能车基地/CH32V103_SmartCar_V1.0/4.Demo/02-Car_Light/USER/src/main.c:64 (discriminator 1)

        car_back();                             //智能车后退
     3a6:	791010ef          	jal	ra,2336 <car_back>
D:/Desktop/智能车基地/CH32V103_SmartCar_V1.0/4.Demo/02-Car_Light/USER/src/main.c:65 (discriminator 1)
        car_both_rgb_on(white, 5000);           //智能车尾灯两灯显示白色，等待5000s
     3aa:	6785                	lui	a5,0x1
     3ac:	38878593          	addi	a1,a5,904 # 1388 <pwm_duty+0xd6>
     3b0:	4509                	li	a0,2
     3b2:	7ec010ef          	jal	ra,1b9e <car_both_rgb_on>
D:/Desktop/智能车基地/CH32V103_SmartCar_V1.0/4.Demo/02-Car_Light/USER/src/main.c:66 (discriminator 1)
        car_both_rgb_off();                     //智能车尾灯关闭
     3b6:	135010ef          	jal	ra,1cea <car_both_rgb_off>
D:/Desktop/智能车基地/CH32V103_SmartCar_V1.0/4.Demo/02-Car_Light/USER/src/main.c:68 (discriminator 1)

        car_stop();                             //智能车停止
     3ba:	7a7010ef          	jal	ra,2360 <car_stop>
D:/Desktop/智能车基地/CH32V103_SmartCar_V1.0/4.Demo/02-Car_Light/USER/src/main.c:69 (discriminator 1)
        car_both_rgb_on(red, 5000);             //智能车尾灯两灯显示红色，等待5000s
     3be:	6785                	lui	a5,0x1
     3c0:	38878593          	addi	a1,a5,904 # 1388 <pwm_duty+0xd6>
     3c4:	4501                	li	a0,0
     3c6:	7d8010ef          	jal	ra,1b9e <car_both_rgb_on>
D:/Desktop/智能车基地/CH32V103_SmartCar_V1.0/4.Demo/02-Car_Light/USER/src/main.c:70 (discriminator 1)
        car_both_rgb_off();                     //智能车尾灯关闭
     3ca:	121010ef          	jal	ra,1cea <car_both_rgb_off>
D:/Desktop/智能车基地/CH32V103_SmartCar_V1.0/4.Demo/02-Car_Light/USER/src/main.c:45 (discriminator 1)
        car_forward();                          //智能车前进
     3ce:	bfad                	j	348 <main+0xc>

000003d0 <l9110s_init>:
l9110s_init():
D:/Desktop/智能车基地/CH32V103_SmartCar_V1.0/4.Demo/Libraries/hefei_peripheral/HF_L9110S_2.c:19
// @return       void
// Sample usage:        PWM_9110_init(left); 
                        //初始化左电机PWM
//-------------------------------------------------------------------------------------------------------------------
void l9110s_init(left_or_right object)
{
     3d0:	1101                	addi	sp,sp,-32
     3d2:	ce06                	sw	ra,28(sp)
     3d4:	cc22                	sw	s0,24(sp)
     3d6:	1000                	addi	s0,sp,32
     3d8:	fea42623          	sw	a0,-20(s0)
D:/Desktop/智能车基地/CH32V103_SmartCar_V1.0/4.Demo/Libraries/hefei_peripheral/HF_L9110S_2.c:20
    if(object == left)
     3dc:	fec42783          	lw	a5,-20(s0)
     3e0:	e395                	bnez	a5,404 <l9110s_init+0x34>
D:/Desktop/智能车基地/CH32V103_SmartCar_V1.0/4.Demo/Libraries/hefei_peripheral/HF_L9110S_2.c:22
    {
        pwm_init(L_PWM_F, 72, 0, TIM_OCPreload_Enable);
     3e2:	46a1                	li	a3,8
     3e4:	4601                	li	a2,0
     3e6:	04800593          	li	a1,72
     3ea:	30200513          	li	a0,770
     3ee:	42b000ef          	jal	ra,1018 <pwm_init>
D:/Desktop/智能车基地/CH32V103_SmartCar_V1.0/4.Demo/Libraries/hefei_peripheral/HF_L9110S_2.c:23
        pwm_init(L_PWM_B, 72, 0, TIM_OCPreload_Enable);
     3f2:	46a1                	li	a3,8
     3f4:	4601                	li	a2,0
     3f6:	04800593          	li	a1,72
     3fa:	30300513          	li	a0,771
     3fe:	41b000ef          	jal	ra,1018 <pwm_init>
D:/Desktop/智能车基地/CH32V103_SmartCar_V1.0/4.Demo/Libraries/hefei_peripheral/HF_L9110S_2.c:31
    else if(object == right)
    {
        pwm_init(R_PWM_F, 72, 0, TIM_OCPreload_Disable);
        pwm_init(R_PWM_B, 72, 0, TIM_OCPreload_Disable);
    }
}
     402:	a035                	j	42e <l9110s_init+0x5e>
D:/Desktop/智能车基地/CH32V103_SmartCar_V1.0/4.Demo/Libraries/hefei_peripheral/HF_L9110S_2.c:26
    else if(object == right)
     404:	fec42703          	lw	a4,-20(s0)
     408:	4785                	li	a5,1
     40a:	02f71263          	bne	a4,a5,42e <l9110s_init+0x5e>
D:/Desktop/智能车基地/CH32V103_SmartCar_V1.0/4.Demo/Libraries/hefei_peripheral/HF_L9110S_2.c:28
        pwm_init(R_PWM_F, 72, 0, TIM_OCPreload_Disable);
     40e:	4681                	li	a3,0
     410:	4601                	li	a2,0
     412:	04800593          	li	a1,72
     416:	20200513          	li	a0,514
     41a:	3ff000ef          	jal	ra,1018 <pwm_init>
D:/Desktop/智能车基地/CH32V103_SmartCar_V1.0/4.Demo/Libraries/hefei_peripheral/HF_L9110S_2.c:29
        pwm_init(R_PWM_B, 72, 0, TIM_OCPreload_Disable);
     41e:	4681                	li	a3,0
     420:	4601                	li	a2,0
     422:	04800593          	li	a1,72
     426:	20300513          	li	a0,515
     42a:	3ef000ef          	jal	ra,1018 <pwm_init>
D:/Desktop/智能车基地/CH32V103_SmartCar_V1.0/4.Demo/Libraries/hefei_peripheral/HF_L9110S_2.c:31
}
     42e:	0001                	nop
     430:	40f2                	lw	ra,28(sp)
     432:	4462                	lw	s0,24(sp)
     434:	6105                	addi	sp,sp,32
     436:	8082                	ret

00000438 <l9110s_forward>:
l9110s_forward():
D:/Desktop/智能车基地/CH32V103_SmartCar_V1.0/4.Demo/Libraries/hefei_peripheral/HF_L9110S_2.c:42
// @return       void 
// Sample usage:        PWM_9110_forward(right, 10000);
                        //右电机满速正转(10000/10000)
//-------------------------------------------------------------------------------------------------------------------
void l9110s_forward(left_or_right object, uint16 value)
{
     438:	1101                	addi	sp,sp,-32
     43a:	ce06                	sw	ra,28(sp)
     43c:	cc22                	sw	s0,24(sp)
     43e:	1000                	addi	s0,sp,32
     440:	fea42623          	sw	a0,-20(s0)
     444:	87ae                	mv	a5,a1
     446:	fef41523          	sh	a5,-22(s0)
D:/Desktop/智能车基地/CH32V103_SmartCar_V1.0/4.Demo/Libraries/hefei_peripheral/HF_L9110S_2.c:43
    if(object == left)
     44a:	fec42783          	lw	a5,-20(s0)
     44e:	ef91                	bnez	a5,46a <l9110s_forward+0x32>
D:/Desktop/智能车基地/CH32V103_SmartCar_V1.0/4.Demo/Libraries/hefei_peripheral/HF_L9110S_2.c:45
    {
        pwm_duty(L_PWM_F, value);
     450:	fea45783          	lhu	a5,-22(s0)
     454:	85be                	mv	a1,a5
     456:	30200513          	li	a0,770
     45a:	659000ef          	jal	ra,12b2 <pwm_duty>
D:/Desktop/智能车基地/CH32V103_SmartCar_V1.0/4.Demo/Libraries/hefei_peripheral/HF_L9110S_2.c:46
        pwm_duty(L_PWM_B, 0);
     45e:	4581                	li	a1,0
     460:	30300513          	li	a0,771
     464:	64f000ef          	jal	ra,12b2 <pwm_duty>
D:/Desktop/智能车基地/CH32V103_SmartCar_V1.0/4.Demo/Libraries/hefei_peripheral/HF_L9110S_2.c:54
    else if(object == right)
    {
        pwm_duty(R_PWM_F, value);
        pwm_duty(R_PWM_B, 0);
    }
}
     468:	a015                	j	48c <l9110s_forward+0x54>
D:/Desktop/智能车基地/CH32V103_SmartCar_V1.0/4.Demo/Libraries/hefei_peripheral/HF_L9110S_2.c:49
    else if(object == right)
     46a:	fec42703          	lw	a4,-20(s0)
     46e:	4785                	li	a5,1
     470:	00f71e63          	bne	a4,a5,48c <l9110s_forward+0x54>
D:/Desktop/智能车基地/CH32V103_SmartCar_V1.0/4.Demo/Libraries/hefei_peripheral/HF_L9110S_2.c:51
        pwm_duty(R_PWM_F, value);
     474:	fea45783          	lhu	a5,-22(s0)
     478:	85be                	mv	a1,a5
     47a:	20200513          	li	a0,514
     47e:	635000ef          	jal	ra,12b2 <pwm_duty>
D:/Desktop/智能车基地/CH32V103_SmartCar_V1.0/4.Demo/Libraries/hefei_peripheral/HF_L9110S_2.c:52
        pwm_duty(R_PWM_B, 0);
     482:	4581                	li	a1,0
     484:	20300513          	li	a0,515
     488:	62b000ef          	jal	ra,12b2 <pwm_duty>
D:/Desktop/智能车基地/CH32V103_SmartCar_V1.0/4.Demo/Libraries/hefei_peripheral/HF_L9110S_2.c:54
}
     48c:	0001                	nop
     48e:	40f2                	lw	ra,28(sp)
     490:	4462                	lw	s0,24(sp)
     492:	6105                	addi	sp,sp,32
     494:	8082                	ret

00000496 <l9110s_back>:
l9110s_back():
D:/Desktop/智能车基地/CH32V103_SmartCar_V1.0/4.Demo/Libraries/hefei_peripheral/HF_L9110S_2.c:65
// @return       void 
// Sample usage:        PWM_9110_back(left, 10000)；
                        //左电机满速反转(10000/10000)
//-------------------------------------------------------------------------------------------------------------------
void l9110s_back(left_or_right object, uint16 value)
{
     496:	1101                	addi	sp,sp,-32
     498:	ce06                	sw	ra,28(sp)
     49a:	cc22                	sw	s0,24(sp)
     49c:	1000                	addi	s0,sp,32
     49e:	fea42623          	sw	a0,-20(s0)
     4a2:	87ae                	mv	a5,a1
     4a4:	fef41523          	sh	a5,-22(s0)
D:/Desktop/智能车基地/CH32V103_SmartCar_V1.0/4.Demo/Libraries/hefei_peripheral/HF_L9110S_2.c:66
    if(object == left)
     4a8:	fec42783          	lw	a5,-20(s0)
     4ac:	ef91                	bnez	a5,4c8 <l9110s_back+0x32>
D:/Desktop/智能车基地/CH32V103_SmartCar_V1.0/4.Demo/Libraries/hefei_peripheral/HF_L9110S_2.c:68
    {
        pwm_duty(L_PWM_F, 0);
     4ae:	4581                	li	a1,0
     4b0:	30200513          	li	a0,770
     4b4:	5ff000ef          	jal	ra,12b2 <pwm_duty>
D:/Desktop/智能车基地/CH32V103_SmartCar_V1.0/4.Demo/Libraries/hefei_peripheral/HF_L9110S_2.c:69
        pwm_duty(L_PWM_B, value);
     4b8:	fea45783          	lhu	a5,-22(s0)
     4bc:	85be                	mv	a1,a5
     4be:	30300513          	li	a0,771
     4c2:	5f1000ef          	jal	ra,12b2 <pwm_duty>
D:/Desktop/智能车基地/CH32V103_SmartCar_V1.0/4.Demo/Libraries/hefei_peripheral/HF_L9110S_2.c:77
    else if(object == right)
    {
        pwm_duty(R_PWM_F, 0);
        pwm_duty(R_PWM_B, value);
    }
}
     4c6:	a015                	j	4ea <l9110s_back+0x54>
D:/Desktop/智能车基地/CH32V103_SmartCar_V1.0/4.Demo/Libraries/hefei_peripheral/HF_L9110S_2.c:72
    else if(object == right)
     4c8:	fec42703          	lw	a4,-20(s0)
     4cc:	4785                	li	a5,1
     4ce:	00f71e63          	bne	a4,a5,4ea <l9110s_back+0x54>
D:/Desktop/智能车基地/CH32V103_SmartCar_V1.0/4.Demo/Libraries/hefei_peripheral/HF_L9110S_2.c:74
        pwm_duty(R_PWM_F, 0);
     4d2:	4581                	li	a1,0
     4d4:	20200513          	li	a0,514
     4d8:	5db000ef          	jal	ra,12b2 <pwm_duty>
D:/Desktop/智能车基地/CH32V103_SmartCar_V1.0/4.Demo/Libraries/hefei_peripheral/HF_L9110S_2.c:75
        pwm_duty(R_PWM_B, value);
     4dc:	fea45783          	lhu	a5,-22(s0)
     4e0:	85be                	mv	a1,a5
     4e2:	20300513          	li	a0,515
     4e6:	5cd000ef          	jal	ra,12b2 <pwm_duty>
D:/Desktop/智能车基地/CH32V103_SmartCar_V1.0/4.Demo/Libraries/hefei_peripheral/HF_L9110S_2.c:77
}
     4ea:	0001                	nop
     4ec:	40f2                	lw	ra,28(sp)
     4ee:	4462                	lw	s0,24(sp)
     4f0:	6105                	addi	sp,sp,32
     4f2:	8082                	ret

000004f4 <tm1637_init>:
tm1637_init():
D:/Desktop/智能车基地/CH32V103_SmartCar_V1.0/4.Demo/Libraries/hefei_peripheral/HF_TM1637.c:18
// @param        void
// @return       void
// Sample usage:        tm1637_init();//初始化数码管
//-------------------------------------------------------------------------------------------------------------------
void tm1637_init(void)
{
     4f4:	1141                	addi	sp,sp,-16
     4f6:	c606                	sw	ra,12(sp)
     4f8:	c422                	sw	s0,8(sp)
     4fa:	0800                	addi	s0,sp,16
D:/Desktop/智能车基地/CH32V103_SmartCar_V1.0/4.Demo/Libraries/hefei_peripheral/HF_TM1637.c:20
    /* 配置GPIO时钟 */
    RCC_APB2PeriphClockCmd(RCC_APB2Periph_GPIOA, ENABLE);
     4fc:	4585                	li	a1,1
     4fe:	4511                	li	a0,4
     500:	6b0020ef          	jal	ra,2bb0 <RCC_APB2PeriphClockCmd>
D:/Desktop/智能车基地/CH32V103_SmartCar_V1.0/4.Demo/Libraries/hefei_peripheral/HF_TM1637.c:23

    /* 配置PA8、PA11接口 */
    gpio_init(led_scl, GPO, 1, SPEED_50MHZ | OUT_PP);
     504:	31000693          	li	a3,784
     508:	4605                	li	a2,1
     50a:	4585                	li	a1,1
     50c:	02a00513          	li	a0,42
     510:	039000ef          	jal	ra,d48 <gpio_init>
D:/Desktop/智能车基地/CH32V103_SmartCar_V1.0/4.Demo/Libraries/hefei_peripheral/HF_TM1637.c:24
    gpio_init(led_sda, GPO, 1, SPEED_50MHZ | OUT_PP);
     514:	31000693          	li	a3,784
     518:	4605                	li	a2,1
     51a:	4585                	li	a1,1
     51c:	02b00513          	li	a0,43
     520:	029000ef          	jal	ra,d48 <gpio_init>
D:/Desktop/智能车基地/CH32V103_SmartCar_V1.0/4.Demo/Libraries/hefei_peripheral/HF_TM1637.c:25
}
     524:	0001                	nop
     526:	40b2                	lw	ra,12(sp)
     528:	4422                	lw	s0,8(sp)
     52a:	0141                	addi	sp,sp,16
     52c:	8082                	ret

0000052e <tm1637_start>:
tm1637_start():
D:/Desktop/智能车基地/CH32V103_SmartCar_V1.0/4.Demo/Libraries/hefei_peripheral/HF_TM1637.c:34
// @param        void
// @return       void
// Sample usage:        tm1637_start();//起始信号
//-------------------------------------------------------------------------------------------------------------------
void tm1637_start(void)
{
     52e:	1141                	addi	sp,sp,-16
     530:	c606                	sw	ra,12(sp)
     532:	c422                	sw	s0,8(sp)
     534:	0800                	addi	s0,sp,16
D:/Desktop/智能车基地/CH32V103_SmartCar_V1.0/4.Demo/Libraries/hefei_peripheral/HF_TM1637.c:35
    led_scl_set();      //SCL为高电平
     536:	4585                	li	a1,1
     538:	02a00513          	li	a0,42
     53c:	1b1000ef          	jal	ra,eec <gpio_bit_output>
D:/Desktop/智能车基地/CH32V103_SmartCar_V1.0/4.Demo/Libraries/hefei_peripheral/HF_TM1637.c:36
    led_sda_set();      //SDA为高电平
     540:	4585                	li	a1,1
     542:	02b00513          	li	a0,43
     546:	1a7000ef          	jal	ra,eec <gpio_bit_output>
D:/Desktop/智能车基地/CH32V103_SmartCar_V1.0/4.Demo/Libraries/hefei_peripheral/HF_TM1637.c:37
    Delay_Us(125);
     54a:	07d00513          	li	a0,125
     54e:	21d5                	jal	a32 <Delay_Us>
D:/Desktop/智能车基地/CH32V103_SmartCar_V1.0/4.Demo/Libraries/hefei_peripheral/HF_TM1637.c:38
    led_sda_clr();      //SDA为低电平
     550:	4581                	li	a1,0
     552:	02b00513          	li	a0,43
     556:	197000ef          	jal	ra,eec <gpio_bit_output>
D:/Desktop/智能车基地/CH32V103_SmartCar_V1.0/4.Demo/Libraries/hefei_peripheral/HF_TM1637.c:39
    Delay_Us(75);
     55a:	04b00513          	li	a0,75
     55e:	29d1                	jal	a32 <Delay_Us>
D:/Desktop/智能车基地/CH32V103_SmartCar_V1.0/4.Demo/Libraries/hefei_peripheral/HF_TM1637.c:40
    led_scl_clr();      //SCL为低电平
     560:	4581                	li	a1,0
     562:	02a00513          	li	a0,42
     566:	187000ef          	jal	ra,eec <gpio_bit_output>
D:/Desktop/智能车基地/CH32V103_SmartCar_V1.0/4.Demo/Libraries/hefei_peripheral/HF_TM1637.c:41
    Delay_Us(25);
     56a:	4565                	li	a0,25
     56c:	21d9                	jal	a32 <Delay_Us>
D:/Desktop/智能车基地/CH32V103_SmartCar_V1.0/4.Demo/Libraries/hefei_peripheral/HF_TM1637.c:42
}
     56e:	0001                	nop
     570:	40b2                	lw	ra,12(sp)
     572:	4422                	lw	s0,8(sp)
     574:	0141                	addi	sp,sp,16
     576:	8082                	ret

00000578 <tm1637_wait_ack>:
tm1637_wait_ack():
D:/Desktop/智能车基地/CH32V103_SmartCar_V1.0/4.Demo/Libraries/hefei_peripheral/HF_TM1637.c:51
// @param        void
// @return       void
// Sample usage:        tm1637_wait_ack();//等待应答
//-------------------------------------------------------------------------------------------------------------------
void tm1637_wait_ack(void)
{
     578:	1141                	addi	sp,sp,-16
     57a:	c606                	sw	ra,12(sp)
     57c:	c422                	sw	s0,8(sp)
     57e:	0800                	addi	s0,sp,16
D:/Desktop/智能车基地/CH32V103_SmartCar_V1.0/4.Demo/Libraries/hefei_peripheral/HF_TM1637.c:52
    led_scl_clr();      //SCL为低电平
     580:	4581                	li	a1,0
     582:	02a00513          	li	a0,42
     586:	167000ef          	jal	ra,eec <gpio_bit_output>
D:/Desktop/智能车基地/CH32V103_SmartCar_V1.0/4.Demo/Libraries/hefei_peripheral/HF_TM1637.c:53
    led_sda_clr();      //SDA为低电平
     58a:	4581                	li	a1,0
     58c:	02b00513          	li	a0,43
     590:	15d000ef          	jal	ra,eec <gpio_bit_output>
D:/Desktop/智能车基地/CH32V103_SmartCar_V1.0/4.Demo/Libraries/hefei_peripheral/HF_TM1637.c:54
    Delay_Us(50);
     594:	03200513          	li	a0,50
     598:	2969                	jal	a32 <Delay_Us>
D:/Desktop/智能车基地/CH32V103_SmartCar_V1.0/4.Demo/Libraries/hefei_peripheral/HF_TM1637.c:55
    led_scl_set();      //SCL为高电平
     59a:	4585                	li	a1,1
     59c:	02a00513          	li	a0,42
     5a0:	14d000ef          	jal	ra,eec <gpio_bit_output>
D:/Desktop/智能车基地/CH32V103_SmartCar_V1.0/4.Demo/Libraries/hefei_peripheral/HF_TM1637.c:56
    Delay_Us(25);
     5a4:	4565                	li	a0,25
     5a6:	2171                	jal	a32 <Delay_Us>
D:/Desktop/智能车基地/CH32V103_SmartCar_V1.0/4.Demo/Libraries/hefei_peripheral/HF_TM1637.c:57
    led_scl_clr();      //SCL为低电平
     5a8:	4581                	li	a1,0
     5aa:	02a00513          	li	a0,42
     5ae:	13f000ef          	jal	ra,eec <gpio_bit_output>
D:/Desktop/智能车基地/CH32V103_SmartCar_V1.0/4.Demo/Libraries/hefei_peripheral/HF_TM1637.c:58
    Delay_Us(25);
     5b2:	4565                	li	a0,25
     5b4:	29bd                	jal	a32 <Delay_Us>
D:/Desktop/智能车基地/CH32V103_SmartCar_V1.0/4.Demo/Libraries/hefei_peripheral/HF_TM1637.c:59
}
     5b6:	0001                	nop
     5b8:	40b2                	lw	ra,12(sp)
     5ba:	4422                	lw	s0,8(sp)
     5bc:	0141                	addi	sp,sp,16
     5be:	8082                	ret

000005c0 <tm1637_stop>:
tm1637_stop():
D:/Desktop/智能车基地/CH32V103_SmartCar_V1.0/4.Demo/Libraries/hefei_peripheral/HF_TM1637.c:68
// @param        void
// @return       void
// Sample usage:        tm1637_stop();//停止信号
//-------------------------------------------------------------------------------------------------------------------
void tm1637_stop(void)
{
     5c0:	1141                	addi	sp,sp,-16
     5c2:	c606                	sw	ra,12(sp)
     5c4:	c422                	sw	s0,8(sp)
     5c6:	0800                	addi	s0,sp,16
D:/Desktop/智能车基地/CH32V103_SmartCar_V1.0/4.Demo/Libraries/hefei_peripheral/HF_TM1637.c:69
    Delay_Us(25);
     5c8:	4565                	li	a0,25
     5ca:	21a5                	jal	a32 <Delay_Us>
D:/Desktop/智能车基地/CH32V103_SmartCar_V1.0/4.Demo/Libraries/hefei_peripheral/HF_TM1637.c:70
    led_scl_set();      //SCL为高电平
     5cc:	4585                	li	a1,1
     5ce:	02a00513          	li	a0,42
     5d2:	11b000ef          	jal	ra,eec <gpio_bit_output>
D:/Desktop/智能车基地/CH32V103_SmartCar_V1.0/4.Demo/Libraries/hefei_peripheral/HF_TM1637.c:71
    led_sda_clr();      //SDA为低电平
     5d6:	4581                	li	a1,0
     5d8:	02b00513          	li	a0,43
     5dc:	111000ef          	jal	ra,eec <gpio_bit_output>
D:/Desktop/智能车基地/CH32V103_SmartCar_V1.0/4.Demo/Libraries/hefei_peripheral/HF_TM1637.c:72
    Delay_Us(75);
     5e0:	04b00513          	li	a0,75
     5e4:	21b9                	jal	a32 <Delay_Us>
D:/Desktop/智能车基地/CH32V103_SmartCar_V1.0/4.Demo/Libraries/hefei_peripheral/HF_TM1637.c:73
    led_sda_set();      //SDA为高电平
     5e6:	4585                	li	a1,1
     5e8:	02b00513          	li	a0,43
     5ec:	101000ef          	jal	ra,eec <gpio_bit_output>
D:/Desktop/智能车基地/CH32V103_SmartCar_V1.0/4.Demo/Libraries/hefei_peripheral/HF_TM1637.c:74
}
     5f0:	0001                	nop
     5f2:	40b2                	lw	ra,12(sp)
     5f4:	4422                	lw	s0,8(sp)
     5f6:	0141                	addi	sp,sp,16
     5f8:	8082                	ret

000005fa <tm1637_write_byte>:
tm1637_write_byte():
D:/Desktop/智能车基地/CH32V103_SmartCar_V1.0/4.Demo/Libraries/hefei_peripheral/HF_TM1637.c:83
// @param        void
// @return       void
// Sample usage:        tm1637_write_byte(0xFF);//向数码管写0xFF字节,点亮八个灯区
//-------------------------------------------------------------------------------------------------------------------
void tm1637_write_byte(unsigned char dat)
{
     5fa:	7179                	addi	sp,sp,-48
     5fc:	d606                	sw	ra,44(sp)
     5fe:	d422                	sw	s0,40(sp)
     600:	1800                	addi	s0,sp,48
     602:	87aa                	mv	a5,a0
     604:	fcf40fa3          	sb	a5,-33(s0)
D:/Desktop/智能车基地/CH32V103_SmartCar_V1.0/4.Demo/Libraries/hefei_peripheral/HF_TM1637.c:85
    unsigned char i;
    for( i = 0; i < 8; i++)
     608:	fe0407a3          	sb	zero,-17(s0)
     60c:	a08d                	j	66e <tm1637_write_byte+0x74>
D:/Desktop/智能车基地/CH32V103_SmartCar_V1.0/4.Demo/Libraries/hefei_peripheral/HF_TM1637.c:87
    {
        led_scl_clr();      //SCL为低电平
     60e:	4581                	li	a1,0
     610:	02a00513          	li	a0,42
     614:	0d9000ef          	jal	ra,eec <gpio_bit_output>
D:/Desktop/智能车基地/CH32V103_SmartCar_V1.0/4.Demo/Libraries/hefei_peripheral/HF_TM1637.c:88
        if(dat & 0x01) //低位在前
     618:	fdf44783          	lbu	a5,-33(s0)
     61c:	8b85                	andi	a5,a5,1
     61e:	c799                	beqz	a5,62c <tm1637_write_byte+0x32>
D:/Desktop/智能车基地/CH32V103_SmartCar_V1.0/4.Demo/Libraries/hefei_peripheral/HF_TM1637.c:90
        {
            led_sda_set();      //SDA为高电平
     620:	4585                	li	a1,1
     622:	02b00513          	li	a0,43
     626:	0c7000ef          	jal	ra,eec <gpio_bit_output>
     62a:	a031                	j	636 <tm1637_write_byte+0x3c>
D:/Desktop/智能车基地/CH32V103_SmartCar_V1.0/4.Demo/Libraries/hefei_peripheral/HF_TM1637.c:94
        }
        else
        {
            led_sda_clr();      //SDA为低电平
     62c:	4581                	li	a1,0
     62e:	02b00513          	li	a0,43
     632:	0bb000ef          	jal	ra,eec <gpio_bit_output>
D:/Desktop/智能车基地/CH32V103_SmartCar_V1.0/4.Demo/Libraries/hefei_peripheral/HF_TM1637.c:96 (discriminator 2)
        }
        Delay_Us(25);
     636:	4565                	li	a0,25
     638:	2eed                	jal	a32 <Delay_Us>
D:/Desktop/智能车基地/CH32V103_SmartCar_V1.0/4.Demo/Libraries/hefei_peripheral/HF_TM1637.c:97 (discriminator 2)
        dat = dat >> 1;
     63a:	fdf44783          	lbu	a5,-33(s0)
     63e:	8385                	srli	a5,a5,0x1
     640:	fcf40fa3          	sb	a5,-33(s0)
D:/Desktop/智能车基地/CH32V103_SmartCar_V1.0/4.Demo/Libraries/hefei_peripheral/HF_TM1637.c:98 (discriminator 2)
        led_scl_set();      //SCL为高电平
     644:	4585                	li	a1,1
     646:	02a00513          	li	a0,42
     64a:	0a3000ef          	jal	ra,eec <gpio_bit_output>
D:/Desktop/智能车基地/CH32V103_SmartCar_V1.0/4.Demo/Libraries/hefei_peripheral/HF_TM1637.c:99 (discriminator 2)
        Delay_Us(50);
     64e:	03200513          	li	a0,50
     652:	26c5                	jal	a32 <Delay_Us>
D:/Desktop/智能车基地/CH32V103_SmartCar_V1.0/4.Demo/Libraries/hefei_peripheral/HF_TM1637.c:100 (discriminator 2)
        led_scl_clr();      //SCL为低电平
     654:	4581                	li	a1,0
     656:	02a00513          	li	a0,42
     65a:	093000ef          	jal	ra,eec <gpio_bit_output>
D:/Desktop/智能车基地/CH32V103_SmartCar_V1.0/4.Demo/Libraries/hefei_peripheral/HF_TM1637.c:101 (discriminator 2)
        Delay_Us(50);
     65e:	03200513          	li	a0,50
     662:	2ec1                	jal	a32 <Delay_Us>
D:/Desktop/智能车基地/CH32V103_SmartCar_V1.0/4.Demo/Libraries/hefei_peripheral/HF_TM1637.c:85 (discriminator 2)
    for( i = 0; i < 8; i++)
     664:	fef44783          	lbu	a5,-17(s0)
     668:	0785                	addi	a5,a5,1
     66a:	fef407a3          	sb	a5,-17(s0)
D:/Desktop/智能车基地/CH32V103_SmartCar_V1.0/4.Demo/Libraries/hefei_peripheral/HF_TM1637.c:85 (discriminator 1)
     66e:	fef44703          	lbu	a4,-17(s0)
     672:	479d                	li	a5,7
     674:	f8e7fde3          	bgeu	a5,a4,60e <tm1637_write_byte+0x14>
D:/Desktop/智能车基地/CH32V103_SmartCar_V1.0/4.Demo/Libraries/hefei_peripheral/HF_TM1637.c:103
    }
}
     678:	0001                	nop
     67a:	50b2                	lw	ra,44(sp)
     67c:	5422                	lw	s0,40(sp)
     67e:	6145                	addi	sp,sp,48
     680:	8082                	ret

00000682 <tm1637_command>:
tm1637_command():
D:/Desktop/智能车基地/CH32V103_SmartCar_V1.0/4.Demo/Libraries/hefei_peripheral/HF_TM1637.c:112
// @param        void
// @return       void
// Sample usage:        tm1637_command(0x40);//向数码管发送一个命令（设置为地址自动加一显示）
//-------------------------------------------------------------------------------------------------------------------
void tm1637_command(unsigned char cmd)
{
     682:	1101                	addi	sp,sp,-32
     684:	ce06                	sw	ra,28(sp)
     686:	cc22                	sw	s0,24(sp)
     688:	1000                	addi	s0,sp,32
     68a:	87aa                	mv	a5,a0
     68c:	fef407a3          	sb	a5,-17(s0)
D:/Desktop/智能车基地/CH32V103_SmartCar_V1.0/4.Demo/Libraries/hefei_peripheral/HF_TM1637.c:113
    tm1637_start();
     690:	3d79                	jal	52e <tm1637_start>
D:/Desktop/智能车基地/CH32V103_SmartCar_V1.0/4.Demo/Libraries/hefei_peripheral/HF_TM1637.c:114
    tm1637_write_byte(cmd);
     692:	fef44783          	lbu	a5,-17(s0)
     696:	853e                	mv	a0,a5
     698:	378d                	jal	5fa <tm1637_write_byte>
D:/Desktop/智能车基地/CH32V103_SmartCar_V1.0/4.Demo/Libraries/hefei_peripheral/HF_TM1637.c:115
    tm1637_wait_ack();
     69a:	3df9                	jal	578 <tm1637_wait_ack>
D:/Desktop/智能车基地/CH32V103_SmartCar_V1.0/4.Demo/Libraries/hefei_peripheral/HF_TM1637.c:116
    tm1637_stop();
     69c:	3715                	jal	5c0 <tm1637_stop>
D:/Desktop/智能车基地/CH32V103_SmartCar_V1.0/4.Demo/Libraries/hefei_peripheral/HF_TM1637.c:117
}
     69e:	0001                	nop
     6a0:	40f2                	lw	ra,28(sp)
     6a2:	4462                	lw	s0,24(sp)
     6a4:	6105                	addi	sp,sp,32
     6a6:	8082                	ret

000006a8 <ws2812b_init>:
ws2812b_init():
D:/Desktop/智能车基地/CH32V103_SmartCar_V1.0/4.Demo/Libraries/hefei_peripheral/HF_WS2812b.c:20
//  @since      v1.0
//  Sample usage:           ws2812b_init();
//                          //初始化RGB等
//-------------------------------------------------------------------------------------------------------------------
void ws2812b_init()
{
     6a8:	1101                	addi	sp,sp,-32
     6aa:	ce06                	sw	ra,28(sp)
     6ac:	cc22                	sw	s0,24(sp)
     6ae:	1000                	addi	s0,sp,32
D:/Desktop/智能车基地/CH32V103_SmartCar_V1.0/4.Demo/Libraries/hefei_peripheral/HF_WS2812b.c:21
    pwm_init(PWM2_CH2_A1, 180000, 0, TIM_OCPreload_Disable);
     6b0:	4681                	li	a3,0
     6b2:	4601                	li	a2,0
     6b4:	0002c7b7          	lui	a5,0x2c
     6b8:	f2078593          	addi	a1,a5,-224 # 2bf20 <_data_lma+0x283e0>
     6bc:	10100513          	li	a0,257
     6c0:	159000ef          	jal	ra,1018 <pwm_init>
D:/Desktop/智能车基地/CH32V103_SmartCar_V1.0/4.Demo/Libraries/hefei_peripheral/HF_WS2812b.c:22
    TIM_OC2PolarityConfig(TIM2, TIM_OCPolarity_Low);
     6c4:	4589                	li	a1,2
     6c6:	40000537          	lui	a0,0x40000
     6ca:	6d7020ef          	jal	ra,35a0 <TIM_OC2PolarityConfig>
D:/Desktop/智能车基地/CH32V103_SmartCar_V1.0/4.Demo/Libraries/hefei_peripheral/HF_WS2812b.c:24

    uint8_t RGB[3] = {0x00,0x00,0x00};
     6ce:	fe040623          	sb	zero,-20(s0)
     6d2:	fe0406a3          	sb	zero,-19(s0)
     6d6:	fe040723          	sb	zero,-18(s0)
D:/Desktop/智能车基地/CH32V103_SmartCar_V1.0/4.Demo/Libraries/hefei_peripheral/HF_WS2812b.c:25
    ws2812b_write(RGB);
     6da:	fec40793          	addi	a5,s0,-20
     6de:	853e                	mv	a0,a5
     6e0:	2829                	jal	6fa <ws2812b_write>
D:/Desktop/智能车基地/CH32V103_SmartCar_V1.0/4.Demo/Libraries/hefei_peripheral/HF_WS2812b.c:26
    Delay_Us(100);
     6e2:	06400513          	li	a0,100
     6e6:	26b1                	jal	a32 <Delay_Us>
D:/Desktop/智能车基地/CH32V103_SmartCar_V1.0/4.Demo/Libraries/hefei_peripheral/HF_WS2812b.c:27
    ws2812b_write(RGB);
     6e8:	fec40793          	addi	a5,s0,-20
     6ec:	853e                	mv	a0,a5
     6ee:	2031                	jal	6fa <ws2812b_write>
D:/Desktop/智能车基地/CH32V103_SmartCar_V1.0/4.Demo/Libraries/hefei_peripheral/HF_WS2812b.c:28
}
     6f0:	0001                	nop
     6f2:	40f2                	lw	ra,28(sp)
     6f4:	4462                	lw	s0,24(sp)
     6f6:	6105                	addi	sp,sp,32
     6f8:	8082                	ret

000006fa <ws2812b_write>:
ws2812b_write():
D:/Desktop/智能车基地/CH32V103_SmartCar_V1.0/4.Demo/Libraries/hefei_peripheral/HF_WS2812b.c:38
// @return       void
// Sample usage:        uint8_t RGB[3] = {0xff,0x00,0x00};  ws2812b_write(RGB);
                        //向RGB写入数组，显示红色
//-------------------------------------------------------------------------------------------------------------------
void ws2812b_write(uint8_t* RGB)
{
     6fa:	7179                	addi	sp,sp,-48
     6fc:	d606                	sw	ra,44(sp)
     6fe:	d422                	sw	s0,40(sp)
     700:	1800                	addi	s0,sp,48
     702:	fca42e23          	sw	a0,-36(s0)
D:/Desktop/智能车基地/CH32V103_SmartCar_V1.0/4.Demo/Libraries/hefei_peripheral/HF_WS2812b.c:40
    unsigned int num, i;
    unsigned char GRB[3] = {0,};
     706:	fe041223          	sh	zero,-28(s0)
     70a:	fe040323          	sb	zero,-26(s0)
D:/Desktop/智能车基地/CH32V103_SmartCar_V1.0/4.Demo/Libraries/hefei_peripheral/HF_WS2812b.c:42

    GRB[0] = RGB[1];
     70e:	fdc42783          	lw	a5,-36(s0)
     712:	0017c783          	lbu	a5,1(a5)
     716:	fef40223          	sb	a5,-28(s0)
D:/Desktop/智能车基地/CH32V103_SmartCar_V1.0/4.Demo/Libraries/hefei_peripheral/HF_WS2812b.c:43
    GRB[1] = RGB[0];
     71a:	fdc42783          	lw	a5,-36(s0)
     71e:	0007c783          	lbu	a5,0(a5)
     722:	fef402a3          	sb	a5,-27(s0)
D:/Desktop/智能车基地/CH32V103_SmartCar_V1.0/4.Demo/Libraries/hefei_peripheral/HF_WS2812b.c:44
    GRB[2] = RGB[2];
     726:	fdc42783          	lw	a5,-36(s0)
     72a:	0027c783          	lbu	a5,2(a5)
     72e:	fef40323          	sb	a5,-26(s0)
D:/Desktop/智能车基地/CH32V103_SmartCar_V1.0/4.Demo/Libraries/hefei_peripheral/HF_WS2812b.c:45
    TIM_SetCounter(((TIM_TypeDef *)TIM2_BASE), 0);
     732:	4581                	li	a1,0
     734:	40000537          	lui	a0,0x40000
     738:	6bf020ef          	jal	ra,35f6 <TIM_SetCounter>
D:/Desktop/智能车基地/CH32V103_SmartCar_V1.0/4.Demo/Libraries/hefei_peripheral/HF_WS2812b.c:47

    for(num = 0; num<3; num++)
     73c:	fe042623          	sw	zero,-20(s0)
     740:	a861                	j	7d8 <ws2812b_write+0xde>
D:/Desktop/智能车基地/CH32V103_SmartCar_V1.0/4.Demo/Libraries/hefei_peripheral/HF_WS2812b.c:49
    {
        for(i = 8; i!=0; i--)
     742:	47a1                	li	a5,8
     744:	fef42423          	sw	a5,-24(s0)
     748:	a041                	j	7c8 <ws2812b_write+0xce>
D:/Desktop/智能车基地/CH32V103_SmartCar_V1.0/4.Demo/Libraries/hefei_peripheral/HF_WS2812b.c:51
        {
            if((*(GRB+num)>>(i-1))&0x01)
     74a:	fe440713          	addi	a4,s0,-28
     74e:	fec42783          	lw	a5,-20(s0)
     752:	97ba                	add	a5,a5,a4
     754:	0007c783          	lbu	a5,0(a5)
     758:	873e                	mv	a4,a5
     75a:	fe842783          	lw	a5,-24(s0)
     75e:	17fd                	addi	a5,a5,-1
     760:	40f757b3          	sra	a5,a4,a5
     764:	8b85                	andi	a5,a5,1
     766:	cb89                	beqz	a5,778 <ws2812b_write+0x7e>
D:/Desktop/智能车基地/CH32V103_SmartCar_V1.0/4.Demo/Libraries/hefei_peripheral/HF_WS2812b.c:54
            {
                //设置阈值(比较值,调节占空比的时候调节这个值)
                pwm_duty(PWM2_CH2_A1, 8500);/*发1*/
     768:	6789                	lui	a5,0x2
     76a:	13478593          	addi	a1,a5,308 # 2134 <car_right_rgb_flash+0x124>
     76e:	10100513          	li	a0,257
     772:	341000ef          	jal	ra,12b2 <pwm_duty>
     776:	a801                	j	786 <ws2812b_write+0x8c>
D:/Desktop/智能车基地/CH32V103_SmartCar_V1.0/4.Demo/Libraries/hefei_peripheral/HF_WS2812b.c:58
            }
            else
            {
                pwm_duty(PWM2_CH2_A1, 9500);/*发0*/
     778:	6789                	lui	a5,0x2
     77a:	51c78593          	addi	a1,a5,1308 # 251c <ADC_Init+0x74>
     77e:	10100513          	li	a0,257
     782:	331000ef          	jal	ra,12b2 <pwm_duty>
D:/Desktop/智能车基地/CH32V103_SmartCar_V1.0/4.Demo/Libraries/hefei_peripheral/HF_WS2812b.c:60
            }
            TIM_Cmd(((TIM_TypeDef *)TIM2_BASE), ENABLE);
     786:	4585                	li	a1,1
     788:	40000537          	lui	a0,0x40000
     78c:	411020ef          	jal	ra,339c <TIM_Cmd>
D:/Desktop/智能车基地/CH32V103_SmartCar_V1.0/4.Demo/Libraries/hefei_peripheral/HF_WS2812b.c:61
            while(!TIM_GetFlagStatus(((TIM_TypeDef *)TIM2_BASE), TIM_FLAG_Update));
     790:	0001                	nop
D:/Desktop/智能车基地/CH32V103_SmartCar_V1.0/4.Demo/Libraries/hefei_peripheral/HF_WS2812b.c:61 (discriminator 1)
     792:	4585                	li	a1,1
     794:	40000537          	lui	a0,0x40000
     798:	683020ef          	jal	ra,361a <TIM_GetFlagStatus>
     79c:	87aa                	mv	a5,a0
     79e:	dbf5                	beqz	a5,792 <ws2812b_write+0x98>
D:/Desktop/智能车基地/CH32V103_SmartCar_V1.0/4.Demo/Libraries/hefei_peripheral/HF_WS2812b.c:62 (discriminator 2)
            TIM_Cmd(((TIM_TypeDef *)TIM2_BASE), DISABLE);
     7a0:	4581                	li	a1,0
     7a2:	40000537          	lui	a0,0x40000
     7a6:	3f7020ef          	jal	ra,339c <TIM_Cmd>
D:/Desktop/智能车基地/CH32V103_SmartCar_V1.0/4.Demo/Libraries/hefei_peripheral/HF_WS2812b.c:63 (discriminator 2)
            TIM_ClearFlag(((TIM_TypeDef *)TIM2_BASE), TIM_FLAG_Update);
     7aa:	4585                	li	a1,1
     7ac:	40000537          	lui	a0,0x40000
     7b0:	6b1020ef          	jal	ra,3660 <TIM_ClearFlag>
D:/Desktop/智能车基地/CH32V103_SmartCar_V1.0/4.Demo/Libraries/hefei_peripheral/HF_WS2812b.c:64 (discriminator 2)
            TIM_SetCounter(((TIM_TypeDef *)TIM2_BASE), 0);
     7b4:	4581                	li	a1,0
     7b6:	40000537          	lui	a0,0x40000
     7ba:	63d020ef          	jal	ra,35f6 <TIM_SetCounter>
D:/Desktop/智能车基地/CH32V103_SmartCar_V1.0/4.Demo/Libraries/hefei_peripheral/HF_WS2812b.c:49 (discriminator 2)
        for(i = 8; i!=0; i--)
     7be:	fe842783          	lw	a5,-24(s0)
     7c2:	17fd                	addi	a5,a5,-1
     7c4:	fef42423          	sw	a5,-24(s0)
D:/Desktop/智能车基地/CH32V103_SmartCar_V1.0/4.Demo/Libraries/hefei_peripheral/HF_WS2812b.c:49 (discriminator 1)
     7c8:	fe842783          	lw	a5,-24(s0)
     7cc:	ffbd                	bnez	a5,74a <ws2812b_write+0x50>
D:/Desktop/智能车基地/CH32V103_SmartCar_V1.0/4.Demo/Libraries/hefei_peripheral/HF_WS2812b.c:47 (discriminator 2)
    for(num = 0; num<3; num++)
     7ce:	fec42783          	lw	a5,-20(s0)
     7d2:	0785                	addi	a5,a5,1
     7d4:	fef42623          	sw	a5,-20(s0)
D:/Desktop/智能车基地/CH32V103_SmartCar_V1.0/4.Demo/Libraries/hefei_peripheral/HF_WS2812b.c:47 (discriminator 1)
     7d8:	fec42703          	lw	a4,-20(s0)
     7dc:	4789                	li	a5,2
     7de:	f6e7f2e3          	bgeu	a5,a4,742 <ws2812b_write+0x48>
D:/Desktop/智能车基地/CH32V103_SmartCar_V1.0/4.Demo/Libraries/hefei_peripheral/HF_WS2812b.c:67
        }
    }
}
     7e2:	0001                	nop
     7e4:	50b2                	lw	ra,44(sp)
     7e6:	5422                	lw	s0,40(sp)
     7e8:	6145                	addi	sp,sp,48
     7ea:	8082                	ret

000007ec <board_init>:
board_init():
D:/Desktop/智能车基地/CH32V103_SmartCar_V1.0/4.Demo/Libraries/hefei_libraries/board/board.c:20
//  @return     void
//  @since      v1.0
//  Sample usage:              board_init();
//-------------------------------------------------------------------------------------------------------------------
void board_init(void)
{
     7ec:	1141                	addi	sp,sp,-16
     7ee:	c606                	sw	ra,12(sp)
     7f0:	c422                	sw	s0,8(sp)
     7f2:	0800                	addi	s0,sp,16
D:/Desktop/智能车基地/CH32V103_SmartCar_V1.0/4.Demo/Libraries/hefei_libraries/board/board.c:22
    //获取系统主频
    sys_clk = 8000000 * (((RCC->CFGR0 >> 18)&0x0F) + 2);
     7f4:	400217b7          	lui	a5,0x40021
     7f8:	43dc                	lw	a5,4(a5)
     7fa:	83c9                	srli	a5,a5,0x12
     7fc:	00f7f713          	andi	a4,a5,15
     800:	007a17b7          	lui	a5,0x7a1
     804:	20078793          	addi	a5,a5,512 # 7a1200 <_data_lma+0x79d6c0>
     808:	02f70733          	mul	a4,a4,a5
     80c:	00f427b7          	lui	a5,0xf42
     810:	40078793          	addi	a5,a5,1024 # f42400 <_data_lma+0xf3e8c0>
     814:	973e                	add	a4,a4,a5
     816:	82e1a423          	sw	a4,-2008(gp) # 20000038 <_edata>
D:/Desktop/智能车基地/CH32V103_SmartCar_V1.0/4.Demo/Libraries/hefei_libraries/board/board.c:24
    //初始化DEBUG串口
    uart_init(DEBUG_UART, DEBUG_UART_BAUD, DEBUG_UART_TX_PIN, DEBUG_UART_RX_PIN);
     81a:	4685                	li	a3,1
     81c:	4601                	li	a2,0
     81e:	67f1                	lui	a5,0x1c
     820:	20078593          	addi	a1,a5,512 # 1c200 <_data_lma+0x186c0>
     824:	4501                	li	a0,0
     826:	01c010ef          	jal	ra,1842 <uart_init>
D:/Desktop/智能车基地/CH32V103_SmartCar_V1.0/4.Demo/Libraries/hefei_libraries/board/board.c:25
}
     82a:	0001                	nop
     82c:	40b2                	lw	ra,12(sp)
     82e:	4422                	lw	s0,8(sp)
     830:	0141                	addi	sp,sp,16
     832:	8082                	ret

00000834 <SetSysClock>:
SetSysClock():
D:/Desktop/智能车基地/CH32V103_SmartCar_V1.0/4.Demo/Libraries/hefei_libraries/board/clock_config.c:20
* Description    : Sets System clock frequency to 72MHz and configure HCLK, PCLK2 and PCLK1 prescalers.
* Input          : None
* Return         : None
*******************************************************************************************/
static void SetSysClock(void)
{
     834:	1101                	addi	sp,sp,-32
     836:	ce22                	sw	s0,28(sp)
     838:	1000                	addi	s0,sp,32
D:/Desktop/智能车基地/CH32V103_SmartCar_V1.0/4.Demo/Libraries/hefei_libraries/board/clock_config.c:21
    __IO uint32_t StartUpCounter = 0, HSEStatus = 0;
     83a:	fe042623          	sw	zero,-20(s0)
     83e:	fe042423          	sw	zero,-24(s0)
D:/Desktop/智能车基地/CH32V103_SmartCar_V1.0/4.Demo/Libraries/hefei_libraries/board/clock_config.c:23

    RCC->CTLR |= ((uint32_t)RCC_HSEON);
     842:	400217b7          	lui	a5,0x40021
     846:	4394                	lw	a3,0(a5)
     848:	400217b7          	lui	a5,0x40021
     84c:	6741                	lui	a4,0x10
     84e:	8f55                	or	a4,a4,a3
     850:	c398                	sw	a4,0(a5)
D:/Desktop/智能车基地/CH32V103_SmartCar_V1.0/4.Demo/Libraries/hefei_libraries/board/clock_config.c:28 (discriminator 2)

    /* Wait till HSE is ready and if Time out is reached exit */
    do
    {
        HSEStatus = RCC->CTLR & RCC_HSERDY;
     852:	400217b7          	lui	a5,0x40021
     856:	4398                	lw	a4,0(a5)
     858:	000207b7          	lui	a5,0x20
     85c:	8ff9                	and	a5,a5,a4
     85e:	fef42423          	sw	a5,-24(s0)
D:/Desktop/智能车基地/CH32V103_SmartCar_V1.0/4.Demo/Libraries/hefei_libraries/board/clock_config.c:29 (discriminator 2)
        StartUpCounter++;
     862:	fec42783          	lw	a5,-20(s0)
     866:	0785                	addi	a5,a5,1
     868:	fef42623          	sw	a5,-20(s0)
D:/Desktop/智能车基地/CH32V103_SmartCar_V1.0/4.Demo/Libraries/hefei_libraries/board/clock_config.c:30 (discriminator 2)
    } while((HSEStatus == 0) && (StartUpCounter != HSE_STARTUP_TIMEOUT));
     86c:	fe842783          	lw	a5,-24(s0)
     870:	e799                	bnez	a5,87e <SetSysClock+0x4a>
D:/Desktop/智能车基地/CH32V103_SmartCar_V1.0/4.Demo/Libraries/hefei_libraries/board/clock_config.c:30 (discriminator 1)
     872:	fec42703          	lw	a4,-20(s0)
     876:	50000793          	li	a5,1280
     87a:	fcf71ce3          	bne	a4,a5,852 <SetSysClock+0x1e>
D:/Desktop/智能车基地/CH32V103_SmartCar_V1.0/4.Demo/Libraries/hefei_libraries/board/clock_config.c:32

    if ((RCC->CTLR & RCC_HSERDY) != RESET)
     87e:	400217b7          	lui	a5,0x40021
     882:	4398                	lw	a4,0(a5)
     884:	000207b7          	lui	a5,0x20
     888:	8ff9                	and	a5,a5,a4
     88a:	c789                	beqz	a5,894 <SetSysClock+0x60>
D:/Desktop/智能车基地/CH32V103_SmartCar_V1.0/4.Demo/Libraries/hefei_libraries/board/clock_config.c:34
    {
        HSEStatus = (uint32_t)0x01;
     88c:	4785                	li	a5,1
     88e:	fef42423          	sw	a5,-24(s0)
     892:	a019                	j	898 <SetSysClock+0x64>
D:/Desktop/智能车基地/CH32V103_SmartCar_V1.0/4.Demo/Libraries/hefei_libraries/board/clock_config.c:38
    }
    else
    {
        HSEStatus = (uint32_t)0x00;
     894:	fe042423          	sw	zero,-24(s0)
D:/Desktop/智能车基地/CH32V103_SmartCar_V1.0/4.Demo/Libraries/hefei_libraries/board/clock_config.c:41
    }

    if (HSEStatus == (uint32_t)0x01)
     898:	fe842703          	lw	a4,-24(s0)
     89c:	4785                	li	a5,1
     89e:	0cf71763          	bne	a4,a5,96c <SetSysClock+0x138>
D:/Desktop/智能车基地/CH32V103_SmartCar_V1.0/4.Demo/Libraries/hefei_libraries/board/clock_config.c:44
    {
        /* Enable Prefetch Buffer */
        FLASH->ACTLR |= FLASH_ACTLR_PRFTBE;
     8a2:	400227b7          	lui	a5,0x40022
     8a6:	4398                	lw	a4,0(a5)
     8a8:	400227b7          	lui	a5,0x40022
     8ac:	01076713          	ori	a4,a4,16
     8b0:	c398                	sw	a4,0(a5)
D:/Desktop/智能车基地/CH32V103_SmartCar_V1.0/4.Demo/Libraries/hefei_libraries/board/clock_config.c:47

        /* Flash 2 wait state */
        FLASH->ACTLR &= (uint32_t)((uint32_t)~FLASH_ACTLR_LATENCY);
     8b2:	400227b7          	lui	a5,0x40022
     8b6:	4398                	lw	a4,0(a5)
     8b8:	400227b7          	lui	a5,0x40022
     8bc:	9b71                	andi	a4,a4,-4
     8be:	c398                	sw	a4,0(a5)
D:/Desktop/智能车基地/CH32V103_SmartCar_V1.0/4.Demo/Libraries/hefei_libraries/board/clock_config.c:48
        FLASH->ACTLR |= (uint32_t)FLASH_ACTLR_LATENCY_2;
     8c0:	400227b7          	lui	a5,0x40022
     8c4:	4398                	lw	a4,0(a5)
     8c6:	400227b7          	lui	a5,0x40022
     8ca:	00276713          	ori	a4,a4,2
     8ce:	c398                	sw	a4,0(a5)
D:/Desktop/智能车基地/CH32V103_SmartCar_V1.0/4.Demo/Libraries/hefei_libraries/board/clock_config.c:51

        /* HCLK = SYSCLK */
        RCC->CFGR0 |= (uint32_t)RCC_HPRE_DIV1;
     8d0:	40021737          	lui	a4,0x40021
     8d4:	400217b7          	lui	a5,0x40021
     8d8:	4358                	lw	a4,4(a4)
     8da:	c3d8                	sw	a4,4(a5)
D:/Desktop/智能车基地/CH32V103_SmartCar_V1.0/4.Demo/Libraries/hefei_libraries/board/clock_config.c:53
        /* PCLK2 = HCLK */
        RCC->CFGR0 |= (uint32_t)RCC_PPRE2_DIV1;
     8dc:	40021737          	lui	a4,0x40021
     8e0:	400217b7          	lui	a5,0x40021
     8e4:	4358                	lw	a4,4(a4)
     8e6:	c3d8                	sw	a4,4(a5)
D:/Desktop/智能车基地/CH32V103_SmartCar_V1.0/4.Demo/Libraries/hefei_libraries/board/clock_config.c:55
        /* PCLK1 = HCLK */
        RCC->CFGR0 |= (uint32_t)RCC_PPRE1_DIV1;
     8e8:	40021737          	lui	a4,0x40021
     8ec:	400217b7          	lui	a5,0x40021
     8f0:	4358                	lw	a4,4(a4)
     8f2:	c3d8                	sw	a4,4(a5)
D:/Desktop/智能车基地/CH32V103_SmartCar_V1.0/4.Demo/Libraries/hefei_libraries/board/clock_config.c:58


        RCC->CFGR0 &= (uint32_t)((uint32_t)~(RCC_PLLSRC | RCC_PLLXTPRE |
     8f4:	400217b7          	lui	a5,0x40021
     8f8:	43d4                	lw	a3,4(a5)
     8fa:	400217b7          	lui	a5,0x40021
     8fe:	ffc10737          	lui	a4,0xffc10
     902:	177d                	addi	a4,a4,-1
     904:	8f75                	and	a4,a4,a3
     906:	c3d8                	sw	a4,4(a5)
D:/Desktop/智能车基地/CH32V103_SmartCar_V1.0/4.Demo/Libraries/hefei_libraries/board/clock_config.c:61
                                            RCC_PLLMULL));
        /*  PLL configuration: PLLCLK = HSE * ?  */
        RCC->CFGR0 |= (uint32_t)(RCC_PLLSRC_HSE | RCC_PLLMULL11);
     908:	400217b7          	lui	a5,0x40021
     90c:	43d4                	lw	a3,4(a5)
     90e:	400217b7          	lui	a5,0x40021
     912:	00250737          	lui	a4,0x250
     916:	8f55                	or	a4,a4,a3
     918:	c3d8                	sw	a4,4(a5)
D:/Desktop/智能车基地/CH32V103_SmartCar_V1.0/4.Demo/Libraries/hefei_libraries/board/clock_config.c:63
        /* Enable PLL */
        RCC->CTLR |= RCC_PLLON;
     91a:	400217b7          	lui	a5,0x40021
     91e:	4394                	lw	a3,0(a5)
     920:	400217b7          	lui	a5,0x40021
     924:	01000737          	lui	a4,0x1000
     928:	8f55                	or	a4,a4,a3
     92a:	c398                	sw	a4,0(a5)
D:/Desktop/智能车基地/CH32V103_SmartCar_V1.0/4.Demo/Libraries/hefei_libraries/board/clock_config.c:65
        /* Wait till PLL is ready */
        while((RCC->CTLR & RCC_PLLRDY) == 0)
     92c:	0001                	nop
D:/Desktop/智能车基地/CH32V103_SmartCar_V1.0/4.Demo/Libraries/hefei_libraries/board/clock_config.c:65 (discriminator 1)
     92e:	400217b7          	lui	a5,0x40021
     932:	4398                	lw	a4,0(a5)
     934:	020007b7          	lui	a5,0x2000
     938:	8ff9                	and	a5,a5,a4
     93a:	dbf5                	beqz	a5,92e <SetSysClock+0xfa>
D:/Desktop/智能车基地/CH32V103_SmartCar_V1.0/4.Demo/Libraries/hefei_libraries/board/clock_config.c:69
        {
        }
        /* Select PLL as system clock source */
        RCC->CFGR0 &= (uint32_t)((uint32_t)~(RCC_SW));
     93c:	400217b7          	lui	a5,0x40021
     940:	43d8                	lw	a4,4(a5)
     942:	400217b7          	lui	a5,0x40021
     946:	9b71                	andi	a4,a4,-4
     948:	c3d8                	sw	a4,4(a5)
D:/Desktop/智能车基地/CH32V103_SmartCar_V1.0/4.Demo/Libraries/hefei_libraries/board/clock_config.c:70
        RCC->CFGR0 |= (uint32_t)RCC_SW_PLL;
     94a:	400217b7          	lui	a5,0x40021
     94e:	43d8                	lw	a4,4(a5)
     950:	400217b7          	lui	a5,0x40021
     954:	00276713          	ori	a4,a4,2
     958:	c3d8                	sw	a4,4(a5)
D:/Desktop/智能车基地/CH32V103_SmartCar_V1.0/4.Demo/Libraries/hefei_libraries/board/clock_config.c:72
        /* Wait till PLL is used as system clock source */
        while ((RCC->CFGR0 & (uint32_t)RCC_SWS) != (uint32_t)0x08)
     95a:	0001                	nop
D:/Desktop/智能车基地/CH32V103_SmartCar_V1.0/4.Demo/Libraries/hefei_libraries/board/clock_config.c:72 (discriminator 1)
     95c:	400217b7          	lui	a5,0x40021
     960:	43dc                	lw	a5,4(a5)
     962:	00c7f713          	andi	a4,a5,12
     966:	47a1                	li	a5,8
     968:	fef71ae3          	bne	a4,a5,95c <SetSysClock+0x128>
D:/Desktop/智能车基地/CH32V103_SmartCar_V1.0/4.Demo/Libraries/hefei_libraries/board/clock_config.c:83
        /*
         * If HSE fails to start-up, the application will have wrong clock
     * configuration. User can add here some code to deal with this error
         */
    }
}
     96c:	0001                	nop
     96e:	4472                	lw	s0,28(sp)
     970:	6105                	addi	sp,sp,32
     972:	8082                	ret

00000974 <SystemInit>:
SystemInit():
D:/Desktop/智能车基地/CH32V103_SmartCar_V1.0/4.Demo/Libraries/hefei_libraries/board/clock_config.c:93
*                  the PLL and update the SystemCoreClock variable.
* Input          : None
* Return         : None
*******************************************************************************************/
void SystemInit (void)
{
     974:	1141                	addi	sp,sp,-16
     976:	c606                	sw	ra,12(sp)
     978:	c422                	sw	s0,8(sp)
     97a:	0800                	addi	s0,sp,16
D:/Desktop/智能车基地/CH32V103_SmartCar_V1.0/4.Demo/Libraries/hefei_libraries/board/clock_config.c:94
    RCC->CTLR |= (uint32_t)0x00000001;
     97c:	400217b7          	lui	a5,0x40021
     980:	4398                	lw	a4,0(a5)
     982:	400217b7          	lui	a5,0x40021
     986:	00176713          	ori	a4,a4,1
     98a:	c398                	sw	a4,0(a5)
D:/Desktop/智能车基地/CH32V103_SmartCar_V1.0/4.Demo/Libraries/hefei_libraries/board/clock_config.c:95
    RCC->CFGR0 &= (uint32_t)0xF8FF0000;
     98c:	400217b7          	lui	a5,0x40021
     990:	43d4                	lw	a3,4(a5)
     992:	400217b7          	lui	a5,0x40021
     996:	f8ff0737          	lui	a4,0xf8ff0
     99a:	8f75                	and	a4,a4,a3
     99c:	c3d8                	sw	a4,4(a5)
D:/Desktop/智能车基地/CH32V103_SmartCar_V1.0/4.Demo/Libraries/hefei_libraries/board/clock_config.c:96
    RCC->CTLR &= (uint32_t)0xFEF6FFFF;
     99e:	400217b7          	lui	a5,0x40021
     9a2:	4394                	lw	a3,0(a5)
     9a4:	400217b7          	lui	a5,0x40021
     9a8:	fef70737          	lui	a4,0xfef70
     9ac:	177d                	addi	a4,a4,-1
     9ae:	8f75                	and	a4,a4,a3
     9b0:	c398                	sw	a4,0(a5)
D:/Desktop/智能车基地/CH32V103_SmartCar_V1.0/4.Demo/Libraries/hefei_libraries/board/clock_config.c:97
    RCC->CTLR &= (uint32_t)0xFFFBFFFF;
     9b2:	400217b7          	lui	a5,0x40021
     9b6:	4394                	lw	a3,0(a5)
     9b8:	400217b7          	lui	a5,0x40021
     9bc:	fffc0737          	lui	a4,0xfffc0
     9c0:	177d                	addi	a4,a4,-1
     9c2:	8f75                	and	a4,a4,a3
     9c4:	c398                	sw	a4,0(a5)
D:/Desktop/智能车基地/CH32V103_SmartCar_V1.0/4.Demo/Libraries/hefei_libraries/board/clock_config.c:98
    RCC->CFGR0 &= (uint32_t)0xFF80FFFF;
     9c6:	400217b7          	lui	a5,0x40021
     9ca:	43d4                	lw	a3,4(a5)
     9cc:	400217b7          	lui	a5,0x40021
     9d0:	ff810737          	lui	a4,0xff810
     9d4:	177d                	addi	a4,a4,-1
     9d6:	8f75                	and	a4,a4,a3
     9d8:	c3d8                	sw	a4,4(a5)
D:/Desktop/智能车基地/CH32V103_SmartCar_V1.0/4.Demo/Libraries/hefei_libraries/board/clock_config.c:99
    RCC->INTR = 0x009F0000;
     9da:	400217b7          	lui	a5,0x40021
     9de:	009f0737          	lui	a4,0x9f0
     9e2:	c798                	sw	a4,8(a5)
D:/Desktop/智能车基地/CH32V103_SmartCar_V1.0/4.Demo/Libraries/hefei_libraries/board/clock_config.c:100
    SetSysClock();
     9e4:	3d81                	jal	834 <SetSysClock>
D:/Desktop/智能车基地/CH32V103_SmartCar_V1.0/4.Demo/Libraries/hefei_libraries/board/clock_config.c:101
}
     9e6:	0001                	nop
     9e8:	40b2                	lw	ra,12(sp)
     9ea:	4422                	lw	s0,8(sp)
     9ec:	0141                	addi	sp,sp,16
     9ee:	8082                	ret

000009f0 <Delay_Init>:
Delay_Init():
D:/Desktop/智能车基地/CH32V103_SmartCar_V1.0/4.Demo/Libraries/hefei_libraries/delay.c:23
//  @param      void
//  @return     void
//  Sample usage:           Delay_Init();
//-------------------------------------------------------------------------------------------------------------------
void Delay_Init(void)
{
     9f0:	1141                	addi	sp,sp,-16
     9f2:	c622                	sw	s0,12(sp)
     9f4:	0800                	addi	s0,sp,16
D:/Desktop/智能车基地/CH32V103_SmartCar_V1.0/4.Demo/Libraries/hefei_libraries/delay.c:24
    p_us=sys_clk/8000000;
     9f6:	8281a703          	lw	a4,-2008(gp) # 20000038 <_edata>
     9fa:	007a17b7          	lui	a5,0x7a1
     9fe:	20078793          	addi	a5,a5,512 # 7a1200 <_data_lma+0x79d6c0>
     a02:	02f757b3          	divu	a5,a4,a5
     a06:	0ff7f713          	andi	a4,a5,255
     a0a:	82e18623          	sb	a4,-2004(gp) # 2000003c <p_us>
D:/Desktop/智能车基地/CH32V103_SmartCar_V1.0/4.Demo/Libraries/hefei_libraries/delay.c:25
    p_ms=(uint16_t)p_us*1000;
     a0e:	82c1c783          	lbu	a5,-2004(gp) # 2000003c <p_us>
     a12:	01079713          	slli	a4,a5,0x10
     a16:	8341                	srli	a4,a4,0x10
     a18:	3e800793          	li	a5,1000
     a1c:	02f707b3          	mul	a5,a4,a5
     a20:	01079713          	slli	a4,a5,0x10
     a24:	8341                	srli	a4,a4,0x10
     a26:	82e19723          	sh	a4,-2002(gp) # 2000003e <p_ms>
D:/Desktop/智能车基地/CH32V103_SmartCar_V1.0/4.Demo/Libraries/hefei_libraries/delay.c:26
}
     a2a:	0001                	nop
     a2c:	4432                	lw	s0,12(sp)
     a2e:	0141                	addi	sp,sp,16
     a30:	8082                	ret

00000a32 <Delay_Us>:
Delay_Us():
D:/Desktop/智能车基地/CH32V103_SmartCar_V1.0/4.Demo/Libraries/hefei_libraries/delay.c:35
//  @param      n           延时的时间（us）
//  @return     void
//  Sample usage:           Delay_Us(1000);//延时1000us
//-------------------------------------------------------------------------------------------------------------------
void Delay_Us(uint32_t n)
{
     a32:	7179                	addi	sp,sp,-48
     a34:	d622                	sw	s0,44(sp)
     a36:	1800                	addi	s0,sp,48
     a38:	fca42e23          	sw	a0,-36(s0)
D:/Desktop/智能车基地/CH32V103_SmartCar_V1.0/4.Demo/Libraries/hefei_libraries/delay.c:38
    uint32_t i;

    SysTick->CTLR = 0;
     a3c:	e000f7b7          	lui	a5,0xe000f
     a40:	0007a023          	sw	zero,0(a5) # e000f000 <_eusrstack+0xc000a000>
D:/Desktop/智能车基地/CH32V103_SmartCar_V1.0/4.Demo/Libraries/hefei_libraries/delay.c:39
    i = (uint32_t)n*p_us;
     a44:	82c1c783          	lbu	a5,-2004(gp) # 2000003c <p_us>
     a48:	873e                	mv	a4,a5
     a4a:	fdc42783          	lw	a5,-36(s0)
     a4e:	02e787b3          	mul	a5,a5,a4
     a52:	fef42623          	sw	a5,-20(s0)
D:/Desktop/智能车基地/CH32V103_SmartCar_V1.0/4.Demo/Libraries/hefei_libraries/delay.c:41

    SysTick->CNTL0 = 0;
     a56:	e000f7b7          	lui	a5,0xe000f
     a5a:	00078223          	sb	zero,4(a5) # e000f004 <_eusrstack+0xc000a004>
D:/Desktop/智能车基地/CH32V103_SmartCar_V1.0/4.Demo/Libraries/hefei_libraries/delay.c:42
    SysTick->CNTL1 = 0;
     a5e:	e000f7b7          	lui	a5,0xe000f
     a62:	000782a3          	sb	zero,5(a5) # e000f005 <_eusrstack+0xc000a005>
D:/Desktop/智能车基地/CH32V103_SmartCar_V1.0/4.Demo/Libraries/hefei_libraries/delay.c:43
    SysTick->CNTL2 = 0;
     a66:	e000f7b7          	lui	a5,0xe000f
     a6a:	00078323          	sb	zero,6(a5) # e000f006 <_eusrstack+0xc000a006>
D:/Desktop/智能车基地/CH32V103_SmartCar_V1.0/4.Demo/Libraries/hefei_libraries/delay.c:44
    SysTick->CNTL3 = 0;
     a6e:	e000f7b7          	lui	a5,0xe000f
     a72:	000783a3          	sb	zero,7(a5) # e000f007 <_eusrstack+0xc000a007>
D:/Desktop/智能车基地/CH32V103_SmartCar_V1.0/4.Demo/Libraries/hefei_libraries/delay.c:45
    SysTick->CTLR = 1;
     a76:	e000f7b7          	lui	a5,0xe000f
     a7a:	4705                	li	a4,1
     a7c:	c398                	sw	a4,0(a5)
D:/Desktop/智能车基地/CH32V103_SmartCar_V1.0/4.Demo/Libraries/hefei_libraries/delay.c:47

  while((*(__IO uint32_t*)0xE000F004) <= i);
     a7e:	0001                	nop
D:/Desktop/智能车基地/CH32V103_SmartCar_V1.0/4.Demo/Libraries/hefei_libraries/delay.c:47 (discriminator 1)
     a80:	e000f7b7          	lui	a5,0xe000f
     a84:	0791                	addi	a5,a5,4
     a86:	439c                	lw	a5,0(a5)
     a88:	fec42703          	lw	a4,-20(s0)
     a8c:	fef77ae3          	bgeu	a4,a5,a80 <Delay_Us+0x4e>
D:/Desktop/智能车基地/CH32V103_SmartCar_V1.0/4.Demo/Libraries/hefei_libraries/delay.c:49

}
     a90:	0001                	nop
     a92:	5432                	lw	s0,44(sp)
     a94:	6145                	addi	sp,sp,48
     a96:	8082                	ret

00000a98 <Delay_Ms>:
Delay_Ms():
D:/Desktop/智能车基地/CH32V103_SmartCar_V1.0/4.Demo/Libraries/hefei_libraries/delay.c:58
//  @param      n           延时的时间（ms）
//  @return     void
//  Sample usage:           Delay_Ms(1000);//延时1000ms
//-------------------------------------------------------------------------------------------------------------------
void Delay_Ms (uint32_t n)
{
     a98:	7179                	addi	sp,sp,-48
     a9a:	d622                	sw	s0,44(sp)
     a9c:	1800                	addi	s0,sp,48
     a9e:	fca42e23          	sw	a0,-36(s0)
D:/Desktop/智能车基地/CH32V103_SmartCar_V1.0/4.Demo/Libraries/hefei_libraries/delay.c:61
    uint32_t i;

    SysTick->CTLR = 0;
     aa2:	e000f7b7          	lui	a5,0xe000f
     aa6:	0007a023          	sw	zero,0(a5) # e000f000 <_eusrstack+0xc000a000>
D:/Desktop/智能车基地/CH32V103_SmartCar_V1.0/4.Demo/Libraries/hefei_libraries/delay.c:62
    i = (uint32_t)n*p_ms;
     aaa:	82e1d783          	lhu	a5,-2002(gp) # 2000003e <p_ms>
     aae:	873e                	mv	a4,a5
     ab0:	fdc42783          	lw	a5,-36(s0)
     ab4:	02e787b3          	mul	a5,a5,a4
     ab8:	fef42623          	sw	a5,-20(s0)
D:/Desktop/智能车基地/CH32V103_SmartCar_V1.0/4.Demo/Libraries/hefei_libraries/delay.c:64

    SysTick->CNTL0 = 0;
     abc:	e000f7b7          	lui	a5,0xe000f
     ac0:	00078223          	sb	zero,4(a5) # e000f004 <_eusrstack+0xc000a004>
D:/Desktop/智能车基地/CH32V103_SmartCar_V1.0/4.Demo/Libraries/hefei_libraries/delay.c:65
    SysTick->CNTL1 = 0;
     ac4:	e000f7b7          	lui	a5,0xe000f
     ac8:	000782a3          	sb	zero,5(a5) # e000f005 <_eusrstack+0xc000a005>
D:/Desktop/智能车基地/CH32V103_SmartCar_V1.0/4.Demo/Libraries/hefei_libraries/delay.c:66
    SysTick->CNTL2 = 0;
     acc:	e000f7b7          	lui	a5,0xe000f
     ad0:	00078323          	sb	zero,6(a5) # e000f006 <_eusrstack+0xc000a006>
D:/Desktop/智能车基地/CH32V103_SmartCar_V1.0/4.Demo/Libraries/hefei_libraries/delay.c:67
    SysTick->CNTL3 = 0;
     ad4:	e000f7b7          	lui	a5,0xe000f
     ad8:	000783a3          	sb	zero,7(a5) # e000f007 <_eusrstack+0xc000a007>
D:/Desktop/智能车基地/CH32V103_SmartCar_V1.0/4.Demo/Libraries/hefei_libraries/delay.c:68
    SysTick->CTLR = 1;
     adc:	e000f7b7          	lui	a5,0xe000f
     ae0:	4705                	li	a4,1
     ae2:	c398                	sw	a4,0(a5)
D:/Desktop/智能车基地/CH32V103_SmartCar_V1.0/4.Demo/Libraries/hefei_libraries/delay.c:70

  while((*(__IO uint32_t*)0xE000F004) <= i);
     ae4:	0001                	nop
D:/Desktop/智能车基地/CH32V103_SmartCar_V1.0/4.Demo/Libraries/hefei_libraries/delay.c:70 (discriminator 1)
     ae6:	e000f7b7          	lui	a5,0xe000f
     aea:	0791                	addi	a5,a5,4
     aec:	439c                	lw	a5,0(a5)
     aee:	fec42703          	lw	a4,-20(s0)
     af2:	fef77ae3          	bgeu	a4,a5,ae6 <Delay_Ms+0x4e>
D:/Desktop/智能车基地/CH32V103_SmartCar_V1.0/4.Demo/Libraries/hefei_libraries/delay.c:71
}
     af6:	0001                	nop
     af8:	5432                	lw	s0,44(sp)
     afa:	6145                	addi	sp,sp,48
     afc:	8082                	ret

00000afe <adc_init>:
adc_init():
D:/Desktop/智能车基地/CH32V103_SmartCar_V1.0/4.Demo/Libraries/hefei_libraries/hf_adc.c:19
//  @param      ADC_IN0_Ax              选择ADC通道，见wh_adc.h内关于ADC通道的定义
//  @return     void
//  Sample usage:               adc_init(ADC_IN0_A0);//初始化A0引脚为ADC功能
//-------------------------------------------------------------------------------------------------------------------
void adc_init(ADCCH_enum ADC_INx_xx)
{
     afe:	7139                	addi	sp,sp,-64
     b00:	de06                	sw	ra,60(sp)
     b02:	dc22                	sw	s0,56(sp)
     b04:	0080                	addi	s0,sp,64
     b06:	fca42623          	sw	a0,-52(s0)
D:/Desktop/智能车基地/CH32V103_SmartCar_V1.0/4.Demo/Libraries/hefei_libraries/hf_adc.c:24
    /* 初始化ADC结构体 */
    ADC_InitTypeDef ADC_InitStructure;

    /* 开启GPIO、ADC1的时钟 */
    RCC_APB2PeriphClockCmd(RCC_APB2Periph_GPIOA |RCC_APB2Periph_ADC1 , ENABLE );   //使能ADC1通道时钟，默认采用ADC1
     b0a:	4585                	li	a1,1
     b0c:	20400513          	li	a0,516
     b10:	0a0020ef          	jal	ra,2bb0 <RCC_APB2PeriphClockCmd>
D:/Desktop/智能车基地/CH32V103_SmartCar_V1.0/4.Demo/Libraries/hefei_libraries/hf_adc.c:27

    /* 根据ADC通道初始化GPIO */
    adc_gpio_init(ADC_INx_xx);
     b14:	fcc42503          	lw	a0,-52(s0)
     b18:	2845                	jal	bc8 <adc_gpio_init>
D:/Desktop/智能车基地/CH32V103_SmartCar_V1.0/4.Demo/Libraries/hefei_libraries/hf_adc.c:30

    /* 设置ADC分频因子，根据APB2的时钟进行设置 */
    if(sys_clk > 84000000)  RCC_ADCCLKConfig(RCC_PCLK2_Div8);           //设置ADC分频因子，ADC最大速率不能超过14M
     b1a:	8281a703          	lw	a4,-2008(gp) # 20000038 <_edata>
     b1e:	0501c7b7          	lui	a5,0x501c
     b22:	d0078793          	addi	a5,a5,-768 # 501bd00 <_data_lma+0x50181c0>
     b26:	00e7f663          	bgeu	a5,a4,b32 <adc_init+0x34>
D:/Desktop/智能车基地/CH32V103_SmartCar_V1.0/4.Demo/Libraries/hefei_libraries/hf_adc.c:30 (discriminator 1)
     b2a:	6531                	lui	a0,0xc
     b2c:	629010ef          	jal	ra,2954 <RCC_ADCCLKConfig>
     b30:	a021                	j	b38 <adc_init+0x3a>
D:/Desktop/智能车基地/CH32V103_SmartCar_V1.0/4.Demo/Libraries/hefei_libraries/hf_adc.c:31
    else RCC_ADCCLKConfig(RCC_PCLK2_Div6);
     b32:	6521                	lui	a0,0x8
     b34:	621010ef          	jal	ra,2954 <RCC_ADCCLKConfig>
D:/Desktop/智能车基地/CH32V103_SmartCar_V1.0/4.Demo/Libraries/hefei_libraries/hf_adc.c:33

    ADC_DeInit(ADC1);                                                   //复位ADC1
     b38:	400127b7          	lui	a5,0x40012
     b3c:	40078513          	addi	a0,a5,1024 # 40012400 <_eusrstack+0x2000d400>
     b40:	133010ef          	jal	ra,2472 <ADC_DeInit>
D:/Desktop/智能车基地/CH32V103_SmartCar_V1.0/4.Demo/Libraries/hefei_libraries/hf_adc.c:36

    /* 配置ADC初始化参数 */
    ADC_InitStructure.ADC_Mode = ADC_Mode_Independent;                  //ADC工作模式:ADC1工作在独立模式
     b44:	fc042c23          	sw	zero,-40(s0)
D:/Desktop/智能车基地/CH32V103_SmartCar_V1.0/4.Demo/Libraries/hefei_libraries/hf_adc.c:37
    ADC_InitStructure.ADC_ScanConvMode = DISABLE;                       //模数转换工作在单通道模式
     b48:	fc042e23          	sw	zero,-36(s0)
D:/Desktop/智能车基地/CH32V103_SmartCar_V1.0/4.Demo/Libraries/hefei_libraries/hf_adc.c:38
    ADC_InitStructure.ADC_ContinuousConvMode = DISABLE;                 //模数转换工作在单次转换模式
     b4c:	fe042023          	sw	zero,-32(s0)
D:/Desktop/智能车基地/CH32V103_SmartCar_V1.0/4.Demo/Libraries/hefei_libraries/hf_adc.c:39
    ADC_InitStructure.ADC_ExternalTrigConv = ADC_ExternalTrigConv_None; //转换由软件而不是外部触发启动
     b50:	000e07b7          	lui	a5,0xe0
     b54:	fef42223          	sw	a5,-28(s0)
D:/Desktop/智能车基地/CH32V103_SmartCar_V1.0/4.Demo/Libraries/hefei_libraries/hf_adc.c:40
    ADC_InitStructure.ADC_DataAlign = ADC_DataAlign_Right;              //ADC数据右对齐
     b58:	fe042423          	sw	zero,-24(s0)
D:/Desktop/智能车基地/CH32V103_SmartCar_V1.0/4.Demo/Libraries/hefei_libraries/hf_adc.c:41
    ADC_InitStructure.ADC_NbrOfChannel = 1;                             //顺序进行规则转换的ADC通道的数目
     b5c:	4785                	li	a5,1
     b5e:	fef40623          	sb	a5,-20(s0)
D:/Desktop/智能车基地/CH32V103_SmartCar_V1.0/4.Demo/Libraries/hefei_libraries/hf_adc.c:42
    ADC_Init(ADC1, &ADC_InitStructure);                                 //根据ADC_InitStruct中指定的参数初始化外设ADCx的寄存器
     b62:	fd840793          	addi	a5,s0,-40
     b66:	85be                	mv	a1,a5
     b68:	400127b7          	lui	a5,0x40012
     b6c:	40078513          	addi	a0,a5,1024 # 40012400 <_eusrstack+0x2000d400>
     b70:	139010ef          	jal	ra,24a8 <ADC_Init>
D:/Desktop/智能车基地/CH32V103_SmartCar_V1.0/4.Demo/Libraries/hefei_libraries/hf_adc.c:44

    ADC_Cmd(ADC1, ENABLE);                                              //使能指定的ADC1
     b74:	4585                	li	a1,1
     b76:	400127b7          	lui	a5,0x40012
     b7a:	40078513          	addi	a0,a5,1024 # 40012400 <_eusrstack+0x2000d400>
     b7e:	21d010ef          	jal	ra,259a <ADC_Cmd>
D:/Desktop/智能车基地/CH32V103_SmartCar_V1.0/4.Demo/Libraries/hefei_libraries/hf_adc.c:45
    ADC_ResetCalibration(ADC1);                                         //使能复位校准
     b82:	400127b7          	lui	a5,0x40012
     b86:	40078513          	addi	a0,a5,1024 # 40012400 <_eusrstack+0x2000d400>
     b8a:	24f010ef          	jal	ra,25d8 <ADC_ResetCalibration>
D:/Desktop/智能车基地/CH32V103_SmartCar_V1.0/4.Demo/Libraries/hefei_libraries/hf_adc.c:46
    while(ADC_GetResetCalibrationStatus(ADC1));                         //等待复位校准结束
     b8e:	0001                	nop
D:/Desktop/智能车基地/CH32V103_SmartCar_V1.0/4.Demo/Libraries/hefei_libraries/hf_adc.c:46 (discriminator 1)
     b90:	400127b7          	lui	a5,0x40012
     b94:	40078513          	addi	a0,a5,1024 # 40012400 <_eusrstack+0x2000d400>
     b98:	263010ef          	jal	ra,25fa <ADC_GetResetCalibrationStatus>
     b9c:	87aa                	mv	a5,a0
     b9e:	fbed                	bnez	a5,b90 <adc_init+0x92>
D:/Desktop/智能车基地/CH32V103_SmartCar_V1.0/4.Demo/Libraries/hefei_libraries/hf_adc.c:47
    ADC_StartCalibration(ADC1);                                         //开启AD校准
     ba0:	400127b7          	lui	a5,0x40012
     ba4:	40078513          	addi	a0,a5,1024 # 40012400 <_eusrstack+0x2000d400>
     ba8:	283010ef          	jal	ra,262a <ADC_StartCalibration>
D:/Desktop/智能车基地/CH32V103_SmartCar_V1.0/4.Demo/Libraries/hefei_libraries/hf_adc.c:48
    while(ADC_GetCalibrationStatus(ADC1));                              //等待校准结束
     bac:	0001                	nop
D:/Desktop/智能车基地/CH32V103_SmartCar_V1.0/4.Demo/Libraries/hefei_libraries/hf_adc.c:48 (discriminator 1)
     bae:	400127b7          	lui	a5,0x40012
     bb2:	40078513          	addi	a0,a5,1024 # 40012400 <_eusrstack+0x2000d400>
     bb6:	297010ef          	jal	ra,264c <ADC_GetCalibrationStatus>
     bba:	87aa                	mv	a5,a0
     bbc:	fbed                	bnez	a5,bae <adc_init+0xb0>
D:/Desktop/智能车基地/CH32V103_SmartCar_V1.0/4.Demo/Libraries/hefei_libraries/hf_adc.c:50

}
     bbe:	0001                	nop
     bc0:	50f2                	lw	ra,60(sp)
     bc2:	5462                	lw	s0,56(sp)
     bc4:	6121                	addi	sp,sp,64
     bc6:	8082                	ret

00000bc8 <adc_gpio_init>:
adc_gpio_init():
D:/Desktop/智能车基地/CH32V103_SmartCar_V1.0/4.Demo/Libraries/hefei_libraries/hf_adc.c:100
//  @param      ADC_IN0_Ax          可选择范围由wh_adc.h内ADCCH_enum枚举值确定
//  @return     void
//  Sample usage:           内部使用  用户无需关心
//-------------------------------------------------------------------------------------------------------------------
void adc_gpio_init(ADCCH_enum ADC_INx_xx)
{
     bc8:	1101                	addi	sp,sp,-32
     bca:	ce06                	sw	ra,28(sp)
     bcc:	cc22                	sw	s0,24(sp)
     bce:	1000                	addi	s0,sp,32
     bd0:	fea42623          	sw	a0,-20(s0)
D:/Desktop/智能车基地/CH32V103_SmartCar_V1.0/4.Demo/Libraries/hefei_libraries/hf_adc.c:101
    if(ADC_IN0_A0 == ADC_INx_xx)            gpio_init(A0, GPI, 0, IN_AIN);
     bd4:	fec42783          	lw	a5,-20(s0)
     bd8:	e799                	bnez	a5,be6 <adc_gpio_init+0x1e>
D:/Desktop/智能车基地/CH32V103_SmartCar_V1.0/4.Demo/Libraries/hefei_libraries/hf_adc.c:101 (discriminator 1)
     bda:	4681                	li	a3,0
     bdc:	4601                	li	a2,0
     bde:	4581                	li	a1,0
     be0:	4501                	li	a0,0
     be2:	229d                	jal	d48 <gpio_init>
D:/Desktop/智能车基地/CH32V103_SmartCar_V1.0/4.Demo/Libraries/hefei_libraries/hf_adc.c:117 (discriminator 1)
    else if(ADC_IN11_C1 == ADC_INx_xx)      gpio_init(C1, GPI, 0, IN_AIN);
    else if(ADC_IN12_C2 == ADC_INx_xx)      gpio_init(C2, GPI, 0, IN_AIN);
    else if(ADC_IN13_C3 == ADC_INx_xx)      gpio_init(C3, GPI, 0, IN_AIN);
    else if(ADC_IN14_C4 == ADC_INx_xx)      gpio_init(C4, GPI, 0, IN_AIN);
    else if(ADC_IN15_C5 == ADC_INx_xx)      gpio_init(C5, GPI, 0, IN_AIN);
}
     be4:	aaa9                	j	d3e <adc_gpio_init+0x176>
D:/Desktop/智能车基地/CH32V103_SmartCar_V1.0/4.Demo/Libraries/hefei_libraries/hf_adc.c:102
    else if(ADC_IN1_A1 == ADC_INx_xx)       gpio_init(A1, GPI, 0, IN_AIN);
     be6:	fec42703          	lw	a4,-20(s0)
     bea:	4785                	li	a5,1
     bec:	00f71863          	bne	a4,a5,bfc <adc_gpio_init+0x34>
D:/Desktop/智能车基地/CH32V103_SmartCar_V1.0/4.Demo/Libraries/hefei_libraries/hf_adc.c:102 (discriminator 1)
     bf0:	4681                	li	a3,0
     bf2:	4601                	li	a2,0
     bf4:	4581                	li	a1,0
     bf6:	4505                	li	a0,1
     bf8:	2a81                	jal	d48 <gpio_init>
D:/Desktop/智能车基地/CH32V103_SmartCar_V1.0/4.Demo/Libraries/hefei_libraries/hf_adc.c:117 (discriminator 1)
}
     bfa:	a291                	j	d3e <adc_gpio_init+0x176>
D:/Desktop/智能车基地/CH32V103_SmartCar_V1.0/4.Demo/Libraries/hefei_libraries/hf_adc.c:103
    else if(ADC_IN2_A2 == ADC_INx_xx)       gpio_init(A2, GPI, 0, IN_AIN);
     bfc:	fec42703          	lw	a4,-20(s0)
     c00:	4789                	li	a5,2
     c02:	00f71863          	bne	a4,a5,c12 <adc_gpio_init+0x4a>
D:/Desktop/智能车基地/CH32V103_SmartCar_V1.0/4.Demo/Libraries/hefei_libraries/hf_adc.c:103 (discriminator 1)
     c06:	4681                	li	a3,0
     c08:	4601                	li	a2,0
     c0a:	4581                	li	a1,0
     c0c:	4509                	li	a0,2
     c0e:	2a2d                	jal	d48 <gpio_init>
D:/Desktop/智能车基地/CH32V103_SmartCar_V1.0/4.Demo/Libraries/hefei_libraries/hf_adc.c:117 (discriminator 1)
}
     c10:	a23d                	j	d3e <adc_gpio_init+0x176>
D:/Desktop/智能车基地/CH32V103_SmartCar_V1.0/4.Demo/Libraries/hefei_libraries/hf_adc.c:104
    else if(ADC_IN3_A3 == ADC_INx_xx)       gpio_init(A3, GPI, 0, IN_AIN);
     c12:	fec42703          	lw	a4,-20(s0)
     c16:	478d                	li	a5,3
     c18:	00f71863          	bne	a4,a5,c28 <adc_gpio_init+0x60>
D:/Desktop/智能车基地/CH32V103_SmartCar_V1.0/4.Demo/Libraries/hefei_libraries/hf_adc.c:104 (discriminator 1)
     c1c:	4681                	li	a3,0
     c1e:	4601                	li	a2,0
     c20:	4581                	li	a1,0
     c22:	450d                	li	a0,3
     c24:	2215                	jal	d48 <gpio_init>
D:/Desktop/智能车基地/CH32V103_SmartCar_V1.0/4.Demo/Libraries/hefei_libraries/hf_adc.c:117 (discriminator 1)
}
     c26:	aa21                	j	d3e <adc_gpio_init+0x176>
D:/Desktop/智能车基地/CH32V103_SmartCar_V1.0/4.Demo/Libraries/hefei_libraries/hf_adc.c:105
    else if(ADC_IN4_A4 == ADC_INx_xx)       gpio_init(A4, GPI, 0, IN_AIN);
     c28:	fec42703          	lw	a4,-20(s0)
     c2c:	4791                	li	a5,4
     c2e:	00f71863          	bne	a4,a5,c3e <adc_gpio_init+0x76>
D:/Desktop/智能车基地/CH32V103_SmartCar_V1.0/4.Demo/Libraries/hefei_libraries/hf_adc.c:105 (discriminator 1)
     c32:	4681                	li	a3,0
     c34:	4601                	li	a2,0
     c36:	4581                	li	a1,0
     c38:	4511                	li	a0,4
     c3a:	2239                	jal	d48 <gpio_init>
D:/Desktop/智能车基地/CH32V103_SmartCar_V1.0/4.Demo/Libraries/hefei_libraries/hf_adc.c:117 (discriminator 1)
}
     c3c:	a209                	j	d3e <adc_gpio_init+0x176>
D:/Desktop/智能车基地/CH32V103_SmartCar_V1.0/4.Demo/Libraries/hefei_libraries/hf_adc.c:106
    else if(ADC_IN5_A5 == ADC_INx_xx)       gpio_init(A5, GPI, 0, IN_AIN);
     c3e:	fec42703          	lw	a4,-20(s0)
     c42:	4795                	li	a5,5
     c44:	00f71863          	bne	a4,a5,c54 <adc_gpio_init+0x8c>
D:/Desktop/智能车基地/CH32V103_SmartCar_V1.0/4.Demo/Libraries/hefei_libraries/hf_adc.c:106 (discriminator 1)
     c48:	4681                	li	a3,0
     c4a:	4601                	li	a2,0
     c4c:	4581                	li	a1,0
     c4e:	4515                	li	a0,5
     c50:	28e5                	jal	d48 <gpio_init>
D:/Desktop/智能车基地/CH32V103_SmartCar_V1.0/4.Demo/Libraries/hefei_libraries/hf_adc.c:117 (discriminator 1)
}
     c52:	a0f5                	j	d3e <adc_gpio_init+0x176>
D:/Desktop/智能车基地/CH32V103_SmartCar_V1.0/4.Demo/Libraries/hefei_libraries/hf_adc.c:107
    else if(ADC_IN6_A6 == ADC_INx_xx)       gpio_init(A6, GPI, 0, IN_AIN);
     c54:	fec42703          	lw	a4,-20(s0)
     c58:	4799                	li	a5,6
     c5a:	00f71863          	bne	a4,a5,c6a <adc_gpio_init+0xa2>
D:/Desktop/智能车基地/CH32V103_SmartCar_V1.0/4.Demo/Libraries/hefei_libraries/hf_adc.c:107 (discriminator 1)
     c5e:	4681                	li	a3,0
     c60:	4601                	li	a2,0
     c62:	4581                	li	a1,0
     c64:	4519                	li	a0,6
     c66:	20cd                	jal	d48 <gpio_init>
D:/Desktop/智能车基地/CH32V103_SmartCar_V1.0/4.Demo/Libraries/hefei_libraries/hf_adc.c:117 (discriminator 1)
}
     c68:	a8d9                	j	d3e <adc_gpio_init+0x176>
D:/Desktop/智能车基地/CH32V103_SmartCar_V1.0/4.Demo/Libraries/hefei_libraries/hf_adc.c:108
    else if(ADC_IN7_A7 == ADC_INx_xx)       gpio_init(A7, GPI, 0, IN_AIN);
     c6a:	fec42703          	lw	a4,-20(s0)
     c6e:	479d                	li	a5,7
     c70:	00f71863          	bne	a4,a5,c80 <adc_gpio_init+0xb8>
D:/Desktop/智能车基地/CH32V103_SmartCar_V1.0/4.Demo/Libraries/hefei_libraries/hf_adc.c:108 (discriminator 1)
     c74:	4681                	li	a3,0
     c76:	4601                	li	a2,0
     c78:	4581                	li	a1,0
     c7a:	451d                	li	a0,7
     c7c:	20f1                	jal	d48 <gpio_init>
D:/Desktop/智能车基地/CH32V103_SmartCar_V1.0/4.Demo/Libraries/hefei_libraries/hf_adc.c:117 (discriminator 1)
}
     c7e:	a0c1                	j	d3e <adc_gpio_init+0x176>
D:/Desktop/智能车基地/CH32V103_SmartCar_V1.0/4.Demo/Libraries/hefei_libraries/hf_adc.c:109
    else if(ADC_IN8_B0 == ADC_INx_xx)       gpio_init(B0, GPI, 0, IN_AIN);
     c80:	fec42703          	lw	a4,-20(s0)
     c84:	47a1                	li	a5,8
     c86:	00f71963          	bne	a4,a5,c98 <adc_gpio_init+0xd0>
D:/Desktop/智能车基地/CH32V103_SmartCar_V1.0/4.Demo/Libraries/hefei_libraries/hf_adc.c:109 (discriminator 1)
     c8a:	4681                	li	a3,0
     c8c:	4601                	li	a2,0
     c8e:	4581                	li	a1,0
     c90:	02000513          	li	a0,32
     c94:	2855                	jal	d48 <gpio_init>
D:/Desktop/智能车基地/CH32V103_SmartCar_V1.0/4.Demo/Libraries/hefei_libraries/hf_adc.c:117 (discriminator 1)
}
     c96:	a065                	j	d3e <adc_gpio_init+0x176>
D:/Desktop/智能车基地/CH32V103_SmartCar_V1.0/4.Demo/Libraries/hefei_libraries/hf_adc.c:110
    else if(ADC_IN9_B1 == ADC_INx_xx)       gpio_init(B1, GPI, 0, IN_AIN);
     c98:	fec42703          	lw	a4,-20(s0)
     c9c:	47a5                	li	a5,9
     c9e:	00f71963          	bne	a4,a5,cb0 <adc_gpio_init+0xe8>
D:/Desktop/智能车基地/CH32V103_SmartCar_V1.0/4.Demo/Libraries/hefei_libraries/hf_adc.c:110 (discriminator 1)
     ca2:	4681                	li	a3,0
     ca4:	4601                	li	a2,0
     ca6:	4581                	li	a1,0
     ca8:	02100513          	li	a0,33
     cac:	2871                	jal	d48 <gpio_init>
D:/Desktop/智能车基地/CH32V103_SmartCar_V1.0/4.Demo/Libraries/hefei_libraries/hf_adc.c:117 (discriminator 1)
}
     cae:	a841                	j	d3e <adc_gpio_init+0x176>
D:/Desktop/智能车基地/CH32V103_SmartCar_V1.0/4.Demo/Libraries/hefei_libraries/hf_adc.c:111
    else if(ADC_IN10_C0 == ADC_INx_xx)      gpio_init(C0, GPI, 0, IN_AIN);
     cb0:	fec42703          	lw	a4,-20(s0)
     cb4:	47a9                	li	a5,10
     cb6:	00f71963          	bne	a4,a5,cc8 <adc_gpio_init+0x100>
D:/Desktop/智能车基地/CH32V103_SmartCar_V1.0/4.Demo/Libraries/hefei_libraries/hf_adc.c:111 (discriminator 1)
     cba:	4681                	li	a3,0
     cbc:	4601                	li	a2,0
     cbe:	4581                	li	a1,0
     cc0:	04000513          	li	a0,64
     cc4:	2051                	jal	d48 <gpio_init>
D:/Desktop/智能车基地/CH32V103_SmartCar_V1.0/4.Demo/Libraries/hefei_libraries/hf_adc.c:117 (discriminator 1)
}
     cc6:	a8a5                	j	d3e <adc_gpio_init+0x176>
D:/Desktop/智能车基地/CH32V103_SmartCar_V1.0/4.Demo/Libraries/hefei_libraries/hf_adc.c:112
    else if(ADC_IN11_C1 == ADC_INx_xx)      gpio_init(C1, GPI, 0, IN_AIN);
     cc8:	fec42703          	lw	a4,-20(s0)
     ccc:	47ad                	li	a5,11
     cce:	00f71963          	bne	a4,a5,ce0 <adc_gpio_init+0x118>
D:/Desktop/智能车基地/CH32V103_SmartCar_V1.0/4.Demo/Libraries/hefei_libraries/hf_adc.c:112 (discriminator 1)
     cd2:	4681                	li	a3,0
     cd4:	4601                	li	a2,0
     cd6:	4581                	li	a1,0
     cd8:	04100513          	li	a0,65
     cdc:	20b5                	jal	d48 <gpio_init>
D:/Desktop/智能车基地/CH32V103_SmartCar_V1.0/4.Demo/Libraries/hefei_libraries/hf_adc.c:117 (discriminator 1)
}
     cde:	a085                	j	d3e <adc_gpio_init+0x176>
D:/Desktop/智能车基地/CH32V103_SmartCar_V1.0/4.Demo/Libraries/hefei_libraries/hf_adc.c:113
    else if(ADC_IN12_C2 == ADC_INx_xx)      gpio_init(C2, GPI, 0, IN_AIN);
     ce0:	fec42703          	lw	a4,-20(s0)
     ce4:	47b1                	li	a5,12
     ce6:	00f71963          	bne	a4,a5,cf8 <adc_gpio_init+0x130>
D:/Desktop/智能车基地/CH32V103_SmartCar_V1.0/4.Demo/Libraries/hefei_libraries/hf_adc.c:113 (discriminator 1)
     cea:	4681                	li	a3,0
     cec:	4601                	li	a2,0
     cee:	4581                	li	a1,0
     cf0:	04200513          	li	a0,66
     cf4:	2891                	jal	d48 <gpio_init>
D:/Desktop/智能车基地/CH32V103_SmartCar_V1.0/4.Demo/Libraries/hefei_libraries/hf_adc.c:117 (discriminator 1)
}
     cf6:	a0a1                	j	d3e <adc_gpio_init+0x176>
D:/Desktop/智能车基地/CH32V103_SmartCar_V1.0/4.Demo/Libraries/hefei_libraries/hf_adc.c:114
    else if(ADC_IN13_C3 == ADC_INx_xx)      gpio_init(C3, GPI, 0, IN_AIN);
     cf8:	fec42703          	lw	a4,-20(s0)
     cfc:	47b5                	li	a5,13
     cfe:	00f71963          	bne	a4,a5,d10 <adc_gpio_init+0x148>
D:/Desktop/智能车基地/CH32V103_SmartCar_V1.0/4.Demo/Libraries/hefei_libraries/hf_adc.c:114 (discriminator 1)
     d02:	4681                	li	a3,0
     d04:	4601                	li	a2,0
     d06:	4581                	li	a1,0
     d08:	04300513          	li	a0,67
     d0c:	2835                	jal	d48 <gpio_init>
D:/Desktop/智能车基地/CH32V103_SmartCar_V1.0/4.Demo/Libraries/hefei_libraries/hf_adc.c:117 (discriminator 1)
}
     d0e:	a805                	j	d3e <adc_gpio_init+0x176>
D:/Desktop/智能车基地/CH32V103_SmartCar_V1.0/4.Demo/Libraries/hefei_libraries/hf_adc.c:115
    else if(ADC_IN14_C4 == ADC_INx_xx)      gpio_init(C4, GPI, 0, IN_AIN);
     d10:	fec42703          	lw	a4,-20(s0)
     d14:	47b9                	li	a5,14
     d16:	00f71963          	bne	a4,a5,d28 <adc_gpio_init+0x160>
D:/Desktop/智能车基地/CH32V103_SmartCar_V1.0/4.Demo/Libraries/hefei_libraries/hf_adc.c:115 (discriminator 1)
     d1a:	4681                	li	a3,0
     d1c:	4601                	li	a2,0
     d1e:	4581                	li	a1,0
     d20:	04400513          	li	a0,68
     d24:	2015                	jal	d48 <gpio_init>
D:/Desktop/智能车基地/CH32V103_SmartCar_V1.0/4.Demo/Libraries/hefei_libraries/hf_adc.c:117 (discriminator 1)
}
     d26:	a821                	j	d3e <adc_gpio_init+0x176>
D:/Desktop/智能车基地/CH32V103_SmartCar_V1.0/4.Demo/Libraries/hefei_libraries/hf_adc.c:116
    else if(ADC_IN15_C5 == ADC_INx_xx)      gpio_init(C5, GPI, 0, IN_AIN);
     d28:	fec42703          	lw	a4,-20(s0)
     d2c:	47bd                	li	a5,15
     d2e:	00f71863          	bne	a4,a5,d3e <adc_gpio_init+0x176>
D:/Desktop/智能车基地/CH32V103_SmartCar_V1.0/4.Demo/Libraries/hefei_libraries/hf_adc.c:116 (discriminator 1)
     d32:	4681                	li	a3,0
     d34:	4601                	li	a2,0
     d36:	4581                	li	a1,0
     d38:	04500513          	li	a0,69
     d3c:	2031                	jal	d48 <gpio_init>
D:/Desktop/智能车基地/CH32V103_SmartCar_V1.0/4.Demo/Libraries/hefei_libraries/hf_adc.c:117
}
     d3e:	0001                	nop
     d40:	40f2                	lw	ra,28(sp)
     d42:	4462                	lw	s0,24(sp)
     d44:	6105                	addi	sp,sp,32
     d46:	8082                	ret

00000d48 <gpio_init>:
gpio_init():
D:/Desktop/智能车基地/CH32V103_SmartCar_V1.0/4.Demo/Libraries/hefei_libraries/hf_gpio.c:25
//  @param      pinconf     引脚配置（可设置参数由wh_gpio.h文件内GPIOSPEED_enum与GPIOMODE_enum枚举值确定，多个条件使用 | 相或）
//  @return     void
//  Sample usage:           gpio_init(D0, GPO, 1, SPEED_50MHZ|OUT_PP);//D0初始化为GPIO功能、输出模式、输出高电平、速度50MHZ 推挽输出
//-------------------------------------------------------------------------------------------------------------------
void gpio_init(PIN_enum pin, GPIODIR_enum dir, uint8 dat, uint32 pinconf)
{
     d48:	7179                	addi	sp,sp,-48
     d4a:	d606                	sw	ra,44(sp)
     d4c:	d422                	sw	s0,40(sp)
     d4e:	1800                	addi	s0,sp,48
     d50:	fca42e23          	sw	a0,-36(s0)
     d54:	fcb42c23          	sw	a1,-40(s0)
     d58:	87b2                	mv	a5,a2
     d5a:	fcd42823          	sw	a3,-48(s0)
     d5e:	fcf40ba3          	sb	a5,-41(s0)
D:/Desktop/智能车基地/CH32V103_SmartCar_V1.0/4.Demo/Libraries/hefei_libraries/hf_gpio.c:27
    GPIO_InitTypeDef GPIO_InitStructure;
    uint8 io_group = (pin & 0xE0) >> 5;
     d62:	fdc42783          	lw	a5,-36(s0)
     d66:	8395                	srli	a5,a5,0x5
     d68:	0ff7f793          	andi	a5,a5,255
     d6c:	8b9d                	andi	a5,a5,7
     d6e:	fef407a3          	sb	a5,-17(s0)
D:/Desktop/智能车基地/CH32V103_SmartCar_V1.0/4.Demo/Libraries/hefei_libraries/hf_gpio.c:28
    uint8 io_pin = pin & 0x1F;
     d72:	fdc42783          	lw	a5,-36(s0)
     d76:	0ff7f793          	andi	a5,a5,255
     d7a:	8bfd                	andi	a5,a5,31
     d7c:	fef40723          	sb	a5,-18(s0)
D:/Desktop/智能车基地/CH32V103_SmartCar_V1.0/4.Demo/Libraries/hefei_libraries/hf_gpio.c:31


    if(PIN_NULL == pin) return;
     d80:	fdc42703          	lw	a4,-36(s0)
     d84:	08000793          	li	a5,128
     d88:	14f70d63          	beq	a4,a5,ee2 <gpio_init+0x19a>
D:/Desktop/智能车基地/CH32V103_SmartCar_V1.0/4.Demo/Libraries/hefei_libraries/hf_gpio.c:33
    //GPIO总线使能
    if(0 == (pin >> 5))      RCC_APB2PeriphClockCmd(RCC_APB2Periph_GPIOA, ENABLE);
     d8c:	fdc42783          	lw	a5,-36(s0)
     d90:	8395                	srli	a5,a5,0x5
     d92:	e791                	bnez	a5,d9e <gpio_init+0x56>
D:/Desktop/智能车基地/CH32V103_SmartCar_V1.0/4.Demo/Libraries/hefei_libraries/hf_gpio.c:33 (discriminator 1)
     d94:	4585                	li	a1,1
     d96:	4511                	li	a0,4
     d98:	619010ef          	jal	ra,2bb0 <RCC_APB2PeriphClockCmd>
     d9c:	a861                	j	e34 <gpio_init+0xec>
D:/Desktop/智能车基地/CH32V103_SmartCar_V1.0/4.Demo/Libraries/hefei_libraries/hf_gpio.c:34
    else if(1 == (pin >> 5)) RCC_APB2PeriphClockCmd(RCC_APB2Periph_GPIOB, ENABLE);
     d9e:	fdc42783          	lw	a5,-36(s0)
     da2:	0057d713          	srli	a4,a5,0x5
     da6:	4785                	li	a5,1
     da8:	00f71763          	bne	a4,a5,db6 <gpio_init+0x6e>
D:/Desktop/智能车基地/CH32V103_SmartCar_V1.0/4.Demo/Libraries/hefei_libraries/hf_gpio.c:34 (discriminator 1)
     dac:	4585                	li	a1,1
     dae:	4521                	li	a0,8
     db0:	601010ef          	jal	ra,2bb0 <RCC_APB2PeriphClockCmd>
     db4:	a041                	j	e34 <gpio_init+0xec>
D:/Desktop/智能车基地/CH32V103_SmartCar_V1.0/4.Demo/Libraries/hefei_libraries/hf_gpio.c:35
    else if(2 == (pin >> 5)) RCC_APB2PeriphClockCmd(RCC_APB2Periph_GPIOC, ENABLE);
     db6:	fdc42783          	lw	a5,-36(s0)
     dba:	0057d713          	srli	a4,a5,0x5
     dbe:	4789                	li	a5,2
     dc0:	00f71763          	bne	a4,a5,dce <gpio_init+0x86>
D:/Desktop/智能车基地/CH32V103_SmartCar_V1.0/4.Demo/Libraries/hefei_libraries/hf_gpio.c:35 (discriminator 1)
     dc4:	4585                	li	a1,1
     dc6:	4541                	li	a0,16
     dc8:	5e9010ef          	jal	ra,2bb0 <RCC_APB2PeriphClockCmd>
     dcc:	a0a5                	j	e34 <gpio_init+0xec>
D:/Desktop/智能车基地/CH32V103_SmartCar_V1.0/4.Demo/Libraries/hefei_libraries/hf_gpio.c:36
    else if(3 == (pin >> 5)) RCC_APB2PeriphClockCmd(RCC_APB2Periph_GPIOD, ENABLE);
     dce:	fdc42783          	lw	a5,-36(s0)
     dd2:	0057d713          	srli	a4,a5,0x5
     dd6:	478d                	li	a5,3
     dd8:	00f71863          	bne	a4,a5,de8 <gpio_init+0xa0>
D:/Desktop/智能车基地/CH32V103_SmartCar_V1.0/4.Demo/Libraries/hefei_libraries/hf_gpio.c:36 (discriminator 1)
     ddc:	4585                	li	a1,1
     dde:	02000513          	li	a0,32
     de2:	5cf010ef          	jal	ra,2bb0 <RCC_APB2PeriphClockCmd>
     de6:	a0b9                	j	e34 <gpio_init+0xec>
D:/Desktop/智能车基地/CH32V103_SmartCar_V1.0/4.Demo/Libraries/hefei_libraries/hf_gpio.c:37
    else if(4 == (pin >> 5)) RCC_APB2PeriphClockCmd(RCC_APB2Periph_GPIOE, ENABLE);
     de8:	fdc42783          	lw	a5,-36(s0)
     dec:	0057d713          	srli	a4,a5,0x5
     df0:	4791                	li	a5,4
     df2:	00f71863          	bne	a4,a5,e02 <gpio_init+0xba>
D:/Desktop/智能车基地/CH32V103_SmartCar_V1.0/4.Demo/Libraries/hefei_libraries/hf_gpio.c:37 (discriminator 1)
     df6:	4585                	li	a1,1
     df8:	04000513          	li	a0,64
     dfc:	5b5010ef          	jal	ra,2bb0 <RCC_APB2PeriphClockCmd>
     e00:	a815                	j	e34 <gpio_init+0xec>
D:/Desktop/智能车基地/CH32V103_SmartCar_V1.0/4.Demo/Libraries/hefei_libraries/hf_gpio.c:38
    else if(5 == (pin >> 5)) RCC_APB2PeriphClockCmd(RCC_APB2Periph_GPIOF, ENABLE);
     e02:	fdc42783          	lw	a5,-36(s0)
     e06:	0057d713          	srli	a4,a5,0x5
     e0a:	4795                	li	a5,5
     e0c:	00f71863          	bne	a4,a5,e1c <gpio_init+0xd4>
D:/Desktop/智能车基地/CH32V103_SmartCar_V1.0/4.Demo/Libraries/hefei_libraries/hf_gpio.c:38 (discriminator 1)
     e10:	4585                	li	a1,1
     e12:	08000513          	li	a0,128
     e16:	59b010ef          	jal	ra,2bb0 <RCC_APB2PeriphClockCmd>
     e1a:	a829                	j	e34 <gpio_init+0xec>
D:/Desktop/智能车基地/CH32V103_SmartCar_V1.0/4.Demo/Libraries/hefei_libraries/hf_gpio.c:39
    else if(6 == (pin >> 5)) RCC_APB2PeriphClockCmd(RCC_APB2Periph_GPIOG, ENABLE);
     e1c:	fdc42783          	lw	a5,-36(s0)
     e20:	0057d713          	srli	a4,a5,0x5
     e24:	4799                	li	a5,6
     e26:	00f71763          	bne	a4,a5,e34 <gpio_init+0xec>
D:/Desktop/智能车基地/CH32V103_SmartCar_V1.0/4.Demo/Libraries/hefei_libraries/hf_gpio.c:39 (discriminator 1)
     e2a:	4585                	li	a1,1
     e2c:	10000513          	li	a0,256
     e30:	581010ef          	jal	ra,2bb0 <RCC_APB2PeriphClockCmd>
D:/Desktop/智能车基地/CH32V103_SmartCar_V1.0/4.Demo/Libraries/hefei_libraries/hf_gpio.c:43


    //设置引脚号
    GPIO_InitStructure.GPIO_Pin = (uint16)(1 << io_pin);
     e34:	fee44783          	lbu	a5,-18(s0)
     e38:	4705                	li	a4,1
     e3a:	00f717b3          	sll	a5,a4,a5
     e3e:	07c2                	slli	a5,a5,0x10
     e40:	83c1                	srli	a5,a5,0x10
     e42:	fef41023          	sh	a5,-32(s0)
D:/Desktop/智能车基地/CH32V103_SmartCar_V1.0/4.Demo/Libraries/hefei_libraries/hf_gpio.c:45

    if(GPO == dir)
     e46:	fd842703          	lw	a4,-40(s0)
     e4a:	4785                	li	a5,1
     e4c:	02f71763          	bne	a4,a5,e7a <gpio_init+0x132>
D:/Desktop/智能车基地/CH32V103_SmartCar_V1.0/4.Demo/Libraries/hefei_libraries/hf_gpio.c:48
    {
        //只有输出需要设置速度
        if((uint16)pinconf >> 8 == 0) GPIO_InitStructure.GPIO_Speed = (GPIOSpeed_TypeDef)(GPIO_Speed_50MHz);  //防止没有填写这个参数,默认设置50Mhz
     e50:	fd042783          	lw	a5,-48(s0)
     e54:	07c2                	slli	a5,a5,0x10
     e56:	83c1                	srli	a5,a5,0x10
     e58:	83a1                	srli	a5,a5,0x8
     e5a:	07c2                	slli	a5,a5,0x10
     e5c:	83c1                	srli	a5,a5,0x10
     e5e:	e789                	bnez	a5,e68 <gpio_init+0x120>
D:/Desktop/智能车基地/CH32V103_SmartCar_V1.0/4.Demo/Libraries/hefei_libraries/hf_gpio.c:48 (discriminator 1)
     e60:	478d                	li	a5,3
     e62:	fef42223          	sw	a5,-28(s0)
     e66:	a811                	j	e7a <gpio_init+0x132>
D:/Desktop/智能车基地/CH32V103_SmartCar_V1.0/4.Demo/Libraries/hefei_libraries/hf_gpio.c:49
        else GPIO_InitStructure.GPIO_Speed = (GPIOSpeed_TypeDef)((uint16)pinconf >> 8);                       //已经填写了该参数。根据值来设置
     e68:	fd042783          	lw	a5,-48(s0)
     e6c:	07c2                	slli	a5,a5,0x10
     e6e:	83c1                	srli	a5,a5,0x10
     e70:	83a1                	srli	a5,a5,0x8
     e72:	07c2                	slli	a5,a5,0x10
     e74:	83c1                	srli	a5,a5,0x10
     e76:	fef42223          	sw	a5,-28(s0)
D:/Desktop/智能车基地/CH32V103_SmartCar_V1.0/4.Demo/Libraries/hefei_libraries/hf_gpio.c:53
    }

    //设置模式
    GPIO_InitStructure.GPIO_Mode = (GPIOMode_TypeDef)((uint16)pinconf & 0xff);
     e7a:	fd042783          	lw	a5,-48(s0)
     e7e:	07c2                	slli	a5,a5,0x10
     e80:	83c1                	srli	a5,a5,0x10
     e82:	0ff7f793          	andi	a5,a5,255
     e86:	fef42423          	sw	a5,-24(s0)
D:/Desktop/智能车基地/CH32V103_SmartCar_V1.0/4.Demo/Libraries/hefei_libraries/hf_gpio.c:54
    GPIO_Init((GPIO_TypeDef *)(GPION[io_group]), &GPIO_InitStructure);
     e8a:	fef44703          	lbu	a4,-17(s0)
     e8e:	6791                	lui	a5,0x4
     e90:	070a                	slli	a4,a4,0x2
     e92:	b1078793          	addi	a5,a5,-1264 # 3b10 <GPION>
     e96:	97ba                	add	a5,a5,a4
     e98:	439c                	lw	a5,0(a5)
     e9a:	873e                	mv	a4,a5
     e9c:	fe040793          	addi	a5,s0,-32
     ea0:	85be                	mv	a1,a5
     ea2:	853a                	mv	a0,a4
     ea4:	04f010ef          	jal	ra,26f2 <GPIO_Init>
D:/Desktop/智能车基地/CH32V103_SmartCar_V1.0/4.Demo/Libraries/hefei_libraries/hf_gpio.c:56

    if(GPO == dir)
     ea8:	fd842703          	lw	a4,-40(s0)
     eac:	4785                	li	a5,1
     eae:	02f71b63          	bne	a4,a5,ee4 <gpio_init+0x19c>
D:/Desktop/智能车基地/CH32V103_SmartCar_V1.0/4.Demo/Libraries/hefei_libraries/hf_gpio.c:59
    {
        //只有输出需要设置引脚状态
        GPIO_WriteBit((GPIO_TypeDef *)(GPION[io_group]), (uint16)(1 << io_pin), dat);
     eb2:	fef44703          	lbu	a4,-17(s0)
     eb6:	6791                	lui	a5,0x4
     eb8:	070a                	slli	a4,a4,0x2
     eba:	b1078793          	addi	a5,a5,-1264 # 3b10 <GPION>
     ebe:	97ba                	add	a5,a5,a4
     ec0:	439c                	lw	a5,0(a5)
     ec2:	86be                	mv	a3,a5
     ec4:	fee44783          	lbu	a5,-18(s0)
     ec8:	4705                	li	a4,1
     eca:	00f717b3          	sll	a5,a4,a5
     ece:	07c2                	slli	a5,a5,0x10
     ed0:	83c1                	srli	a5,a5,0x10
     ed2:	fd744703          	lbu	a4,-41(s0)
     ed6:	863a                	mv	a2,a4
     ed8:	85be                	mv	a1,a5
     eda:	8536                	mv	a0,a3
     edc:	241010ef          	jal	ra,291c <GPIO_WriteBit>
     ee0:	a011                	j	ee4 <gpio_init+0x19c>
D:/Desktop/智能车基地/CH32V103_SmartCar_V1.0/4.Demo/Libraries/hefei_libraries/hf_gpio.c:31
    if(PIN_NULL == pin) return;
     ee2:	0001                	nop
D:/Desktop/智能车基地/CH32V103_SmartCar_V1.0/4.Demo/Libraries/hefei_libraries/hf_gpio.c:61
    }
}
     ee4:	50b2                	lw	ra,44(sp)
     ee6:	5422                	lw	s0,40(sp)
     ee8:	6145                	addi	sp,sp,48
     eea:	8082                	ret

00000eec <gpio_bit_output>:
gpio_bit_output():
D:/Desktop/智能车基地/CH32V103_SmartCar_V1.0/4.Demo/Libraries/hefei_libraries/hf_gpio.c:71
//  @param      dat         引脚的电平状态，输出时有效 0：低电平 1：高电平
//  @return     void
//  Sample usage:           gpio_set(D0, 0);//D0输出低电平
//-------------------------------------------------------------------------------------------------------------------
void gpio_bit_output(PIN_enum pin, uint8 dat)
{
     eec:	7179                	addi	sp,sp,-48
     eee:	d622                	sw	s0,44(sp)
     ef0:	1800                	addi	s0,sp,48
     ef2:	fca42e23          	sw	a0,-36(s0)
     ef6:	87ae                	mv	a5,a1
     ef8:	fcf40da3          	sb	a5,-37(s0)
D:/Desktop/智能车基地/CH32V103_SmartCar_V1.0/4.Demo/Libraries/hefei_libraries/hf_gpio.c:72
    uint8 io_group = (pin & 0xE0) >> 5;
     efc:	fdc42783          	lw	a5,-36(s0)
     f00:	8395                	srli	a5,a5,0x5
     f02:	0ff7f793          	andi	a5,a5,255
     f06:	8b9d                	andi	a5,a5,7
     f08:	fef407a3          	sb	a5,-17(s0)
D:/Desktop/智能车基地/CH32V103_SmartCar_V1.0/4.Demo/Libraries/hefei_libraries/hf_gpio.c:73
    uint8 io_pin = pin & 0x1F;
     f0c:	fdc42783          	lw	a5,-36(s0)
     f10:	0ff7f793          	andi	a5,a5,255
     f14:	8bfd                	andi	a5,a5,31
     f16:	fef40723          	sb	a5,-18(s0)
D:/Desktop/智能车基地/CH32V103_SmartCar_V1.0/4.Demo/Libraries/hefei_libraries/hf_gpio.c:75

    if (dat == 1)
     f1a:	fdb44703          	lbu	a4,-37(s0)
     f1e:	4785                	li	a5,1
     f20:	02f71263          	bne	a4,a5,f44 <gpio_bit_output+0x58>
D:/Desktop/智能车基地/CH32V103_SmartCar_V1.0/4.Demo/Libraries/hefei_libraries/hf_gpio.c:76
         ((GPIO_TypeDef *)(GPION[io_group]))->BSHR = 1 << io_pin;
     f24:	fee44783          	lbu	a5,-18(s0)
     f28:	4705                	li	a4,1
     f2a:	00f716b3          	sll	a3,a4,a5
     f2e:	fef44703          	lbu	a4,-17(s0)
     f32:	6791                	lui	a5,0x4
     f34:	070a                	slli	a4,a4,0x2
     f36:	b1078793          	addi	a5,a5,-1264 # 3b10 <GPION>
     f3a:	97ba                	add	a5,a5,a4
     f3c:	439c                	lw	a5,0(a5)
     f3e:	8736                	mv	a4,a3
     f40:	cb98                	sw	a4,16(a5)
D:/Desktop/智能车基地/CH32V103_SmartCar_V1.0/4.Demo/Libraries/hefei_libraries/hf_gpio.c:79
    else
         ((GPIO_TypeDef *)(GPION[io_group]))->BCR = 1 << io_pin;
}
     f42:	a005                	j	f62 <gpio_bit_output+0x76>
D:/Desktop/智能车基地/CH32V103_SmartCar_V1.0/4.Demo/Libraries/hefei_libraries/hf_gpio.c:78
         ((GPIO_TypeDef *)(GPION[io_group]))->BCR = 1 << io_pin;
     f44:	fee44783          	lbu	a5,-18(s0)
     f48:	4705                	li	a4,1
     f4a:	00f716b3          	sll	a3,a4,a5
     f4e:	fef44703          	lbu	a4,-17(s0)
     f52:	6791                	lui	a5,0x4
     f54:	070a                	slli	a4,a4,0x2
     f56:	b1078793          	addi	a5,a5,-1264 # 3b10 <GPION>
     f5a:	97ba                	add	a5,a5,a4
     f5c:	439c                	lw	a5,0(a5)
     f5e:	8736                	mv	a4,a3
     f60:	cbd8                	sw	a4,20(a5)
D:/Desktop/智能车基地/CH32V103_SmartCar_V1.0/4.Demo/Libraries/hefei_libraries/hf_gpio.c:79
}
     f62:	0001                	nop
     f64:	5432                	lw	s0,44(sp)
     f66:	6145                	addi	sp,sp,48
     f68:	8082                	ret

00000f6a <DisableGlobalIRQ>:
DisableGlobalIRQ():
D:/Desktop/智能车基地/CH32V103_SmartCar_V1.0/4.Demo/Libraries/hefei_libraries/hf_nvic.c:48
//  @return     void
//  @since      v1.0
//  Sample usage:       DisableGlobalIRQ();
//-------------------------------------------------------------------------------------------------------------------
uint8 DisableGlobalIRQ(void)
{
     f6a:	1101                	addi	sp,sp,-32
     f6c:	ce06                	sw	ra,28(sp)
     f6e:	cc22                	sw	s0,24(sp)
     f70:	1000                	addi	s0,sp,32
D:/Desktop/智能车基地/CH32V103_SmartCar_V1.0/4.Demo/Libraries/hefei_libraries/hf_nvic.c:50
    uint8 state;
    irq_status.flag = 1;
     f72:	83418793          	addi	a5,gp,-1996 # 20000044 <irq_status>
     f76:	4705                	li	a4,1
     f78:	00e78423          	sb	a4,8(a5)
D:/Desktop/智能车基地/CH32V103_SmartCar_V1.0/4.Demo/Libraries/hefei_libraries/hf_nvic.c:51
    if((irq_status.ienr0 == 0) && (irq_status.ienr1 == 0))   state = 0;  //没有就返回0
     f7c:	8341a783          	lw	a5,-1996(gp) # 20000044 <irq_status>
     f80:	eb81                	bnez	a5,f90 <DisableGlobalIRQ+0x26>
D:/Desktop/智能车基地/CH32V103_SmartCar_V1.0/4.Demo/Libraries/hefei_libraries/hf_nvic.c:51 (discriminator 1)
     f82:	83418793          	addi	a5,gp,-1996 # 20000044 <irq_status>
     f86:	43dc                	lw	a5,4(a5)
     f88:	e781                	bnez	a5,f90 <DisableGlobalIRQ+0x26>
D:/Desktop/智能车基地/CH32V103_SmartCar_V1.0/4.Demo/Libraries/hefei_libraries/hf_nvic.c:51 (discriminator 2)
     f8a:	fe0407a3          	sb	zero,-17(s0)
     f8e:	a021                	j	f96 <DisableGlobalIRQ+0x2c>
D:/Desktop/智能车基地/CH32V103_SmartCar_V1.0/4.Demo/Libraries/hefei_libraries/hf_nvic.c:52
    else state = 1;  //有中断就返回1
     f90:	4785                	li	a5,1
     f92:	fef407a3          	sb	a5,-17(s0)
D:/Desktop/智能车基地/CH32V103_SmartCar_V1.0/4.Demo/Libraries/hefei_libraries/hf_nvic.c:53
    close_all_irq();
     f96:	2825                	jal	fce <close_all_irq>
D:/Desktop/智能车基地/CH32V103_SmartCar_V1.0/4.Demo/Libraries/hefei_libraries/hf_nvic.c:54
    return state;
     f98:	fef44783          	lbu	a5,-17(s0)
D:/Desktop/智能车基地/CH32V103_SmartCar_V1.0/4.Demo/Libraries/hefei_libraries/hf_nvic.c:55
}
     f9c:	853e                	mv	a0,a5
     f9e:	40f2                	lw	ra,28(sp)
     fa0:	4462                	lw	s0,24(sp)
     fa2:	6105                	addi	sp,sp,32
     fa4:	8082                	ret

00000fa6 <EnableGlobalIRQ>:
EnableGlobalIRQ():
D:/Desktop/智能车基地/CH32V103_SmartCar_V1.0/4.Demo/Libraries/hefei_libraries/hf_nvic.c:65
//  @return     void
//  @since      v1.0
//  Sample usage:       EnableGlobalIRQ();
//-------------------------------------------------------------------------------------------------------------------
void EnableGlobalIRQ(uint8 state)
{
     fa6:	1101                	addi	sp,sp,-32
     fa8:	ce06                	sw	ra,28(sp)
     faa:	cc22                	sw	s0,24(sp)
     fac:	1000                	addi	s0,sp,32
     fae:	87aa                	mv	a5,a0
     fb0:	fef407a3          	sb	a5,-17(s0)
D:/Desktop/智能车基地/CH32V103_SmartCar_V1.0/4.Demo/Libraries/hefei_libraries/hf_nvic.c:66
    if(state == 0)
     fb4:	fef44783          	lbu	a5,-17(s0)
     fb8:	e791                	bnez	a5,fc4 <EnableGlobalIRQ+0x1e>
D:/Desktop/智能车基地/CH32V103_SmartCar_V1.0/4.Demo/Libraries/hefei_libraries/hf_nvic.c:68
    {
        irq_status.flag = 0;
     fba:	83418793          	addi	a5,gp,-1996 # 20000044 <irq_status>
     fbe:	00078423          	sb	zero,8(a5)
D:/Desktop/智能车基地/CH32V103_SmartCar_V1.0/4.Demo/Libraries/hefei_libraries/hf_nvic.c:69
        sys_recover_irq();
     fc2:	203d                	jal	ff0 <sys_recover_irq>
D:/Desktop/智能车基地/CH32V103_SmartCar_V1.0/4.Demo/Libraries/hefei_libraries/hf_nvic.c:71
    }
}
     fc4:	0001                	nop
     fc6:	40f2                	lw	ra,28(sp)
     fc8:	4462                	lw	s0,24(sp)
     fca:	6105                	addi	sp,sp,32
     fcc:	8082                	ret

00000fce <close_all_irq>:
close_all_irq():
D:/Desktop/智能车基地/CH32V103_SmartCar_V1.0/4.Demo/Libraries/hefei_libraries/hf_nvic.c:80
//  @return     void
//  @since      v1.0
//  Sample usage:       内部使用  用户无需关心
//-------------------------------------------------------------------------------------------------------------------
void close_all_irq(void)
{
     fce:	1141                	addi	sp,sp,-16
     fd0:	c622                	sw	s0,12(sp)
     fd2:	0800                	addi	s0,sp,16
D:/Desktop/智能车基地/CH32V103_SmartCar_V1.0/4.Demo/Libraries/hefei_libraries/hf_nvic.c:82
    /* 写1，清空状态 */
    PFIC->IRER[0] = 0xffffffff;
     fd4:	e000e7b7          	lui	a5,0xe000e
     fd8:	577d                	li	a4,-1
     fda:	18e7a023          	sw	a4,384(a5) # e000e180 <_eusrstack+0xc0009180>
D:/Desktop/智能车基地/CH32V103_SmartCar_V1.0/4.Demo/Libraries/hefei_libraries/hf_nvic.c:83
    PFIC->IRER[1] = 0xffffffff;
     fde:	e000e7b7          	lui	a5,0xe000e
     fe2:	577d                	li	a4,-1
     fe4:	18e7a223          	sw	a4,388(a5) # e000e184 <_eusrstack+0xc0009184>
D:/Desktop/智能车基地/CH32V103_SmartCar_V1.0/4.Demo/Libraries/hefei_libraries/hf_nvic.c:84
}
     fe8:	0001                	nop
     fea:	4432                	lw	s0,12(sp)
     fec:	0141                	addi	sp,sp,16
     fee:	8082                	ret

00000ff0 <sys_recover_irq>:
sys_recover_irq():
D:/Desktop/智能车基地/CH32V103_SmartCar_V1.0/4.Demo/Libraries/hefei_libraries/hf_nvic.c:94
//  @return     void
//  @since      v1.0
//  Sample usage:       内部使用  用户无需关心
//-------------------------------------------------------------------------------------------------------------------
void sys_recover_irq(void)
{
     ff0:	1141                	addi	sp,sp,-16
     ff2:	c622                	sw	s0,12(sp)
     ff4:	0800                	addi	s0,sp,16
D:/Desktop/智能车基地/CH32V103_SmartCar_V1.0/4.Demo/Libraries/hefei_libraries/hf_nvic.c:95
    PFIC->IENR[0] = irq_status.ienr0;
     ff6:	e000e7b7          	lui	a5,0xe000e
     ffa:	8341a703          	lw	a4,-1996(gp) # 20000044 <irq_status>
     ffe:	10e7a023          	sw	a4,256(a5) # e000e100 <_eusrstack+0xc0009100>
D:/Desktop/智能车基地/CH32V103_SmartCar_V1.0/4.Demo/Libraries/hefei_libraries/hf_nvic.c:96
    PFIC->IENR[1] = irq_status.ienr1;
    1002:	e000e7b7          	lui	a5,0xe000e
    1006:	83418713          	addi	a4,gp,-1996 # 20000044 <irq_status>
    100a:	4358                	lw	a4,4(a4)
    100c:	10e7a223          	sw	a4,260(a5) # e000e104 <_eusrstack+0xc0009104>
D:/Desktop/智能车基地/CH32V103_SmartCar_V1.0/4.Demo/Libraries/hefei_libraries/hf_nvic.c:97
}
    1010:	0001                	nop
    1012:	4432                	lw	s0,12(sp)
    1014:	0141                	addi	sp,sp,16
    1016:	8082                	ret

00001018 <pwm_init>:
pwm_init():
D:/Desktop/智能车基地/CH32V103_SmartCar_V1.0/4.Demo/Libraries/hefei_libraries/hf_pwm.c:25
//  @return     void
//  Sample usage:               pwm_init(PWM1_CH1_A8, 50, 5000);   //初始化PWM1 通道1 使用引脚A8  输出PWM频率50HZ   占空比为百分之 5000/PWM_DUTY_MAX*100
//                              PWM_DUTY_MAX在wh_pwm.h文件中 默认为10000
//-------------------------------------------------------------------------------------------------------------------
void pwm_init(PWMCH_enum pwmch, uint32 freq, uint32 duty, uint16_t TIM_OCPreload_Enable_Disable)
{
    1018:	7139                	addi	sp,sp,-64
    101a:	de06                	sw	ra,60(sp)
    101c:	dc22                	sw	s0,56(sp)
    101e:	0080                	addi	s0,sp,64
    1020:	fca42623          	sw	a0,-52(s0)
    1024:	fcb42423          	sw	a1,-56(s0)
    1028:	fcc42223          	sw	a2,-60(s0)
    102c:	87b6                	mv	a5,a3
    102e:	fcf41123          	sh	a5,-62(s0)
D:/Desktop/智能车基地/CH32V103_SmartCar_V1.0/4.Demo/Libraries/hefei_libraries/hf_pwm.c:30
    TIM_OCInitTypeDef  TIM_OCInitStructure;

    uint16 match_temp;                                          //占空比值
    uint16 period_temp;                                         //周期值
    uint16 freq_div = 0;                                        //分频值
    1032:	fe041723          	sh	zero,-18(s0)
D:/Desktop/智能车基地/CH32V103_SmartCar_V1.0/4.Demo/Libraries/hefei_libraries/hf_pwm.c:32

    pwm_gpio_init(pwmch);                                       //PWM引脚初始化
    1036:	fcc42503          	lw	a0,-52(s0)
    103a:	2ee5                	jal	1432 <pwm_gpio_init>
D:/Desktop/智能车基地/CH32V103_SmartCar_V1.0/4.Demo/Libraries/hefei_libraries/hf_pwm.c:35

    /* 获取系统主频 */
    sys_clk = (uint32)72000000;
    103c:	044aa737          	lui	a4,0x44aa
    1040:	20070713          	addi	a4,a4,512 # 44aa200 <_data_lma+0x44a66c0>
    1044:	82e1a423          	sw	a4,-2008(gp) # 20000038 <_edata>
D:/Desktop/智能车基地/CH32V103_SmartCar_V1.0/4.Demo/Libraries/hefei_libraries/hf_pwm.c:36
    freq_div = (uint16)((sys_clk / freq) >> 16);                            //多少分频
    1048:	8281a703          	lw	a4,-2008(gp) # 20000038 <_edata>
    104c:	fc842783          	lw	a5,-56(s0)
    1050:	02f757b3          	divu	a5,a4,a5
    1054:	83c1                	srli	a5,a5,0x10
    1056:	fef41723          	sh	a5,-18(s0)
D:/Desktop/智能车基地/CH32V103_SmartCar_V1.0/4.Demo/Libraries/hefei_libraries/hf_pwm.c:37
    period_temp = (uint16)(sys_clk/(freq*(freq_div + 1)));                  //周期
    105a:	8281a703          	lw	a4,-2008(gp) # 20000038 <_edata>
    105e:	fee45783          	lhu	a5,-18(s0)
    1062:	0785                	addi	a5,a5,1
    1064:	86be                	mv	a3,a5
    1066:	fc842783          	lw	a5,-56(s0)
    106a:	02f687b3          	mul	a5,a3,a5
    106e:	02f757b3          	divu	a5,a4,a5
    1072:	fef41623          	sh	a5,-20(s0)
D:/Desktop/智能车基地/CH32V103_SmartCar_V1.0/4.Demo/Libraries/hefei_libraries/hf_pwm.c:38
    match_temp = period_temp * duty / PWM_DUTY_MAX;                         //占空比
    1076:	fec45703          	lhu	a4,-20(s0)
    107a:	fc442783          	lw	a5,-60(s0)
    107e:	02f70733          	mul	a4,a4,a5
    1082:	6789                	lui	a5,0x2
    1084:	71078793          	addi	a5,a5,1808 # 2710 <GPIO_Init+0x1e>
    1088:	02f757b3          	divu	a5,a4,a5
    108c:	fef41523          	sh	a5,-22(s0)
D:/Desktop/智能车基地/CH32V103_SmartCar_V1.0/4.Demo/Libraries/hefei_libraries/hf_pwm.c:41

    /* 时基初始化 */
    timbase_init((pwmch >> 8), period_temp - 1, freq_div);
    1090:	fcc42783          	lw	a5,-52(s0)
    1094:	0087d713          	srli	a4,a5,0x8
    1098:	fec45783          	lhu	a5,-20(s0)
    109c:	17fd                	addi	a5,a5,-1
    109e:	07c2                	slli	a5,a5,0x10
    10a0:	83c1                	srli	a5,a5,0x10
    10a2:	fee45683          	lhu	a3,-18(s0)
    10a6:	8636                	mv	a2,a3
    10a8:	85be                	mv	a1,a5
    10aa:	853a                	mv	a0,a4
    10ac:	25ed                	jal	1796 <timbase_init>
D:/Desktop/智能车基地/CH32V103_SmartCar_V1.0/4.Demo/Libraries/hefei_libraries/hf_pwm.c:43

    RCC_APB2PeriphClockCmd(RCC_APB2Periph_AFIO, ENABLE);        //使能AFIO复用功能模块时钟
    10ae:	4585                	li	a1,1
    10b0:	4505                	li	a0,1
    10b2:	2ff010ef          	jal	ra,2bb0 <RCC_APB2PeriphClockCmd>
D:/Desktop/智能车基地/CH32V103_SmartCar_V1.0/4.Demo/Libraries/hefei_libraries/hf_pwm.c:56
//        GPIO_PinRemapConfig(GPIO_FullRemap_TIM3, ENABLE);
//    else if((pwmch >> 4) == 0x22)   //PWM3的部分重映射
//        GPIO_PinRemapConfig(GPIO_PartialRemap_TIM3, ENABLE);

    //初始化TIM PWM模式
    TIM_OCInitStructure.TIM_OCMode = TIM_OCMode_PWM1;                       //选择定时器模式:TIM脉冲宽度调制模式2
    10b6:	06000793          	li	a5,96
    10ba:	fcf41c23          	sh	a5,-40(s0)
D:/Desktop/智能车基地/CH32V103_SmartCar_V1.0/4.Demo/Libraries/hefei_libraries/hf_pwm.c:57
    TIM_OCInitStructure.TIM_OutputState = TIM_OutputState_Enable;           //比较输出使能
    10be:	4785                	li	a5,1
    10c0:	fcf41d23          	sh	a5,-38(s0)
D:/Desktop/智能车基地/CH32V103_SmartCar_V1.0/4.Demo/Libraries/hefei_libraries/hf_pwm.c:58
    TIM_OCInitStructure.TIM_Pulse = match_temp;
    10c4:	fea45783          	lhu	a5,-22(s0)
    10c8:	fcf41f23          	sh	a5,-34(s0)
D:/Desktop/智能车基地/CH32V103_SmartCar_V1.0/4.Demo/Libraries/hefei_libraries/hf_pwm.c:59
    TIM_OCInitStructure.TIM_OCPolarity = TIM_OCPolarity_High;               //输出极性:TIM输出比较极性高
    10cc:	fe041023          	sh	zero,-32(s0)
D:/Desktop/智能车基地/CH32V103_SmartCar_V1.0/4.Demo/Libraries/hefei_libraries/hf_pwm.c:60
    TIM_OCInitStructure.TIM_OCIdleState = TIM_OCIdleState_Reset;
    10d0:	fe041223          	sh	zero,-28(s0)
D:/Desktop/智能车基地/CH32V103_SmartCar_V1.0/4.Demo/Libraries/hefei_libraries/hf_pwm.c:62

    if((pwmch & 0x03) == 0x00)                                              //通道选择
    10d4:	fcc42783          	lw	a5,-52(s0)
    10d8:	8b8d                	andi	a5,a5,3
    10da:	e3b5                	bnez	a5,113e <pwm_init+0x126>
D:/Desktop/智能车基地/CH32V103_SmartCar_V1.0/4.Demo/Libraries/hefei_libraries/hf_pwm.c:64
    {
        TIM_OC1Init(((TIM_TypeDef *) TIMERN[pwmch>>8]), &TIM_OCInitStructure );                         //定时器通道1初始化
    10dc:	fcc42783          	lw	a5,-52(s0)
    10e0:	0087d713          	srli	a4,a5,0x8
    10e4:	6791                	lui	a5,0x4
    10e6:	070a                	slli	a4,a4,0x2
    10e8:	b2078793          	addi	a5,a5,-1248 # 3b20 <TIMERN>
    10ec:	97ba                	add	a5,a5,a4
    10ee:	439c                	lw	a5,0(a5)
    10f0:	873e                	mv	a4,a5
    10f2:	fd840793          	addi	a5,s0,-40
    10f6:	85be                	mv	a1,a5
    10f8:	853a                	mv	a0,a4
    10fa:	483010ef          	jal	ra,2d7c <TIM_OC1Init>
D:/Desktop/智能车基地/CH32V103_SmartCar_V1.0/4.Demo/Libraries/hefei_libraries/hf_pwm.c:65
        TIM_CtrlPWMOutputs(((TIM_TypeDef *) TIMERN[pwmch>>8]), ENABLE );
    10fe:	fcc42783          	lw	a5,-52(s0)
    1102:	0087d713          	srli	a4,a5,0x8
    1106:	6791                	lui	a5,0x4
    1108:	070a                	slli	a4,a4,0x2
    110a:	b2078793          	addi	a5,a5,-1248 # 3b20 <TIMERN>
    110e:	97ba                	add	a5,a5,a4
    1110:	439c                	lw	a5,0(a5)
    1112:	4585                	li	a1,1
    1114:	853e                	mv	a0,a5
    1116:	2de020ef          	jal	ra,33f4 <TIM_CtrlPWMOutputs>
D:/Desktop/智能车基地/CH32V103_SmartCar_V1.0/4.Demo/Libraries/hefei_libraries/hf_pwm.c:66
        TIM_OC1PreloadConfig(((TIM_TypeDef *) TIMERN[pwmch>>8]), TIM_OCPreload_Enable_Disable);         //定时器预装载配置
    111a:	fcc42783          	lw	a5,-52(s0)
    111e:	0087d713          	srli	a4,a5,0x8
    1122:	6791                	lui	a5,0x4
    1124:	070a                	slli	a4,a4,0x2
    1126:	b2078793          	addi	a5,a5,-1248 # 3b20 <TIMERN>
    112a:	97ba                	add	a5,a5,a4
    112c:	439c                	lw	a5,0(a5)
    112e:	873e                	mv	a4,a5
    1130:	fc245783          	lhu	a5,-62(s0)
    1134:	85be                	mv	a1,a5
    1136:	853a                	mv	a0,a4
    1138:	31c020ef          	jal	ra,3454 <TIM_OC1PreloadConfig>
    113c:	aa81                	j	128c <pwm_init+0x274>
D:/Desktop/智能车基地/CH32V103_SmartCar_V1.0/4.Demo/Libraries/hefei_libraries/hf_pwm.c:68
    }
    else if((pwmch & 0x03) == 0x01)
    113e:	fcc42783          	lw	a5,-52(s0)
    1142:	0037f713          	andi	a4,a5,3
    1146:	4785                	li	a5,1
    1148:	06f71363          	bne	a4,a5,11ae <pwm_init+0x196>
D:/Desktop/智能车基地/CH32V103_SmartCar_V1.0/4.Demo/Libraries/hefei_libraries/hf_pwm.c:70
    {
        TIM_OC2Init(((TIM_TypeDef *) TIMERN[pwmch>>8]), &TIM_OCInitStructure );
    114c:	fcc42783          	lw	a5,-52(s0)
    1150:	0087d713          	srli	a4,a5,0x8
    1154:	6791                	lui	a5,0x4
    1156:	070a                	slli	a4,a4,0x2
    1158:	b2078793          	addi	a5,a5,-1248 # 3b20 <TIMERN>
    115c:	97ba                	add	a5,a5,a4
    115e:	439c                	lw	a5,0(a5)
    1160:	873e                	mv	a4,a5
    1162:	fd840793          	addi	a5,s0,-40
    1166:	85be                	mv	a1,a5
    1168:	853a                	mv	a0,a4
    116a:	583010ef          	jal	ra,2eec <TIM_OC2Init>
D:/Desktop/智能车基地/CH32V103_SmartCar_V1.0/4.Demo/Libraries/hefei_libraries/hf_pwm.c:71
        TIM_CtrlPWMOutputs(((TIM_TypeDef *) TIMERN[pwmch>>8]), ENABLE );
    116e:	fcc42783          	lw	a5,-52(s0)
    1172:	0087d713          	srli	a4,a5,0x8
    1176:	6791                	lui	a5,0x4
    1178:	070a                	slli	a4,a4,0x2
    117a:	b2078793          	addi	a5,a5,-1248 # 3b20 <TIMERN>
    117e:	97ba                	add	a5,a5,a4
    1180:	439c                	lw	a5,0(a5)
    1182:	4585                	li	a1,1
    1184:	853e                	mv	a0,a5
    1186:	26e020ef          	jal	ra,33f4 <TIM_CtrlPWMOutputs>
D:/Desktop/智能车基地/CH32V103_SmartCar_V1.0/4.Demo/Libraries/hefei_libraries/hf_pwm.c:72
        TIM_OC2PreloadConfig(((TIM_TypeDef *) TIMERN[pwmch>>8]), TIM_OCPreload_Enable_Disable);
    118a:	fcc42783          	lw	a5,-52(s0)
    118e:	0087d713          	srli	a4,a5,0x8
    1192:	6791                	lui	a5,0x4
    1194:	070a                	slli	a4,a4,0x2
    1196:	b2078793          	addi	a5,a5,-1248 # 3b20 <TIMERN>
    119a:	97ba                	add	a5,a5,a4
    119c:	439c                	lw	a5,0(a5)
    119e:	873e                	mv	a4,a5
    11a0:	fc245783          	lhu	a5,-62(s0)
    11a4:	85be                	mv	a1,a5
    11a6:	853a                	mv	a0,a4
    11a8:	2f8020ef          	jal	ra,34a0 <TIM_OC2PreloadConfig>
    11ac:	a0c5                	j	128c <pwm_init+0x274>
D:/Desktop/智能车基地/CH32V103_SmartCar_V1.0/4.Demo/Libraries/hefei_libraries/hf_pwm.c:74
    }
    else if((pwmch & 0x03) == 0x02)
    11ae:	fcc42783          	lw	a5,-52(s0)
    11b2:	0037f713          	andi	a4,a5,3
    11b6:	4789                	li	a5,2
    11b8:	06f71363          	bne	a4,a5,121e <pwm_init+0x206>
D:/Desktop/智能车基地/CH32V103_SmartCar_V1.0/4.Demo/Libraries/hefei_libraries/hf_pwm.c:76
    {
        TIM_OC3Init(((TIM_TypeDef *) TIMERN[pwmch>>8]), &TIM_OCInitStructure );
    11bc:	fcc42783          	lw	a5,-52(s0)
    11c0:	0087d713          	srli	a4,a5,0x8
    11c4:	6791                	lui	a5,0x4
    11c6:	070a                	slli	a4,a4,0x2
    11c8:	b2078793          	addi	a5,a5,-1248 # 3b20 <TIMERN>
    11cc:	97ba                	add	a5,a5,a4
    11ce:	439c                	lw	a5,0(a5)
    11d0:	873e                	mv	a4,a5
    11d2:	fd840793          	addi	a5,s0,-40
    11d6:	85be                	mv	a1,a5
    11d8:	853a                	mv	a0,a4
    11da:	6c9010ef          	jal	ra,30a2 <TIM_OC3Init>
D:/Desktop/智能车基地/CH32V103_SmartCar_V1.0/4.Demo/Libraries/hefei_libraries/hf_pwm.c:77
        TIM_CtrlPWMOutputs(((TIM_TypeDef *) TIMERN[pwmch>>8]), ENABLE );
    11de:	fcc42783          	lw	a5,-52(s0)
    11e2:	0087d713          	srli	a4,a5,0x8
    11e6:	6791                	lui	a5,0x4
    11e8:	070a                	slli	a4,a4,0x2
    11ea:	b2078793          	addi	a5,a5,-1248 # 3b20 <TIMERN>
    11ee:	97ba                	add	a5,a5,a4
    11f0:	439c                	lw	a5,0(a5)
    11f2:	4585                	li	a1,1
    11f4:	853e                	mv	a0,a5
    11f6:	1fe020ef          	jal	ra,33f4 <TIM_CtrlPWMOutputs>
D:/Desktop/智能车基地/CH32V103_SmartCar_V1.0/4.Demo/Libraries/hefei_libraries/hf_pwm.c:78
        TIM_OC3PreloadConfig(((TIM_TypeDef *) TIMERN[pwmch>>8]), TIM_OCPreload_Enable_Disable);
    11fa:	fcc42783          	lw	a5,-52(s0)
    11fe:	0087d713          	srli	a4,a5,0x8
    1202:	6791                	lui	a5,0x4
    1204:	070a                	slli	a4,a4,0x2
    1206:	b2078793          	addi	a5,a5,-1248 # 3b20 <TIMERN>
    120a:	97ba                	add	a5,a5,a4
    120c:	439c                	lw	a5,0(a5)
    120e:	873e                	mv	a4,a5
    1210:	fc245783          	lhu	a5,-62(s0)
    1214:	85be                	mv	a1,a5
    1216:	853a                	mv	a0,a4
    1218:	2e2020ef          	jal	ra,34fa <TIM_OC3PreloadConfig>
    121c:	a885                	j	128c <pwm_init+0x274>
D:/Desktop/智能车基地/CH32V103_SmartCar_V1.0/4.Demo/Libraries/hefei_libraries/hf_pwm.c:80
    }
    else if((pwmch & 0x03) == 0x03)
    121e:	fcc42783          	lw	a5,-52(s0)
    1222:	0037f713          	andi	a4,a5,3
    1226:	478d                	li	a5,3
    1228:	06f71263          	bne	a4,a5,128c <pwm_init+0x274>
D:/Desktop/智能车基地/CH32V103_SmartCar_V1.0/4.Demo/Libraries/hefei_libraries/hf_pwm.c:82
    {
        TIM_OC4Init(((TIM_TypeDef *) TIMERN[pwmch>>8]), &TIM_OCInitStructure );
    122c:	fcc42783          	lw	a5,-52(s0)
    1230:	0087d713          	srli	a4,a5,0x8
    1234:	6791                	lui	a5,0x4
    1236:	070a                	slli	a4,a4,0x2
    1238:	b2078793          	addi	a5,a5,-1248 # 3b20 <TIMERN>
    123c:	97ba                	add	a5,a5,a4
    123e:	439c                	lw	a5,0(a5)
    1240:	873e                	mv	a4,a5
    1242:	fd840793          	addi	a5,s0,-40
    1246:	85be                	mv	a1,a5
    1248:	853a                	mv	a0,a4
    124a:	008020ef          	jal	ra,3252 <TIM_OC4Init>
D:/Desktop/智能车基地/CH32V103_SmartCar_V1.0/4.Demo/Libraries/hefei_libraries/hf_pwm.c:83
        TIM_CtrlPWMOutputs(((TIM_TypeDef *) TIMERN[pwmch>>8]), ENABLE );
    124e:	fcc42783          	lw	a5,-52(s0)
    1252:	0087d713          	srli	a4,a5,0x8
    1256:	6791                	lui	a5,0x4
    1258:	070a                	slli	a4,a4,0x2
    125a:	b2078793          	addi	a5,a5,-1248 # 3b20 <TIMERN>
    125e:	97ba                	add	a5,a5,a4
    1260:	439c                	lw	a5,0(a5)
    1262:	4585                	li	a1,1
    1264:	853e                	mv	a0,a5
    1266:	18e020ef          	jal	ra,33f4 <TIM_CtrlPWMOutputs>
D:/Desktop/智能车基地/CH32V103_SmartCar_V1.0/4.Demo/Libraries/hefei_libraries/hf_pwm.c:84
        TIM_OC4PreloadConfig(((TIM_TypeDef *) TIMERN[pwmch>>8]), TIM_OCPreload_Enable_Disable);
    126a:	fcc42783          	lw	a5,-52(s0)
    126e:	0087d713          	srli	a4,a5,0x8
    1272:	6791                	lui	a5,0x4
    1274:	070a                	slli	a4,a4,0x2
    1276:	b2078793          	addi	a5,a5,-1248 # 3b20 <TIMERN>
    127a:	97ba                	add	a5,a5,a4
    127c:	439c                	lw	a5,0(a5)
    127e:	873e                	mv	a4,a5
    1280:	fc245783          	lhu	a5,-62(s0)
    1284:	85be                	mv	a1,a5
    1286:	853a                	mv	a0,a4
    1288:	2be020ef          	jal	ra,3546 <TIM_OC4PreloadConfig>
D:/Desktop/智能车基地/CH32V103_SmartCar_V1.0/4.Demo/Libraries/hefei_libraries/hf_pwm.c:87
    }

    TIM_Cmd(((TIM_TypeDef *) TIMERN[pwmch>>8]), ENABLE);                                              //定时器使能
    128c:	fcc42783          	lw	a5,-52(s0)
    1290:	0087d713          	srli	a4,a5,0x8
    1294:	6791                	lui	a5,0x4
    1296:	070a                	slli	a4,a4,0x2
    1298:	b2078793          	addi	a5,a5,-1248 # 3b20 <TIMERN>
    129c:	97ba                	add	a5,a5,a4
    129e:	439c                	lw	a5,0(a5)
    12a0:	4585                	li	a1,1
    12a2:	853e                	mv	a0,a5
    12a4:	0f8020ef          	jal	ra,339c <TIM_Cmd>
D:/Desktop/智能车基地/CH32V103_SmartCar_V1.0/4.Demo/Libraries/hefei_libraries/hf_pwm.c:88
}
    12a8:	0001                	nop
    12aa:	50f2                	lw	ra,60(sp)
    12ac:	5462                	lw	s0,56(sp)
    12ae:	6121                	addi	sp,sp,64
    12b0:	8082                	ret

000012b2 <pwm_duty>:
pwm_duty():
D:/Desktop/智能车基地/CH32V103_SmartCar_V1.0/4.Demo/Libraries/hefei_libraries/hf_pwm.c:99
//  @return     void
//  Sample usage:               pwm_duty(PWM1_CH1_A8, 5000);   //PWM1 通道1 使用引脚A8 占空比为百分之 5000/PWM_DUTY_MAX*100
//                              PWM_DUTY_MAX在wh_pwm.h文件中 默认为10000
//-------------------------------------------------------------------------------------------------------------------
void pwm_duty(PWMCH_enum pwmch, uint32 duty)
{
    12b2:	7179                	addi	sp,sp,-48
    12b4:	d622                	sw	s0,44(sp)
    12b6:	1800                	addi	s0,sp,48
    12b8:	fca42e23          	sw	a0,-36(s0)
    12bc:	fcb42c23          	sw	a1,-40(s0)
D:/Desktop/智能车基地/CH32V103_SmartCar_V1.0/4.Demo/Libraries/hefei_libraries/hf_pwm.c:103
    uint16 match_temp;
    uint16 period_temp;

    period_temp = ((TIM_TypeDef *) TIMERN[pwmch>>8])->ATRLR;    //获取定时器的周期值
    12c0:	fdc42783          	lw	a5,-36(s0)
    12c4:	0087d713          	srli	a4,a5,0x8
    12c8:	6791                	lui	a5,0x4
    12ca:	070a                	slli	a4,a4,0x2
    12cc:	b2078793          	addi	a5,a5,-1248 # 3b20 <TIMERN>
    12d0:	97ba                	add	a5,a5,a4
    12d2:	439c                	lw	a5,0(a5)
    12d4:	02c7d783          	lhu	a5,44(a5)
    12d8:	fef41723          	sh	a5,-18(s0)
D:/Desktop/智能车基地/CH32V103_SmartCar_V1.0/4.Demo/Libraries/hefei_libraries/hf_pwm.c:104
    match_temp = period_temp * duty / PWM_DUTY_MAX;             //占空比
    12dc:	fee45703          	lhu	a4,-18(s0)
    12e0:	fd842783          	lw	a5,-40(s0)
    12e4:	02f70733          	mul	a4,a4,a5
    12e8:	6789                	lui	a5,0x2
    12ea:	71078793          	addi	a5,a5,1808 # 2710 <GPIO_Init+0x1e>
    12ee:	02f757b3          	divu	a5,a4,a5
    12f2:	fef41623          	sh	a5,-20(s0)
D:/Desktop/智能车基地/CH32V103_SmartCar_V1.0/4.Demo/Libraries/hefei_libraries/hf_pwm.c:106

    if((pwmch >> 8) == 0x00)
    12f6:	fdc42783          	lw	a5,-36(s0)
    12fa:	83a1                	srli	a5,a5,0x8
    12fc:	e385                	bnez	a5,131c <pwm_duty+0x6a>
D:/Desktop/智能车基地/CH32V103_SmartCar_V1.0/4.Demo/Libraries/hefei_libraries/hf_pwm.c:108
    {
        (*(volatile uint32*)(0x40012C34 + (pwmch&0x03) * 0x04)) = match_temp;
    12fe:	fdc42783          	lw	a5,-36(s0)
    1302:	0037f713          	andi	a4,a5,3
    1306:	100057b7          	lui	a5,0x10005
    130a:	b0d78793          	addi	a5,a5,-1267 # 10004b0d <_data_lma+0x10000fcd>
    130e:	97ba                	add	a5,a5,a4
    1310:	078a                	slli	a5,a5,0x2
    1312:	873e                	mv	a4,a5
    1314:	fec45783          	lhu	a5,-20(s0)
    1318:	c31c                	sw	a5,0(a4)
D:/Desktop/智能车基地/CH32V103_SmartCar_V1.0/4.Demo/Libraries/hefei_libraries/hf_pwm.c:138
        //0x40000834 TIM4->CH1CVR
        //0x40000838 TIM4->CH2CVR
        //0x4000083C TIM4->CH3CVR
        //0x40000840 TIM4->CH4CVR
    }
}
    131a:	a049                	j	139c <pwm_duty+0xea>
D:/Desktop/智能车基地/CH32V103_SmartCar_V1.0/4.Demo/Libraries/hefei_libraries/hf_pwm.c:114
    else if((pwmch >> 8) == 0x01)
    131c:	fdc42783          	lw	a5,-36(s0)
    1320:	0087d713          	srli	a4,a5,0x8
    1324:	4785                	li	a5,1
    1326:	02f71063          	bne	a4,a5,1346 <pwm_duty+0x94>
D:/Desktop/智能车基地/CH32V103_SmartCar_V1.0/4.Demo/Libraries/hefei_libraries/hf_pwm.c:116
        (*(volatile uint32*)(0x40000034 + (pwmch&0x03) * 0x04)) = match_temp;
    132a:	fdc42783          	lw	a5,-36(s0)
    132e:	0037f713          	andi	a4,a5,3
    1332:	100007b7          	lui	a5,0x10000
    1336:	07b5                	addi	a5,a5,13
    1338:	97ba                	add	a5,a5,a4
    133a:	078a                	slli	a5,a5,0x2
    133c:	873e                	mv	a4,a5
    133e:	fec45783          	lhu	a5,-20(s0)
    1342:	c31c                	sw	a5,0(a4)
D:/Desktop/智能车基地/CH32V103_SmartCar_V1.0/4.Demo/Libraries/hefei_libraries/hf_pwm.c:138
}
    1344:	a8a1                	j	139c <pwm_duty+0xea>
D:/Desktop/智能车基地/CH32V103_SmartCar_V1.0/4.Demo/Libraries/hefei_libraries/hf_pwm.c:122
    else if((pwmch >> 8) == 0x02)
    1346:	fdc42783          	lw	a5,-36(s0)
    134a:	0087d713          	srli	a4,a5,0x8
    134e:	4789                	li	a5,2
    1350:	02f71163          	bne	a4,a5,1372 <pwm_duty+0xc0>
D:/Desktop/智能车基地/CH32V103_SmartCar_V1.0/4.Demo/Libraries/hefei_libraries/hf_pwm.c:124
        (*(volatile uint32*)(0x40000434 + (pwmch&0x03) * 0x04)) = match_temp;
    1354:	fdc42783          	lw	a5,-36(s0)
    1358:	0037f713          	andi	a4,a5,3
    135c:	100007b7          	lui	a5,0x10000
    1360:	10d78793          	addi	a5,a5,269 # 1000010d <_data_lma+0xfffc5cd>
    1364:	97ba                	add	a5,a5,a4
    1366:	078a                	slli	a5,a5,0x2
    1368:	873e                	mv	a4,a5
    136a:	fec45783          	lhu	a5,-20(s0)
    136e:	c31c                	sw	a5,0(a4)
D:/Desktop/智能车基地/CH32V103_SmartCar_V1.0/4.Demo/Libraries/hefei_libraries/hf_pwm.c:138
}
    1370:	a035                	j	139c <pwm_duty+0xea>
D:/Desktop/智能车基地/CH32V103_SmartCar_V1.0/4.Demo/Libraries/hefei_libraries/hf_pwm.c:130
    else if((pwmch >> 8) == 0x03)
    1372:	fdc42783          	lw	a5,-36(s0)
    1376:	0087d713          	srli	a4,a5,0x8
    137a:	478d                	li	a5,3
    137c:	02f71063          	bne	a4,a5,139c <pwm_duty+0xea>
D:/Desktop/智能车基地/CH32V103_SmartCar_V1.0/4.Demo/Libraries/hefei_libraries/hf_pwm.c:132
        (*(volatile uint32*)(0x40000834 + (pwmch&0x03) * 0x04)) = match_temp;
    1380:	fdc42783          	lw	a5,-36(s0)
    1384:	0037f713          	andi	a4,a5,3
    1388:	100007b7          	lui	a5,0x10000
    138c:	20d78793          	addi	a5,a5,525 # 1000020d <_data_lma+0xfffc6cd>
    1390:	97ba                	add	a5,a5,a4
    1392:	078a                	slli	a5,a5,0x2
    1394:	873e                	mv	a4,a5
    1396:	fec45783          	lhu	a5,-20(s0)
    139a:	c31c                	sw	a5,0(a4)
D:/Desktop/智能车基地/CH32V103_SmartCar_V1.0/4.Demo/Libraries/hefei_libraries/hf_pwm.c:138
}
    139c:	0001                	nop
    139e:	5432                	lw	s0,44(sp)
    13a0:	6145                	addi	sp,sp,48
    13a2:	8082                	ret

000013a4 <pwm_freq>:
pwm_freq():
D:/Desktop/智能车基地/CH32V103_SmartCar_V1.0/4.Demo/Libraries/hefei_libraries/hf_pwm.c:150
//  @return     void
//  Sample usage:               pwm_freq(PWM1_CH1_A8, 60, 5000);   //使用引脚A8  输出PWM频率60HZ   占空比为百分之 5000/PWM_DUTY_MAX*100
//                              PWM_DUTY_MAX在wh_pwm.h文件中 默认为10000
//-------------------------------------------------------------------------------------------------------------------
void pwm_freq(PWMCH_enum pwmch, uint32 freq)
{
    13a4:	7179                	addi	sp,sp,-48
    13a6:	d622                	sw	s0,44(sp)
    13a8:	1800                	addi	s0,sp,48
    13aa:	fca42e23          	sw	a0,-36(s0)
    13ae:	fcb42c23          	sw	a1,-40(s0)
D:/Desktop/智能车基地/CH32V103_SmartCar_V1.0/4.Demo/Libraries/hefei_libraries/hf_pwm.c:151
    uint16 period_temp = 0;                                     //周期值
    13b2:	fe041723          	sh	zero,-18(s0)
D:/Desktop/智能车基地/CH32V103_SmartCar_V1.0/4.Demo/Libraries/hefei_libraries/hf_pwm.c:152
    uint16 freq_div = 0;                                        //分频值
    13b6:	fe041623          	sh	zero,-20(s0)
D:/Desktop/智能车基地/CH32V103_SmartCar_V1.0/4.Demo/Libraries/hefei_libraries/hf_pwm.c:155
    uint16 match_temp;

    freq_div = (uint16)((sys_clk / freq) >> 16);                //计算多少分频
    13ba:	8281a703          	lw	a4,-2008(gp) # 20000038 <_edata>
    13be:	fd842783          	lw	a5,-40(s0)
    13c2:	02f757b3          	divu	a5,a4,a5
    13c6:	83c1                	srli	a5,a5,0x10
    13c8:	fef41623          	sh	a5,-20(s0)
D:/Desktop/智能车基地/CH32V103_SmartCar_V1.0/4.Demo/Libraries/hefei_libraries/hf_pwm.c:156
    period_temp = (uint16)(sys_clk/(freq*(freq_div + 1)));      //计算周期
    13cc:	8281a703          	lw	a4,-2008(gp) # 20000038 <_edata>
    13d0:	fec45783          	lhu	a5,-20(s0)
    13d4:	0785                	addi	a5,a5,1
    13d6:	86be                	mv	a3,a5
    13d8:	fd842783          	lw	a5,-40(s0)
    13dc:	02f687b3          	mul	a5,a3,a5
    13e0:	02f757b3          	divu	a5,a4,a5
    13e4:	fef41723          	sh	a5,-18(s0)
D:/Desktop/智能车基地/CH32V103_SmartCar_V1.0/4.Demo/Libraries/hefei_libraries/hf_pwm.c:158

    ((TIM_TypeDef *) TIMERN[pwmch>>8])->ATRLR = period_temp - 1 ;
    13e8:	fdc42783          	lw	a5,-36(s0)
    13ec:	0087d713          	srli	a4,a5,0x8
    13f0:	6791                	lui	a5,0x4
    13f2:	070a                	slli	a4,a4,0x2
    13f4:	b2078793          	addi	a5,a5,-1248 # 3b20 <TIMERN>
    13f8:	97ba                	add	a5,a5,a4
    13fa:	439c                	lw	a5,0(a5)
    13fc:	873e                	mv	a4,a5
    13fe:	fee45783          	lhu	a5,-18(s0)
    1402:	17fd                	addi	a5,a5,-1
    1404:	07c2                	slli	a5,a5,0x10
    1406:	83c1                	srli	a5,a5,0x10
    1408:	02f71623          	sh	a5,44(a4)
D:/Desktop/智能车基地/CH32V103_SmartCar_V1.0/4.Demo/Libraries/hefei_libraries/hf_pwm.c:159
    ((TIM_TypeDef *) TIMERN[pwmch>>8])->PSC = freq_div;
    140c:	fdc42783          	lw	a5,-36(s0)
    1410:	0087d713          	srli	a4,a5,0x8
    1414:	6791                	lui	a5,0x4
    1416:	070a                	slli	a4,a4,0x2
    1418:	b2078793          	addi	a5,a5,-1248 # 3b20 <TIMERN>
    141c:	97ba                	add	a5,a5,a4
    141e:	439c                	lw	a5,0(a5)
    1420:	873e                	mv	a4,a5
    1422:	fec45783          	lhu	a5,-20(s0)
    1426:	02f71423          	sh	a5,40(a4)
D:/Desktop/智能车基地/CH32V103_SmartCar_V1.0/4.Demo/Libraries/hefei_libraries/hf_pwm.c:160
}
    142a:	0001                	nop
    142c:	5432                	lw	s0,44(sp)
    142e:	6145                	addi	sp,sp,48
    1430:	8082                	ret

00001432 <pwm_gpio_init>:
pwm_gpio_init():
D:/Desktop/智能车基地/CH32V103_SmartCar_V1.0/4.Demo/Libraries/hefei_libraries/hf_pwm.c:182
//  @param      pwmch       PWM通道(可选择范围由wh_pwm.h内PWMCH_enum枚举值确定)
//  @return     void
//  Sample usage:           内部使用  用户无需关心
//-------------------------------------------------------------------------------------------------------------------
void pwm_gpio_init(PWMCH_enum pwmch)
{
    1432:	1101                	addi	sp,sp,-32
    1434:	ce06                	sw	ra,28(sp)
    1436:	cc22                	sw	s0,24(sp)
    1438:	1000                	addi	s0,sp,32
    143a:	fea42623          	sw	a0,-20(s0)
    143e:	fec42703          	lw	a4,-20(s0)
    1442:	20000793          	li	a5,512
    1446:	24f70763          	beq	a4,a5,1694 <pwm_gpio_init+0x262>
    144a:	fec42703          	lw	a4,-20(s0)
    144e:	20000793          	li	a5,512
    1452:	0ae7ea63          	bltu	a5,a4,1506 <pwm_gpio_init+0xd4>
    1456:	fec42703          	lw	a4,-20(s0)
    145a:	10100793          	li	a5,257
    145e:	1cf70063          	beq	a4,a5,161e <pwm_gpio_init+0x1ec>
    1462:	fec42703          	lw	a4,-20(s0)
    1466:	10100793          	li	a5,257
    146a:	04e7e263          	bltu	a5,a4,14ae <pwm_gpio_init+0x7c>
    146e:	fec42703          	lw	a4,-20(s0)
    1472:	4789                	li	a5,2
    1474:	16f70d63          	beq	a4,a5,15ee <pwm_gpio_init+0x1bc>
    1478:	fec42703          	lw	a4,-20(s0)
    147c:	4789                	li	a5,2
    147e:	00e7ec63          	bltu	a5,a4,1496 <pwm_gpio_init+0x64>
    1482:	fec42783          	lw	a5,-20(s0)
    1486:	14078463          	beqz	a5,15ce <pwm_gpio_init+0x19c>
    148a:	fec42703          	lw	a4,-20(s0)
    148e:	4785                	li	a5,1
    1490:	14f70763          	beq	a4,a5,15de <pwm_gpio_init+0x1ac>
D:/Desktop/智能车基地/CH32V103_SmartCar_V1.0/4.Demo/Libraries/hefei_libraries/hf_pwm.c:272
        case PWM4_CH4_B9:
            gpio_init(B9, GPO, 0, SPEED_50MHZ|OUT_AF_PP);
            break;
        default:
            //断言
            break;
    1494:	ace5                	j	178c <pwm_gpio_init+0x35a>
    1496:	fec42703          	lw	a4,-20(s0)
    149a:	478d                	li	a5,3
    149c:	16f70163          	beq	a4,a5,15fe <pwm_gpio_init+0x1cc>
    14a0:	fec42703          	lw	a4,-20(s0)
    14a4:	10000793          	li	a5,256
    14a8:	16f70363          	beq	a4,a5,160e <pwm_gpio_init+0x1dc>
    14ac:	a4c5                	j	178c <pwm_gpio_init+0x35a>
    14ae:	fec42703          	lw	a4,-20(s0)
    14b2:	11000793          	li	a5,272
    14b6:	18f70c63          	beq	a4,a5,164e <pwm_gpio_init+0x21c>
    14ba:	fec42703          	lw	a4,-20(s0)
    14be:	11000793          	li	a5,272
    14c2:	00e7ef63          	bltu	a5,a4,14e0 <pwm_gpio_init+0xae>
    14c6:	fec42703          	lw	a4,-20(s0)
    14ca:	10200793          	li	a5,258
    14ce:	16f70063          	beq	a4,a5,162e <pwm_gpio_init+0x1fc>
    14d2:	fec42703          	lw	a4,-20(s0)
    14d6:	10300793          	li	a5,259
    14da:	16f70263          	beq	a4,a5,163e <pwm_gpio_init+0x20c>
    14de:	a47d                	j	178c <pwm_gpio_init+0x35a>
    14e0:	fec42703          	lw	a4,-20(s0)
    14e4:	11200793          	li	a5,274
    14e8:	18f70463          	beq	a4,a5,1670 <pwm_gpio_init+0x23e>
    14ec:	fec42703          	lw	a4,-20(s0)
    14f0:	11200793          	li	a5,274
    14f4:	16f76563          	bltu	a4,a5,165e <pwm_gpio_init+0x22c>
    14f8:	fec42703          	lw	a4,-20(s0)
    14fc:	11300793          	li	a5,275
    1500:	18f70163          	beq	a4,a5,1682 <pwm_gpio_init+0x250>
    1504:	a461                	j	178c <pwm_gpio_init+0x35a>
    1506:	fec42703          	lw	a4,-20(s0)
    150a:	21300793          	li	a5,531
    150e:	20f70063          	beq	a4,a5,170e <pwm_gpio_init+0x2dc>
    1512:	fec42703          	lw	a4,-20(s0)
    1516:	21300793          	li	a5,531
    151a:	04e7ee63          	bltu	a5,a4,1576 <pwm_gpio_init+0x144>
    151e:	fec42703          	lw	a4,-20(s0)
    1522:	20300793          	li	a5,515
    1526:	1af70063          	beq	a4,a5,16c6 <pwm_gpio_init+0x294>
    152a:	fec42703          	lw	a4,-20(s0)
    152e:	20300793          	li	a5,515
    1532:	00e7ef63          	bltu	a5,a4,1550 <pwm_gpio_init+0x11e>
    1536:	fec42703          	lw	a4,-20(s0)
    153a:	20100793          	li	a5,513
    153e:	16f70363          	beq	a4,a5,16a4 <pwm_gpio_init+0x272>
    1542:	fec42703          	lw	a4,-20(s0)
    1546:	20200793          	li	a5,514
    154a:	16f70563          	beq	a4,a5,16b4 <pwm_gpio_init+0x282>
    154e:	ac3d                	j	178c <pwm_gpio_init+0x35a>
    1550:	fec42703          	lw	a4,-20(s0)
    1554:	21100793          	li	a5,529
    1558:	18f70963          	beq	a4,a5,16ea <pwm_gpio_init+0x2b8>
    155c:	fec42703          	lw	a4,-20(s0)
    1560:	21100793          	li	a5,529
    1564:	18e7ec63          	bltu	a5,a4,16fc <pwm_gpio_init+0x2ca>
    1568:	fec42703          	lw	a4,-20(s0)
    156c:	21000793          	li	a5,528
    1570:	16f70463          	beq	a4,a5,16d8 <pwm_gpio_init+0x2a6>
    1574:	ac21                	j	178c <pwm_gpio_init+0x35a>
    1576:	fec42703          	lw	a4,-20(s0)
    157a:	30000793          	li	a5,768
    157e:	1cf70363          	beq	a4,a5,1744 <pwm_gpio_init+0x312>
    1582:	fec42703          	lw	a4,-20(s0)
    1586:	30000793          	li	a5,768
    158a:	00e7ef63          	bltu	a5,a4,15a8 <pwm_gpio_init+0x176>
    158e:	fec42703          	lw	a4,-20(s0)
    1592:	22000793          	li	a5,544
    1596:	18f70563          	beq	a4,a5,1720 <pwm_gpio_init+0x2ee>
    159a:	fec42703          	lw	a4,-20(s0)
    159e:	22100793          	li	a5,545
    15a2:	18f70863          	beq	a4,a5,1732 <pwm_gpio_init+0x300>
    15a6:	a2dd                	j	178c <pwm_gpio_init+0x35a>
    15a8:	fec42703          	lw	a4,-20(s0)
    15ac:	30200793          	li	a5,770
    15b0:	1af70c63          	beq	a4,a5,1768 <pwm_gpio_init+0x336>
    15b4:	fec42703          	lw	a4,-20(s0)
    15b8:	30200793          	li	a5,770
    15bc:	18f76d63          	bltu	a4,a5,1756 <pwm_gpio_init+0x324>
    15c0:	fec42703          	lw	a4,-20(s0)
    15c4:	30300793          	li	a5,771
    15c8:	1af70963          	beq	a4,a5,177a <pwm_gpio_init+0x348>
    15cc:	a2c1                	j	178c <pwm_gpio_init+0x35a>
D:/Desktop/智能车基地/CH32V103_SmartCar_V1.0/4.Demo/Libraries/hefei_libraries/hf_pwm.c:187
            gpio_init(A8, GPO, 0, SPEED_50MHZ|OUT_AF_PP);
    15ce:	31800693          	li	a3,792
    15d2:	4601                	li	a2,0
    15d4:	4585                	li	a1,1
    15d6:	4521                	li	a0,8
    15d8:	f70ff0ef          	jal	ra,d48 <gpio_init>
D:/Desktop/智能车基地/CH32V103_SmartCar_V1.0/4.Demo/Libraries/hefei_libraries/hf_pwm.c:188
            break;
    15dc:	aa45                	j	178c <pwm_gpio_init+0x35a>
D:/Desktop/智能车基地/CH32V103_SmartCar_V1.0/4.Demo/Libraries/hefei_libraries/hf_pwm.c:190
            gpio_init(A9, GPO, 0, SPEED_50MHZ|OUT_AF_PP);
    15de:	31800693          	li	a3,792
    15e2:	4601                	li	a2,0
    15e4:	4585                	li	a1,1
    15e6:	4525                	li	a0,9
    15e8:	f60ff0ef          	jal	ra,d48 <gpio_init>
D:/Desktop/智能车基地/CH32V103_SmartCar_V1.0/4.Demo/Libraries/hefei_libraries/hf_pwm.c:191
            break;
    15ec:	a245                	j	178c <pwm_gpio_init+0x35a>
D:/Desktop/智能车基地/CH32V103_SmartCar_V1.0/4.Demo/Libraries/hefei_libraries/hf_pwm.c:193
            gpio_init(A10, GPO, 0, SPEED_50MHZ|OUT_AF_PP);
    15ee:	31800693          	li	a3,792
    15f2:	4601                	li	a2,0
    15f4:	4585                	li	a1,1
    15f6:	4529                	li	a0,10
    15f8:	f50ff0ef          	jal	ra,d48 <gpio_init>
D:/Desktop/智能车基地/CH32V103_SmartCar_V1.0/4.Demo/Libraries/hefei_libraries/hf_pwm.c:194
            break;
    15fc:	aa41                	j	178c <pwm_gpio_init+0x35a>
D:/Desktop/智能车基地/CH32V103_SmartCar_V1.0/4.Demo/Libraries/hefei_libraries/hf_pwm.c:196
            gpio_init(A11, GPO, 0, SPEED_50MHZ|OUT_AF_PP);
    15fe:	31800693          	li	a3,792
    1602:	4601                	li	a2,0
    1604:	4585                	li	a1,1
    1606:	452d                	li	a0,11
    1608:	f40ff0ef          	jal	ra,d48 <gpio_init>
D:/Desktop/智能车基地/CH32V103_SmartCar_V1.0/4.Demo/Libraries/hefei_libraries/hf_pwm.c:197
            break;
    160c:	a241                	j	178c <pwm_gpio_init+0x35a>
D:/Desktop/智能车基地/CH32V103_SmartCar_V1.0/4.Demo/Libraries/hefei_libraries/hf_pwm.c:200
            gpio_init(A0, GPO, 0, SPEED_50MHZ|OUT_AF_PP);
    160e:	31800693          	li	a3,792
    1612:	4601                	li	a2,0
    1614:	4585                	li	a1,1
    1616:	4501                	li	a0,0
    1618:	f30ff0ef          	jal	ra,d48 <gpio_init>
D:/Desktop/智能车基地/CH32V103_SmartCar_V1.0/4.Demo/Libraries/hefei_libraries/hf_pwm.c:201
            break;
    161c:	aa85                	j	178c <pwm_gpio_init+0x35a>
D:/Desktop/智能车基地/CH32V103_SmartCar_V1.0/4.Demo/Libraries/hefei_libraries/hf_pwm.c:203
            gpio_init(A1, GPO, 0, SPEED_50MHZ|OUT_AF_PP);
    161e:	31800693          	li	a3,792
    1622:	4601                	li	a2,0
    1624:	4585                	li	a1,1
    1626:	4505                	li	a0,1
    1628:	f20ff0ef          	jal	ra,d48 <gpio_init>
D:/Desktop/智能车基地/CH32V103_SmartCar_V1.0/4.Demo/Libraries/hefei_libraries/hf_pwm.c:204
            break;
    162c:	a285                	j	178c <pwm_gpio_init+0x35a>
D:/Desktop/智能车基地/CH32V103_SmartCar_V1.0/4.Demo/Libraries/hefei_libraries/hf_pwm.c:206
            gpio_init(A2, GPO, 0, SPEED_50MHZ|OUT_AF_PP);
    162e:	31800693          	li	a3,792
    1632:	4601                	li	a2,0
    1634:	4585                	li	a1,1
    1636:	4509                	li	a0,2
    1638:	f10ff0ef          	jal	ra,d48 <gpio_init>
D:/Desktop/智能车基地/CH32V103_SmartCar_V1.0/4.Demo/Libraries/hefei_libraries/hf_pwm.c:207
            break;
    163c:	aa81                	j	178c <pwm_gpio_init+0x35a>
D:/Desktop/智能车基地/CH32V103_SmartCar_V1.0/4.Demo/Libraries/hefei_libraries/hf_pwm.c:209
            gpio_init(A3, GPO, 0, SPEED_50MHZ|OUT_AF_PP);
    163e:	31800693          	li	a3,792
    1642:	4601                	li	a2,0
    1644:	4585                	li	a1,1
    1646:	450d                	li	a0,3
    1648:	f00ff0ef          	jal	ra,d48 <gpio_init>
D:/Desktop/智能车基地/CH32V103_SmartCar_V1.0/4.Demo/Libraries/hefei_libraries/hf_pwm.c:210
            break;
    164c:	a281                	j	178c <pwm_gpio_init+0x35a>
D:/Desktop/智能车基地/CH32V103_SmartCar_V1.0/4.Demo/Libraries/hefei_libraries/hf_pwm.c:213
            gpio_init(A15, GPO, 0, SPEED_50MHZ|OUT_AF_PP);
    164e:	31800693          	li	a3,792
    1652:	4601                	li	a2,0
    1654:	4585                	li	a1,1
    1656:	453d                	li	a0,15
    1658:	ef0ff0ef          	jal	ra,d48 <gpio_init>
D:/Desktop/智能车基地/CH32V103_SmartCar_V1.0/4.Demo/Libraries/hefei_libraries/hf_pwm.c:214
            break;
    165c:	aa05                	j	178c <pwm_gpio_init+0x35a>
D:/Desktop/智能车基地/CH32V103_SmartCar_V1.0/4.Demo/Libraries/hefei_libraries/hf_pwm.c:216
            gpio_init(B3, GPO, 0, SPEED_50MHZ|OUT_AF_PP);
    165e:	31800693          	li	a3,792
    1662:	4601                	li	a2,0
    1664:	4585                	li	a1,1
    1666:	02300513          	li	a0,35
    166a:	edeff0ef          	jal	ra,d48 <gpio_init>
D:/Desktop/智能车基地/CH32V103_SmartCar_V1.0/4.Demo/Libraries/hefei_libraries/hf_pwm.c:217
            break;
    166e:	aa39                	j	178c <pwm_gpio_init+0x35a>
D:/Desktop/智能车基地/CH32V103_SmartCar_V1.0/4.Demo/Libraries/hefei_libraries/hf_pwm.c:219
            gpio_init(B10, GPO, 0, SPEED_50MHZ|OUT_AF_PP);
    1670:	31800693          	li	a3,792
    1674:	4601                	li	a2,0
    1676:	4585                	li	a1,1
    1678:	02a00513          	li	a0,42
    167c:	eccff0ef          	jal	ra,d48 <gpio_init>
D:/Desktop/智能车基地/CH32V103_SmartCar_V1.0/4.Demo/Libraries/hefei_libraries/hf_pwm.c:220
            break;
    1680:	a231                	j	178c <pwm_gpio_init+0x35a>
D:/Desktop/智能车基地/CH32V103_SmartCar_V1.0/4.Demo/Libraries/hefei_libraries/hf_pwm.c:222
            gpio_init(B11, GPO, 0, SPEED_50MHZ|OUT_AF_PP);
    1682:	31800693          	li	a3,792
    1686:	4601                	li	a2,0
    1688:	4585                	li	a1,1
    168a:	02b00513          	li	a0,43
    168e:	ebaff0ef          	jal	ra,d48 <gpio_init>
D:/Desktop/智能车基地/CH32V103_SmartCar_V1.0/4.Demo/Libraries/hefei_libraries/hf_pwm.c:223
            break;
    1692:	a8ed                	j	178c <pwm_gpio_init+0x35a>
D:/Desktop/智能车基地/CH32V103_SmartCar_V1.0/4.Demo/Libraries/hefei_libraries/hf_pwm.c:226
            gpio_init(A6, GPO, 0, SPEED_50MHZ|OUT_AF_PP);
    1694:	31800693          	li	a3,792
    1698:	4601                	li	a2,0
    169a:	4585                	li	a1,1
    169c:	4519                	li	a0,6
    169e:	eaaff0ef          	jal	ra,d48 <gpio_init>
D:/Desktop/智能车基地/CH32V103_SmartCar_V1.0/4.Demo/Libraries/hefei_libraries/hf_pwm.c:227
            break;
    16a2:	a0ed                	j	178c <pwm_gpio_init+0x35a>
D:/Desktop/智能车基地/CH32V103_SmartCar_V1.0/4.Demo/Libraries/hefei_libraries/hf_pwm.c:229
            gpio_init(A7, GPO, 0, SPEED_50MHZ|OUT_AF_PP);
    16a4:	31800693          	li	a3,792
    16a8:	4601                	li	a2,0
    16aa:	4585                	li	a1,1
    16ac:	451d                	li	a0,7
    16ae:	e9aff0ef          	jal	ra,d48 <gpio_init>
D:/Desktop/智能车基地/CH32V103_SmartCar_V1.0/4.Demo/Libraries/hefei_libraries/hf_pwm.c:230
            break;
    16b2:	a8e9                	j	178c <pwm_gpio_init+0x35a>
D:/Desktop/智能车基地/CH32V103_SmartCar_V1.0/4.Demo/Libraries/hefei_libraries/hf_pwm.c:232
            gpio_init(B0, GPO, 0, SPEED_50MHZ|OUT_AF_PP);
    16b4:	31800693          	li	a3,792
    16b8:	4601                	li	a2,0
    16ba:	4585                	li	a1,1
    16bc:	02000513          	li	a0,32
    16c0:	e88ff0ef          	jal	ra,d48 <gpio_init>
D:/Desktop/智能车基地/CH32V103_SmartCar_V1.0/4.Demo/Libraries/hefei_libraries/hf_pwm.c:233
            break;
    16c4:	a0e1                	j	178c <pwm_gpio_init+0x35a>
D:/Desktop/智能车基地/CH32V103_SmartCar_V1.0/4.Demo/Libraries/hefei_libraries/hf_pwm.c:235
            gpio_init(B1, GPO, 0, SPEED_50MHZ|OUT_AF_PP);
    16c6:	31800693          	li	a3,792
    16ca:	4601                	li	a2,0
    16cc:	4585                	li	a1,1
    16ce:	02100513          	li	a0,33
    16d2:	e76ff0ef          	jal	ra,d48 <gpio_init>
D:/Desktop/智能车基地/CH32V103_SmartCar_V1.0/4.Demo/Libraries/hefei_libraries/hf_pwm.c:236
            break;
    16d6:	a85d                	j	178c <pwm_gpio_init+0x35a>
D:/Desktop/智能车基地/CH32V103_SmartCar_V1.0/4.Demo/Libraries/hefei_libraries/hf_pwm.c:239
            gpio_init(C6, GPO, 0, SPEED_50MHZ|OUT_AF_PP);
    16d8:	31800693          	li	a3,792
    16dc:	4601                	li	a2,0
    16de:	4585                	li	a1,1
    16e0:	04600513          	li	a0,70
    16e4:	e64ff0ef          	jal	ra,d48 <gpio_init>
D:/Desktop/智能车基地/CH32V103_SmartCar_V1.0/4.Demo/Libraries/hefei_libraries/hf_pwm.c:240
            break;
    16e8:	a055                	j	178c <pwm_gpio_init+0x35a>
D:/Desktop/智能车基地/CH32V103_SmartCar_V1.0/4.Demo/Libraries/hefei_libraries/hf_pwm.c:242
            gpio_init(C7, GPO, 0, SPEED_50MHZ|OUT_AF_PP);
    16ea:	31800693          	li	a3,792
    16ee:	4601                	li	a2,0
    16f0:	4585                	li	a1,1
    16f2:	04700513          	li	a0,71
    16f6:	e52ff0ef          	jal	ra,d48 <gpio_init>
D:/Desktop/智能车基地/CH32V103_SmartCar_V1.0/4.Demo/Libraries/hefei_libraries/hf_pwm.c:243
            break;
    16fa:	a849                	j	178c <pwm_gpio_init+0x35a>
D:/Desktop/智能车基地/CH32V103_SmartCar_V1.0/4.Demo/Libraries/hefei_libraries/hf_pwm.c:245
            gpio_init(C8, GPO, 0, SPEED_50MHZ|OUT_AF_PP);
    16fc:	31800693          	li	a3,792
    1700:	4601                	li	a2,0
    1702:	4585                	li	a1,1
    1704:	04800513          	li	a0,72
    1708:	e40ff0ef          	jal	ra,d48 <gpio_init>
D:/Desktop/智能车基地/CH32V103_SmartCar_V1.0/4.Demo/Libraries/hefei_libraries/hf_pwm.c:246
            break;
    170c:	a041                	j	178c <pwm_gpio_init+0x35a>
D:/Desktop/智能车基地/CH32V103_SmartCar_V1.0/4.Demo/Libraries/hefei_libraries/hf_pwm.c:248
            gpio_init(C9, GPO, 0, SPEED_50MHZ|OUT_AF_PP);
    170e:	31800693          	li	a3,792
    1712:	4601                	li	a2,0
    1714:	4585                	li	a1,1
    1716:	04900513          	li	a0,73
    171a:	e2eff0ef          	jal	ra,d48 <gpio_init>
D:/Desktop/智能车基地/CH32V103_SmartCar_V1.0/4.Demo/Libraries/hefei_libraries/hf_pwm.c:249
            break;
    171e:	a0bd                	j	178c <pwm_gpio_init+0x35a>
D:/Desktop/智能车基地/CH32V103_SmartCar_V1.0/4.Demo/Libraries/hefei_libraries/hf_pwm.c:252
            gpio_init(B4, GPO, 0, SPEED_50MHZ|OUT_AF_PP);
    1720:	31800693          	li	a3,792
    1724:	4601                	li	a2,0
    1726:	4585                	li	a1,1
    1728:	02400513          	li	a0,36
    172c:	e1cff0ef          	jal	ra,d48 <gpio_init>
D:/Desktop/智能车基地/CH32V103_SmartCar_V1.0/4.Demo/Libraries/hefei_libraries/hf_pwm.c:253
            break;
    1730:	a8b1                	j	178c <pwm_gpio_init+0x35a>
D:/Desktop/智能车基地/CH32V103_SmartCar_V1.0/4.Demo/Libraries/hefei_libraries/hf_pwm.c:255
            gpio_init(B5, GPO, 0, SPEED_50MHZ|OUT_AF_PP);
    1732:	31800693          	li	a3,792
    1736:	4601                	li	a2,0
    1738:	4585                	li	a1,1
    173a:	02500513          	li	a0,37
    173e:	e0aff0ef          	jal	ra,d48 <gpio_init>
D:/Desktop/智能车基地/CH32V103_SmartCar_V1.0/4.Demo/Libraries/hefei_libraries/hf_pwm.c:256
            break;
    1742:	a0a9                	j	178c <pwm_gpio_init+0x35a>
D:/Desktop/智能车基地/CH32V103_SmartCar_V1.0/4.Demo/Libraries/hefei_libraries/hf_pwm.c:259
            gpio_init(B6, GPO, 0, SPEED_50MHZ|OUT_AF_PP);
    1744:	31800693          	li	a3,792
    1748:	4601                	li	a2,0
    174a:	4585                	li	a1,1
    174c:	02600513          	li	a0,38
    1750:	df8ff0ef          	jal	ra,d48 <gpio_init>
D:/Desktop/智能车基地/CH32V103_SmartCar_V1.0/4.Demo/Libraries/hefei_libraries/hf_pwm.c:260
            break;
    1754:	a825                	j	178c <pwm_gpio_init+0x35a>
D:/Desktop/智能车基地/CH32V103_SmartCar_V1.0/4.Demo/Libraries/hefei_libraries/hf_pwm.c:262
            gpio_init(B7, GPO, 0, SPEED_50MHZ|OUT_AF_PP);
    1756:	31800693          	li	a3,792
    175a:	4601                	li	a2,0
    175c:	4585                	li	a1,1
    175e:	02700513          	li	a0,39
    1762:	de6ff0ef          	jal	ra,d48 <gpio_init>
D:/Desktop/智能车基地/CH32V103_SmartCar_V1.0/4.Demo/Libraries/hefei_libraries/hf_pwm.c:263
            break;
    1766:	a01d                	j	178c <pwm_gpio_init+0x35a>
D:/Desktop/智能车基地/CH32V103_SmartCar_V1.0/4.Demo/Libraries/hefei_libraries/hf_pwm.c:265
            gpio_init(B8, GPO, 0, SPEED_50MHZ|OUT_AF_PP);
    1768:	31800693          	li	a3,792
    176c:	4601                	li	a2,0
    176e:	4585                	li	a1,1
    1770:	02800513          	li	a0,40
    1774:	dd4ff0ef          	jal	ra,d48 <gpio_init>
D:/Desktop/智能车基地/CH32V103_SmartCar_V1.0/4.Demo/Libraries/hefei_libraries/hf_pwm.c:266
            break;
    1778:	a811                	j	178c <pwm_gpio_init+0x35a>
D:/Desktop/智能车基地/CH32V103_SmartCar_V1.0/4.Demo/Libraries/hefei_libraries/hf_pwm.c:268
            gpio_init(B9, GPO, 0, SPEED_50MHZ|OUT_AF_PP);
    177a:	31800693          	li	a3,792
    177e:	4601                	li	a2,0
    1780:	4585                	li	a1,1
    1782:	02900513          	li	a0,41
    1786:	dc2ff0ef          	jal	ra,d48 <gpio_init>
D:/Desktop/智能车基地/CH32V103_SmartCar_V1.0/4.Demo/Libraries/hefei_libraries/hf_pwm.c:269
            break;
    178a:	0001                	nop
D:/Desktop/智能车基地/CH32V103_SmartCar_V1.0/4.Demo/Libraries/hefei_libraries/hf_pwm.c:274
    }
}
    178c:	0001                	nop
    178e:	40f2                	lw	ra,28(sp)
    1790:	4462                	lw	s0,24(sp)
    1792:	6105                	addi	sp,sp,32
    1794:	8082                	ret

00001796 <timbase_init>:
timbase_init():
D:/Desktop/智能车基地/CH32V103_SmartCar_V1.0/4.Demo/Libraries/hefei_libraries/hf_tim.c:24
//  @return     void
//  Sample usage:           timbase_init(TIMER_2, 71, 0);
//                          //时基初始化为定时器2,频率为1MHz
//-------------------------------------------------------------------------------------------------------------------
void timbase_init(TIMERN_enum TIMER_x, uint16 arr, uint16 pre)
{
    1796:	7179                	addi	sp,sp,-48
    1798:	d606                	sw	ra,44(sp)
    179a:	d422                	sw	s0,40(sp)
    179c:	1800                	addi	s0,sp,48
    179e:	fca42e23          	sw	a0,-36(s0)
    17a2:	87ae                	mv	a5,a1
    17a4:	8732                	mv	a4,a2
    17a6:	fcf41d23          	sh	a5,-38(s0)
    17aa:	87ba                	mv	a5,a4
    17ac:	fcf41c23          	sh	a5,-40(s0)
D:/Desktop/智能车基地/CH32V103_SmartCar_V1.0/4.Demo/Libraries/hefei_libraries/hf_tim.c:27
    TIM_TimeBaseInitTypeDef  TIM_TimeBaseStructure;

    if(TIMER_1 == TIMER_x)
    17b0:	fdc42783          	lw	a5,-36(s0)
    17b4:	eb81                	bnez	a5,17c4 <timbase_init+0x2e>
D:/Desktop/智能车基地/CH32V103_SmartCar_V1.0/4.Demo/Libraries/hefei_libraries/hf_tim.c:28
        RCC_APB2PeriphClockCmd(RCC_APB2Periph_TIM1, ENABLE);                //时钟使能
    17b6:	4585                	li	a1,1
    17b8:	6785                	lui	a5,0x1
    17ba:	80078513          	addi	a0,a5,-2048 # 800 <__stack_size>
    17be:	3f2010ef          	jal	ra,2bb0 <RCC_APB2PeriphClockCmd>
    17c2:	a835                	j	17fe <timbase_init+0x68>
D:/Desktop/智能车基地/CH32V103_SmartCar_V1.0/4.Demo/Libraries/hefei_libraries/hf_tim.c:29
    else if(TIMER_2 == TIMER_x)
    17c4:	fdc42703          	lw	a4,-36(s0)
    17c8:	4785                	li	a5,1
    17ca:	00f71763          	bne	a4,a5,17d8 <timbase_init+0x42>
D:/Desktop/智能车基地/CH32V103_SmartCar_V1.0/4.Demo/Libraries/hefei_libraries/hf_tim.c:30
        RCC_APB1PeriphClockCmd(RCC_APB1Periph_TIM2, ENABLE);                //时钟使能
    17ce:	4585                	li	a1,1
    17d0:	4505                	li	a0,1
    17d2:	424010ef          	jal	ra,2bf6 <RCC_APB1PeriphClockCmd>
    17d6:	a025                	j	17fe <timbase_init+0x68>
D:/Desktop/智能车基地/CH32V103_SmartCar_V1.0/4.Demo/Libraries/hefei_libraries/hf_tim.c:31
    else if(TIMER_3 == TIMER_x)
    17d8:	fdc42703          	lw	a4,-36(s0)
    17dc:	4789                	li	a5,2
    17de:	00f71763          	bne	a4,a5,17ec <timbase_init+0x56>
D:/Desktop/智能车基地/CH32V103_SmartCar_V1.0/4.Demo/Libraries/hefei_libraries/hf_tim.c:32
        RCC_APB1PeriphClockCmd(RCC_APB1Periph_TIM3, ENABLE);                //时钟使能
    17e2:	4585                	li	a1,1
    17e4:	4509                	li	a0,2
    17e6:	410010ef          	jal	ra,2bf6 <RCC_APB1PeriphClockCmd>
    17ea:	a811                	j	17fe <timbase_init+0x68>
D:/Desktop/智能车基地/CH32V103_SmartCar_V1.0/4.Demo/Libraries/hefei_libraries/hf_tim.c:33
    else if(TIMER_4 == TIMER_x)
    17ec:	fdc42703          	lw	a4,-36(s0)
    17f0:	478d                	li	a5,3
    17f2:	00f71663          	bne	a4,a5,17fe <timbase_init+0x68>
D:/Desktop/智能车基地/CH32V103_SmartCar_V1.0/4.Demo/Libraries/hefei_libraries/hf_tim.c:34
        RCC_APB1PeriphClockCmd(RCC_APB1Periph_TIM4, ENABLE);                //时钟使能
    17f6:	4585                	li	a1,1
    17f8:	4511                	li	a0,4
    17fa:	3fc010ef          	jal	ra,2bf6 <RCC_APB1PeriphClockCmd>
D:/Desktop/智能车基地/CH32V103_SmartCar_V1.0/4.Demo/Libraries/hefei_libraries/hf_tim.c:37


    TIM_TimeBaseStructure.TIM_Period = arr;                    //计数44000
    17fe:	fda45783          	lhu	a5,-38(s0)
    1802:	fef41423          	sh	a5,-24(s0)
D:/Desktop/智能车基地/CH32V103_SmartCar_V1.0/4.Demo/Libraries/hefei_libraries/hf_tim.c:38
    TIM_TimeBaseStructure.TIM_Prescaler = pre;                      //设置为1MHZ计数一次,也就是1us计数一次
    1806:	fd845783          	lhu	a5,-40(s0)
    180a:	fef41223          	sh	a5,-28(s0)
D:/Desktop/智能车基地/CH32V103_SmartCar_V1.0/4.Demo/Libraries/hefei_libraries/hf_tim.c:39
    TIM_TimeBaseStructure.TIM_ClockDivision = TIM_CKD_DIV1;                 //设置时钟分割:TDTS = Tck_tim
    180e:	fe041523          	sh	zero,-22(s0)
D:/Desktop/智能车基地/CH32V103_SmartCar_V1.0/4.Demo/Libraries/hefei_libraries/hf_tim.c:40
    TIM_TimeBaseStructure.TIM_CounterMode = TIM_CounterMode_Up;             //TIM向上计数模式
    1812:	fe041323          	sh	zero,-26(s0)
D:/Desktop/智能车基地/CH32V103_SmartCar_V1.0/4.Demo/Libraries/hefei_libraries/hf_tim.c:41
    TIM_TimeBaseStructure.TIM_RepetitionCounter = 0;                        //重复计数器设置为0
    1816:	fe040623          	sb	zero,-20(s0)
D:/Desktop/智能车基地/CH32V103_SmartCar_V1.0/4.Demo/Libraries/hefei_libraries/hf_tim.c:42
    TIM_TimeBaseInit((TIM_TypeDef *)TIMERN[TIMER_x], &TIM_TimeBaseStructure);//根据指定的参数初始化TIMx的时间基数单位
    181a:	6791                	lui	a5,0x4
    181c:	fdc42703          	lw	a4,-36(s0)
    1820:	070a                	slli	a4,a4,0x2
    1822:	b2078793          	addi	a5,a5,-1248 # 3b20 <TIMERN>
    1826:	97ba                	add	a5,a5,a4
    1828:	439c                	lw	a5,0(a5)
    182a:	873e                	mv	a4,a5
    182c:	fe440793          	addi	a5,s0,-28
    1830:	85be                	mv	a1,a5
    1832:	853a                	mv	a0,a4
    1834:	44e010ef          	jal	ra,2c82 <TIM_TimeBaseInit>
D:/Desktop/智能车基地/CH32V103_SmartCar_V1.0/4.Demo/Libraries/hefei_libraries/hf_tim.c:43
}
    1838:	0001                	nop
    183a:	50b2                	lw	ra,44(sp)
    183c:	5422                	lw	s0,40(sp)
    183e:	6145                	addi	sp,sp,48
    1840:	8082                	ret

00001842 <uart_init>:
uart_init():
D:/Desktop/智能车基地/CH32V103_SmartCar_V1.0/4.Demo/Libraries/hefei_libraries/hf_uart.c:25
//  @param      rx_pin      串口接收引脚号
//  @return     void
//  Sample usage:           uart_init(UART_1, 115200, UART1_TX_A9, UART1_RX_A10); //串口1初始化引脚号,TX为A9,RX为A10
//-------------------------------------------------------------------------------------------------------------------
void uart_init(UARTN_enum UART_x, uint32 baud, UARTPIN_enum tx_pin, UARTPIN_enum rx_pin)
{
    1842:	7179                	addi	sp,sp,-48
    1844:	d606                	sw	ra,44(sp)
    1846:	d422                	sw	s0,40(sp)
    1848:	1800                	addi	s0,sp,48
    184a:	fca42e23          	sw	a0,-36(s0)
    184e:	fcb42c23          	sw	a1,-40(s0)
    1852:	fcc42a23          	sw	a2,-44(s0)
    1856:	fcd42823          	sw	a3,-48(s0)
D:/Desktop/智能车基地/CH32V103_SmartCar_V1.0/4.Demo/Libraries/hefei_libraries/hf_uart.c:29
    USART_InitTypeDef USART_InitStructure;

    //串口总线使能
    if(UART_1 == UART_x) RCC_APB2PeriphClockCmd(RCC_APB2Periph_USART1, ENABLE);
    185a:	fdc42783          	lw	a5,-36(s0)
    185e:	e791                	bnez	a5,186a <uart_init+0x28>
D:/Desktop/智能车基地/CH32V103_SmartCar_V1.0/4.Demo/Libraries/hefei_libraries/hf_uart.c:29 (discriminator 1)
    1860:	4585                	li	a1,1
    1862:	6511                	lui	a0,0x4
    1864:	34c010ef          	jal	ra,2bb0 <RCC_APB2PeriphClockCmd>
    1868:	a035                	j	1894 <uart_init+0x52>
D:/Desktop/智能车基地/CH32V103_SmartCar_V1.0/4.Demo/Libraries/hefei_libraries/hf_uart.c:30
    else if(UART_2 == UART_x) RCC_APB1PeriphClockCmd(RCC_APB1Periph_USART2, ENABLE);
    186a:	fdc42703          	lw	a4,-36(s0)
    186e:	4785                	li	a5,1
    1870:	00f71863          	bne	a4,a5,1880 <uart_init+0x3e>
D:/Desktop/智能车基地/CH32V103_SmartCar_V1.0/4.Demo/Libraries/hefei_libraries/hf_uart.c:30 (discriminator 1)
    1874:	4585                	li	a1,1
    1876:	00020537          	lui	a0,0x20
    187a:	37c010ef          	jal	ra,2bf6 <RCC_APB1PeriphClockCmd>
    187e:	a819                	j	1894 <uart_init+0x52>
D:/Desktop/智能车基地/CH32V103_SmartCar_V1.0/4.Demo/Libraries/hefei_libraries/hf_uart.c:31
    else if(UART_3 == UART_x) RCC_APB1PeriphClockCmd(RCC_APB1Periph_USART3, ENABLE);
    1880:	fdc42703          	lw	a4,-36(s0)
    1884:	4789                	li	a5,2
    1886:	00f71763          	bne	a4,a5,1894 <uart_init+0x52>
D:/Desktop/智能车基地/CH32V103_SmartCar_V1.0/4.Demo/Libraries/hefei_libraries/hf_uart.c:31 (discriminator 1)
    188a:	4585                	li	a1,1
    188c:	00040537          	lui	a0,0x40
    1890:	366010ef          	jal	ra,2bf6 <RCC_APB1PeriphClockCmd>
D:/Desktop/智能车基地/CH32V103_SmartCar_V1.0/4.Demo/Libraries/hefei_libraries/hf_uart.c:34

    //引脚初始化
    uart_gpio_init(tx_pin, rx_pin);
    1894:	fd042583          	lw	a1,-48(s0)
    1898:	fd442503          	lw	a0,-44(s0)
    189c:	2085                	jal	18fc <uart_gpio_init>
D:/Desktop/智能车基地/CH32V103_SmartCar_V1.0/4.Demo/Libraries/hefei_libraries/hf_uart.c:37

    //串口参数配置
    USART_InitStructure.USART_BaudRate = baud;
    189e:	fd842783          	lw	a5,-40(s0)
    18a2:	fef42023          	sw	a5,-32(s0)
D:/Desktop/智能车基地/CH32V103_SmartCar_V1.0/4.Demo/Libraries/hefei_libraries/hf_uart.c:38
    USART_InitStructure.USART_WordLength = USART_WordLength_8b;
    18a6:	fe041223          	sh	zero,-28(s0)
D:/Desktop/智能车基地/CH32V103_SmartCar_V1.0/4.Demo/Libraries/hefei_libraries/hf_uart.c:39
    USART_InitStructure.USART_StopBits = USART_StopBits_1;
    18aa:	fe041323          	sh	zero,-26(s0)
D:/Desktop/智能车基地/CH32V103_SmartCar_V1.0/4.Demo/Libraries/hefei_libraries/hf_uart.c:40
    USART_InitStructure.USART_Parity = USART_Parity_No;
    18ae:	fe041423          	sh	zero,-24(s0)
D:/Desktop/智能车基地/CH32V103_SmartCar_V1.0/4.Demo/Libraries/hefei_libraries/hf_uart.c:41
    USART_InitStructure.USART_HardwareFlowControl = USART_HardwareFlowControl_None;
    18b2:	fe041623          	sh	zero,-20(s0)
D:/Desktop/智能车基地/CH32V103_SmartCar_V1.0/4.Demo/Libraries/hefei_libraries/hf_uart.c:42
    USART_InitStructure.USART_Mode = USART_Mode_Tx | USART_Mode_Rx;
    18b6:	47b1                	li	a5,12
    18b8:	fef41523          	sh	a5,-22(s0)
D:/Desktop/智能车基地/CH32V103_SmartCar_V1.0/4.Demo/Libraries/hefei_libraries/hf_uart.c:45

    //使能串口
    USART_Init((USART_TypeDef*)UARTN[UART_x], &USART_InitStructure);
    18bc:	6791                	lui	a5,0x4
    18be:	fdc42703          	lw	a4,-36(s0)
    18c2:	070a                	slli	a4,a4,0x2
    18c4:	b3078793          	addi	a5,a5,-1232 # 3b30 <UARTN>
    18c8:	97ba                	add	a5,a5,a4
    18ca:	439c                	lw	a5,0(a5)
    18cc:	873e                	mv	a4,a5
    18ce:	fe040793          	addi	a5,s0,-32
    18d2:	85be                	mv	a1,a5
    18d4:	853a                	mv	a0,a4
    18d6:	657010ef          	jal	ra,372c <USART_Init>
D:/Desktop/智能车基地/CH32V103_SmartCar_V1.0/4.Demo/Libraries/hefei_libraries/hf_uart.c:46
    USART_Cmd((USART_TypeDef*)UARTN[UART_x], ENABLE);
    18da:	6791                	lui	a5,0x4
    18dc:	fdc42703          	lw	a4,-36(s0)
    18e0:	070a                	slli	a4,a4,0x2
    18e2:	b3078793          	addi	a5,a5,-1232 # 3b30 <UARTN>
    18e6:	97ba                	add	a5,a5,a4
    18e8:	439c                	lw	a5,0(a5)
    18ea:	4585                	li	a1,1
    18ec:	853e                	mv	a0,a5
    18ee:	072020ef          	jal	ra,3960 <USART_Cmd>
D:/Desktop/智能车基地/CH32V103_SmartCar_V1.0/4.Demo/Libraries/hefei_libraries/hf_uart.c:48

}
    18f2:	0001                	nop
    18f4:	50b2                	lw	ra,44(sp)
    18f6:	5422                	lw	s0,40(sp)
    18f8:	6145                	addi	sp,sp,48
    18fa:	8082                	ret

000018fc <uart_gpio_init>:
uart_gpio_init():
D:/Desktop/智能车基地/CH32V103_SmartCar_V1.0/4.Demo/Libraries/hefei_libraries/hf_uart.c:166
//  @param      rx_pin      串口接收引脚号
//  @return     void
//  Sample usage:           内部使用，用户无需关心
//-------------------------------------------------------------------------------------------------------------------
void uart_gpio_init(UARTPIN_enum tx_pin, UARTPIN_enum rx_pin)
{
    18fc:	1101                	addi	sp,sp,-32
    18fe:	ce06                	sw	ra,28(sp)
    1900:	cc22                	sw	s0,24(sp)
    1902:	1000                	addi	s0,sp,32
    1904:	fea42623          	sw	a0,-20(s0)
    1908:	feb42423          	sw	a1,-24(s0)
D:/Desktop/智能车基地/CH32V103_SmartCar_V1.0/4.Demo/Libraries/hefei_libraries/hf_uart.c:167
    if(tx_pin == UART1_TX_A9 && rx_pin == UART1_RX_A10)
    190c:	fec42783          	lw	a5,-20(s0)
    1910:	e785                	bnez	a5,1938 <uart_gpio_init+0x3c>
D:/Desktop/智能车基地/CH32V103_SmartCar_V1.0/4.Demo/Libraries/hefei_libraries/hf_uart.c:167 (discriminator 1)
    1912:	fe842703          	lw	a4,-24(s0)
    1916:	4785                	li	a5,1
    1918:	02f71063          	bne	a4,a5,1938 <uart_gpio_init+0x3c>
D:/Desktop/智能车基地/CH32V103_SmartCar_V1.0/4.Demo/Libraries/hefei_libraries/hf_uart.c:169
    {
        gpio_init(A9, GPO, 0, SPEED_50MHZ|OUT_AF_PP);
    191c:	31800693          	li	a3,792
    1920:	4601                	li	a2,0
    1922:	4585                	li	a1,1
    1924:	4525                	li	a0,9
    1926:	c22ff0ef          	jal	ra,d48 <gpio_init>
D:/Desktop/智能车基地/CH32V103_SmartCar_V1.0/4.Demo/Libraries/hefei_libraries/hf_uart.c:170
        gpio_init(A10, GPI, 0, IN_FLOAT);
    192a:	4691                	li	a3,4
    192c:	4601                	li	a2,0
    192e:	4581                	li	a1,0
    1930:	4529                	li	a0,10
    1932:	c16ff0ef          	jal	ra,d48 <gpio_init>
D:/Desktop/智能车基地/CH32V103_SmartCar_V1.0/4.Demo/Libraries/hefei_libraries/hf_uart.c:195
    else if(tx_pin == UART3_TX_C10)
    {
        gpio_init(C10, GPO, 0, SPEED_50MHZ|OUT_PP);
        gpio_init(C11, GPI, 0, IN_FLOAT);
    }
}
    1936:	a065                	j	19de <uart_gpio_init+0xe2>
D:/Desktop/智能车基地/CH32V103_SmartCar_V1.0/4.Demo/Libraries/hefei_libraries/hf_uart.c:172
    else if(tx_pin == UART1_TX_B6)
    1938:	fec42703          	lw	a4,-20(s0)
    193c:	4789                	li	a5,2
    193e:	02f71263          	bne	a4,a5,1962 <uart_gpio_init+0x66>
D:/Desktop/智能车基地/CH32V103_SmartCar_V1.0/4.Demo/Libraries/hefei_libraries/hf_uart.c:174
        gpio_init(B6, GPO, 0, SPEED_50MHZ|OUT_AF_PP);
    1942:	31800693          	li	a3,792
    1946:	4601                	li	a2,0
    1948:	4585                	li	a1,1
    194a:	02600513          	li	a0,38
    194e:	bfaff0ef          	jal	ra,d48 <gpio_init>
D:/Desktop/智能车基地/CH32V103_SmartCar_V1.0/4.Demo/Libraries/hefei_libraries/hf_uart.c:175
        gpio_init(B7, GPI, 0, IN_FLOAT);
    1952:	4691                	li	a3,4
    1954:	4601                	li	a2,0
    1956:	4581                	li	a1,0
    1958:	02700513          	li	a0,39
    195c:	becff0ef          	jal	ra,d48 <gpio_init>
D:/Desktop/智能车基地/CH32V103_SmartCar_V1.0/4.Demo/Libraries/hefei_libraries/hf_uart.c:195
}
    1960:	a8bd                	j	19de <uart_gpio_init+0xe2>
D:/Desktop/智能车基地/CH32V103_SmartCar_V1.0/4.Demo/Libraries/hefei_libraries/hf_uart.c:178
    else if(tx_pin == UART2_TX_A2)
    1962:	fec42703          	lw	a4,-20(s0)
    1966:	47c1                	li	a5,16
    1968:	02f71063          	bne	a4,a5,1988 <uart_gpio_init+0x8c>
D:/Desktop/智能车基地/CH32V103_SmartCar_V1.0/4.Demo/Libraries/hefei_libraries/hf_uart.c:180
        gpio_init(A2, GPO, 0, SPEED_50MHZ|OUT_AF_PP);
    196c:	31800693          	li	a3,792
    1970:	4601                	li	a2,0
    1972:	4585                	li	a1,1
    1974:	4509                	li	a0,2
    1976:	bd2ff0ef          	jal	ra,d48 <gpio_init>
D:/Desktop/智能车基地/CH32V103_SmartCar_V1.0/4.Demo/Libraries/hefei_libraries/hf_uart.c:181
        gpio_init(A3, GPI, 0, IN_FLOAT);
    197a:	4691                	li	a3,4
    197c:	4601                	li	a2,0
    197e:	4581                	li	a1,0
    1980:	450d                	li	a0,3
    1982:	bc6ff0ef          	jal	ra,d48 <gpio_init>
D:/Desktop/智能车基地/CH32V103_SmartCar_V1.0/4.Demo/Libraries/hefei_libraries/hf_uart.c:195
}
    1986:	a8a1                	j	19de <uart_gpio_init+0xe2>
D:/Desktop/智能车基地/CH32V103_SmartCar_V1.0/4.Demo/Libraries/hefei_libraries/hf_uart.c:184
    else if(tx_pin == UART3_TX_B10)
    1988:	fec42703          	lw	a4,-20(s0)
    198c:	02000793          	li	a5,32
    1990:	02f71263          	bne	a4,a5,19b4 <uart_gpio_init+0xb8>
D:/Desktop/智能车基地/CH32V103_SmartCar_V1.0/4.Demo/Libraries/hefei_libraries/hf_uart.c:186
        gpio_init(B10, GPO, 0, SPEED_50MHZ|OUT_AF_PP);
    1994:	31800693          	li	a3,792
    1998:	4601                	li	a2,0
    199a:	4585                	li	a1,1
    199c:	02a00513          	li	a0,42
    19a0:	ba8ff0ef          	jal	ra,d48 <gpio_init>
D:/Desktop/智能车基地/CH32V103_SmartCar_V1.0/4.Demo/Libraries/hefei_libraries/hf_uart.c:187
        gpio_init(B11, GPI, 0, IN_FLOAT);
    19a4:	4691                	li	a3,4
    19a6:	4601                	li	a2,0
    19a8:	4581                	li	a1,0
    19aa:	02b00513          	li	a0,43
    19ae:	b9aff0ef          	jal	ra,d48 <gpio_init>
D:/Desktop/智能车基地/CH32V103_SmartCar_V1.0/4.Demo/Libraries/hefei_libraries/hf_uart.c:195
}
    19b2:	a035                	j	19de <uart_gpio_init+0xe2>
D:/Desktop/智能车基地/CH32V103_SmartCar_V1.0/4.Demo/Libraries/hefei_libraries/hf_uart.c:190
    else if(tx_pin == UART3_TX_C10)
    19b4:	fec42703          	lw	a4,-20(s0)
    19b8:	02200793          	li	a5,34
    19bc:	02f71163          	bne	a4,a5,19de <uart_gpio_init+0xe2>
D:/Desktop/智能车基地/CH32V103_SmartCar_V1.0/4.Demo/Libraries/hefei_libraries/hf_uart.c:192
        gpio_init(C10, GPO, 0, SPEED_50MHZ|OUT_PP);
    19c0:	31000693          	li	a3,784
    19c4:	4601                	li	a2,0
    19c6:	4585                	li	a1,1
    19c8:	04a00513          	li	a0,74
    19cc:	b7cff0ef          	jal	ra,d48 <gpio_init>
D:/Desktop/智能车基地/CH32V103_SmartCar_V1.0/4.Demo/Libraries/hefei_libraries/hf_uart.c:193
        gpio_init(C11, GPI, 0, IN_FLOAT);
    19d0:	4691                	li	a3,4
    19d2:	4601                	li	a2,0
    19d4:	4581                	li	a1,0
    19d6:	04b00513          	li	a0,75
    19da:	b6eff0ef          	jal	ra,d48 <gpio_init>
D:/Desktop/智能车基地/CH32V103_SmartCar_V1.0/4.Demo/Libraries/hefei_libraries/hf_uart.c:195
}
    19de:	0001                	nop
    19e0:	40f2                	lw	ra,28(sp)
    19e2:	4462                	lw	s0,24(sp)
    19e4:	6105                	addi	sp,sp,32
    19e6:	8082                	ret

000019e8 <board_led_init>:
board_led_init():
D:/Desktop/智能车基地/CH32V103_SmartCar_V1.0/4.Demo/02-Car_Light/CODE/board_led.c:18
// @param        led_num            选择LED：LEDx(x = 1.2)
// @return       void
// Sample usage:       board_led_init(LED1);//板载LED1初始化
//-------------------------------------------------------------------------------------------------------------------
void board_led_init(unsigned char led_num)
{
    19e8:	1101                	addi	sp,sp,-32
    19ea:	ce06                	sw	ra,28(sp)
    19ec:	cc22                	sw	s0,24(sp)
    19ee:	1000                	addi	s0,sp,32
    19f0:	87aa                	mv	a5,a0
    19f2:	fef407a3          	sb	a5,-17(s0)
D:/Desktop/智能车基地/CH32V103_SmartCar_V1.0/4.Demo/02-Car_Light/CODE/board_led.c:19
    if(led_num == LED1)
    19f6:	fef44703          	lbu	a4,-17(s0)
    19fa:	4785                	li	a5,1
    19fc:	00f71a63          	bne	a4,a5,1a10 <board_led_init+0x28>
D:/Desktop/智能车基地/CH32V103_SmartCar_V1.0/4.Demo/02-Car_Light/CODE/board_led.c:21
    {
        gpio_init(LED1_PIN, GPO, 1, SPEED_50MHZ|LED1_MODE);
    1a00:	31000693          	li	a3,784
    1a04:	4605                	li	a2,1
    1a06:	4585                	li	a1,1
    1a08:	04700513          	li	a0,71
    1a0c:	b3cff0ef          	jal	ra,d48 <gpio_init>
D:/Desktop/智能车基地/CH32V103_SmartCar_V1.0/4.Demo/02-Car_Light/CODE/board_led.c:23
    }
    if(led_num == LED2)
    1a10:	fef44703          	lbu	a4,-17(s0)
    1a14:	4789                	li	a5,2
    1a16:	00f71a63          	bne	a4,a5,1a2a <board_led_init+0x42>
D:/Desktop/智能车基地/CH32V103_SmartCar_V1.0/4.Demo/02-Car_Light/CODE/board_led.c:25
    {
        gpio_init(LED2_PIN, GPO, 1, SPEED_50MHZ|LED2_MODE);
    1a1a:	31000693          	li	a3,784
    1a1e:	4605                	li	a2,1
    1a20:	4585                	li	a1,1
    1a22:	04600513          	li	a0,70
    1a26:	b22ff0ef          	jal	ra,d48 <gpio_init>
D:/Desktop/智能车基地/CH32V103_SmartCar_V1.0/4.Demo/02-Car_Light/CODE/board_led.c:27
    }
}
    1a2a:	0001                	nop
    1a2c:	40f2                	lw	ra,28(sp)
    1a2e:	4462                	lw	s0,24(sp)
    1a30:	6105                	addi	sp,sp,32
    1a32:	8082                	ret

00001a34 <key_init>:
key_init():
D:/Desktop/智能车基地/CH32V103_SmartCar_V1.0/4.Demo/02-Car_Light/CODE/car_4keys.c:18
// @param        key_num            选择按键：Kx(x = 1, 2, 3, 4)
// @return       void
// Sample usage:       key_init(K1);//按键初始化
//-------------------------------------------------------------------------------------------------------------------
void key_init(unsigned char key_num)
{
    1a34:	1101                	addi	sp,sp,-32
    1a36:	ce06                	sw	ra,28(sp)
    1a38:	cc22                	sw	s0,24(sp)
    1a3a:	1000                	addi	s0,sp,32
    1a3c:	87aa                	mv	a5,a0
    1a3e:	fef407a3          	sb	a5,-17(s0)
D:/Desktop/智能车基地/CH32V103_SmartCar_V1.0/4.Demo/02-Car_Light/CODE/car_4keys.c:19
    if(key_num == K1)
    1a42:	fef44703          	lbu	a4,-17(s0)
    1a46:	4789                	li	a5,2
    1a48:	00f71a63          	bne	a4,a5,1a5c <key_init+0x28>
D:/Desktop/智能车基地/CH32V103_SmartCar_V1.0/4.Demo/02-Car_Light/CODE/car_4keys.c:21
    {
        gpio_init(K1_PIN, GPI, 1, SPEED_50MHZ|K1_MODE);
    1a4c:	34800693          	li	a3,840
    1a50:	4605                	li	a2,1
    1a52:	4581                	li	a1,0
    1a54:	02c00513          	li	a0,44
    1a58:	af0ff0ef          	jal	ra,d48 <gpio_init>
D:/Desktop/智能车基地/CH32V103_SmartCar_V1.0/4.Demo/02-Car_Light/CODE/car_4keys.c:23
    }
    if(key_num == K2)
    1a5c:	fef44703          	lbu	a4,-17(s0)
    1a60:	478d                	li	a5,3
    1a62:	00f71a63          	bne	a4,a5,1a76 <key_init+0x42>
D:/Desktop/智能车基地/CH32V103_SmartCar_V1.0/4.Demo/02-Car_Light/CODE/car_4keys.c:25
    {
        gpio_init(K2_PIN, GPI, 1, SPEED_50MHZ|K2_MODE);
    1a66:	34800693          	li	a3,840
    1a6a:	4605                	li	a2,1
    1a6c:	4581                	li	a1,0
    1a6e:	02d00513          	li	a0,45
    1a72:	ad6ff0ef          	jal	ra,d48 <gpio_init>
D:/Desktop/智能车基地/CH32V103_SmartCar_V1.0/4.Demo/02-Car_Light/CODE/car_4keys.c:27
    }
    if(key_num == K3)
    1a76:	fef44703          	lbu	a4,-17(s0)
    1a7a:	4791                	li	a5,4
    1a7c:	00f71a63          	bne	a4,a5,1a90 <key_init+0x5c>
D:/Desktop/智能车基地/CH32V103_SmartCar_V1.0/4.Demo/02-Car_Light/CODE/car_4keys.c:29
    {
        gpio_init(K3_PIN, GPI, 1, SPEED_50MHZ|K3_MODE);
    1a80:	34800693          	li	a3,840
    1a84:	4605                	li	a2,1
    1a86:	4581                	li	a1,0
    1a88:	02e00513          	li	a0,46
    1a8c:	abcff0ef          	jal	ra,d48 <gpio_init>
D:/Desktop/智能车基地/CH32V103_SmartCar_V1.0/4.Demo/02-Car_Light/CODE/car_4keys.c:31
    }
    if(key_num == K4)
    1a90:	fef44703          	lbu	a4,-17(s0)
    1a94:	4795                	li	a5,5
    1a96:	00f71a63          	bne	a4,a5,1aaa <key_init+0x76>
D:/Desktop/智能车基地/CH32V103_SmartCar_V1.0/4.Demo/02-Car_Light/CODE/car_4keys.c:33
    {
        gpio_init(K4_PIN, GPI, 1, SPEED_50MHZ|K4_MODE);
    1a9a:	34800693          	li	a3,840
    1a9e:	4605                	li	a2,1
    1aa0:	4581                	li	a1,0
    1aa2:	02f00513          	li	a0,47
    1aa6:	aa2ff0ef          	jal	ra,d48 <gpio_init>
D:/Desktop/智能车基地/CH32V103_SmartCar_V1.0/4.Demo/02-Car_Light/CODE/car_4keys.c:35
    }
}
    1aaa:	0001                	nop
    1aac:	40f2                	lw	ra,28(sp)
    1aae:	4462                	lw	s0,24(sp)
    1ab0:	6105                	addi	sp,sp,32
    1ab2:	8082                	ret

00001ab4 <adc_channel_init>:
adc_channel_init():
D:/Desktop/智能车基地/CH32V103_SmartCar_V1.0/4.Demo/02-Car_Light/CODE/car_adc.c:18
// @param        adc_ch            选择ADC通道：ADC_CH_x(x = 1,2,3)
// @return       void
// Sample usage:       adc_channel_init(ADC_CH_1);//初始化ADC通道1
//-------------------------------------------------------------------------------------------------------------------
void adc_channel_init(uint32_t adc_ch)
{
    1ab4:	1101                	addi	sp,sp,-32
    1ab6:	ce06                	sw	ra,28(sp)
    1ab8:	cc22                	sw	s0,24(sp)
    1aba:	1000                	addi	s0,sp,32
    1abc:	fea42623          	sw	a0,-20(s0)
D:/Desktop/智能车基地/CH32V103_SmartCar_V1.0/4.Demo/02-Car_Light/CODE/car_adc.c:19
    adc_init(adc_ch);
    1ac0:	fec42503          	lw	a0,-20(s0)
    1ac4:	83aff0ef          	jal	ra,afe <adc_init>
D:/Desktop/智能车基地/CH32V103_SmartCar_V1.0/4.Demo/02-Car_Light/CODE/car_adc.c:20
}
    1ac8:	0001                	nop
    1aca:	40f2                	lw	ra,28(sp)
    1acc:	4462                	lw	s0,24(sp)
    1ace:	6105                	addi	sp,sp,32
    1ad0:	8082                	ret

00001ad2 <buzzer_init>:
buzzer_init():
D:/Desktop/智能车基地/CH32V103_SmartCar_V1.0/4.Demo/02-Car_Light/CODE/car_buzzer.c:20
//@return       void
//Sample usage:        buzzer_init();
//                     //buzzer初始化
//-------------------------------------------------------------------------------------------------------------------
void buzzer_init(void)
{
    1ad2:	1141                	addi	sp,sp,-16
    1ad4:	c606                	sw	ra,12(sp)
    1ad6:	c422                	sw	s0,8(sp)
    1ad8:	0800                	addi	s0,sp,16
D:/Desktop/智能车基地/CH32V103_SmartCar_V1.0/4.Demo/02-Car_Light/CODE/car_buzzer.c:21
    pwm_init(PWMCH, FREQ_DIV, 0, TIM_OCPreload_Disable);
    1ada:	4681                	li	a3,0
    1adc:	4601                	li	a2,0
    1ade:	45b9                	li	a1,14
    1ae0:	450d                	li	a0,3
    1ae2:	d36ff0ef          	jal	ra,1018 <pwm_init>
D:/Desktop/智能车基地/CH32V103_SmartCar_V1.0/4.Demo/02-Car_Light/CODE/car_buzzer.c:22
}
    1ae6:	0001                	nop
    1ae8:	40b2                	lw	ra,12(sp)
    1aea:	4422                	lw	s0,8(sp)
    1aec:	0141                	addi	sp,sp,16
    1aee:	8082                	ret

00001af0 <buzzer_freq>:
buzzer_freq():
D:/Desktop/智能车基地/CH32V103_SmartCar_V1.0/4.Demo/02-Car_Light/CODE/car_buzzer.c:32
//@return       
//Sample usage:        buzzer_freq(400);    //设置buzzer频率为400Hz
                       //频率计算公式：buzzer频率 = PWM信号频率 = 时钟频率（72MHz） / 预分频值 / 自动重装载值
//-------------------------------------------------------------------------------------------------------------------
void buzzer_freq(unsigned int freq)
{
    1af0:	1101                	addi	sp,sp,-32
    1af2:	ce06                	sw	ra,28(sp)
    1af4:	cc22                	sw	s0,24(sp)
    1af6:	1000                	addi	s0,sp,32
    1af8:	fea42623          	sw	a0,-20(s0)
D:/Desktop/智能车基地/CH32V103_SmartCar_V1.0/4.Demo/02-Car_Light/CODE/car_buzzer.c:33
    pwm_freq(PWMCH, freq);
    1afc:	fec42583          	lw	a1,-20(s0)
    1b00:	450d                	li	a0,3
    1b02:	8a3ff0ef          	jal	ra,13a4 <pwm_freq>
D:/Desktop/智能车基地/CH32V103_SmartCar_V1.0/4.Demo/02-Car_Light/CODE/car_buzzer.c:34
}
    1b06:	0001                	nop
    1b08:	40f2                	lw	ra,28(sp)
    1b0a:	4462                	lw	s0,24(sp)
    1b0c:	6105                	addi	sp,sp,32
    1b0e:	8082                	ret

00001b10 <car_init>:
car_init():
D:/Desktop/智能车基地/CH32V103_SmartCar_V1.0/4.Demo/02-Car_Light/CODE/car_init.c:20
// Sample usage:        car_init(); 
                        //智能车初始化
//-------------------------------------------------------------------------------------------------------------------

void car_init()
{
    1b10:	1141                	addi	sp,sp,-16
    1b12:	c606                	sw	ra,12(sp)
    1b14:	c422                	sw	s0,8(sp)
    1b16:	0800                	addi	s0,sp,16
D:/Desktop/智能车基地/CH32V103_SmartCar_V1.0/4.Demo/02-Car_Light/CODE/car_init.c:21
    DisableGlobalIRQ();                                         //默认关所有中断
    1b18:	c52ff0ef          	jal	ra,f6a <DisableGlobalIRQ>
D:/Desktop/智能车基地/CH32V103_SmartCar_V1.0/4.Demo/02-Car_Light/CODE/car_init.c:22
    uart_init(UART_1, 115200U, UART1_TX_A9, UART1_RX_A10);      //配置TYPE-C串行通信接口，用于printf打印数据
    1b1c:	4685                	li	a3,1
    1b1e:	4601                	li	a2,0
    1b20:	67f1                	lui	a5,0x1c
    1b22:	20078593          	addi	a1,a5,512 # 1c200 <_data_lma+0x186c0>
    1b26:	4501                	li	a0,0
    1b28:	3b29                	jal	1842 <uart_init>
D:/Desktop/智能车基地/CH32V103_SmartCar_V1.0/4.Demo/02-Car_Light/CODE/car_init.c:23
    board_init();                                               //务必保留，本函数用于初始化MPU,时钟/调试串口
    1b2a:	cc3fe0ef          	jal	ra,7ec <board_init>
D:/Desktop/智能车基地/CH32V103_SmartCar_V1.0/4.Demo/02-Car_Light/CODE/car_init.c:24
    Delay_Init();
    1b2e:	ec3fe0ef          	jal	ra,9f0 <Delay_Init>
D:/Desktop/智能车基地/CH32V103_SmartCar_V1.0/4.Demo/02-Car_Light/CODE/car_init.c:27

    /* 初始化电机 */
    l9110s_init(left);
    1b32:	4501                	li	a0,0
    1b34:	89dfe0ef          	jal	ra,3d0 <l9110s_init>
D:/Desktop/智能车基地/CH32V103_SmartCar_V1.0/4.Demo/02-Car_Light/CODE/car_init.c:28
    l9110s_init(right);
    1b38:	4505                	li	a0,1
    1b3a:	897fe0ef          	jal	ra,3d0 <l9110s_init>
D:/Desktop/智能车基地/CH32V103_SmartCar_V1.0/4.Demo/02-Car_Light/CODE/car_init.c:31

    /* 初始化按键 */
    key_init(K1);
    1b3e:	4509                	li	a0,2
    1b40:	3dd5                	jal	1a34 <key_init>
D:/Desktop/智能车基地/CH32V103_SmartCar_V1.0/4.Demo/02-Car_Light/CODE/car_init.c:32
    key_init(K2);
    1b42:	450d                	li	a0,3
    1b44:	3dc5                	jal	1a34 <key_init>
D:/Desktop/智能车基地/CH32V103_SmartCar_V1.0/4.Demo/02-Car_Light/CODE/car_init.c:33
    key_init(K3);
    1b46:	4511                	li	a0,4
    1b48:	35f5                	jal	1a34 <key_init>
D:/Desktop/智能车基地/CH32V103_SmartCar_V1.0/4.Demo/02-Car_Light/CODE/car_init.c:34
    key_init(K4);
    1b4a:	4515                	li	a0,5
    1b4c:	35e5                	jal	1a34 <key_init>
D:/Desktop/智能车基地/CH32V103_SmartCar_V1.0/4.Demo/02-Car_Light/CODE/car_init.c:37

    /* 初始化ADC */
    adc_channel_init(ADC_CH_1);
    1b4e:	453d                	li	a0,15
    1b50:	3795                	jal	1ab4 <adc_channel_init>
D:/Desktop/智能车基地/CH32V103_SmartCar_V1.0/4.Demo/02-Car_Light/CODE/car_init.c:38
    adc_channel_init(ADC_CH_2);
    1b52:	4539                	li	a0,14
    1b54:	3785                	jal	1ab4 <adc_channel_init>
D:/Desktop/智能车基地/CH32V103_SmartCar_V1.0/4.Demo/02-Car_Light/CODE/car_init.c:39
    adc_channel_init(ADC_CH_3);
    1b56:	452d                	li	a0,11
    1b58:	3fb1                	jal	1ab4 <adc_channel_init>
D:/Desktop/智能车基地/CH32V103_SmartCar_V1.0/4.Demo/02-Car_Light/CODE/car_init.c:42

    /* 初始化板载LED */
    board_led_init(LED1);
    1b5a:	4505                	li	a0,1
    1b5c:	3571                	jal	19e8 <board_led_init>
D:/Desktop/智能车基地/CH32V103_SmartCar_V1.0/4.Demo/02-Car_Light/CODE/car_init.c:43
    board_led_init(LED2);
    1b5e:	4509                	li	a0,2
    1b60:	3561                	jal	19e8 <board_led_init>
D:/Desktop/智能车基地/CH32V103_SmartCar_V1.0/4.Demo/02-Car_Light/CODE/car_init.c:46

    /* 初始化蜂鸣器 */
    buzzer_init();
    1b62:	3f85                	jal	1ad2 <buzzer_init>
D:/Desktop/智能车基地/CH32V103_SmartCar_V1.0/4.Demo/02-Car_Light/CODE/car_init.c:47
    buzzer_freq(2000);
    1b64:	7d000513          	li	a0,2000
    1b68:	3761                	jal	1af0 <buzzer_freq>
D:/Desktop/智能车基地/CH32V103_SmartCar_V1.0/4.Demo/02-Car_Light/CODE/car_init.c:50

    /* 初始化RGB引脚 */
    ws2812b_init();
    1b6a:	b3ffe0ef          	jal	ra,6a8 <ws2812b_init>
D:/Desktop/智能车基地/CH32V103_SmartCar_V1.0/4.Demo/02-Car_Light/CODE/car_init.c:53

    /* 初始化干簧管板引脚 */
    reed_init();
    1b6e:	069000ef          	jal	ra,23d6 <reed_init>
D:/Desktop/智能车基地/CH32V103_SmartCar_V1.0/4.Demo/02-Car_Light/CODE/car_init.c:56

    /* 初始化数码管  */
    tm1637_init();
    1b72:	983fe0ef          	jal	ra,4f4 <tm1637_init>
D:/Desktop/智能车基地/CH32V103_SmartCar_V1.0/4.Demo/02-Car_Light/CODE/car_init.c:57
    tm1637_command(0x8f);
    1b76:	08f00513          	li	a0,143
    1b7a:	b09fe0ef          	jal	ra,682 <tm1637_command>
D:/Desktop/智能车基地/CH32V103_SmartCar_V1.0/4.Demo/02-Car_Light/CODE/car_init.c:60

    /* 初始化中断 */
    int_init();
    1b7e:	2809                	jal	1b90 <int_init>
D:/Desktop/智能车基地/CH32V103_SmartCar_V1.0/4.Demo/02-Car_Light/CODE/car_init.c:63

    /* 总中断最后开启 */
    EnableGlobalIRQ(0);
    1b80:	4501                	li	a0,0
    1b82:	c24ff0ef          	jal	ra,fa6 <EnableGlobalIRQ>
D:/Desktop/智能车基地/CH32V103_SmartCar_V1.0/4.Demo/02-Car_Light/CODE/car_init.c:64
}	
    1b86:	0001                	nop
    1b88:	40b2                	lw	ra,12(sp)
    1b8a:	4422                	lw	s0,8(sp)
    1b8c:	0141                	addi	sp,sp,16
    1b8e:	8082                	ret

00001b90 <int_init>:
int_init():
D:/Desktop/智能车基地/CH32V103_SmartCar_V1.0/4.Demo/02-Car_Light/CODE/car_init.c:73
// @param        void
// @return       void
// Sample usage:        int_init();//中断初始化
//-------------------------------------------------------------------------------------------------------------------
void int_init(void)
{
    1b90:	1141                	addi	sp,sp,-16
    1b92:	c622                	sw	s0,12(sp)
    1b94:	0800                	addi	s0,sp,16
D:/Desktop/智能车基地/CH32V103_SmartCar_V1.0/4.Demo/02-Car_Light/CODE/car_init.c:75
    ;
}
    1b96:	0001                	nop
    1b98:	4432                	lw	s0,12(sp)
    1b9a:	0141                	addi	sp,sp,16
    1b9c:	8082                	ret

00001b9e <car_both_rgb_on>:
car_both_rgb_on():
D:/Desktop/智能车基地/CH32V103_SmartCar_V1.0/4.Demo/02-Car_Light/CODE/car_light.c:19
// @param        time           延时时间(ms)
// @return       void
// Sample usage:        car_both_rgb_on(red, 1000);//尾灯同时显示红色，延时1s
//-------------------------------------------------------------------------------------------------------------------
void car_both_rgb_on(rgb_color color, uint16_t time)
{
    1b9e:	1101                	addi	sp,sp,-32
    1ba0:	ce06                	sw	ra,28(sp)
    1ba2:	cc22                	sw	s0,24(sp)
    1ba4:	1000                	addi	s0,sp,32
    1ba6:	fea42623          	sw	a0,-20(s0)
    1baa:	87ae                	mv	a5,a1
    1bac:	fef41523          	sh	a5,-22(s0)
D:/Desktop/智能车基地/CH32V103_SmartCar_V1.0/4.Demo/02-Car_Light/CODE/car_light.c:20
    if(color == red)
    1bb0:	fec42783          	lw	a5,-20(s0)
    1bb4:	ef99                	bnez	a5,1bd2 <car_both_rgb_on+0x34>
D:/Desktop/智能车基地/CH32V103_SmartCar_V1.0/4.Demo/02-Car_Light/CODE/car_light.c:22
    {
        ws2812b_write(rgb_red);
    1bb6:	80c18513          	addi	a0,gp,-2036 # 2000001c <rgb_red>
    1bba:	b41fe0ef          	jal	ra,6fa <ws2812b_write>
D:/Desktop/智能车基地/CH32V103_SmartCar_V1.0/4.Demo/02-Car_Light/CODE/car_light.c:23
        ws2812b_write(rgb_red);
    1bbe:	80c18513          	addi	a0,gp,-2036 # 2000001c <rgb_red>
    1bc2:	b39fe0ef          	jal	ra,6fa <ws2812b_write>
D:/Desktop/智能车基地/CH32V103_SmartCar_V1.0/4.Demo/02-Car_Light/CODE/car_light.c:24
        Delay_Ms(time);
    1bc6:	fea45783          	lhu	a5,-22(s0)
    1bca:	853e                	mv	a0,a5
    1bcc:	ecdfe0ef          	jal	ra,a98 <Delay_Ms>
D:/Desktop/智能车基地/CH32V103_SmartCar_V1.0/4.Demo/02-Car_Light/CODE/car_light.c:68
    {
        ws2812b_write(rgb_user_define);
        ws2812b_write(rgb_user_define);
        Delay_Ms(time);
    }
}
    1bd0:	aa01                	j	1ce0 <car_both_rgb_on+0x142>
D:/Desktop/智能车基地/CH32V103_SmartCar_V1.0/4.Demo/02-Car_Light/CODE/car_light.c:26
    else if(color == yellow)
    1bd2:	fec42703          	lw	a4,-20(s0)
    1bd6:	4785                	li	a5,1
    1bd8:	02f71063          	bne	a4,a5,1bf8 <car_both_rgb_on+0x5a>
D:/Desktop/智能车基地/CH32V103_SmartCar_V1.0/4.Demo/02-Car_Light/CODE/car_light.c:28
        ws2812b_write(rgb_yellow);
    1bdc:	81418513          	addi	a0,gp,-2028 # 20000024 <rgb_yellow>
    1be0:	b1bfe0ef          	jal	ra,6fa <ws2812b_write>
D:/Desktop/智能车基地/CH32V103_SmartCar_V1.0/4.Demo/02-Car_Light/CODE/car_light.c:29
        ws2812b_write(rgb_yellow);
    1be4:	81418513          	addi	a0,gp,-2028 # 20000024 <rgb_yellow>
    1be8:	b13fe0ef          	jal	ra,6fa <ws2812b_write>
D:/Desktop/智能车基地/CH32V103_SmartCar_V1.0/4.Demo/02-Car_Light/CODE/car_light.c:30
        Delay_Ms(time);
    1bec:	fea45783          	lhu	a5,-22(s0)
    1bf0:	853e                	mv	a0,a5
    1bf2:	ea7fe0ef          	jal	ra,a98 <Delay_Ms>
D:/Desktop/智能车基地/CH32V103_SmartCar_V1.0/4.Demo/02-Car_Light/CODE/car_light.c:68
}
    1bf6:	a0ed                	j	1ce0 <car_both_rgb_on+0x142>
D:/Desktop/智能车基地/CH32V103_SmartCar_V1.0/4.Demo/02-Car_Light/CODE/car_light.c:32
    else if(color == white)
    1bf8:	fec42703          	lw	a4,-20(s0)
    1bfc:	4789                	li	a5,2
    1bfe:	02f71063          	bne	a4,a5,1c1e <car_both_rgb_on+0x80>
D:/Desktop/智能车基地/CH32V103_SmartCar_V1.0/4.Demo/02-Car_Light/CODE/car_light.c:34
        ws2812b_write(rgb_white);
    1c02:	81818513          	addi	a0,gp,-2024 # 20000028 <rgb_white>
    1c06:	af5fe0ef          	jal	ra,6fa <ws2812b_write>
D:/Desktop/智能车基地/CH32V103_SmartCar_V1.0/4.Demo/02-Car_Light/CODE/car_light.c:35
        ws2812b_write(rgb_white);
    1c0a:	81818513          	addi	a0,gp,-2024 # 20000028 <rgb_white>
    1c0e:	aedfe0ef          	jal	ra,6fa <ws2812b_write>
D:/Desktop/智能车基地/CH32V103_SmartCar_V1.0/4.Demo/02-Car_Light/CODE/car_light.c:36
        Delay_Ms(time);
    1c12:	fea45783          	lhu	a5,-22(s0)
    1c16:	853e                	mv	a0,a5
    1c18:	e81fe0ef          	jal	ra,a98 <Delay_Ms>
D:/Desktop/智能车基地/CH32V103_SmartCar_V1.0/4.Demo/02-Car_Light/CODE/car_light.c:68
}
    1c1c:	a0d1                	j	1ce0 <car_both_rgb_on+0x142>
D:/Desktop/智能车基地/CH32V103_SmartCar_V1.0/4.Demo/02-Car_Light/CODE/car_light.c:38
    else if(color == blue)
    1c1e:	fec42703          	lw	a4,-20(s0)
    1c22:	4791                	li	a5,4
    1c24:	02f71463          	bne	a4,a5,1c4c <car_both_rgb_on+0xae>
D:/Desktop/智能车基地/CH32V103_SmartCar_V1.0/4.Demo/02-Car_Light/CODE/car_light.c:40
        ws2812b_write(rgb_blue);
    1c28:	200007b7          	lui	a5,0x20000
    1c2c:	01078513          	addi	a0,a5,16 # 20000010 <rgb_blue>
    1c30:	acbfe0ef          	jal	ra,6fa <ws2812b_write>
D:/Desktop/智能车基地/CH32V103_SmartCar_V1.0/4.Demo/02-Car_Light/CODE/car_light.c:41
        ws2812b_write(rgb_blue);
    1c34:	200007b7          	lui	a5,0x20000
    1c38:	01078513          	addi	a0,a5,16 # 20000010 <rgb_blue>
    1c3c:	abffe0ef          	jal	ra,6fa <ws2812b_write>
D:/Desktop/智能车基地/CH32V103_SmartCar_V1.0/4.Demo/02-Car_Light/CODE/car_light.c:42
        Delay_Ms(time);
    1c40:	fea45783          	lhu	a5,-22(s0)
    1c44:	853e                	mv	a0,a5
    1c46:	e53fe0ef          	jal	ra,a98 <Delay_Ms>
D:/Desktop/智能车基地/CH32V103_SmartCar_V1.0/4.Demo/02-Car_Light/CODE/car_light.c:68
}
    1c4a:	a859                	j	1ce0 <car_both_rgb_on+0x142>
D:/Desktop/智能车基地/CH32V103_SmartCar_V1.0/4.Demo/02-Car_Light/CODE/car_light.c:44
    else if(color == green)
    1c4c:	fec42703          	lw	a4,-20(s0)
    1c50:	478d                	li	a5,3
    1c52:	02f71463          	bne	a4,a5,1c7a <car_both_rgb_on+0xdc>
D:/Desktop/智能车基地/CH32V103_SmartCar_V1.0/4.Demo/02-Car_Light/CODE/car_light.c:46
        ws2812b_write(rgb_green);
    1c56:	200007b7          	lui	a5,0x20000
    1c5a:	01478513          	addi	a0,a5,20 # 20000014 <rgb_green>
    1c5e:	a9dfe0ef          	jal	ra,6fa <ws2812b_write>
D:/Desktop/智能车基地/CH32V103_SmartCar_V1.0/4.Demo/02-Car_Light/CODE/car_light.c:47
        ws2812b_write(rgb_green);
    1c62:	200007b7          	lui	a5,0x20000
    1c66:	01478513          	addi	a0,a5,20 # 20000014 <rgb_green>
    1c6a:	a91fe0ef          	jal	ra,6fa <ws2812b_write>
D:/Desktop/智能车基地/CH32V103_SmartCar_V1.0/4.Demo/02-Car_Light/CODE/car_light.c:48
        Delay_Ms(time);
    1c6e:	fea45783          	lhu	a5,-22(s0)
    1c72:	853e                	mv	a0,a5
    1c74:	e25fe0ef          	jal	ra,a98 <Delay_Ms>
D:/Desktop/智能车基地/CH32V103_SmartCar_V1.0/4.Demo/02-Car_Light/CODE/car_light.c:68
}
    1c78:	a0a5                	j	1ce0 <car_both_rgb_on+0x142>
D:/Desktop/智能车基地/CH32V103_SmartCar_V1.0/4.Demo/02-Car_Light/CODE/car_light.c:50
    else if(color == cyan)
    1c7a:	fec42703          	lw	a4,-20(s0)
    1c7e:	4795                	li	a5,5
    1c80:	02f71063          	bne	a4,a5,1ca0 <car_both_rgb_on+0x102>
D:/Desktop/智能车基地/CH32V103_SmartCar_V1.0/4.Demo/02-Car_Light/CODE/car_light.c:52
        ws2812b_write(rgb_cyan);
    1c84:	80818513          	addi	a0,gp,-2040 # 20000018 <rgb_cyan>
    1c88:	a73fe0ef          	jal	ra,6fa <ws2812b_write>
D:/Desktop/智能车基地/CH32V103_SmartCar_V1.0/4.Demo/02-Car_Light/CODE/car_light.c:53
        ws2812b_write(rgb_cyan);
    1c8c:	80818513          	addi	a0,gp,-2040 # 20000018 <rgb_cyan>
    1c90:	a6bfe0ef          	jal	ra,6fa <ws2812b_write>
D:/Desktop/智能车基地/CH32V103_SmartCar_V1.0/4.Demo/02-Car_Light/CODE/car_light.c:54
        Delay_Ms(time);
    1c94:	fea45783          	lhu	a5,-22(s0)
    1c98:	853e                	mv	a0,a5
    1c9a:	dfffe0ef          	jal	ra,a98 <Delay_Ms>
D:/Desktop/智能车基地/CH32V103_SmartCar_V1.0/4.Demo/02-Car_Light/CODE/car_light.c:68
}
    1c9e:	a089                	j	1ce0 <car_both_rgb_on+0x142>
D:/Desktop/智能车基地/CH32V103_SmartCar_V1.0/4.Demo/02-Car_Light/CODE/car_light.c:56
    else if(color == purple)
    1ca0:	fec42703          	lw	a4,-20(s0)
    1ca4:	4799                	li	a5,6
    1ca6:	02f71063          	bne	a4,a5,1cc6 <car_both_rgb_on+0x128>
D:/Desktop/智能车基地/CH32V103_SmartCar_V1.0/4.Demo/02-Car_Light/CODE/car_light.c:58
        ws2812b_write(rgb_purple);
    1caa:	81018513          	addi	a0,gp,-2032 # 20000020 <rgb_purple>
    1cae:	a4dfe0ef          	jal	ra,6fa <ws2812b_write>
D:/Desktop/智能车基地/CH32V103_SmartCar_V1.0/4.Demo/02-Car_Light/CODE/car_light.c:59
        ws2812b_write(rgb_purple);
    1cb2:	81018513          	addi	a0,gp,-2032 # 20000020 <rgb_purple>
    1cb6:	a45fe0ef          	jal	ra,6fa <ws2812b_write>
D:/Desktop/智能车基地/CH32V103_SmartCar_V1.0/4.Demo/02-Car_Light/CODE/car_light.c:60
        Delay_Ms(time);
    1cba:	fea45783          	lhu	a5,-22(s0)
    1cbe:	853e                	mv	a0,a5
    1cc0:	dd9fe0ef          	jal	ra,a98 <Delay_Ms>
D:/Desktop/智能车基地/CH32V103_SmartCar_V1.0/4.Demo/02-Car_Light/CODE/car_light.c:68
}
    1cc4:	a831                	j	1ce0 <car_both_rgb_on+0x142>
D:/Desktop/智能车基地/CH32V103_SmartCar_V1.0/4.Demo/02-Car_Light/CODE/car_light.c:64
        ws2812b_write(rgb_user_define);
    1cc6:	81c18513          	addi	a0,gp,-2020 # 2000002c <rgb_user_define>
    1cca:	a31fe0ef          	jal	ra,6fa <ws2812b_write>
D:/Desktop/智能车基地/CH32V103_SmartCar_V1.0/4.Demo/02-Car_Light/CODE/car_light.c:65
        ws2812b_write(rgb_user_define);
    1cce:	81c18513          	addi	a0,gp,-2020 # 2000002c <rgb_user_define>
    1cd2:	a29fe0ef          	jal	ra,6fa <ws2812b_write>
D:/Desktop/智能车基地/CH32V103_SmartCar_V1.0/4.Demo/02-Car_Light/CODE/car_light.c:66
        Delay_Ms(time);
    1cd6:	fea45783          	lhu	a5,-22(s0)
    1cda:	853e                	mv	a0,a5
    1cdc:	dbdfe0ef          	jal	ra,a98 <Delay_Ms>
D:/Desktop/智能车基地/CH32V103_SmartCar_V1.0/4.Demo/02-Car_Light/CODE/car_light.c:68
}
    1ce0:	0001                	nop
    1ce2:	40f2                	lw	ra,28(sp)
    1ce4:	4462                	lw	s0,24(sp)
    1ce6:	6105                	addi	sp,sp,32
    1ce8:	8082                	ret

00001cea <car_both_rgb_off>:
car_both_rgb_off():
D:/Desktop/智能车基地/CH32V103_SmartCar_V1.0/4.Demo/02-Car_Light/CODE/car_light.c:77
// @param        void
// @return       void
// Sample usage:        car_both_rgb_off();//尾灯熄灭
//-------------------------------------------------------------------------------------------------------------------
void car_both_rgb_off()
{
    1cea:	1141                	addi	sp,sp,-16
    1cec:	c606                	sw	ra,12(sp)
    1cee:	c422                	sw	s0,8(sp)
    1cf0:	0800                	addi	s0,sp,16
D:/Desktop/智能车基地/CH32V103_SmartCar_V1.0/4.Demo/02-Car_Light/CODE/car_light.c:78
    ws2812b_write(rgb_off);
    1cf2:	83018513          	addi	a0,gp,-2000 # 20000040 <rgb_off>
    1cf6:	a05fe0ef          	jal	ra,6fa <ws2812b_write>
D:/Desktop/智能车基地/CH32V103_SmartCar_V1.0/4.Demo/02-Car_Light/CODE/car_light.c:79
    ws2812b_write(rgb_off);
    1cfa:	83018513          	addi	a0,gp,-2000 # 20000040 <rgb_off>
    1cfe:	9fdfe0ef          	jal	ra,6fa <ws2812b_write>
D:/Desktop/智能车基地/CH32V103_SmartCar_V1.0/4.Demo/02-Car_Light/CODE/car_light.c:80
    Delay_Ms(50);
    1d02:	03200513          	li	a0,50
    1d06:	d93fe0ef          	jal	ra,a98 <Delay_Ms>
D:/Desktop/智能车基地/CH32V103_SmartCar_V1.0/4.Demo/02-Car_Light/CODE/car_light.c:81
}
    1d0a:	0001                	nop
    1d0c:	40b2                	lw	ra,12(sp)
    1d0e:	4422                	lw	s0,8(sp)
    1d10:	0141                	addi	sp,sp,16
    1d12:	8082                	ret

00001d14 <car_left_rgb_flash>:
car_left_rgb_flash():
D:/Desktop/智能车基地/CH32V103_SmartCar_V1.0/4.Demo/02-Car_Light/CODE/car_light.c:92
// @param        time           间隔时间(ms)
// @return       void
// Sample usage:        car_left_rgb_flash(red, 3, 500);//左灯闪烁红色三次，间隔0.5s
//-------------------------------------------------------------------------------------------------------------------
void car_left_rgb_flash(rgb_color color, uint16_t flash_count, uint16_t time)
{
    1d14:	7179                	addi	sp,sp,-48
    1d16:	d606                	sw	ra,44(sp)
    1d18:	d422                	sw	s0,40(sp)
    1d1a:	1800                	addi	s0,sp,48
    1d1c:	fca42e23          	sw	a0,-36(s0)
    1d20:	87ae                	mv	a5,a1
    1d22:	8732                	mv	a4,a2
    1d24:	fcf41d23          	sh	a5,-38(s0)
    1d28:	87ba                	mv	a5,a4
    1d2a:	fcf41c23          	sh	a5,-40(s0)
D:/Desktop/智能车基地/CH32V103_SmartCar_V1.0/4.Demo/02-Car_Light/CODE/car_light.c:95
    unsigned int i;

    if(color == red)
    1d2e:	fdc42783          	lw	a5,-36(s0)
    1d32:	ebb1                	bnez	a5,1d86 <car_left_rgb_flash+0x72>
D:/Desktop/智能车基地/CH32V103_SmartCar_V1.0/4.Demo/02-Car_Light/CODE/car_light.c:97
    {
        for(i=0; i<flash_count; i++)
    1d34:	fe042623          	sw	zero,-20(s0)
    1d38:	a081                	j	1d78 <car_left_rgb_flash+0x64>
D:/Desktop/智能车基地/CH32V103_SmartCar_V1.0/4.Demo/02-Car_Light/CODE/car_light.c:99 (discriminator 3)
        {
            ws2812b_write(rgb_red);
    1d3a:	80c18513          	addi	a0,gp,-2036 # 2000001c <rgb_red>
    1d3e:	9bdfe0ef          	jal	ra,6fa <ws2812b_write>
D:/Desktop/智能车基地/CH32V103_SmartCar_V1.0/4.Demo/02-Car_Light/CODE/car_light.c:100 (discriminator 3)
            ws2812b_write(rgb_off);
    1d42:	83018513          	addi	a0,gp,-2000 # 20000040 <rgb_off>
    1d46:	9b5fe0ef          	jal	ra,6fa <ws2812b_write>
D:/Desktop/智能车基地/CH32V103_SmartCar_V1.0/4.Demo/02-Car_Light/CODE/car_light.c:102 (discriminator 3)

            Delay_Ms(time);
    1d4a:	fd845783          	lhu	a5,-40(s0)
    1d4e:	853e                	mv	a0,a5
    1d50:	d49fe0ef          	jal	ra,a98 <Delay_Ms>
D:/Desktop/智能车基地/CH32V103_SmartCar_V1.0/4.Demo/02-Car_Light/CODE/car_light.c:104 (discriminator 3)

            ws2812b_write(rgb_off);
    1d54:	83018513          	addi	a0,gp,-2000 # 20000040 <rgb_off>
    1d58:	9a3fe0ef          	jal	ra,6fa <ws2812b_write>
D:/Desktop/智能车基地/CH32V103_SmartCar_V1.0/4.Demo/02-Car_Light/CODE/car_light.c:105 (discriminator 3)
            ws2812b_write(rgb_off);
    1d5c:	83018513          	addi	a0,gp,-2000 # 20000040 <rgb_off>
    1d60:	99bfe0ef          	jal	ra,6fa <ws2812b_write>
D:/Desktop/智能车基地/CH32V103_SmartCar_V1.0/4.Demo/02-Car_Light/CODE/car_light.c:106 (discriminator 3)
            Delay_Ms(time);
    1d64:	fd845783          	lhu	a5,-40(s0)
    1d68:	853e                	mv	a0,a5
    1d6a:	d2ffe0ef          	jal	ra,a98 <Delay_Ms>
D:/Desktop/智能车基地/CH32V103_SmartCar_V1.0/4.Demo/02-Car_Light/CODE/car_light.c:97 (discriminator 3)
        for(i=0; i<flash_count; i++)
    1d6e:	fec42783          	lw	a5,-20(s0)
    1d72:	0785                	addi	a5,a5,1
    1d74:	fef42623          	sw	a5,-20(s0)
D:/Desktop/智能车基地/CH32V103_SmartCar_V1.0/4.Demo/02-Car_Light/CODE/car_light.c:97 (discriminator 1)
    1d78:	fda45783          	lhu	a5,-38(s0)
    1d7c:	fec42703          	lw	a4,-20(s0)
    1d80:	faf76de3          	bltu	a4,a5,1d3a <car_left_rgb_flash+0x26>
D:/Desktop/智能车基地/CH32V103_SmartCar_V1.0/4.Demo/02-Car_Light/CODE/car_light.c:208
            ws2812b_write(rgb_off);
            Delay_Ms(time);
        }
    }

}
    1d84:	a449                	j	2006 <car_left_rgb_flash+0x2f2>
D:/Desktop/智能车基地/CH32V103_SmartCar_V1.0/4.Demo/02-Car_Light/CODE/car_light.c:109
    else if(color == yellow)
    1d86:	fdc42703          	lw	a4,-36(s0)
    1d8a:	4785                	li	a5,1
    1d8c:	04f71b63          	bne	a4,a5,1de2 <car_left_rgb_flash+0xce>
D:/Desktop/智能车基地/CH32V103_SmartCar_V1.0/4.Demo/02-Car_Light/CODE/car_light.c:111
        for(i=0; i<flash_count; i++)
    1d90:	fe042623          	sw	zero,-20(s0)
    1d94:	a081                	j	1dd4 <car_left_rgb_flash+0xc0>
D:/Desktop/智能车基地/CH32V103_SmartCar_V1.0/4.Demo/02-Car_Light/CODE/car_light.c:113 (discriminator 3)
            ws2812b_write(rgb_yellow);
    1d96:	81418513          	addi	a0,gp,-2028 # 20000024 <rgb_yellow>
    1d9a:	961fe0ef          	jal	ra,6fa <ws2812b_write>
D:/Desktop/智能车基地/CH32V103_SmartCar_V1.0/4.Demo/02-Car_Light/CODE/car_light.c:114 (discriminator 3)
            ws2812b_write(rgb_off);
    1d9e:	83018513          	addi	a0,gp,-2000 # 20000040 <rgb_off>
    1da2:	959fe0ef          	jal	ra,6fa <ws2812b_write>
D:/Desktop/智能车基地/CH32V103_SmartCar_V1.0/4.Demo/02-Car_Light/CODE/car_light.c:116 (discriminator 3)
            Delay_Ms(time);
    1da6:	fd845783          	lhu	a5,-40(s0)
    1daa:	853e                	mv	a0,a5
    1dac:	cedfe0ef          	jal	ra,a98 <Delay_Ms>
D:/Desktop/智能车基地/CH32V103_SmartCar_V1.0/4.Demo/02-Car_Light/CODE/car_light.c:118 (discriminator 3)
            ws2812b_write(rgb_off);
    1db0:	83018513          	addi	a0,gp,-2000 # 20000040 <rgb_off>
    1db4:	947fe0ef          	jal	ra,6fa <ws2812b_write>
D:/Desktop/智能车基地/CH32V103_SmartCar_V1.0/4.Demo/02-Car_Light/CODE/car_light.c:119 (discriminator 3)
            ws2812b_write(rgb_off);
    1db8:	83018513          	addi	a0,gp,-2000 # 20000040 <rgb_off>
    1dbc:	93ffe0ef          	jal	ra,6fa <ws2812b_write>
D:/Desktop/智能车基地/CH32V103_SmartCar_V1.0/4.Demo/02-Car_Light/CODE/car_light.c:120 (discriminator 3)
            Delay_Ms(time);
    1dc0:	fd845783          	lhu	a5,-40(s0)
    1dc4:	853e                	mv	a0,a5
    1dc6:	cd3fe0ef          	jal	ra,a98 <Delay_Ms>
D:/Desktop/智能车基地/CH32V103_SmartCar_V1.0/4.Demo/02-Car_Light/CODE/car_light.c:111 (discriminator 3)
        for(i=0; i<flash_count; i++)
    1dca:	fec42783          	lw	a5,-20(s0)
    1dce:	0785                	addi	a5,a5,1
    1dd0:	fef42623          	sw	a5,-20(s0)
D:/Desktop/智能车基地/CH32V103_SmartCar_V1.0/4.Demo/02-Car_Light/CODE/car_light.c:111 (discriminator 1)
    1dd4:	fda45783          	lhu	a5,-38(s0)
    1dd8:	fec42703          	lw	a4,-20(s0)
    1ddc:	faf76de3          	bltu	a4,a5,1d96 <car_left_rgb_flash+0x82>
D:/Desktop/智能车基地/CH32V103_SmartCar_V1.0/4.Demo/02-Car_Light/CODE/car_light.c:208
}
    1de0:	a41d                	j	2006 <car_left_rgb_flash+0x2f2>
D:/Desktop/智能车基地/CH32V103_SmartCar_V1.0/4.Demo/02-Car_Light/CODE/car_light.c:123
    else if(color == white)
    1de2:	fdc42703          	lw	a4,-36(s0)
    1de6:	4789                	li	a5,2
    1de8:	04f71b63          	bne	a4,a5,1e3e <car_left_rgb_flash+0x12a>
D:/Desktop/智能车基地/CH32V103_SmartCar_V1.0/4.Demo/02-Car_Light/CODE/car_light.c:125
        for(i=0; i<flash_count; i++)
    1dec:	fe042623          	sw	zero,-20(s0)
    1df0:	a081                	j	1e30 <car_left_rgb_flash+0x11c>
D:/Desktop/智能车基地/CH32V103_SmartCar_V1.0/4.Demo/02-Car_Light/CODE/car_light.c:127 (discriminator 3)
            ws2812b_write(rgb_white);
    1df2:	81818513          	addi	a0,gp,-2024 # 20000028 <rgb_white>
    1df6:	905fe0ef          	jal	ra,6fa <ws2812b_write>
D:/Desktop/智能车基地/CH32V103_SmartCar_V1.0/4.Demo/02-Car_Light/CODE/car_light.c:128 (discriminator 3)
            ws2812b_write(rgb_off);
    1dfa:	83018513          	addi	a0,gp,-2000 # 20000040 <rgb_off>
    1dfe:	8fdfe0ef          	jal	ra,6fa <ws2812b_write>
D:/Desktop/智能车基地/CH32V103_SmartCar_V1.0/4.Demo/02-Car_Light/CODE/car_light.c:130 (discriminator 3)
            Delay_Ms(time);
    1e02:	fd845783          	lhu	a5,-40(s0)
    1e06:	853e                	mv	a0,a5
    1e08:	c91fe0ef          	jal	ra,a98 <Delay_Ms>
D:/Desktop/智能车基地/CH32V103_SmartCar_V1.0/4.Demo/02-Car_Light/CODE/car_light.c:132 (discriminator 3)
            ws2812b_write(rgb_off);
    1e0c:	83018513          	addi	a0,gp,-2000 # 20000040 <rgb_off>
    1e10:	8ebfe0ef          	jal	ra,6fa <ws2812b_write>
D:/Desktop/智能车基地/CH32V103_SmartCar_V1.0/4.Demo/02-Car_Light/CODE/car_light.c:133 (discriminator 3)
            ws2812b_write(rgb_off);
    1e14:	83018513          	addi	a0,gp,-2000 # 20000040 <rgb_off>
    1e18:	8e3fe0ef          	jal	ra,6fa <ws2812b_write>
D:/Desktop/智能车基地/CH32V103_SmartCar_V1.0/4.Demo/02-Car_Light/CODE/car_light.c:134 (discriminator 3)
            Delay_Ms(time);
    1e1c:	fd845783          	lhu	a5,-40(s0)
    1e20:	853e                	mv	a0,a5
    1e22:	c77fe0ef          	jal	ra,a98 <Delay_Ms>
D:/Desktop/智能车基地/CH32V103_SmartCar_V1.0/4.Demo/02-Car_Light/CODE/car_light.c:125 (discriminator 3)
        for(i=0; i<flash_count; i++)
    1e26:	fec42783          	lw	a5,-20(s0)
    1e2a:	0785                	addi	a5,a5,1
    1e2c:	fef42623          	sw	a5,-20(s0)
D:/Desktop/智能车基地/CH32V103_SmartCar_V1.0/4.Demo/02-Car_Light/CODE/car_light.c:125 (discriminator 1)
    1e30:	fda45783          	lhu	a5,-38(s0)
    1e34:	fec42703          	lw	a4,-20(s0)
    1e38:	faf76de3          	bltu	a4,a5,1df2 <car_left_rgb_flash+0xde>
D:/Desktop/智能车基地/CH32V103_SmartCar_V1.0/4.Demo/02-Car_Light/CODE/car_light.c:208
}
    1e3c:	a2e9                	j	2006 <car_left_rgb_flash+0x2f2>
D:/Desktop/智能车基地/CH32V103_SmartCar_V1.0/4.Demo/02-Car_Light/CODE/car_light.c:137
    else if(color == green)
    1e3e:	fdc42703          	lw	a4,-36(s0)
    1e42:	478d                	li	a5,3
    1e44:	04f71d63          	bne	a4,a5,1e9e <car_left_rgb_flash+0x18a>
D:/Desktop/智能车基地/CH32V103_SmartCar_V1.0/4.Demo/02-Car_Light/CODE/car_light.c:139
        for(i=0; i<flash_count; i++)
    1e48:	fe042623          	sw	zero,-20(s0)
    1e4c:	a091                	j	1e90 <car_left_rgb_flash+0x17c>
D:/Desktop/智能车基地/CH32V103_SmartCar_V1.0/4.Demo/02-Car_Light/CODE/car_light.c:141 (discriminator 3)
            ws2812b_write(rgb_green);
    1e4e:	200007b7          	lui	a5,0x20000
    1e52:	01478513          	addi	a0,a5,20 # 20000014 <rgb_green>
    1e56:	8a5fe0ef          	jal	ra,6fa <ws2812b_write>
D:/Desktop/智能车基地/CH32V103_SmartCar_V1.0/4.Demo/02-Car_Light/CODE/car_light.c:142 (discriminator 3)
            ws2812b_write(rgb_off);
    1e5a:	83018513          	addi	a0,gp,-2000 # 20000040 <rgb_off>
    1e5e:	89dfe0ef          	jal	ra,6fa <ws2812b_write>
D:/Desktop/智能车基地/CH32V103_SmartCar_V1.0/4.Demo/02-Car_Light/CODE/car_light.c:144 (discriminator 3)
            Delay_Ms(time);
    1e62:	fd845783          	lhu	a5,-40(s0)
    1e66:	853e                	mv	a0,a5
    1e68:	c31fe0ef          	jal	ra,a98 <Delay_Ms>
D:/Desktop/智能车基地/CH32V103_SmartCar_V1.0/4.Demo/02-Car_Light/CODE/car_light.c:146 (discriminator 3)
            ws2812b_write(rgb_off);
    1e6c:	83018513          	addi	a0,gp,-2000 # 20000040 <rgb_off>
    1e70:	88bfe0ef          	jal	ra,6fa <ws2812b_write>
D:/Desktop/智能车基地/CH32V103_SmartCar_V1.0/4.Demo/02-Car_Light/CODE/car_light.c:147 (discriminator 3)
            ws2812b_write(rgb_off);
    1e74:	83018513          	addi	a0,gp,-2000 # 20000040 <rgb_off>
    1e78:	883fe0ef          	jal	ra,6fa <ws2812b_write>
D:/Desktop/智能车基地/CH32V103_SmartCar_V1.0/4.Demo/02-Car_Light/CODE/car_light.c:148 (discriminator 3)
            Delay_Ms(time);
    1e7c:	fd845783          	lhu	a5,-40(s0)
    1e80:	853e                	mv	a0,a5
    1e82:	c17fe0ef          	jal	ra,a98 <Delay_Ms>
D:/Desktop/智能车基地/CH32V103_SmartCar_V1.0/4.Demo/02-Car_Light/CODE/car_light.c:139 (discriminator 3)
        for(i=0; i<flash_count; i++)
    1e86:	fec42783          	lw	a5,-20(s0)
    1e8a:	0785                	addi	a5,a5,1
    1e8c:	fef42623          	sw	a5,-20(s0)
D:/Desktop/智能车基地/CH32V103_SmartCar_V1.0/4.Demo/02-Car_Light/CODE/car_light.c:139 (discriminator 1)
    1e90:	fda45783          	lhu	a5,-38(s0)
    1e94:	fec42703          	lw	a4,-20(s0)
    1e98:	faf76be3          	bltu	a4,a5,1e4e <car_left_rgb_flash+0x13a>
D:/Desktop/智能车基地/CH32V103_SmartCar_V1.0/4.Demo/02-Car_Light/CODE/car_light.c:208
}
    1e9c:	a2ad                	j	2006 <car_left_rgb_flash+0x2f2>
D:/Desktop/智能车基地/CH32V103_SmartCar_V1.0/4.Demo/02-Car_Light/CODE/car_light.c:151
    else if(color == blue)
    1e9e:	fdc42703          	lw	a4,-36(s0)
    1ea2:	4791                	li	a5,4
    1ea4:	04f71d63          	bne	a4,a5,1efe <car_left_rgb_flash+0x1ea>
D:/Desktop/智能车基地/CH32V103_SmartCar_V1.0/4.Demo/02-Car_Light/CODE/car_light.c:153
        for(i=0; i<flash_count; i++)
    1ea8:	fe042623          	sw	zero,-20(s0)
    1eac:	a091                	j	1ef0 <car_left_rgb_flash+0x1dc>
D:/Desktop/智能车基地/CH32V103_SmartCar_V1.0/4.Demo/02-Car_Light/CODE/car_light.c:155 (discriminator 3)
            ws2812b_write(rgb_blue);
    1eae:	200007b7          	lui	a5,0x20000
    1eb2:	01078513          	addi	a0,a5,16 # 20000010 <rgb_blue>
    1eb6:	845fe0ef          	jal	ra,6fa <ws2812b_write>
D:/Desktop/智能车基地/CH32V103_SmartCar_V1.0/4.Demo/02-Car_Light/CODE/car_light.c:156 (discriminator 3)
            ws2812b_write(rgb_off);
    1eba:	83018513          	addi	a0,gp,-2000 # 20000040 <rgb_off>
    1ebe:	83dfe0ef          	jal	ra,6fa <ws2812b_write>
D:/Desktop/智能车基地/CH32V103_SmartCar_V1.0/4.Demo/02-Car_Light/CODE/car_light.c:158 (discriminator 3)
            Delay_Ms(time);
    1ec2:	fd845783          	lhu	a5,-40(s0)
    1ec6:	853e                	mv	a0,a5
    1ec8:	bd1fe0ef          	jal	ra,a98 <Delay_Ms>
D:/Desktop/智能车基地/CH32V103_SmartCar_V1.0/4.Demo/02-Car_Light/CODE/car_light.c:160 (discriminator 3)
            ws2812b_write(rgb_off);
    1ecc:	83018513          	addi	a0,gp,-2000 # 20000040 <rgb_off>
    1ed0:	82bfe0ef          	jal	ra,6fa <ws2812b_write>
D:/Desktop/智能车基地/CH32V103_SmartCar_V1.0/4.Demo/02-Car_Light/CODE/car_light.c:161 (discriminator 3)
            ws2812b_write(rgb_off);
    1ed4:	83018513          	addi	a0,gp,-2000 # 20000040 <rgb_off>
    1ed8:	823fe0ef          	jal	ra,6fa <ws2812b_write>
D:/Desktop/智能车基地/CH32V103_SmartCar_V1.0/4.Demo/02-Car_Light/CODE/car_light.c:162 (discriminator 3)
            Delay_Ms(time);
    1edc:	fd845783          	lhu	a5,-40(s0)
    1ee0:	853e                	mv	a0,a5
    1ee2:	bb7fe0ef          	jal	ra,a98 <Delay_Ms>
D:/Desktop/智能车基地/CH32V103_SmartCar_V1.0/4.Demo/02-Car_Light/CODE/car_light.c:153 (discriminator 3)
        for(i=0; i<flash_count; i++)
    1ee6:	fec42783          	lw	a5,-20(s0)
    1eea:	0785                	addi	a5,a5,1
    1eec:	fef42623          	sw	a5,-20(s0)
D:/Desktop/智能车基地/CH32V103_SmartCar_V1.0/4.Demo/02-Car_Light/CODE/car_light.c:153 (discriminator 1)
    1ef0:	fda45783          	lhu	a5,-38(s0)
    1ef4:	fec42703          	lw	a4,-20(s0)
    1ef8:	faf76be3          	bltu	a4,a5,1eae <car_left_rgb_flash+0x19a>
D:/Desktop/智能车基地/CH32V103_SmartCar_V1.0/4.Demo/02-Car_Light/CODE/car_light.c:208
}
    1efc:	a229                	j	2006 <car_left_rgb_flash+0x2f2>
D:/Desktop/智能车基地/CH32V103_SmartCar_V1.0/4.Demo/02-Car_Light/CODE/car_light.c:165
    else if(color == cyan)
    1efe:	fdc42703          	lw	a4,-36(s0)
    1f02:	4795                	li	a5,5
    1f04:	04f71b63          	bne	a4,a5,1f5a <car_left_rgb_flash+0x246>
D:/Desktop/智能车基地/CH32V103_SmartCar_V1.0/4.Demo/02-Car_Light/CODE/car_light.c:167
        for(i=0; i<flash_count; i++)
    1f08:	fe042623          	sw	zero,-20(s0)
    1f0c:	a081                	j	1f4c <car_left_rgb_flash+0x238>
D:/Desktop/智能车基地/CH32V103_SmartCar_V1.0/4.Demo/02-Car_Light/CODE/car_light.c:169 (discriminator 3)
            ws2812b_write(rgb_cyan);
    1f0e:	80818513          	addi	a0,gp,-2040 # 20000018 <rgb_cyan>
    1f12:	fe8fe0ef          	jal	ra,6fa <ws2812b_write>
D:/Desktop/智能车基地/CH32V103_SmartCar_V1.0/4.Demo/02-Car_Light/CODE/car_light.c:170 (discriminator 3)
            ws2812b_write(rgb_off);
    1f16:	83018513          	addi	a0,gp,-2000 # 20000040 <rgb_off>
    1f1a:	fe0fe0ef          	jal	ra,6fa <ws2812b_write>
D:/Desktop/智能车基地/CH32V103_SmartCar_V1.0/4.Demo/02-Car_Light/CODE/car_light.c:172 (discriminator 3)
            Delay_Ms(time);
    1f1e:	fd845783          	lhu	a5,-40(s0)
    1f22:	853e                	mv	a0,a5
    1f24:	b75fe0ef          	jal	ra,a98 <Delay_Ms>
D:/Desktop/智能车基地/CH32V103_SmartCar_V1.0/4.Demo/02-Car_Light/CODE/car_light.c:174 (discriminator 3)
            ws2812b_write(rgb_off);
    1f28:	83018513          	addi	a0,gp,-2000 # 20000040 <rgb_off>
    1f2c:	fcefe0ef          	jal	ra,6fa <ws2812b_write>
D:/Desktop/智能车基地/CH32V103_SmartCar_V1.0/4.Demo/02-Car_Light/CODE/car_light.c:175 (discriminator 3)
            ws2812b_write(rgb_off);
    1f30:	83018513          	addi	a0,gp,-2000 # 20000040 <rgb_off>
    1f34:	fc6fe0ef          	jal	ra,6fa <ws2812b_write>
D:/Desktop/智能车基地/CH32V103_SmartCar_V1.0/4.Demo/02-Car_Light/CODE/car_light.c:176 (discriminator 3)
            Delay_Ms(time);
    1f38:	fd845783          	lhu	a5,-40(s0)
    1f3c:	853e                	mv	a0,a5
    1f3e:	b5bfe0ef          	jal	ra,a98 <Delay_Ms>
D:/Desktop/智能车基地/CH32V103_SmartCar_V1.0/4.Demo/02-Car_Light/CODE/car_light.c:167 (discriminator 3)
        for(i=0; i<flash_count; i++)
    1f42:	fec42783          	lw	a5,-20(s0)
    1f46:	0785                	addi	a5,a5,1
    1f48:	fef42623          	sw	a5,-20(s0)
D:/Desktop/智能车基地/CH32V103_SmartCar_V1.0/4.Demo/02-Car_Light/CODE/car_light.c:167 (discriminator 1)
    1f4c:	fda45783          	lhu	a5,-38(s0)
    1f50:	fec42703          	lw	a4,-20(s0)
    1f54:	faf76de3          	bltu	a4,a5,1f0e <car_left_rgb_flash+0x1fa>
D:/Desktop/智能车基地/CH32V103_SmartCar_V1.0/4.Demo/02-Car_Light/CODE/car_light.c:208
}
    1f58:	a07d                	j	2006 <car_left_rgb_flash+0x2f2>
D:/Desktop/智能车基地/CH32V103_SmartCar_V1.0/4.Demo/02-Car_Light/CODE/car_light.c:179
    else if(color == purple)
    1f5a:	fdc42703          	lw	a4,-36(s0)
    1f5e:	4799                	li	a5,6
    1f60:	04f71b63          	bne	a4,a5,1fb6 <car_left_rgb_flash+0x2a2>
D:/Desktop/智能车基地/CH32V103_SmartCar_V1.0/4.Demo/02-Car_Light/CODE/car_light.c:181
        for(i=0; i<flash_count; i++)
    1f64:	fe042623          	sw	zero,-20(s0)
    1f68:	a081                	j	1fa8 <car_left_rgb_flash+0x294>
D:/Desktop/智能车基地/CH32V103_SmartCar_V1.0/4.Demo/02-Car_Light/CODE/car_light.c:183 (discriminator 3)
            ws2812b_write(rgb_purple);
    1f6a:	81018513          	addi	a0,gp,-2032 # 20000020 <rgb_purple>
    1f6e:	f8cfe0ef          	jal	ra,6fa <ws2812b_write>
D:/Desktop/智能车基地/CH32V103_SmartCar_V1.0/4.Demo/02-Car_Light/CODE/car_light.c:184 (discriminator 3)
            ws2812b_write(rgb_off);
    1f72:	83018513          	addi	a0,gp,-2000 # 20000040 <rgb_off>
    1f76:	f84fe0ef          	jal	ra,6fa <ws2812b_write>
D:/Desktop/智能车基地/CH32V103_SmartCar_V1.0/4.Demo/02-Car_Light/CODE/car_light.c:186 (discriminator 3)
            Delay_Ms(time);
    1f7a:	fd845783          	lhu	a5,-40(s0)
    1f7e:	853e                	mv	a0,a5
    1f80:	b19fe0ef          	jal	ra,a98 <Delay_Ms>
D:/Desktop/智能车基地/CH32V103_SmartCar_V1.0/4.Demo/02-Car_Light/CODE/car_light.c:188 (discriminator 3)
            ws2812b_write(rgb_off);
    1f84:	83018513          	addi	a0,gp,-2000 # 20000040 <rgb_off>
    1f88:	f72fe0ef          	jal	ra,6fa <ws2812b_write>
D:/Desktop/智能车基地/CH32V103_SmartCar_V1.0/4.Demo/02-Car_Light/CODE/car_light.c:189 (discriminator 3)
            ws2812b_write(rgb_off);
    1f8c:	83018513          	addi	a0,gp,-2000 # 20000040 <rgb_off>
    1f90:	f6afe0ef          	jal	ra,6fa <ws2812b_write>
D:/Desktop/智能车基地/CH32V103_SmartCar_V1.0/4.Demo/02-Car_Light/CODE/car_light.c:190 (discriminator 3)
            Delay_Ms(time);
    1f94:	fd845783          	lhu	a5,-40(s0)
    1f98:	853e                	mv	a0,a5
    1f9a:	afffe0ef          	jal	ra,a98 <Delay_Ms>
D:/Desktop/智能车基地/CH32V103_SmartCar_V1.0/4.Demo/02-Car_Light/CODE/car_light.c:181 (discriminator 3)
        for(i=0; i<flash_count; i++)
    1f9e:	fec42783          	lw	a5,-20(s0)
    1fa2:	0785                	addi	a5,a5,1
    1fa4:	fef42623          	sw	a5,-20(s0)
D:/Desktop/智能车基地/CH32V103_SmartCar_V1.0/4.Demo/02-Car_Light/CODE/car_light.c:181 (discriminator 1)
    1fa8:	fda45783          	lhu	a5,-38(s0)
    1fac:	fec42703          	lw	a4,-20(s0)
    1fb0:	faf76de3          	bltu	a4,a5,1f6a <car_left_rgb_flash+0x256>
D:/Desktop/智能车基地/CH32V103_SmartCar_V1.0/4.Demo/02-Car_Light/CODE/car_light.c:208
}
    1fb4:	a889                	j	2006 <car_left_rgb_flash+0x2f2>
D:/Desktop/智能车基地/CH32V103_SmartCar_V1.0/4.Demo/02-Car_Light/CODE/car_light.c:195
        for(i=0; i<flash_count; i++)
    1fb6:	fe042623          	sw	zero,-20(s0)
    1fba:	a081                	j	1ffa <car_left_rgb_flash+0x2e6>
D:/Desktop/智能车基地/CH32V103_SmartCar_V1.0/4.Demo/02-Car_Light/CODE/car_light.c:197 (discriminator 3)
            ws2812b_write(rgb_user_define);
    1fbc:	81c18513          	addi	a0,gp,-2020 # 2000002c <rgb_user_define>
    1fc0:	f3afe0ef          	jal	ra,6fa <ws2812b_write>
D:/Desktop/智能车基地/CH32V103_SmartCar_V1.0/4.Demo/02-Car_Light/CODE/car_light.c:198 (discriminator 3)
            ws2812b_write(rgb_off);
    1fc4:	83018513          	addi	a0,gp,-2000 # 20000040 <rgb_off>
    1fc8:	f32fe0ef          	jal	ra,6fa <ws2812b_write>
D:/Desktop/智能车基地/CH32V103_SmartCar_V1.0/4.Demo/02-Car_Light/CODE/car_light.c:200 (discriminator 3)
            Delay_Ms(time);
    1fcc:	fd845783          	lhu	a5,-40(s0)
    1fd0:	853e                	mv	a0,a5
    1fd2:	ac7fe0ef          	jal	ra,a98 <Delay_Ms>
D:/Desktop/智能车基地/CH32V103_SmartCar_V1.0/4.Demo/02-Car_Light/CODE/car_light.c:202 (discriminator 3)
            ws2812b_write(rgb_off);
    1fd6:	83018513          	addi	a0,gp,-2000 # 20000040 <rgb_off>
    1fda:	f20fe0ef          	jal	ra,6fa <ws2812b_write>
D:/Desktop/智能车基地/CH32V103_SmartCar_V1.0/4.Demo/02-Car_Light/CODE/car_light.c:203 (discriminator 3)
            ws2812b_write(rgb_off);
    1fde:	83018513          	addi	a0,gp,-2000 # 20000040 <rgb_off>
    1fe2:	f18fe0ef          	jal	ra,6fa <ws2812b_write>
D:/Desktop/智能车基地/CH32V103_SmartCar_V1.0/4.Demo/02-Car_Light/CODE/car_light.c:204 (discriminator 3)
            Delay_Ms(time);
    1fe6:	fd845783          	lhu	a5,-40(s0)
    1fea:	853e                	mv	a0,a5
    1fec:	aadfe0ef          	jal	ra,a98 <Delay_Ms>
D:/Desktop/智能车基地/CH32V103_SmartCar_V1.0/4.Demo/02-Car_Light/CODE/car_light.c:195 (discriminator 3)
        for(i=0; i<flash_count; i++)
    1ff0:	fec42783          	lw	a5,-20(s0)
    1ff4:	0785                	addi	a5,a5,1
    1ff6:	fef42623          	sw	a5,-20(s0)
D:/Desktop/智能车基地/CH32V103_SmartCar_V1.0/4.Demo/02-Car_Light/CODE/car_light.c:195 (discriminator 1)
    1ffa:	fda45783          	lhu	a5,-38(s0)
    1ffe:	fec42703          	lw	a4,-20(s0)
    2002:	faf76de3          	bltu	a4,a5,1fbc <car_left_rgb_flash+0x2a8>
D:/Desktop/智能车基地/CH32V103_SmartCar_V1.0/4.Demo/02-Car_Light/CODE/car_light.c:208
}
    2006:	0001                	nop
    2008:	50b2                	lw	ra,44(sp)
    200a:	5422                	lw	s0,40(sp)
    200c:	6145                	addi	sp,sp,48
    200e:	8082                	ret

00002010 <car_right_rgb_flash>:
car_right_rgb_flash():
D:/Desktop/智能车基地/CH32V103_SmartCar_V1.0/4.Demo/02-Car_Light/CODE/car_light.c:219
// @param        time           间隔时间(ms)
// @return       void
// Sample usage:        car_right_rgb_flash(red, 3, 500);//右灯闪烁红色三次，间隔0.5s
//-------------------------------------------------------------------------------------------------------------------
void car_right_rgb_flash(rgb_color color, uint16_t flash_count, uint16_t time)
{
    2010:	7179                	addi	sp,sp,-48
    2012:	d606                	sw	ra,44(sp)
    2014:	d422                	sw	s0,40(sp)
    2016:	1800                	addi	s0,sp,48
    2018:	fca42e23          	sw	a0,-36(s0)
    201c:	87ae                	mv	a5,a1
    201e:	8732                	mv	a4,a2
    2020:	fcf41d23          	sh	a5,-38(s0)
    2024:	87ba                	mv	a5,a4
    2026:	fcf41c23          	sh	a5,-40(s0)
D:/Desktop/智能车基地/CH32V103_SmartCar_V1.0/4.Demo/02-Car_Light/CODE/car_light.c:222
    unsigned int i;

    if(color == red)
    202a:	fdc42783          	lw	a5,-36(s0)
    202e:	ebb1                	bnez	a5,2082 <car_right_rgb_flash+0x72>
D:/Desktop/智能车基地/CH32V103_SmartCar_V1.0/4.Demo/02-Car_Light/CODE/car_light.c:224
    {
        for(i=0; i<flash_count; i++)
    2030:	fe042623          	sw	zero,-20(s0)
    2034:	a081                	j	2074 <car_right_rgb_flash+0x64>
D:/Desktop/智能车基地/CH32V103_SmartCar_V1.0/4.Demo/02-Car_Light/CODE/car_light.c:226 (discriminator 3)
        {
            ws2812b_write(rgb_off);
    2036:	83018513          	addi	a0,gp,-2000 # 20000040 <rgb_off>
    203a:	ec0fe0ef          	jal	ra,6fa <ws2812b_write>
D:/Desktop/智能车基地/CH32V103_SmartCar_V1.0/4.Demo/02-Car_Light/CODE/car_light.c:227 (discriminator 3)
            ws2812b_write(rgb_red);
    203e:	80c18513          	addi	a0,gp,-2036 # 2000001c <rgb_red>
    2042:	eb8fe0ef          	jal	ra,6fa <ws2812b_write>
D:/Desktop/智能车基地/CH32V103_SmartCar_V1.0/4.Demo/02-Car_Light/CODE/car_light.c:229 (discriminator 3)

            Delay_Ms(time);
    2046:	fd845783          	lhu	a5,-40(s0)
    204a:	853e                	mv	a0,a5
    204c:	a4dfe0ef          	jal	ra,a98 <Delay_Ms>
D:/Desktop/智能车基地/CH32V103_SmartCar_V1.0/4.Demo/02-Car_Light/CODE/car_light.c:231 (discriminator 3)
      
            ws2812b_write(rgb_off);
    2050:	83018513          	addi	a0,gp,-2000 # 20000040 <rgb_off>
    2054:	ea6fe0ef          	jal	ra,6fa <ws2812b_write>
D:/Desktop/智能车基地/CH32V103_SmartCar_V1.0/4.Demo/02-Car_Light/CODE/car_light.c:232 (discriminator 3)
            ws2812b_write(rgb_off);
    2058:	83018513          	addi	a0,gp,-2000 # 20000040 <rgb_off>
    205c:	e9efe0ef          	jal	ra,6fa <ws2812b_write>
D:/Desktop/智能车基地/CH32V103_SmartCar_V1.0/4.Demo/02-Car_Light/CODE/car_light.c:233 (discriminator 3)
            Delay_Ms(time);
    2060:	fd845783          	lhu	a5,-40(s0)
    2064:	853e                	mv	a0,a5
    2066:	a33fe0ef          	jal	ra,a98 <Delay_Ms>
D:/Desktop/智能车基地/CH32V103_SmartCar_V1.0/4.Demo/02-Car_Light/CODE/car_light.c:224 (discriminator 3)
        for(i=0; i<flash_count; i++)
    206a:	fec42783          	lw	a5,-20(s0)
    206e:	0785                	addi	a5,a5,1
    2070:	fef42623          	sw	a5,-20(s0)
D:/Desktop/智能车基地/CH32V103_SmartCar_V1.0/4.Demo/02-Car_Light/CODE/car_light.c:224 (discriminator 1)
    2074:	fda45783          	lhu	a5,-38(s0)
    2078:	fec42703          	lw	a4,-20(s0)
    207c:	faf76de3          	bltu	a4,a5,2036 <car_right_rgb_flash+0x26>
D:/Desktop/智能车基地/CH32V103_SmartCar_V1.0/4.Demo/02-Car_Light/CODE/car_light.c:334
            ws2812b_write(rgb_off);
            ws2812b_write(rgb_off);
            Delay_Ms(time);
        }
    }
}
    2080:	a449                	j	2302 <car_right_rgb_flash+0x2f2>
D:/Desktop/智能车基地/CH32V103_SmartCar_V1.0/4.Demo/02-Car_Light/CODE/car_light.c:236
    else if(color == yellow)
    2082:	fdc42703          	lw	a4,-36(s0)
    2086:	4785                	li	a5,1
    2088:	04f71b63          	bne	a4,a5,20de <car_right_rgb_flash+0xce>
D:/Desktop/智能车基地/CH32V103_SmartCar_V1.0/4.Demo/02-Car_Light/CODE/car_light.c:238
        for(i=0; i<flash_count; i++)
    208c:	fe042623          	sw	zero,-20(s0)
    2090:	a081                	j	20d0 <car_right_rgb_flash+0xc0>
D:/Desktop/智能车基地/CH32V103_SmartCar_V1.0/4.Demo/02-Car_Light/CODE/car_light.c:240 (discriminator 3)
            ws2812b_write(rgb_off);
    2092:	83018513          	addi	a0,gp,-2000 # 20000040 <rgb_off>
    2096:	e64fe0ef          	jal	ra,6fa <ws2812b_write>
D:/Desktop/智能车基地/CH32V103_SmartCar_V1.0/4.Demo/02-Car_Light/CODE/car_light.c:241 (discriminator 3)
            ws2812b_write(rgb_yellow);
    209a:	81418513          	addi	a0,gp,-2028 # 20000024 <rgb_yellow>
    209e:	e5cfe0ef          	jal	ra,6fa <ws2812b_write>
D:/Desktop/智能车基地/CH32V103_SmartCar_V1.0/4.Demo/02-Car_Light/CODE/car_light.c:243 (discriminator 3)
            Delay_Ms(time);
    20a2:	fd845783          	lhu	a5,-40(s0)
    20a6:	853e                	mv	a0,a5
    20a8:	9f1fe0ef          	jal	ra,a98 <Delay_Ms>
D:/Desktop/智能车基地/CH32V103_SmartCar_V1.0/4.Demo/02-Car_Light/CODE/car_light.c:245 (discriminator 3)
            ws2812b_write(rgb_off);
    20ac:	83018513          	addi	a0,gp,-2000 # 20000040 <rgb_off>
    20b0:	e4afe0ef          	jal	ra,6fa <ws2812b_write>
D:/Desktop/智能车基地/CH32V103_SmartCar_V1.0/4.Demo/02-Car_Light/CODE/car_light.c:246 (discriminator 3)
            ws2812b_write(rgb_off);
    20b4:	83018513          	addi	a0,gp,-2000 # 20000040 <rgb_off>
    20b8:	e42fe0ef          	jal	ra,6fa <ws2812b_write>
D:/Desktop/智能车基地/CH32V103_SmartCar_V1.0/4.Demo/02-Car_Light/CODE/car_light.c:247 (discriminator 3)
            Delay_Ms(time);
    20bc:	fd845783          	lhu	a5,-40(s0)
    20c0:	853e                	mv	a0,a5
    20c2:	9d7fe0ef          	jal	ra,a98 <Delay_Ms>
D:/Desktop/智能车基地/CH32V103_SmartCar_V1.0/4.Demo/02-Car_Light/CODE/car_light.c:238 (discriminator 3)
        for(i=0; i<flash_count; i++)
    20c6:	fec42783          	lw	a5,-20(s0)
    20ca:	0785                	addi	a5,a5,1
    20cc:	fef42623          	sw	a5,-20(s0)
D:/Desktop/智能车基地/CH32V103_SmartCar_V1.0/4.Demo/02-Car_Light/CODE/car_light.c:238 (discriminator 1)
    20d0:	fda45783          	lhu	a5,-38(s0)
    20d4:	fec42703          	lw	a4,-20(s0)
    20d8:	faf76de3          	bltu	a4,a5,2092 <car_right_rgb_flash+0x82>
D:/Desktop/智能车基地/CH32V103_SmartCar_V1.0/4.Demo/02-Car_Light/CODE/car_light.c:334
}
    20dc:	a41d                	j	2302 <car_right_rgb_flash+0x2f2>
D:/Desktop/智能车基地/CH32V103_SmartCar_V1.0/4.Demo/02-Car_Light/CODE/car_light.c:250
    else if(color == white)
    20de:	fdc42703          	lw	a4,-36(s0)
    20e2:	4789                	li	a5,2
    20e4:	04f71b63          	bne	a4,a5,213a <car_right_rgb_flash+0x12a>
D:/Desktop/智能车基地/CH32V103_SmartCar_V1.0/4.Demo/02-Car_Light/CODE/car_light.c:252
        for(i=0; i<flash_count; i++)
    20e8:	fe042623          	sw	zero,-20(s0)
    20ec:	a081                	j	212c <car_right_rgb_flash+0x11c>
D:/Desktop/智能车基地/CH32V103_SmartCar_V1.0/4.Demo/02-Car_Light/CODE/car_light.c:254 (discriminator 3)
            ws2812b_write(rgb_off);
    20ee:	83018513          	addi	a0,gp,-2000 # 20000040 <rgb_off>
    20f2:	e08fe0ef          	jal	ra,6fa <ws2812b_write>
D:/Desktop/智能车基地/CH32V103_SmartCar_V1.0/4.Demo/02-Car_Light/CODE/car_light.c:255 (discriminator 3)
            ws2812b_write(rgb_white);
    20f6:	81818513          	addi	a0,gp,-2024 # 20000028 <rgb_white>
    20fa:	e00fe0ef          	jal	ra,6fa <ws2812b_write>
D:/Desktop/智能车基地/CH32V103_SmartCar_V1.0/4.Demo/02-Car_Light/CODE/car_light.c:257 (discriminator 3)
            Delay_Ms(time);
    20fe:	fd845783          	lhu	a5,-40(s0)
    2102:	853e                	mv	a0,a5
    2104:	995fe0ef          	jal	ra,a98 <Delay_Ms>
D:/Desktop/智能车基地/CH32V103_SmartCar_V1.0/4.Demo/02-Car_Light/CODE/car_light.c:259 (discriminator 3)
            ws2812b_write(rgb_off);
    2108:	83018513          	addi	a0,gp,-2000 # 20000040 <rgb_off>
    210c:	deefe0ef          	jal	ra,6fa <ws2812b_write>
D:/Desktop/智能车基地/CH32V103_SmartCar_V1.0/4.Demo/02-Car_Light/CODE/car_light.c:260 (discriminator 3)
            ws2812b_write(rgb_off);
    2110:	83018513          	addi	a0,gp,-2000 # 20000040 <rgb_off>
    2114:	de6fe0ef          	jal	ra,6fa <ws2812b_write>
D:/Desktop/智能车基地/CH32V103_SmartCar_V1.0/4.Demo/02-Car_Light/CODE/car_light.c:261 (discriminator 3)
            Delay_Ms(time);
    2118:	fd845783          	lhu	a5,-40(s0)
    211c:	853e                	mv	a0,a5
    211e:	97bfe0ef          	jal	ra,a98 <Delay_Ms>
D:/Desktop/智能车基地/CH32V103_SmartCar_V1.0/4.Demo/02-Car_Light/CODE/car_light.c:252 (discriminator 3)
        for(i=0; i<flash_count; i++)
    2122:	fec42783          	lw	a5,-20(s0)
    2126:	0785                	addi	a5,a5,1
    2128:	fef42623          	sw	a5,-20(s0)
D:/Desktop/智能车基地/CH32V103_SmartCar_V1.0/4.Demo/02-Car_Light/CODE/car_light.c:252 (discriminator 1)
    212c:	fda45783          	lhu	a5,-38(s0)
    2130:	fec42703          	lw	a4,-20(s0)
    2134:	faf76de3          	bltu	a4,a5,20ee <car_right_rgb_flash+0xde>
D:/Desktop/智能车基地/CH32V103_SmartCar_V1.0/4.Demo/02-Car_Light/CODE/car_light.c:334
}
    2138:	a2e9                	j	2302 <car_right_rgb_flash+0x2f2>
D:/Desktop/智能车基地/CH32V103_SmartCar_V1.0/4.Demo/02-Car_Light/CODE/car_light.c:264
    else if(color == green)
    213a:	fdc42703          	lw	a4,-36(s0)
    213e:	478d                	li	a5,3
    2140:	04f71d63          	bne	a4,a5,219a <car_right_rgb_flash+0x18a>
D:/Desktop/智能车基地/CH32V103_SmartCar_V1.0/4.Demo/02-Car_Light/CODE/car_light.c:266
        for(i=0; i<flash_count; i++)
    2144:	fe042623          	sw	zero,-20(s0)
    2148:	a091                	j	218c <car_right_rgb_flash+0x17c>
D:/Desktop/智能车基地/CH32V103_SmartCar_V1.0/4.Demo/02-Car_Light/CODE/car_light.c:268 (discriminator 3)
            ws2812b_write(rgb_off);
    214a:	83018513          	addi	a0,gp,-2000 # 20000040 <rgb_off>
    214e:	dacfe0ef          	jal	ra,6fa <ws2812b_write>
D:/Desktop/智能车基地/CH32V103_SmartCar_V1.0/4.Demo/02-Car_Light/CODE/car_light.c:269 (discriminator 3)
            ws2812b_write(rgb_green);
    2152:	200007b7          	lui	a5,0x20000
    2156:	01478513          	addi	a0,a5,20 # 20000014 <rgb_green>
    215a:	da0fe0ef          	jal	ra,6fa <ws2812b_write>
D:/Desktop/智能车基地/CH32V103_SmartCar_V1.0/4.Demo/02-Car_Light/CODE/car_light.c:271 (discriminator 3)
            Delay_Ms(time);
    215e:	fd845783          	lhu	a5,-40(s0)
    2162:	853e                	mv	a0,a5
    2164:	935fe0ef          	jal	ra,a98 <Delay_Ms>
D:/Desktop/智能车基地/CH32V103_SmartCar_V1.0/4.Demo/02-Car_Light/CODE/car_light.c:273 (discriminator 3)
            ws2812b_write(rgb_off);
    2168:	83018513          	addi	a0,gp,-2000 # 20000040 <rgb_off>
    216c:	d8efe0ef          	jal	ra,6fa <ws2812b_write>
D:/Desktop/智能车基地/CH32V103_SmartCar_V1.0/4.Demo/02-Car_Light/CODE/car_light.c:274 (discriminator 3)
            ws2812b_write(rgb_off);
    2170:	83018513          	addi	a0,gp,-2000 # 20000040 <rgb_off>
    2174:	d86fe0ef          	jal	ra,6fa <ws2812b_write>
D:/Desktop/智能车基地/CH32V103_SmartCar_V1.0/4.Demo/02-Car_Light/CODE/car_light.c:275 (discriminator 3)
            Delay_Ms(time);
    2178:	fd845783          	lhu	a5,-40(s0)
    217c:	853e                	mv	a0,a5
    217e:	91bfe0ef          	jal	ra,a98 <Delay_Ms>
D:/Desktop/智能车基地/CH32V103_SmartCar_V1.0/4.Demo/02-Car_Light/CODE/car_light.c:266 (discriminator 3)
        for(i=0; i<flash_count; i++)
    2182:	fec42783          	lw	a5,-20(s0)
    2186:	0785                	addi	a5,a5,1
    2188:	fef42623          	sw	a5,-20(s0)
D:/Desktop/智能车基地/CH32V103_SmartCar_V1.0/4.Demo/02-Car_Light/CODE/car_light.c:266 (discriminator 1)
    218c:	fda45783          	lhu	a5,-38(s0)
    2190:	fec42703          	lw	a4,-20(s0)
    2194:	faf76be3          	bltu	a4,a5,214a <car_right_rgb_flash+0x13a>
D:/Desktop/智能车基地/CH32V103_SmartCar_V1.0/4.Demo/02-Car_Light/CODE/car_light.c:334
}
    2198:	a2ad                	j	2302 <car_right_rgb_flash+0x2f2>
D:/Desktop/智能车基地/CH32V103_SmartCar_V1.0/4.Demo/02-Car_Light/CODE/car_light.c:278
    else if(color == blue)
    219a:	fdc42703          	lw	a4,-36(s0)
    219e:	4791                	li	a5,4
    21a0:	04f71d63          	bne	a4,a5,21fa <car_right_rgb_flash+0x1ea>
D:/Desktop/智能车基地/CH32V103_SmartCar_V1.0/4.Demo/02-Car_Light/CODE/car_light.c:280
        for(i=0; i<flash_count; i++)
    21a4:	fe042623          	sw	zero,-20(s0)
    21a8:	a091                	j	21ec <car_right_rgb_flash+0x1dc>
D:/Desktop/智能车基地/CH32V103_SmartCar_V1.0/4.Demo/02-Car_Light/CODE/car_light.c:282 (discriminator 3)
            ws2812b_write(rgb_off);
    21aa:	83018513          	addi	a0,gp,-2000 # 20000040 <rgb_off>
    21ae:	d4cfe0ef          	jal	ra,6fa <ws2812b_write>
D:/Desktop/智能车基地/CH32V103_SmartCar_V1.0/4.Demo/02-Car_Light/CODE/car_light.c:283 (discriminator 3)
            ws2812b_write(rgb_blue);
    21b2:	200007b7          	lui	a5,0x20000
    21b6:	01078513          	addi	a0,a5,16 # 20000010 <rgb_blue>
    21ba:	d40fe0ef          	jal	ra,6fa <ws2812b_write>
D:/Desktop/智能车基地/CH32V103_SmartCar_V1.0/4.Demo/02-Car_Light/CODE/car_light.c:285 (discriminator 3)
            Delay_Ms(time);
    21be:	fd845783          	lhu	a5,-40(s0)
    21c2:	853e                	mv	a0,a5
    21c4:	8d5fe0ef          	jal	ra,a98 <Delay_Ms>
D:/Desktop/智能车基地/CH32V103_SmartCar_V1.0/4.Demo/02-Car_Light/CODE/car_light.c:287 (discriminator 3)
            ws2812b_write(rgb_off);
    21c8:	83018513          	addi	a0,gp,-2000 # 20000040 <rgb_off>
    21cc:	d2efe0ef          	jal	ra,6fa <ws2812b_write>
D:/Desktop/智能车基地/CH32V103_SmartCar_V1.0/4.Demo/02-Car_Light/CODE/car_light.c:288 (discriminator 3)
            ws2812b_write(rgb_off);
    21d0:	83018513          	addi	a0,gp,-2000 # 20000040 <rgb_off>
    21d4:	d26fe0ef          	jal	ra,6fa <ws2812b_write>
D:/Desktop/智能车基地/CH32V103_SmartCar_V1.0/4.Demo/02-Car_Light/CODE/car_light.c:289 (discriminator 3)
            Delay_Ms(time);
    21d8:	fd845783          	lhu	a5,-40(s0)
    21dc:	853e                	mv	a0,a5
    21de:	8bbfe0ef          	jal	ra,a98 <Delay_Ms>
D:/Desktop/智能车基地/CH32V103_SmartCar_V1.0/4.Demo/02-Car_Light/CODE/car_light.c:280 (discriminator 3)
        for(i=0; i<flash_count; i++)
    21e2:	fec42783          	lw	a5,-20(s0)
    21e6:	0785                	addi	a5,a5,1
    21e8:	fef42623          	sw	a5,-20(s0)
D:/Desktop/智能车基地/CH32V103_SmartCar_V1.0/4.Demo/02-Car_Light/CODE/car_light.c:280 (discriminator 1)
    21ec:	fda45783          	lhu	a5,-38(s0)
    21f0:	fec42703          	lw	a4,-20(s0)
    21f4:	faf76be3          	bltu	a4,a5,21aa <car_right_rgb_flash+0x19a>
D:/Desktop/智能车基地/CH32V103_SmartCar_V1.0/4.Demo/02-Car_Light/CODE/car_light.c:334
}
    21f8:	a229                	j	2302 <car_right_rgb_flash+0x2f2>
D:/Desktop/智能车基地/CH32V103_SmartCar_V1.0/4.Demo/02-Car_Light/CODE/car_light.c:292
    else if(color == cyan)
    21fa:	fdc42703          	lw	a4,-36(s0)
    21fe:	4795                	li	a5,5
    2200:	04f71b63          	bne	a4,a5,2256 <car_right_rgb_flash+0x246>
D:/Desktop/智能车基地/CH32V103_SmartCar_V1.0/4.Demo/02-Car_Light/CODE/car_light.c:294
        for(i=0; i<flash_count; i++)
    2204:	fe042623          	sw	zero,-20(s0)
    2208:	a081                	j	2248 <car_right_rgb_flash+0x238>
D:/Desktop/智能车基地/CH32V103_SmartCar_V1.0/4.Demo/02-Car_Light/CODE/car_light.c:296 (discriminator 3)
            ws2812b_write(rgb_off);
    220a:	83018513          	addi	a0,gp,-2000 # 20000040 <rgb_off>
    220e:	cecfe0ef          	jal	ra,6fa <ws2812b_write>
D:/Desktop/智能车基地/CH32V103_SmartCar_V1.0/4.Demo/02-Car_Light/CODE/car_light.c:297 (discriminator 3)
            ws2812b_write(rgb_cyan);
    2212:	80818513          	addi	a0,gp,-2040 # 20000018 <rgb_cyan>
    2216:	ce4fe0ef          	jal	ra,6fa <ws2812b_write>
D:/Desktop/智能车基地/CH32V103_SmartCar_V1.0/4.Demo/02-Car_Light/CODE/car_light.c:299 (discriminator 3)
            Delay_Ms(time);
    221a:	fd845783          	lhu	a5,-40(s0)
    221e:	853e                	mv	a0,a5
    2220:	879fe0ef          	jal	ra,a98 <Delay_Ms>
D:/Desktop/智能车基地/CH32V103_SmartCar_V1.0/4.Demo/02-Car_Light/CODE/car_light.c:301 (discriminator 3)
            ws2812b_write(rgb_off);
    2224:	83018513          	addi	a0,gp,-2000 # 20000040 <rgb_off>
    2228:	cd2fe0ef          	jal	ra,6fa <ws2812b_write>
D:/Desktop/智能车基地/CH32V103_SmartCar_V1.0/4.Demo/02-Car_Light/CODE/car_light.c:302 (discriminator 3)
            ws2812b_write(rgb_off);
    222c:	83018513          	addi	a0,gp,-2000 # 20000040 <rgb_off>
    2230:	ccafe0ef          	jal	ra,6fa <ws2812b_write>
D:/Desktop/智能车基地/CH32V103_SmartCar_V1.0/4.Demo/02-Car_Light/CODE/car_light.c:303 (discriminator 3)
            Delay_Ms(time);
    2234:	fd845783          	lhu	a5,-40(s0)
    2238:	853e                	mv	a0,a5
    223a:	85ffe0ef          	jal	ra,a98 <Delay_Ms>
D:/Desktop/智能车基地/CH32V103_SmartCar_V1.0/4.Demo/02-Car_Light/CODE/car_light.c:294 (discriminator 3)
        for(i=0; i<flash_count; i++)
    223e:	fec42783          	lw	a5,-20(s0)
    2242:	0785                	addi	a5,a5,1
    2244:	fef42623          	sw	a5,-20(s0)
D:/Desktop/智能车基地/CH32V103_SmartCar_V1.0/4.Demo/02-Car_Light/CODE/car_light.c:294 (discriminator 1)
    2248:	fda45783          	lhu	a5,-38(s0)
    224c:	fec42703          	lw	a4,-20(s0)
    2250:	faf76de3          	bltu	a4,a5,220a <car_right_rgb_flash+0x1fa>
D:/Desktop/智能车基地/CH32V103_SmartCar_V1.0/4.Demo/02-Car_Light/CODE/car_light.c:334
}
    2254:	a07d                	j	2302 <car_right_rgb_flash+0x2f2>
D:/Desktop/智能车基地/CH32V103_SmartCar_V1.0/4.Demo/02-Car_Light/CODE/car_light.c:306
    else if(color == purple)
    2256:	fdc42703          	lw	a4,-36(s0)
    225a:	4799                	li	a5,6
    225c:	04f71b63          	bne	a4,a5,22b2 <car_right_rgb_flash+0x2a2>
D:/Desktop/智能车基地/CH32V103_SmartCar_V1.0/4.Demo/02-Car_Light/CODE/car_light.c:308
        for(i=0; i<flash_count; i++)
    2260:	fe042623          	sw	zero,-20(s0)
    2264:	a081                	j	22a4 <car_right_rgb_flash+0x294>
D:/Desktop/智能车基地/CH32V103_SmartCar_V1.0/4.Demo/02-Car_Light/CODE/car_light.c:310 (discriminator 3)
            ws2812b_write(rgb_off);
    2266:	83018513          	addi	a0,gp,-2000 # 20000040 <rgb_off>
    226a:	c90fe0ef          	jal	ra,6fa <ws2812b_write>
D:/Desktop/智能车基地/CH32V103_SmartCar_V1.0/4.Demo/02-Car_Light/CODE/car_light.c:311 (discriminator 3)
            ws2812b_write(rgb_purple);
    226e:	81018513          	addi	a0,gp,-2032 # 20000020 <rgb_purple>
    2272:	c88fe0ef          	jal	ra,6fa <ws2812b_write>
D:/Desktop/智能车基地/CH32V103_SmartCar_V1.0/4.Demo/02-Car_Light/CODE/car_light.c:313 (discriminator 3)
            Delay_Ms(time);
    2276:	fd845783          	lhu	a5,-40(s0)
    227a:	853e                	mv	a0,a5
    227c:	81dfe0ef          	jal	ra,a98 <Delay_Ms>
D:/Desktop/智能车基地/CH32V103_SmartCar_V1.0/4.Demo/02-Car_Light/CODE/car_light.c:315 (discriminator 3)
            ws2812b_write(rgb_off);
    2280:	83018513          	addi	a0,gp,-2000 # 20000040 <rgb_off>
    2284:	c76fe0ef          	jal	ra,6fa <ws2812b_write>
D:/Desktop/智能车基地/CH32V103_SmartCar_V1.0/4.Demo/02-Car_Light/CODE/car_light.c:316 (discriminator 3)
            ws2812b_write(rgb_off);
    2288:	83018513          	addi	a0,gp,-2000 # 20000040 <rgb_off>
    228c:	c6efe0ef          	jal	ra,6fa <ws2812b_write>
D:/Desktop/智能车基地/CH32V103_SmartCar_V1.0/4.Demo/02-Car_Light/CODE/car_light.c:317 (discriminator 3)
            Delay_Ms(time);
    2290:	fd845783          	lhu	a5,-40(s0)
    2294:	853e                	mv	a0,a5
    2296:	803fe0ef          	jal	ra,a98 <Delay_Ms>
D:/Desktop/智能车基地/CH32V103_SmartCar_V1.0/4.Demo/02-Car_Light/CODE/car_light.c:308 (discriminator 3)
        for(i=0; i<flash_count; i++)
    229a:	fec42783          	lw	a5,-20(s0)
    229e:	0785                	addi	a5,a5,1
    22a0:	fef42623          	sw	a5,-20(s0)
D:/Desktop/智能车基地/CH32V103_SmartCar_V1.0/4.Demo/02-Car_Light/CODE/car_light.c:308 (discriminator 1)
    22a4:	fda45783          	lhu	a5,-38(s0)
    22a8:	fec42703          	lw	a4,-20(s0)
    22ac:	faf76de3          	bltu	a4,a5,2266 <car_right_rgb_flash+0x256>
D:/Desktop/智能车基地/CH32V103_SmartCar_V1.0/4.Demo/02-Car_Light/CODE/car_light.c:334
}
    22b0:	a889                	j	2302 <car_right_rgb_flash+0x2f2>
D:/Desktop/智能车基地/CH32V103_SmartCar_V1.0/4.Demo/02-Car_Light/CODE/car_light.c:322
        for(i=0; i<flash_count; i++)
    22b2:	fe042623          	sw	zero,-20(s0)
    22b6:	a081                	j	22f6 <car_right_rgb_flash+0x2e6>
D:/Desktop/智能车基地/CH32V103_SmartCar_V1.0/4.Demo/02-Car_Light/CODE/car_light.c:324 (discriminator 3)
            ws2812b_write(rgb_off);
    22b8:	83018513          	addi	a0,gp,-2000 # 20000040 <rgb_off>
    22bc:	c3efe0ef          	jal	ra,6fa <ws2812b_write>
D:/Desktop/智能车基地/CH32V103_SmartCar_V1.0/4.Demo/02-Car_Light/CODE/car_light.c:325 (discriminator 3)
            ws2812b_write(rgb_user_define);
    22c0:	81c18513          	addi	a0,gp,-2020 # 2000002c <rgb_user_define>
    22c4:	c36fe0ef          	jal	ra,6fa <ws2812b_write>
D:/Desktop/智能车基地/CH32V103_SmartCar_V1.0/4.Demo/02-Car_Light/CODE/car_light.c:327 (discriminator 3)
            Delay_Ms(time);
    22c8:	fd845783          	lhu	a5,-40(s0)
    22cc:	853e                	mv	a0,a5
    22ce:	fcafe0ef          	jal	ra,a98 <Delay_Ms>
D:/Desktop/智能车基地/CH32V103_SmartCar_V1.0/4.Demo/02-Car_Light/CODE/car_light.c:329 (discriminator 3)
            ws2812b_write(rgb_off);
    22d2:	83018513          	addi	a0,gp,-2000 # 20000040 <rgb_off>
    22d6:	c24fe0ef          	jal	ra,6fa <ws2812b_write>
D:/Desktop/智能车基地/CH32V103_SmartCar_V1.0/4.Demo/02-Car_Light/CODE/car_light.c:330 (discriminator 3)
            ws2812b_write(rgb_off);
    22da:	83018513          	addi	a0,gp,-2000 # 20000040 <rgb_off>
    22de:	c1cfe0ef          	jal	ra,6fa <ws2812b_write>
D:/Desktop/智能车基地/CH32V103_SmartCar_V1.0/4.Demo/02-Car_Light/CODE/car_light.c:331 (discriminator 3)
            Delay_Ms(time);
    22e2:	fd845783          	lhu	a5,-40(s0)
    22e6:	853e                	mv	a0,a5
    22e8:	fb0fe0ef          	jal	ra,a98 <Delay_Ms>
D:/Desktop/智能车基地/CH32V103_SmartCar_V1.0/4.Demo/02-Car_Light/CODE/car_light.c:322 (discriminator 3)
        for(i=0; i<flash_count; i++)
    22ec:	fec42783          	lw	a5,-20(s0)
    22f0:	0785                	addi	a5,a5,1
    22f2:	fef42623          	sw	a5,-20(s0)
D:/Desktop/智能车基地/CH32V103_SmartCar_V1.0/4.Demo/02-Car_Light/CODE/car_light.c:322 (discriminator 1)
    22f6:	fda45783          	lhu	a5,-38(s0)
    22fa:	fec42703          	lw	a4,-20(s0)
    22fe:	faf76de3          	bltu	a4,a5,22b8 <car_right_rgb_flash+0x2a8>
D:/Desktop/智能车基地/CH32V103_SmartCar_V1.0/4.Demo/02-Car_Light/CODE/car_light.c:334
}
    2302:	0001                	nop
    2304:	50b2                	lw	ra,44(sp)
    2306:	5422                	lw	s0,40(sp)
    2308:	6145                	addi	sp,sp,48
    230a:	8082                	ret

0000230c <car_forward>:
car_forward():
D:/Desktop/智能车基地/CH32V103_SmartCar_V1.0/4.Demo/02-Car_Light/CODE/car_motion.c:19
// @return       void
// Sample usage:        car_forward();
                        //小车前进
//-----------------------------------------------------------------------------------------------------------------
void car_forward(void)
{
    230c:	1141                	addi	sp,sp,-16
    230e:	c606                	sw	ra,12(sp)
    2310:	c422                	sw	s0,8(sp)
    2312:	0800                	addi	s0,sp,16
D:/Desktop/智能车基地/CH32V103_SmartCar_V1.0/4.Demo/02-Car_Light/CODE/car_motion.c:20
    l9110s_forward(left,10000);
    2314:	6789                	lui	a5,0x2
    2316:	71078593          	addi	a1,a5,1808 # 2710 <GPIO_Init+0x1e>
    231a:	4501                	li	a0,0
    231c:	91cfe0ef          	jal	ra,438 <l9110s_forward>
D:/Desktop/智能车基地/CH32V103_SmartCar_V1.0/4.Demo/02-Car_Light/CODE/car_motion.c:21
    l9110s_forward(right,10000);
    2320:	6789                	lui	a5,0x2
    2322:	71078593          	addi	a1,a5,1808 # 2710 <GPIO_Init+0x1e>
    2326:	4505                	li	a0,1
    2328:	910fe0ef          	jal	ra,438 <l9110s_forward>
D:/Desktop/智能车基地/CH32V103_SmartCar_V1.0/4.Demo/02-Car_Light/CODE/car_motion.c:22
}
    232c:	0001                	nop
    232e:	40b2                	lw	ra,12(sp)
    2330:	4422                	lw	s0,8(sp)
    2332:	0141                	addi	sp,sp,16
    2334:	8082                	ret

00002336 <car_back>:
car_back():
D:/Desktop/智能车基地/CH32V103_SmartCar_V1.0/4.Demo/02-Car_Light/CODE/car_motion.c:32
// @return       void
// Sample usage:        car_back(); 
                        //小车后退
//-----------------------------------------------------------------------------------------------------------------
void car_back(void)
{
    2336:	1141                	addi	sp,sp,-16
    2338:	c606                	sw	ra,12(sp)
    233a:	c422                	sw	s0,8(sp)
    233c:	0800                	addi	s0,sp,16
D:/Desktop/智能车基地/CH32V103_SmartCar_V1.0/4.Demo/02-Car_Light/CODE/car_motion.c:33
    l9110s_back(left,10000);
    233e:	6789                	lui	a5,0x2
    2340:	71078593          	addi	a1,a5,1808 # 2710 <GPIO_Init+0x1e>
    2344:	4501                	li	a0,0
    2346:	950fe0ef          	jal	ra,496 <l9110s_back>
D:/Desktop/智能车基地/CH32V103_SmartCar_V1.0/4.Demo/02-Car_Light/CODE/car_motion.c:34
    l9110s_back(right,10000);
    234a:	6789                	lui	a5,0x2
    234c:	71078593          	addi	a1,a5,1808 # 2710 <GPIO_Init+0x1e>
    2350:	4505                	li	a0,1
    2352:	944fe0ef          	jal	ra,496 <l9110s_back>
D:/Desktop/智能车基地/CH32V103_SmartCar_V1.0/4.Demo/02-Car_Light/CODE/car_motion.c:35
}
    2356:	0001                	nop
    2358:	40b2                	lw	ra,12(sp)
    235a:	4422                	lw	s0,8(sp)
    235c:	0141                	addi	sp,sp,16
    235e:	8082                	ret

00002360 <car_stop>:
car_stop():
D:/Desktop/智能车基地/CH32V103_SmartCar_V1.0/4.Demo/02-Car_Light/CODE/car_motion.c:45
// @return       void
// Sample usage:        car_stop(); 
                        //小车停止
//-----------------------------------------------------------------------------------------------------------------
void car_stop(void)
{
    2360:	1141                	addi	sp,sp,-16
    2362:	c606                	sw	ra,12(sp)
    2364:	c422                	sw	s0,8(sp)
    2366:	0800                	addi	s0,sp,16
D:/Desktop/智能车基地/CH32V103_SmartCar_V1.0/4.Demo/02-Car_Light/CODE/car_motion.c:46
    l9110s_forward(left,0);
    2368:	4581                	li	a1,0
    236a:	4501                	li	a0,0
    236c:	8ccfe0ef          	jal	ra,438 <l9110s_forward>
D:/Desktop/智能车基地/CH32V103_SmartCar_V1.0/4.Demo/02-Car_Light/CODE/car_motion.c:47
    l9110s_forward(right,0);
    2370:	4581                	li	a1,0
    2372:	4505                	li	a0,1
    2374:	8c4fe0ef          	jal	ra,438 <l9110s_forward>
D:/Desktop/智能车基地/CH32V103_SmartCar_V1.0/4.Demo/02-Car_Light/CODE/car_motion.c:48
}
    2378:	0001                	nop
    237a:	40b2                	lw	ra,12(sp)
    237c:	4422                	lw	s0,8(sp)
    237e:	0141                	addi	sp,sp,16
    2380:	8082                	ret

00002382 <car_turnleft>:
car_turnleft():
D:/Desktop/智能车基地/CH32V103_SmartCar_V1.0/4.Demo/02-Car_Light/CODE/car_motion.c:58
// @return       void
// Sample usage:        car_turnleft(); 
                        //小车左转
//-----------------------------------------------------------------------------------------------------------------
void car_turnleft(void)
{
    2382:	1141                	addi	sp,sp,-16
    2384:	c606                	sw	ra,12(sp)
    2386:	c422                	sw	s0,8(sp)
    2388:	0800                	addi	s0,sp,16
D:/Desktop/智能车基地/CH32V103_SmartCar_V1.0/4.Demo/02-Car_Light/CODE/car_motion.c:59
    l9110s_forward(left,5000);
    238a:	6785                	lui	a5,0x1
    238c:	38878593          	addi	a1,a5,904 # 1388 <pwm_duty+0xd6>
    2390:	4501                	li	a0,0
    2392:	8a6fe0ef          	jal	ra,438 <l9110s_forward>
D:/Desktop/智能车基地/CH32V103_SmartCar_V1.0/4.Demo/02-Car_Light/CODE/car_motion.c:60
    l9110s_forward(right,10000);
    2396:	6789                	lui	a5,0x2
    2398:	71078593          	addi	a1,a5,1808 # 2710 <GPIO_Init+0x1e>
    239c:	4505                	li	a0,1
    239e:	89afe0ef          	jal	ra,438 <l9110s_forward>
D:/Desktop/智能车基地/CH32V103_SmartCar_V1.0/4.Demo/02-Car_Light/CODE/car_motion.c:61
}
    23a2:	0001                	nop
    23a4:	40b2                	lw	ra,12(sp)
    23a6:	4422                	lw	s0,8(sp)
    23a8:	0141                	addi	sp,sp,16
    23aa:	8082                	ret

000023ac <car_turnright>:
car_turnright():
D:/Desktop/智能车基地/CH32V103_SmartCar_V1.0/4.Demo/02-Car_Light/CODE/car_motion.c:71
// @return       void
// Sample usage:        car_turnright(); 
                        //小车右转
//-----------------------------------------------------------------------------------------------------------------
void car_turnright(void)
{
    23ac:	1141                	addi	sp,sp,-16
    23ae:	c606                	sw	ra,12(sp)
    23b0:	c422                	sw	s0,8(sp)
    23b2:	0800                	addi	s0,sp,16
D:/Desktop/智能车基地/CH32V103_SmartCar_V1.0/4.Demo/02-Car_Light/CODE/car_motion.c:72
    l9110s_forward(left,10000);
    23b4:	6789                	lui	a5,0x2
    23b6:	71078593          	addi	a1,a5,1808 # 2710 <GPIO_Init+0x1e>
    23ba:	4501                	li	a0,0
    23bc:	87cfe0ef          	jal	ra,438 <l9110s_forward>
D:/Desktop/智能车基地/CH32V103_SmartCar_V1.0/4.Demo/02-Car_Light/CODE/car_motion.c:73
    l9110s_forward(right,5000);
    23c0:	6785                	lui	a5,0x1
    23c2:	38878593          	addi	a1,a5,904 # 1388 <pwm_duty+0xd6>
    23c6:	4505                	li	a0,1
    23c8:	870fe0ef          	jal	ra,438 <l9110s_forward>
D:/Desktop/智能车基地/CH32V103_SmartCar_V1.0/4.Demo/02-Car_Light/CODE/car_motion.c:74
}
    23cc:	0001                	nop
    23ce:	40b2                	lw	ra,12(sp)
    23d0:	4422                	lw	s0,8(sp)
    23d2:	0141                	addi	sp,sp,16
    23d4:	8082                	ret

000023d6 <reed_init>:
reed_init():
D:/Desktop/智能车基地/CH32V103_SmartCar_V1.0/4.Demo/02-Car_Light/CODE/car_reed_switch.c:18
// @param      void
// @return     void
// Sample usage:       reed_init();
//-------------------------------------------------------------------------------------------------------------------
void reed_init(void)
{
    23d6:	1141                	addi	sp,sp,-16
    23d8:	c606                	sw	ra,12(sp)
    23da:	c422                	sw	s0,8(sp)
    23dc:	0800                	addi	s0,sp,16
D:/Desktop/智能车基地/CH32V103_SmartCar_V1.0/4.Demo/02-Car_Light/CODE/car_reed_switch.c:20
    /* 干簧管引脚初始化 */
    gpio_init(REED_SWITCH_PIN, GPI, 1, IN_PULLUP);
    23de:	04800693          	li	a3,72
    23e2:	4605                	li	a2,1
    23e4:	4581                	li	a1,0
    23e6:	02300513          	li	a0,35
    23ea:	95ffe0ef          	jal	ra,d48 <gpio_init>
D:/Desktop/智能车基地/CH32V103_SmartCar_V1.0/4.Demo/02-Car_Light/CODE/car_reed_switch.c:21
}
    23ee:	0001                	nop
    23f0:	40b2                	lw	ra,12(sp)
    23f2:	4422                	lw	s0,8(sp)
    23f4:	0141                	addi	sp,sp,16
    23f6:	8082                	ret

000023f8 <handle_reset>:
handle_reset():
D:/Desktop/智能车基地/CH32V103_SmartCar_V1.0/4.Demo/Libraries/Device/CH32V10x_p/Startup/startup_ch32v10x.S:147
	.weak	handle_reset
	.align	1
handle_reset:
.option push 
.option	norelax 
	la gp, __global_pointer$
    23f8:	1fffe197          	auipc	gp,0x1fffe
    23fc:	41818193          	addi	gp,gp,1048 # 20000810 <__global_pointer$>
D:/Desktop/智能车基地/CH32V103_SmartCar_V1.0/4.Demo/Libraries/Device/CH32V10x_p/Startup/startup_ch32v10x.S:150
.option	pop 
1:
	la sp, _eusrstack 
    2400:	20003117          	auipc	sp,0x20003
    2404:	c0010113          	addi	sp,sp,-1024 # 20005000 <_eusrstack>
D:/Desktop/智能车基地/CH32V103_SmartCar_V1.0/4.Demo/Libraries/Device/CH32V10x_p/Startup/startup_ch32v10x.S:153
2:
	/* Load data section from flash to RAM */
	la a0, _data_lma
    2408:	00001517          	auipc	a0,0x1
    240c:	73850513          	addi	a0,a0,1848 # 3b40 <_data_lma>
D:/Desktop/智能车基地/CH32V103_SmartCar_V1.0/4.Demo/Libraries/Device/CH32V10x_p/Startup/startup_ch32v10x.S:154
	la a1, _data_vma
    2410:	1fffe597          	auipc	a1,0x1fffe
    2414:	bf058593          	addi	a1,a1,-1040 # 20000000 <_data_vma>
D:/Desktop/智能车基地/CH32V103_SmartCar_V1.0/4.Demo/Libraries/Device/CH32V10x_p/Startup/startup_ch32v10x.S:155
	la a2, _edata
    2418:	82818613          	addi	a2,gp,-2008 # 20000038 <_edata>
D:/Desktop/智能车基地/CH32V103_SmartCar_V1.0/4.Demo/Libraries/Device/CH32V10x_p/Startup/startup_ch32v10x.S:156
	bgeu a1, a2, 2f
    241c:	00c5fa63          	bgeu	a1,a2,2430 <handle_reset+0x38>
D:/Desktop/智能车基地/CH32V103_SmartCar_V1.0/4.Demo/Libraries/Device/CH32V10x_p/Startup/startup_ch32v10x.S:158
1:
	lw t0, (a0)
    2420:	00052283          	lw	t0,0(a0)
D:/Desktop/智能车基地/CH32V103_SmartCar_V1.0/4.Demo/Libraries/Device/CH32V10x_p/Startup/startup_ch32v10x.S:159
	sw t0, (a1)
    2424:	0055a023          	sw	t0,0(a1)
D:/Desktop/智能车基地/CH32V103_SmartCar_V1.0/4.Demo/Libraries/Device/CH32V10x_p/Startup/startup_ch32v10x.S:160
	addi a0, a0, 4
    2428:	0511                	addi	a0,a0,4
D:/Desktop/智能车基地/CH32V103_SmartCar_V1.0/4.Demo/Libraries/Device/CH32V10x_p/Startup/startup_ch32v10x.S:161
	addi a1, a1, 4
    242a:	0591                	addi	a1,a1,4
D:/Desktop/智能车基地/CH32V103_SmartCar_V1.0/4.Demo/Libraries/Device/CH32V10x_p/Startup/startup_ch32v10x.S:162
	bltu a1, a2, 1b
    242c:	fec5eae3          	bltu	a1,a2,2420 <handle_reset+0x28>
D:/Desktop/智能车基地/CH32V103_SmartCar_V1.0/4.Demo/Libraries/Device/CH32V10x_p/Startup/startup_ch32v10x.S:165
2:
	/* clear bss section */
	la a0, _sbss
    2430:	82818513          	addi	a0,gp,-2008 # 20000038 <_edata>
D:/Desktop/智能车基地/CH32V103_SmartCar_V1.0/4.Demo/Libraries/Device/CH32V10x_p/Startup/startup_ch32v10x.S:166
	la a1, _ebss
    2434:	84018593          	addi	a1,gp,-1984 # 20000050 <_ebss>
D:/Desktop/智能车基地/CH32V103_SmartCar_V1.0/4.Demo/Libraries/Device/CH32V10x_p/Startup/startup_ch32v10x.S:167
	bgeu a0, a1, 2f
    2438:	00b57763          	bgeu	a0,a1,2446 <handle_reset+0x4e>
D:/Desktop/智能车基地/CH32V103_SmartCar_V1.0/4.Demo/Libraries/Device/CH32V10x_p/Startup/startup_ch32v10x.S:169
1:
	sw zero, (a0)
    243c:	00052023          	sw	zero,0(a0)
D:/Desktop/智能车基地/CH32V103_SmartCar_V1.0/4.Demo/Libraries/Device/CH32V10x_p/Startup/startup_ch32v10x.S:170
	addi a0, a0, 4
    2440:	0511                	addi	a0,a0,4
D:/Desktop/智能车基地/CH32V103_SmartCar_V1.0/4.Demo/Libraries/Device/CH32V10x_p/Startup/startup_ch32v10x.S:171
	bltu a0, a1, 1b
    2442:	feb56de3          	bltu	a0,a1,243c <handle_reset+0x44>
D:/Desktop/智能车基地/CH32V103_SmartCar_V1.0/4.Demo/Libraries/Device/CH32V10x_p/Startup/startup_ch32v10x.S:174
2:
	/* enable all interrupt */
  li t0, 0x88
    2446:	08800293          	li	t0,136
D:/Desktop/智能车基地/CH32V103_SmartCar_V1.0/4.Demo/Libraries/Device/CH32V10x_p/Startup/startup_ch32v10x.S:175
  csrs mstatus, t0
    244a:	3002a073          	csrs	mstatus,t0
D:/Desktop/智能车基地/CH32V103_SmartCar_V1.0/4.Demo/Libraries/Device/CH32V10x_p/Startup/startup_ch32v10x.S:176
	la t0, _vector_base
    244e:	ffffe297          	auipc	t0,0xffffe
    2452:	bea28293          	addi	t0,t0,-1046 # 38 <_einit>
D:/Desktop/智能车基地/CH32V103_SmartCar_V1.0/4.Demo/Libraries/Device/CH32V10x_p/Startup/startup_ch32v10x.S:177
  ori t0, t0, 1
    2456:	0012e293          	ori	t0,t0,1
D:/Desktop/智能车基地/CH32V103_SmartCar_V1.0/4.Demo/Libraries/Device/CH32V10x_p/Startup/startup_ch32v10x.S:178
	csrw mtvec, t0
    245a:	30529073          	csrw	mtvec,t0
D:/Desktop/智能车基地/CH32V103_SmartCar_V1.0/4.Demo/Libraries/Device/CH32V10x_p/Startup/startup_ch32v10x.S:180

  jal  SystemInit
    245e:	d16fe0ef          	jal	ra,974 <SystemInit>
D:/Desktop/智能车基地/CH32V103_SmartCar_V1.0/4.Demo/Libraries/Device/CH32V10x_p/Startup/startup_ch32v10x.S:181
	la t0, main
    2462:	ffffe297          	auipc	t0,0xffffe
    2466:	eda28293          	addi	t0,t0,-294 # 33c <main>
D:/Desktop/智能车基地/CH32V103_SmartCar_V1.0/4.Demo/Libraries/Device/CH32V10x_p/Startup/startup_ch32v10x.S:182
	csrw mepc, t0
    246a:	34129073          	csrw	mepc,t0
D:/Desktop/智能车基地/CH32V103_SmartCar_V1.0/4.Demo/Libraries/Device/CH32V10x_p/Startup/startup_ch32v10x.S:183
	mret
    246e:	30200073          	mret

00002472 <ADC_DeInit>:
ADC_DeInit():
D:/Desktop/智能车基地/CH32V103_SmartCar_V1.0/4.Demo/Libraries/Device/CH32V10x_p/CH32V10x_Lib/ch32v10x_adc.c:115
* Input          : ADCx:
*                    where x can be 1 to select the ADC peripheral.
* Return         : None
*******************************************************************************/
void ADC_DeInit(ADC_TypeDef* ADCx)
{
    2472:	1101                	addi	sp,sp,-32
    2474:	ce06                	sw	ra,28(sp)
    2476:	cc22                	sw	s0,24(sp)
    2478:	1000                	addi	s0,sp,32
    247a:	fea42623          	sw	a0,-20(s0)
D:/Desktop/智能车基地/CH32V103_SmartCar_V1.0/4.Demo/Libraries/Device/CH32V10x_p/CH32V10x_Lib/ch32v10x_adc.c:116
  if (ADCx == ADC1)
    247e:	fec42703          	lw	a4,-20(s0)
    2482:	400127b7          	lui	a5,0x40012
    2486:	40078793          	addi	a5,a5,1024 # 40012400 <_eusrstack+0x2000d400>
    248a:	00f71a63          	bne	a4,a5,249e <ADC_DeInit+0x2c>
D:/Desktop/智能车基地/CH32V103_SmartCar_V1.0/4.Demo/Libraries/Device/CH32V10x_p/CH32V10x_Lib/ch32v10x_adc.c:118
  {
    RCC_APB2PeriphResetCmd(RCC_APB2Periph_ADC1, ENABLE);
    248e:	4585                	li	a1,1
    2490:	20000513          	li	a0,512
    2494:	2765                	jal	2c3c <RCC_APB2PeriphResetCmd>
D:/Desktop/智能车基地/CH32V103_SmartCar_V1.0/4.Demo/Libraries/Device/CH32V10x_p/CH32V10x_Lib/ch32v10x_adc.c:119
    RCC_APB2PeriphResetCmd(RCC_APB2Periph_ADC1, DISABLE);
    2496:	4581                	li	a1,0
    2498:	20000513          	li	a0,512
    249c:	2745                	jal	2c3c <RCC_APB2PeriphResetCmd>
D:/Desktop/智能车基地/CH32V103_SmartCar_V1.0/4.Demo/Libraries/Device/CH32V10x_p/CH32V10x_Lib/ch32v10x_adc.c:121
  }
}
    249e:	0001                	nop
    24a0:	40f2                	lw	ra,28(sp)
    24a2:	4462                	lw	s0,24(sp)
    24a4:	6105                	addi	sp,sp,32
    24a6:	8082                	ret

000024a8 <ADC_Init>:
ADC_Init():
D:/Desktop/智能车基地/CH32V103_SmartCar_V1.0/4.Demo/Libraries/Device/CH32V10x_p/CH32V10x_Lib/ch32v10x_adc.c:134
*                  ADC_InitStruct: pointer to an ADC_InitTypeDef structure that 
*      contains the configuration information for the specified ADC peripheral.
* Return         : None
*******************************************************************************/
void ADC_Init(ADC_TypeDef* ADCx, ADC_InitTypeDef* ADC_InitStruct)
{
    24a8:	7179                	addi	sp,sp,-48
    24aa:	d622                	sw	s0,44(sp)
    24ac:	1800                	addi	s0,sp,48
    24ae:	fca42e23          	sw	a0,-36(s0)
    24b2:	fcb42c23          	sw	a1,-40(s0)
D:/Desktop/智能车基地/CH32V103_SmartCar_V1.0/4.Demo/Libraries/Device/CH32V10x_p/CH32V10x_Lib/ch32v10x_adc.c:135
  uint32_t tmpreg1 = 0;
    24b6:	fe042623          	sw	zero,-20(s0)
D:/Desktop/智能车基地/CH32V103_SmartCar_V1.0/4.Demo/Libraries/Device/CH32V10x_p/CH32V10x_Lib/ch32v10x_adc.c:136
  uint8_t tmpreg2 = 0;
    24ba:	fe0405a3          	sb	zero,-21(s0)
D:/Desktop/智能车基地/CH32V103_SmartCar_V1.0/4.Demo/Libraries/Device/CH32V10x_p/CH32V10x_Lib/ch32v10x_adc.c:138

  tmpreg1 = ADCx->CTLR1;
    24be:	fdc42783          	lw	a5,-36(s0)
    24c2:	43dc                	lw	a5,4(a5)
    24c4:	fef42623          	sw	a5,-20(s0)
D:/Desktop/智能车基地/CH32V103_SmartCar_V1.0/4.Demo/Libraries/Device/CH32V10x_p/CH32V10x_Lib/ch32v10x_adc.c:139
  tmpreg1 &= CTLR1_CLEAR_Mask;
    24c8:	fec42703          	lw	a4,-20(s0)
    24cc:	fff107b7          	lui	a5,0xfff10
    24d0:	eff78793          	addi	a5,a5,-257 # fff0feff <_eusrstack+0xdff0aeff>
    24d4:	8ff9                	and	a5,a5,a4
    24d6:	fef42623          	sw	a5,-20(s0)
D:/Desktop/智能车基地/CH32V103_SmartCar_V1.0/4.Demo/Libraries/Device/CH32V10x_p/CH32V10x_Lib/ch32v10x_adc.c:140
  tmpreg1 |= (uint32_t)(ADC_InitStruct->ADC_Mode | ((uint32_t)ADC_InitStruct->ADC_ScanConvMode << 8));
    24da:	fd842783          	lw	a5,-40(s0)
    24de:	4398                	lw	a4,0(a5)
    24e0:	fd842783          	lw	a5,-40(s0)
    24e4:	43dc                	lw	a5,4(a5)
    24e6:	07a2                	slli	a5,a5,0x8
    24e8:	8fd9                	or	a5,a5,a4
    24ea:	fec42703          	lw	a4,-20(s0)
    24ee:	8fd9                	or	a5,a5,a4
    24f0:	fef42623          	sw	a5,-20(s0)
D:/Desktop/智能车基地/CH32V103_SmartCar_V1.0/4.Demo/Libraries/Device/CH32V10x_p/CH32V10x_Lib/ch32v10x_adc.c:141
  ADCx->CTLR1 = tmpreg1;
    24f4:	fdc42783          	lw	a5,-36(s0)
    24f8:	fec42703          	lw	a4,-20(s0)
    24fc:	c3d8                	sw	a4,4(a5)
D:/Desktop/智能车基地/CH32V103_SmartCar_V1.0/4.Demo/Libraries/Device/CH32V10x_p/CH32V10x_Lib/ch32v10x_adc.c:143

  tmpreg1 = ADCx->CTLR2;
    24fe:	fdc42783          	lw	a5,-36(s0)
    2502:	479c                	lw	a5,8(a5)
    2504:	fef42623          	sw	a5,-20(s0)
D:/Desktop/智能车基地/CH32V103_SmartCar_V1.0/4.Demo/Libraries/Device/CH32V10x_p/CH32V10x_Lib/ch32v10x_adc.c:144
  tmpreg1 &= CTLR2_CLEAR_Mask;
    2508:	fec42703          	lw	a4,-20(s0)
    250c:	fff1f7b7          	lui	a5,0xfff1f
    2510:	7fd78793          	addi	a5,a5,2045 # fff1f7fd <_eusrstack+0xdff1a7fd>
    2514:	8ff9                	and	a5,a5,a4
    2516:	fef42623          	sw	a5,-20(s0)
D:/Desktop/智能车基地/CH32V103_SmartCar_V1.0/4.Demo/Libraries/Device/CH32V10x_p/CH32V10x_Lib/ch32v10x_adc.c:145
  tmpreg1 |= (uint32_t)(ADC_InitStruct->ADC_DataAlign | ADC_InitStruct->ADC_ExternalTrigConv |
    251a:	fd842783          	lw	a5,-40(s0)
    251e:	4b98                	lw	a4,16(a5)
    2520:	fd842783          	lw	a5,-40(s0)
    2524:	47dc                	lw	a5,12(a5)
    2526:	8f5d                	or	a4,a4,a5
D:/Desktop/智能车基地/CH32V103_SmartCar_V1.0/4.Demo/Libraries/Device/CH32V10x_p/CH32V10x_Lib/ch32v10x_adc.c:146
            ((uint32_t)ADC_InitStruct->ADC_ContinuousConvMode << 1));
    2528:	fd842783          	lw	a5,-40(s0)
    252c:	479c                	lw	a5,8(a5)
    252e:	0786                	slli	a5,a5,0x1
D:/Desktop/智能车基地/CH32V103_SmartCar_V1.0/4.Demo/Libraries/Device/CH32V10x_p/CH32V10x_Lib/ch32v10x_adc.c:145
  tmpreg1 |= (uint32_t)(ADC_InitStruct->ADC_DataAlign | ADC_InitStruct->ADC_ExternalTrigConv |
    2530:	8fd9                	or	a5,a5,a4
    2532:	fec42703          	lw	a4,-20(s0)
    2536:	8fd9                	or	a5,a5,a4
    2538:	fef42623          	sw	a5,-20(s0)
D:/Desktop/智能车基地/CH32V103_SmartCar_V1.0/4.Demo/Libraries/Device/CH32V10x_p/CH32V10x_Lib/ch32v10x_adc.c:147
  ADCx->CTLR2 = tmpreg1;
    253c:	fdc42783          	lw	a5,-36(s0)
    2540:	fec42703          	lw	a4,-20(s0)
    2544:	c798                	sw	a4,8(a5)
D:/Desktop/智能车基地/CH32V103_SmartCar_V1.0/4.Demo/Libraries/Device/CH32V10x_p/CH32V10x_Lib/ch32v10x_adc.c:149

  tmpreg1 = ADCx->RSQR1;
    2546:	fdc42783          	lw	a5,-36(s0)
    254a:	57dc                	lw	a5,44(a5)
    254c:	fef42623          	sw	a5,-20(s0)
D:/Desktop/智能车基地/CH32V103_SmartCar_V1.0/4.Demo/Libraries/Device/CH32V10x_p/CH32V10x_Lib/ch32v10x_adc.c:150
  tmpreg1 &= RSQR1_CLEAR_Mask;
    2550:	fec42703          	lw	a4,-20(s0)
    2554:	ff1007b7          	lui	a5,0xff100
    2558:	17fd                	addi	a5,a5,-1
    255a:	8ff9                	and	a5,a5,a4
    255c:	fef42623          	sw	a5,-20(s0)
D:/Desktop/智能车基地/CH32V103_SmartCar_V1.0/4.Demo/Libraries/Device/CH32V10x_p/CH32V10x_Lib/ch32v10x_adc.c:151
  tmpreg2 |= (uint8_t) (ADC_InitStruct->ADC_NbrOfChannel - (uint8_t)1);
    2560:	fd842783          	lw	a5,-40(s0)
    2564:	0147c783          	lbu	a5,20(a5) # ff100014 <_eusrstack+0xdf0fb014>
    2568:	17fd                	addi	a5,a5,-1
    256a:	0ff7f713          	andi	a4,a5,255
    256e:	feb44783          	lbu	a5,-21(s0)
    2572:	8fd9                	or	a5,a5,a4
    2574:	fef405a3          	sb	a5,-21(s0)
D:/Desktop/智能车基地/CH32V103_SmartCar_V1.0/4.Demo/Libraries/Device/CH32V10x_p/CH32V10x_Lib/ch32v10x_adc.c:152
  tmpreg1 |= (uint32_t)tmpreg2 << 20;
    2578:	feb44783          	lbu	a5,-21(s0)
    257c:	07d2                	slli	a5,a5,0x14
    257e:	fec42703          	lw	a4,-20(s0)
    2582:	8fd9                	or	a5,a5,a4
    2584:	fef42623          	sw	a5,-20(s0)
D:/Desktop/智能车基地/CH32V103_SmartCar_V1.0/4.Demo/Libraries/Device/CH32V10x_p/CH32V10x_Lib/ch32v10x_adc.c:153
  ADCx->RSQR1 = tmpreg1;
    2588:	fdc42783          	lw	a5,-36(s0)
    258c:	fec42703          	lw	a4,-20(s0)
    2590:	d7d8                	sw	a4,44(a5)
D:/Desktop/智能车基地/CH32V103_SmartCar_V1.0/4.Demo/Libraries/Device/CH32V10x_p/CH32V10x_Lib/ch32v10x_adc.c:154
}
    2592:	0001                	nop
    2594:	5432                	lw	s0,44(sp)
    2596:	6145                	addi	sp,sp,48
    2598:	8082                	ret

0000259a <ADC_Cmd>:
ADC_Cmd():
D:/Desktop/智能车基地/CH32V103_SmartCar_V1.0/4.Demo/Libraries/Device/CH32V10x_p/CH32V10x_Lib/ch32v10x_adc.c:182
*                    where x can be 1 to select the ADC peripheral.
*                  NewState: ENABLE or DISABLE.
* Return         : None
*******************************************************************************/
void ADC_Cmd(ADC_TypeDef* ADCx, FunctionalState NewState)
{
    259a:	1101                	addi	sp,sp,-32
    259c:	ce22                	sw	s0,28(sp)
    259e:	1000                	addi	s0,sp,32
    25a0:	fea42623          	sw	a0,-20(s0)
    25a4:	feb42423          	sw	a1,-24(s0)
D:/Desktop/智能车基地/CH32V103_SmartCar_V1.0/4.Demo/Libraries/Device/CH32V10x_p/CH32V10x_Lib/ch32v10x_adc.c:183
  if (NewState != DISABLE)
    25a8:	fe842783          	lw	a5,-24(s0)
    25ac:	cb91                	beqz	a5,25c0 <ADC_Cmd+0x26>
D:/Desktop/智能车基地/CH32V103_SmartCar_V1.0/4.Demo/Libraries/Device/CH32V10x_p/CH32V10x_Lib/ch32v10x_adc.c:185
  {
    ADCx->CTLR2 |= CTLR2_ADON_Set;
    25ae:	fec42783          	lw	a5,-20(s0)
    25b2:	479c                	lw	a5,8(a5)
    25b4:	0017e713          	ori	a4,a5,1
    25b8:	fec42783          	lw	a5,-20(s0)
    25bc:	c798                	sw	a4,8(a5)
D:/Desktop/智能车基地/CH32V103_SmartCar_V1.0/4.Demo/Libraries/Device/CH32V10x_p/CH32V10x_Lib/ch32v10x_adc.c:191
  }
  else
  {
    ADCx->CTLR2 &= CTLR2_ADON_Reset;
  }
}
    25be:	a809                	j	25d0 <ADC_Cmd+0x36>
D:/Desktop/智能车基地/CH32V103_SmartCar_V1.0/4.Demo/Libraries/Device/CH32V10x_p/CH32V10x_Lib/ch32v10x_adc.c:189
    ADCx->CTLR2 &= CTLR2_ADON_Reset;
    25c0:	fec42783          	lw	a5,-20(s0)
    25c4:	479c                	lw	a5,8(a5)
    25c6:	ffe7f713          	andi	a4,a5,-2
    25ca:	fec42783          	lw	a5,-20(s0)
    25ce:	c798                	sw	a4,8(a5)
D:/Desktop/智能车基地/CH32V103_SmartCar_V1.0/4.Demo/Libraries/Device/CH32V10x_p/CH32V10x_Lib/ch32v10x_adc.c:191
}
    25d0:	0001                	nop
    25d2:	4472                	lw	s0,28(sp)
    25d4:	6105                	addi	sp,sp,32
    25d6:	8082                	ret

000025d8 <ADC_ResetCalibration>:
ADC_ResetCalibration():
D:/Desktop/智能车基地/CH32V103_SmartCar_V1.0/4.Demo/Libraries/Device/CH32V10x_p/CH32V10x_Lib/ch32v10x_adc.c:249
* Input          : ADCx:
*                    where x can be 1 to select the ADC peripheral.
* Return         : None
*******************************************************************************/
void ADC_ResetCalibration(ADC_TypeDef* ADCx)
{
    25d8:	1101                	addi	sp,sp,-32
    25da:	ce22                	sw	s0,28(sp)
    25dc:	1000                	addi	s0,sp,32
    25de:	fea42623          	sw	a0,-20(s0)
D:/Desktop/智能车基地/CH32V103_SmartCar_V1.0/4.Demo/Libraries/Device/CH32V10x_p/CH32V10x_Lib/ch32v10x_adc.c:250
  ADCx->CTLR2 |= CTLR2_RSTCAL_Set;
    25e2:	fec42783          	lw	a5,-20(s0)
    25e6:	479c                	lw	a5,8(a5)
    25e8:	0087e713          	ori	a4,a5,8
    25ec:	fec42783          	lw	a5,-20(s0)
    25f0:	c798                	sw	a4,8(a5)
D:/Desktop/智能车基地/CH32V103_SmartCar_V1.0/4.Demo/Libraries/Device/CH32V10x_p/CH32V10x_Lib/ch32v10x_adc.c:251
}
    25f2:	0001                	nop
    25f4:	4472                	lw	s0,28(sp)
    25f6:	6105                	addi	sp,sp,32
    25f8:	8082                	ret

000025fa <ADC_GetResetCalibrationStatus>:
ADC_GetResetCalibrationStatus():
D:/Desktop/智能车基地/CH32V103_SmartCar_V1.0/4.Demo/Libraries/Device/CH32V10x_p/CH32V10x_Lib/ch32v10x_adc.c:261
* Input          : ADCx:
*                    where x can be 1 to select the ADC peripheral.
* Return         : FlagStatus: SET or RESET.
*******************************************************************************/
FlagStatus ADC_GetResetCalibrationStatus(ADC_TypeDef* ADCx)
{
    25fa:	7179                	addi	sp,sp,-48
    25fc:	d622                	sw	s0,44(sp)
    25fe:	1800                	addi	s0,sp,48
    2600:	fca42e23          	sw	a0,-36(s0)
D:/Desktop/智能车基地/CH32V103_SmartCar_V1.0/4.Demo/Libraries/Device/CH32V10x_p/CH32V10x_Lib/ch32v10x_adc.c:262
  FlagStatus bitstatus = RESET;
    2604:	fe042623          	sw	zero,-20(s0)
D:/Desktop/智能车基地/CH32V103_SmartCar_V1.0/4.Demo/Libraries/Device/CH32V10x_p/CH32V10x_Lib/ch32v10x_adc.c:264

  if ((ADCx->CTLR2 & CTLR2_RSTCAL_Set) != (uint32_t)RESET)
    2608:	fdc42783          	lw	a5,-36(s0)
    260c:	479c                	lw	a5,8(a5)
    260e:	8ba1                	andi	a5,a5,8
    2610:	c789                	beqz	a5,261a <ADC_GetResetCalibrationStatus+0x20>
D:/Desktop/智能车基地/CH32V103_SmartCar_V1.0/4.Demo/Libraries/Device/CH32V10x_p/CH32V10x_Lib/ch32v10x_adc.c:266
  {
    bitstatus = SET;
    2612:	4785                	li	a5,1
    2614:	fef42623          	sw	a5,-20(s0)
    2618:	a019                	j	261e <ADC_GetResetCalibrationStatus+0x24>
D:/Desktop/智能车基地/CH32V103_SmartCar_V1.0/4.Demo/Libraries/Device/CH32V10x_p/CH32V10x_Lib/ch32v10x_adc.c:270
  }
  else
  {
    bitstatus = RESET;
    261a:	fe042623          	sw	zero,-20(s0)
D:/Desktop/智能车基地/CH32V103_SmartCar_V1.0/4.Demo/Libraries/Device/CH32V10x_p/CH32V10x_Lib/ch32v10x_adc.c:273
  }
	
  return  bitstatus;
    261e:	fec42783          	lw	a5,-20(s0)
D:/Desktop/智能车基地/CH32V103_SmartCar_V1.0/4.Demo/Libraries/Device/CH32V10x_p/CH32V10x_Lib/ch32v10x_adc.c:274
}
    2622:	853e                	mv	a0,a5
    2624:	5432                	lw	s0,44(sp)
    2626:	6145                	addi	sp,sp,48
    2628:	8082                	ret

0000262a <ADC_StartCalibration>:
ADC_StartCalibration():
D:/Desktop/智能车基地/CH32V103_SmartCar_V1.0/4.Demo/Libraries/Device/CH32V10x_p/CH32V10x_Lib/ch32v10x_adc.c:284
* Input          : ADCx:
*                    where x can be 1 to select the ADC peripheral.
* Return         : None
*******************************************************************************/
void ADC_StartCalibration(ADC_TypeDef* ADCx)
{ 
    262a:	1101                	addi	sp,sp,-32
    262c:	ce22                	sw	s0,28(sp)
    262e:	1000                	addi	s0,sp,32
    2630:	fea42623          	sw	a0,-20(s0)
D:/Desktop/智能车基地/CH32V103_SmartCar_V1.0/4.Demo/Libraries/Device/CH32V10x_p/CH32V10x_Lib/ch32v10x_adc.c:285
  ADCx->CTLR2 |= CTLR2_CAL_Set;
    2634:	fec42783          	lw	a5,-20(s0)
    2638:	479c                	lw	a5,8(a5)
    263a:	0047e713          	ori	a4,a5,4
    263e:	fec42783          	lw	a5,-20(s0)
    2642:	c798                	sw	a4,8(a5)
D:/Desktop/智能车基地/CH32V103_SmartCar_V1.0/4.Demo/Libraries/Device/CH32V10x_p/CH32V10x_Lib/ch32v10x_adc.c:286
}
    2644:	0001                	nop
    2646:	4472                	lw	s0,28(sp)
    2648:	6105                	addi	sp,sp,32
    264a:	8082                	ret

0000264c <ADC_GetCalibrationStatus>:
ADC_GetCalibrationStatus():
D:/Desktop/智能车基地/CH32V103_SmartCar_V1.0/4.Demo/Libraries/Device/CH32V10x_p/CH32V10x_Lib/ch32v10x_adc.c:296
* Input          : ADCx:
*                    where x can be 1 to select the ADC peripheral.
* Return         : FlagStatus: SET or RESET.
*******************************************************************************/
FlagStatus ADC_GetCalibrationStatus(ADC_TypeDef* ADCx)
{
    264c:	7179                	addi	sp,sp,-48
    264e:	d622                	sw	s0,44(sp)
    2650:	1800                	addi	s0,sp,48
    2652:	fca42e23          	sw	a0,-36(s0)
D:/Desktop/智能车基地/CH32V103_SmartCar_V1.0/4.Demo/Libraries/Device/CH32V10x_p/CH32V10x_Lib/ch32v10x_adc.c:297
  FlagStatus bitstatus = RESET;
    2656:	fe042623          	sw	zero,-20(s0)
D:/Desktop/智能车基地/CH32V103_SmartCar_V1.0/4.Demo/Libraries/Device/CH32V10x_p/CH32V10x_Lib/ch32v10x_adc.c:299

  if ((ADCx->CTLR2 & CTLR2_CAL_Set) != (uint32_t)RESET)
    265a:	fdc42783          	lw	a5,-36(s0)
    265e:	479c                	lw	a5,8(a5)
    2660:	8b91                	andi	a5,a5,4
    2662:	c789                	beqz	a5,266c <ADC_GetCalibrationStatus+0x20>
D:/Desktop/智能车基地/CH32V103_SmartCar_V1.0/4.Demo/Libraries/Device/CH32V10x_p/CH32V10x_Lib/ch32v10x_adc.c:301
  {
    bitstatus = SET;
    2664:	4785                	li	a5,1
    2666:	fef42623          	sw	a5,-20(s0)
    266a:	a019                	j	2670 <ADC_GetCalibrationStatus+0x24>
D:/Desktop/智能车基地/CH32V103_SmartCar_V1.0/4.Demo/Libraries/Device/CH32V10x_p/CH32V10x_Lib/ch32v10x_adc.c:305
  }
  else
  {
    bitstatus = RESET;
    266c:	fe042623          	sw	zero,-20(s0)
D:/Desktop/智能车基地/CH32V103_SmartCar_V1.0/4.Demo/Libraries/Device/CH32V10x_p/CH32V10x_Lib/ch32v10x_adc.c:308
  }

  return  bitstatus;
    2670:	fec42783          	lw	a5,-20(s0)
D:/Desktop/智能车基地/CH32V103_SmartCar_V1.0/4.Demo/Libraries/Device/CH32V10x_p/CH32V10x_Lib/ch32v10x_adc.c:309
}
    2674:	853e                	mv	a0,a5
    2676:	5432                	lw	s0,44(sp)
    2678:	6145                	addi	sp,sp,48
    267a:	8082                	ret

0000267c <EXTI_GetITStatus>:
EXTI_GetITStatus():
D:/Desktop/智能车基地/CH32V103_SmartCar_V1.0/4.Demo/Libraries/Device/CH32V10x_p/CH32V10x_Lib/ch32v10x_exti.c:131
* Description    : Checks whether the specified EXTI line is asserted or not.
* Input          : EXTI_Line: specifies the EXTI lines to be enabled or disabled.
* Return         : The new state of EXTI_Line (SET or RESET).
*********************************************************************************/	
ITStatus EXTI_GetITStatus(uint32_t EXTI_Line)
{
    267c:	7179                	addi	sp,sp,-48
    267e:	d622                	sw	s0,44(sp)
    2680:	1800                	addi	s0,sp,48
    2682:	fca42e23          	sw	a0,-36(s0)
D:/Desktop/智能车基地/CH32V103_SmartCar_V1.0/4.Demo/Libraries/Device/CH32V10x_p/CH32V10x_Lib/ch32v10x_exti.c:132
  ITStatus bitstatus = RESET;
    2686:	fe042623          	sw	zero,-20(s0)
D:/Desktop/智能车基地/CH32V103_SmartCar_V1.0/4.Demo/Libraries/Device/CH32V10x_p/CH32V10x_Lib/ch32v10x_exti.c:133
  uint32_t enablestatus = 0;
    268a:	fe042423          	sw	zero,-24(s0)
D:/Desktop/智能车基地/CH32V103_SmartCar_V1.0/4.Demo/Libraries/Device/CH32V10x_p/CH32V10x_Lib/ch32v10x_exti.c:135
  
  enablestatus =  EXTI->INTENR & EXTI_Line;
    268e:	400107b7          	lui	a5,0x40010
    2692:	40078793          	addi	a5,a5,1024 # 40010400 <_eusrstack+0x2000b400>
    2696:	439c                	lw	a5,0(a5)
    2698:	fdc42703          	lw	a4,-36(s0)
    269c:	8ff9                	and	a5,a5,a4
    269e:	fef42423          	sw	a5,-24(s0)
D:/Desktop/智能车基地/CH32V103_SmartCar_V1.0/4.Demo/Libraries/Device/CH32V10x_p/CH32V10x_Lib/ch32v10x_exti.c:136
  if (((EXTI->INTFR & EXTI_Line) != (uint32_t)RESET) && (enablestatus != (uint32_t)RESET))
    26a2:	400107b7          	lui	a5,0x40010
    26a6:	40078793          	addi	a5,a5,1024 # 40010400 <_eusrstack+0x2000b400>
    26aa:	4bd8                	lw	a4,20(a5)
    26ac:	fdc42783          	lw	a5,-36(s0)
    26b0:	8ff9                	and	a5,a5,a4
    26b2:	cb81                	beqz	a5,26c2 <EXTI_GetITStatus+0x46>
D:/Desktop/智能车基地/CH32V103_SmartCar_V1.0/4.Demo/Libraries/Device/CH32V10x_p/CH32V10x_Lib/ch32v10x_exti.c:136 (discriminator 1)
    26b4:	fe842783          	lw	a5,-24(s0)
    26b8:	c789                	beqz	a5,26c2 <EXTI_GetITStatus+0x46>
D:/Desktop/智能车基地/CH32V103_SmartCar_V1.0/4.Demo/Libraries/Device/CH32V10x_p/CH32V10x_Lib/ch32v10x_exti.c:138
  {
    bitstatus = SET;
    26ba:	4785                	li	a5,1
    26bc:	fef42623          	sw	a5,-20(s0)
    26c0:	a019                	j	26c6 <EXTI_GetITStatus+0x4a>
D:/Desktop/智能车基地/CH32V103_SmartCar_V1.0/4.Demo/Libraries/Device/CH32V10x_p/CH32V10x_Lib/ch32v10x_exti.c:142
  }
  else
  {
    bitstatus = RESET;
    26c2:	fe042623          	sw	zero,-20(s0)
D:/Desktop/智能车基地/CH32V103_SmartCar_V1.0/4.Demo/Libraries/Device/CH32V10x_p/CH32V10x_Lib/ch32v10x_exti.c:144
  }
  return bitstatus;
    26c6:	fec42783          	lw	a5,-20(s0)
D:/Desktop/智能车基地/CH32V103_SmartCar_V1.0/4.Demo/Libraries/Device/CH32V10x_p/CH32V10x_Lib/ch32v10x_exti.c:145
}
    26ca:	853e                	mv	a0,a5
    26cc:	5432                	lw	s0,44(sp)
    26ce:	6145                	addi	sp,sp,48
    26d0:	8082                	ret

000026d2 <EXTI_ClearITPendingBit>:
EXTI_ClearITPendingBit():
D:/Desktop/智能车基地/CH32V103_SmartCar_V1.0/4.Demo/Libraries/Device/CH32V10x_p/CH32V10x_Lib/ch32v10x_exti.c:154
* Description    : Clears the EXTI's line pending bits.
* Input          : EXTI_Line: specifies the EXTI lines to be enabled or disabled.
* Return         : None
*********************************************************************************/
void EXTI_ClearITPendingBit(uint32_t EXTI_Line)
{  
    26d2:	1101                	addi	sp,sp,-32
    26d4:	ce22                	sw	s0,28(sp)
    26d6:	1000                	addi	s0,sp,32
    26d8:	fea42623          	sw	a0,-20(s0)
D:/Desktop/智能车基地/CH32V103_SmartCar_V1.0/4.Demo/Libraries/Device/CH32V10x_p/CH32V10x_Lib/ch32v10x_exti.c:155
  EXTI->INTFR = EXTI_Line;
    26dc:	400107b7          	lui	a5,0x40010
    26e0:	40078793          	addi	a5,a5,1024 # 40010400 <_eusrstack+0x2000b400>
    26e4:	fec42703          	lw	a4,-20(s0)
    26e8:	cbd8                	sw	a4,20(a5)
D:/Desktop/智能车基地/CH32V103_SmartCar_V1.0/4.Demo/Libraries/Device/CH32V10x_p/CH32V10x_Lib/ch32v10x_exti.c:156
}
    26ea:	0001                	nop
    26ec:	4472                	lw	s0,28(sp)
    26ee:	6105                	addi	sp,sp,32
    26f0:	8082                	ret

000026f2 <GPIO_Init>:
GPIO_Init():
D:/Desktop/智能车基地/CH32V103_SmartCar_V1.0/4.Demo/Libraries/Device/CH32V10x_p/CH32V10x_Lib/ch32v10x_gpio.c:88
* Input          : GPIO_InitStruct: pointer to a GPIO_InitTypeDef structure that
*      contains the configuration information for the specified GPIO peripheral.
* Return         : None
*******************************************************************************/
void GPIO_Init(GPIO_TypeDef* GPIOx, GPIO_InitTypeDef* GPIO_InitStruct)
{
    26f2:	7139                	addi	sp,sp,-64
    26f4:	de22                	sw	s0,60(sp)
    26f6:	0080                	addi	s0,sp,64
    26f8:	fca42623          	sw	a0,-52(s0)
    26fc:	fcb42423          	sw	a1,-56(s0)
D:/Desktop/智能车基地/CH32V103_SmartCar_V1.0/4.Demo/Libraries/Device/CH32V10x_p/CH32V10x_Lib/ch32v10x_gpio.c:89
  uint32_t currentmode = 0x00, currentpin = 0x00, pinpos = 0x00, pos = 0x00;
    2700:	fe042623          	sw	zero,-20(s0)
    2704:	fe042023          	sw	zero,-32(s0)
    2708:	fe042423          	sw	zero,-24(s0)
    270c:	fc042e23          	sw	zero,-36(s0)
D:/Desktop/智能车基地/CH32V103_SmartCar_V1.0/4.Demo/Libraries/Device/CH32V10x_p/CH32V10x_Lib/ch32v10x_gpio.c:90
  uint32_t tmpreg = 0x00, pinmask = 0x00;
    2710:	fe042223          	sw	zero,-28(s0)
    2714:	fc042c23          	sw	zero,-40(s0)
D:/Desktop/智能车基地/CH32V103_SmartCar_V1.0/4.Demo/Libraries/Device/CH32V10x_p/CH32V10x_Lib/ch32v10x_gpio.c:92

  currentmode = ((uint32_t)GPIO_InitStruct->GPIO_Mode) & ((uint32_t)0x0F);
    2718:	fc842783          	lw	a5,-56(s0)
    271c:	479c                	lw	a5,8(a5)
    271e:	8bbd                	andi	a5,a5,15
    2720:	fef42623          	sw	a5,-20(s0)
D:/Desktop/智能车基地/CH32V103_SmartCar_V1.0/4.Demo/Libraries/Device/CH32V10x_p/CH32V10x_Lib/ch32v10x_gpio.c:94
	
  if ((((uint32_t)GPIO_InitStruct->GPIO_Mode) & ((uint32_t)0x10)) != 0x00)
    2724:	fc842783          	lw	a5,-56(s0)
    2728:	479c                	lw	a5,8(a5)
    272a:	8bc1                	andi	a5,a5,16
    272c:	cb89                	beqz	a5,273e <GPIO_Init+0x4c>
D:/Desktop/智能车基地/CH32V103_SmartCar_V1.0/4.Demo/Libraries/Device/CH32V10x_p/CH32V10x_Lib/ch32v10x_gpio.c:96
  { 
    currentmode |= (uint32_t)GPIO_InitStruct->GPIO_Speed;
    272e:	fc842783          	lw	a5,-56(s0)
    2732:	43dc                	lw	a5,4(a5)
    2734:	fec42703          	lw	a4,-20(s0)
    2738:	8fd9                	or	a5,a5,a4
    273a:	fef42623          	sw	a5,-20(s0)
D:/Desktop/智能车基地/CH32V103_SmartCar_V1.0/4.Demo/Libraries/Device/CH32V10x_p/CH32V10x_Lib/ch32v10x_gpio.c:99
  }

  if (((uint32_t)GPIO_InitStruct->GPIO_Pin & ((uint32_t)0x00FF)) != 0x00)
    273e:	fc842783          	lw	a5,-56(s0)
    2742:	0007d783          	lhu	a5,0(a5)
    2746:	0ff7f793          	andi	a5,a5,255
    274a:	cff1                	beqz	a5,2826 <GPIO_Init+0x134>
D:/Desktop/智能车基地/CH32V103_SmartCar_V1.0/4.Demo/Libraries/Device/CH32V10x_p/CH32V10x_Lib/ch32v10x_gpio.c:101
  {
    tmpreg = GPIOx->CFGLR;
    274c:	fcc42783          	lw	a5,-52(s0)
    2750:	439c                	lw	a5,0(a5)
    2752:	fef42223          	sw	a5,-28(s0)
D:/Desktop/智能车基地/CH32V103_SmartCar_V1.0/4.Demo/Libraries/Device/CH32V10x_p/CH32V10x_Lib/ch32v10x_gpio.c:103
		
    for (pinpos = 0x00; pinpos < 0x08; pinpos++)
    2756:	fe042423          	sw	zero,-24(s0)
    275a:	a865                	j	2812 <GPIO_Init+0x120>
D:/Desktop/智能车基地/CH32V103_SmartCar_V1.0/4.Demo/Libraries/Device/CH32V10x_p/CH32V10x_Lib/ch32v10x_gpio.c:105
    {
      pos = ((uint32_t)0x01) << pinpos;
    275c:	fe842783          	lw	a5,-24(s0)
    2760:	4705                	li	a4,1
    2762:	00f717b3          	sll	a5,a4,a5
    2766:	fcf42e23          	sw	a5,-36(s0)
D:/Desktop/智能车基地/CH32V103_SmartCar_V1.0/4.Demo/Libraries/Device/CH32V10x_p/CH32V10x_Lib/ch32v10x_gpio.c:106
      currentpin = (GPIO_InitStruct->GPIO_Pin) & pos;
    276a:	fc842783          	lw	a5,-56(s0)
    276e:	0007d783          	lhu	a5,0(a5)
    2772:	873e                	mv	a4,a5
    2774:	fdc42783          	lw	a5,-36(s0)
    2778:	8ff9                	and	a5,a5,a4
    277a:	fef42023          	sw	a5,-32(s0)
D:/Desktop/智能车基地/CH32V103_SmartCar_V1.0/4.Demo/Libraries/Device/CH32V10x_p/CH32V10x_Lib/ch32v10x_gpio.c:108
			
      if (currentpin == pos)
    277e:	fe042703          	lw	a4,-32(s0)
    2782:	fdc42783          	lw	a5,-36(s0)
    2786:	08f71163          	bne	a4,a5,2808 <GPIO_Init+0x116>
D:/Desktop/智能车基地/CH32V103_SmartCar_V1.0/4.Demo/Libraries/Device/CH32V10x_p/CH32V10x_Lib/ch32v10x_gpio.c:110
      {
        pos = pinpos << 2;
    278a:	fe842783          	lw	a5,-24(s0)
    278e:	078a                	slli	a5,a5,0x2
    2790:	fcf42e23          	sw	a5,-36(s0)
D:/Desktop/智能车基地/CH32V103_SmartCar_V1.0/4.Demo/Libraries/Device/CH32V10x_p/CH32V10x_Lib/ch32v10x_gpio.c:111
        pinmask = ((uint32_t)0x0F) << pos;
    2794:	fdc42783          	lw	a5,-36(s0)
    2798:	473d                	li	a4,15
    279a:	00f717b3          	sll	a5,a4,a5
    279e:	fcf42c23          	sw	a5,-40(s0)
D:/Desktop/智能车基地/CH32V103_SmartCar_V1.0/4.Demo/Libraries/Device/CH32V10x_p/CH32V10x_Lib/ch32v10x_gpio.c:112
        tmpreg &= ~pinmask;
    27a2:	fd842783          	lw	a5,-40(s0)
    27a6:	fff7c793          	not	a5,a5
    27aa:	fe442703          	lw	a4,-28(s0)
    27ae:	8ff9                	and	a5,a5,a4
    27b0:	fef42223          	sw	a5,-28(s0)
D:/Desktop/智能车基地/CH32V103_SmartCar_V1.0/4.Demo/Libraries/Device/CH32V10x_p/CH32V10x_Lib/ch32v10x_gpio.c:113
        tmpreg |= (currentmode << pos);
    27b4:	fdc42783          	lw	a5,-36(s0)
    27b8:	fec42703          	lw	a4,-20(s0)
    27bc:	00f717b3          	sll	a5,a4,a5
    27c0:	fe442703          	lw	a4,-28(s0)
    27c4:	8fd9                	or	a5,a5,a4
    27c6:	fef42223          	sw	a5,-28(s0)
D:/Desktop/智能车基地/CH32V103_SmartCar_V1.0/4.Demo/Libraries/Device/CH32V10x_p/CH32V10x_Lib/ch32v10x_gpio.c:115

        if (GPIO_InitStruct->GPIO_Mode == GPIO_Mode_IPD)
    27ca:	fc842783          	lw	a5,-56(s0)
    27ce:	4798                	lw	a4,8(a5)
    27d0:	02800793          	li	a5,40
    27d4:	00f71b63          	bne	a4,a5,27ea <GPIO_Init+0xf8>
D:/Desktop/智能车基地/CH32V103_SmartCar_V1.0/4.Demo/Libraries/Device/CH32V10x_p/CH32V10x_Lib/ch32v10x_gpio.c:117
        {
          GPIOx->BCR = (((uint32_t)0x01) << pinpos);
    27d8:	fe842783          	lw	a5,-24(s0)
    27dc:	4705                	li	a4,1
    27de:	00f71733          	sll	a4,a4,a5
    27e2:	fcc42783          	lw	a5,-52(s0)
    27e6:	cbd8                	sw	a4,20(a5)
    27e8:	a005                	j	2808 <GPIO_Init+0x116>
D:/Desktop/智能车基地/CH32V103_SmartCar_V1.0/4.Demo/Libraries/Device/CH32V10x_p/CH32V10x_Lib/ch32v10x_gpio.c:121
        }
        else
        {
          if (GPIO_InitStruct->GPIO_Mode == GPIO_Mode_IPU)
    27ea:	fc842783          	lw	a5,-56(s0)
    27ee:	4798                	lw	a4,8(a5)
    27f0:	04800793          	li	a5,72
    27f4:	00f71a63          	bne	a4,a5,2808 <GPIO_Init+0x116>
D:/Desktop/智能车基地/CH32V103_SmartCar_V1.0/4.Demo/Libraries/Device/CH32V10x_p/CH32V10x_Lib/ch32v10x_gpio.c:123
          {
            GPIOx->BSHR = (((uint32_t)0x01) << pinpos);
    27f8:	fe842783          	lw	a5,-24(s0)
    27fc:	4705                	li	a4,1
    27fe:	00f71733          	sll	a4,a4,a5
    2802:	fcc42783          	lw	a5,-52(s0)
    2806:	cb98                	sw	a4,16(a5)
D:/Desktop/智能车基地/CH32V103_SmartCar_V1.0/4.Demo/Libraries/Device/CH32V10x_p/CH32V10x_Lib/ch32v10x_gpio.c:103 (discriminator 2)
    for (pinpos = 0x00; pinpos < 0x08; pinpos++)
    2808:	fe842783          	lw	a5,-24(s0)
    280c:	0785                	addi	a5,a5,1
    280e:	fef42423          	sw	a5,-24(s0)
D:/Desktop/智能车基地/CH32V103_SmartCar_V1.0/4.Demo/Libraries/Device/CH32V10x_p/CH32V10x_Lib/ch32v10x_gpio.c:103 (discriminator 1)
    2812:	fe842703          	lw	a4,-24(s0)
    2816:	479d                	li	a5,7
    2818:	f4e7f2e3          	bgeu	a5,a4,275c <GPIO_Init+0x6a>
D:/Desktop/智能车基地/CH32V103_SmartCar_V1.0/4.Demo/Libraries/Device/CH32V10x_p/CH32V10x_Lib/ch32v10x_gpio.c:128
          }
        }
      }
    }
    GPIOx->CFGLR = tmpreg;
    281c:	fcc42783          	lw	a5,-52(s0)
    2820:	fe442703          	lw	a4,-28(s0)
    2824:	c398                	sw	a4,0(a5)
D:/Desktop/智能车基地/CH32V103_SmartCar_V1.0/4.Demo/Libraries/Device/CH32V10x_p/CH32V10x_Lib/ch32v10x_gpio.c:131
  }

  if (GPIO_InitStruct->GPIO_Pin > 0x00FF)
    2826:	fc842783          	lw	a5,-56(s0)
    282a:	0007d703          	lhu	a4,0(a5)
    282e:	0ff00793          	li	a5,255
    2832:	0ee7f163          	bgeu	a5,a4,2914 <GPIO_Init+0x222>
D:/Desktop/智能车基地/CH32V103_SmartCar_V1.0/4.Demo/Libraries/Device/CH32V10x_p/CH32V10x_Lib/ch32v10x_gpio.c:133
  {
    tmpreg = GPIOx->CFGHR;
    2836:	fcc42783          	lw	a5,-52(s0)
    283a:	43dc                	lw	a5,4(a5)
    283c:	fef42223          	sw	a5,-28(s0)
D:/Desktop/智能车基地/CH32V103_SmartCar_V1.0/4.Demo/Libraries/Device/CH32V10x_p/CH32V10x_Lib/ch32v10x_gpio.c:135
		
    for (pinpos = 0x00; pinpos < 0x08; pinpos++)
    2840:	fe042423          	sw	zero,-24(s0)
    2844:	a875                	j	2900 <GPIO_Init+0x20e>
D:/Desktop/智能车基地/CH32V103_SmartCar_V1.0/4.Demo/Libraries/Device/CH32V10x_p/CH32V10x_Lib/ch32v10x_gpio.c:137
    {
      pos = (((uint32_t)0x01) << (pinpos + 0x08));
    2846:	fe842783          	lw	a5,-24(s0)
    284a:	07a1                	addi	a5,a5,8
    284c:	4705                	li	a4,1
    284e:	00f717b3          	sll	a5,a4,a5
    2852:	fcf42e23          	sw	a5,-36(s0)
D:/Desktop/智能车基地/CH32V103_SmartCar_V1.0/4.Demo/Libraries/Device/CH32V10x_p/CH32V10x_Lib/ch32v10x_gpio.c:138
      currentpin = ((GPIO_InitStruct->GPIO_Pin) & pos);
    2856:	fc842783          	lw	a5,-56(s0)
    285a:	0007d783          	lhu	a5,0(a5)
    285e:	873e                	mv	a4,a5
    2860:	fdc42783          	lw	a5,-36(s0)
    2864:	8ff9                	and	a5,a5,a4
    2866:	fef42023          	sw	a5,-32(s0)
D:/Desktop/智能车基地/CH32V103_SmartCar_V1.0/4.Demo/Libraries/Device/CH32V10x_p/CH32V10x_Lib/ch32v10x_gpio.c:140
			
      if (currentpin == pos)
    286a:	fe042703          	lw	a4,-32(s0)
    286e:	fdc42783          	lw	a5,-36(s0)
    2872:	08f71263          	bne	a4,a5,28f6 <GPIO_Init+0x204>
D:/Desktop/智能车基地/CH32V103_SmartCar_V1.0/4.Demo/Libraries/Device/CH32V10x_p/CH32V10x_Lib/ch32v10x_gpio.c:142
      {
        pos = pinpos << 2;
    2876:	fe842783          	lw	a5,-24(s0)
    287a:	078a                	slli	a5,a5,0x2
    287c:	fcf42e23          	sw	a5,-36(s0)
D:/Desktop/智能车基地/CH32V103_SmartCar_V1.0/4.Demo/Libraries/Device/CH32V10x_p/CH32V10x_Lib/ch32v10x_gpio.c:143
        pinmask = ((uint32_t)0x0F) << pos;
    2880:	fdc42783          	lw	a5,-36(s0)
    2884:	473d                	li	a4,15
    2886:	00f717b3          	sll	a5,a4,a5
    288a:	fcf42c23          	sw	a5,-40(s0)
D:/Desktop/智能车基地/CH32V103_SmartCar_V1.0/4.Demo/Libraries/Device/CH32V10x_p/CH32V10x_Lib/ch32v10x_gpio.c:144
        tmpreg &= ~pinmask;
    288e:	fd842783          	lw	a5,-40(s0)
    2892:	fff7c793          	not	a5,a5
    2896:	fe442703          	lw	a4,-28(s0)
    289a:	8ff9                	and	a5,a5,a4
    289c:	fef42223          	sw	a5,-28(s0)
D:/Desktop/智能车基地/CH32V103_SmartCar_V1.0/4.Demo/Libraries/Device/CH32V10x_p/CH32V10x_Lib/ch32v10x_gpio.c:145
        tmpreg |= (currentmode << pos);
    28a0:	fdc42783          	lw	a5,-36(s0)
    28a4:	fec42703          	lw	a4,-20(s0)
    28a8:	00f717b3          	sll	a5,a4,a5
    28ac:	fe442703          	lw	a4,-28(s0)
    28b0:	8fd9                	or	a5,a5,a4
    28b2:	fef42223          	sw	a5,-28(s0)
D:/Desktop/智能车基地/CH32V103_SmartCar_V1.0/4.Demo/Libraries/Device/CH32V10x_p/CH32V10x_Lib/ch32v10x_gpio.c:147

        if (GPIO_InitStruct->GPIO_Mode == GPIO_Mode_IPD)
    28b6:	fc842783          	lw	a5,-56(s0)
    28ba:	4798                	lw	a4,8(a5)
    28bc:	02800793          	li	a5,40
    28c0:	00f71b63          	bne	a4,a5,28d6 <GPIO_Init+0x1e4>
D:/Desktop/智能车基地/CH32V103_SmartCar_V1.0/4.Demo/Libraries/Device/CH32V10x_p/CH32V10x_Lib/ch32v10x_gpio.c:149
        {
          GPIOx->BCR = (((uint32_t)0x01) << (pinpos + 0x08));
    28c4:	fe842783          	lw	a5,-24(s0)
    28c8:	07a1                	addi	a5,a5,8
    28ca:	4705                	li	a4,1
    28cc:	00f71733          	sll	a4,a4,a5
    28d0:	fcc42783          	lw	a5,-52(s0)
    28d4:	cbd8                	sw	a4,20(a5)
D:/Desktop/智能车基地/CH32V103_SmartCar_V1.0/4.Demo/Libraries/Device/CH32V10x_p/CH32V10x_Lib/ch32v10x_gpio.c:152
        }

        if (GPIO_InitStruct->GPIO_Mode == GPIO_Mode_IPU)
    28d6:	fc842783          	lw	a5,-56(s0)
    28da:	4798                	lw	a4,8(a5)
    28dc:	04800793          	li	a5,72
    28e0:	00f71b63          	bne	a4,a5,28f6 <GPIO_Init+0x204>
D:/Desktop/智能车基地/CH32V103_SmartCar_V1.0/4.Demo/Libraries/Device/CH32V10x_p/CH32V10x_Lib/ch32v10x_gpio.c:154
        {
          GPIOx->BSHR = (((uint32_t)0x01) << (pinpos + 0x08));
    28e4:	fe842783          	lw	a5,-24(s0)
    28e8:	07a1                	addi	a5,a5,8
    28ea:	4705                	li	a4,1
    28ec:	00f71733          	sll	a4,a4,a5
    28f0:	fcc42783          	lw	a5,-52(s0)
    28f4:	cb98                	sw	a4,16(a5)
D:/Desktop/智能车基地/CH32V103_SmartCar_V1.0/4.Demo/Libraries/Device/CH32V10x_p/CH32V10x_Lib/ch32v10x_gpio.c:135 (discriminator 2)
    for (pinpos = 0x00; pinpos < 0x08; pinpos++)
    28f6:	fe842783          	lw	a5,-24(s0)
    28fa:	0785                	addi	a5,a5,1
    28fc:	fef42423          	sw	a5,-24(s0)
D:/Desktop/智能车基地/CH32V103_SmartCar_V1.0/4.Demo/Libraries/Device/CH32V10x_p/CH32V10x_Lib/ch32v10x_gpio.c:135 (discriminator 1)
    2900:	fe842703          	lw	a4,-24(s0)
    2904:	479d                	li	a5,7
    2906:	f4e7f0e3          	bgeu	a5,a4,2846 <GPIO_Init+0x154>
D:/Desktop/智能车基地/CH32V103_SmartCar_V1.0/4.Demo/Libraries/Device/CH32V10x_p/CH32V10x_Lib/ch32v10x_gpio.c:158
        }
      }
    }
    GPIOx->CFGHR = tmpreg;
    290a:	fcc42783          	lw	a5,-52(s0)
    290e:	fe442703          	lw	a4,-28(s0)
    2912:	c3d8                	sw	a4,4(a5)
D:/Desktop/智能车基地/CH32V103_SmartCar_V1.0/4.Demo/Libraries/Device/CH32V10x_p/CH32V10x_Lib/ch32v10x_gpio.c:160
  }
}
    2914:	0001                	nop
    2916:	5472                	lw	s0,60(sp)
    2918:	6121                	addi	sp,sp,64
    291a:	8082                	ret

0000291c <GPIO_WriteBit>:
GPIO_WriteBit():
D:/Desktop/智能车基地/CH32V103_SmartCar_V1.0/4.Demo/Libraries/Device/CH32V10x_p/CH32V10x_Lib/ch32v10x_gpio.c:282
*                    Bit_SetL: to clear the port pin.
*                    Bit_SetH: to set the port pin.                  
* Return         : None
*******************************************************************************/
void GPIO_WriteBit(GPIO_TypeDef* GPIOx, uint16_t GPIO_Pin, BitAction BitVal)
{
    291c:	1101                	addi	sp,sp,-32
    291e:	ce22                	sw	s0,28(sp)
    2920:	1000                	addi	s0,sp,32
    2922:	fea42623          	sw	a0,-20(s0)
    2926:	87ae                	mv	a5,a1
    2928:	fec42223          	sw	a2,-28(s0)
    292c:	fef41523          	sh	a5,-22(s0)
D:/Desktop/智能车基地/CH32V103_SmartCar_V1.0/4.Demo/Libraries/Device/CH32V10x_p/CH32V10x_Lib/ch32v10x_gpio.c:283
  if (BitVal != Bit_RESET)
    2930:	fe442783          	lw	a5,-28(s0)
    2934:	c799                	beqz	a5,2942 <GPIO_WriteBit+0x26>
D:/Desktop/智能车基地/CH32V103_SmartCar_V1.0/4.Demo/Libraries/Device/CH32V10x_p/CH32V10x_Lib/ch32v10x_gpio.c:285
  {
    GPIOx->BSHR = GPIO_Pin;
    2936:	fea45703          	lhu	a4,-22(s0)
    293a:	fec42783          	lw	a5,-20(s0)
    293e:	cb98                	sw	a4,16(a5)
D:/Desktop/智能车基地/CH32V103_SmartCar_V1.0/4.Demo/Libraries/Device/CH32V10x_p/CH32V10x_Lib/ch32v10x_gpio.c:291
  }
  else
  {
    GPIOx->BCR = GPIO_Pin;
  }
}
    2940:	a031                	j	294c <GPIO_WriteBit+0x30>
D:/Desktop/智能车基地/CH32V103_SmartCar_V1.0/4.Demo/Libraries/Device/CH32V10x_p/CH32V10x_Lib/ch32v10x_gpio.c:289
    GPIOx->BCR = GPIO_Pin;
    2942:	fea45703          	lhu	a4,-22(s0)
    2946:	fec42783          	lw	a5,-20(s0)
    294a:	cbd8                	sw	a4,20(a5)
D:/Desktop/智能车基地/CH32V103_SmartCar_V1.0/4.Demo/Libraries/Device/CH32V10x_p/CH32V10x_Lib/ch32v10x_gpio.c:291
}
    294c:	0001                	nop
    294e:	4472                	lw	s0,28(sp)
    2950:	6105                	addi	sp,sp,32
    2952:	8082                	ret

00002954 <RCC_ADCCLKConfig>:
RCC_ADCCLKConfig():
D:/Desktop/智能车基地/CH32V103_SmartCar_V1.0/4.Demo/Libraries/Device/CH32V10x_p/CH32V10x_Lib/ch32v10x_rcc.c:373
*                    RCC_PCLK2_Div6: ADC clock = PCLK2/6.
*                    RCC_PCLK2_Div8: ADC clock = PCLK2/8.
* Return         : None
********************************************************************************/
void RCC_ADCCLKConfig(uint32_t RCC_PCLK2)
{
    2954:	7179                	addi	sp,sp,-48
    2956:	d622                	sw	s0,44(sp)
    2958:	1800                	addi	s0,sp,48
    295a:	fca42e23          	sw	a0,-36(s0)
D:/Desktop/智能车基地/CH32V103_SmartCar_V1.0/4.Demo/Libraries/Device/CH32V10x_p/CH32V10x_Lib/ch32v10x_rcc.c:374
  uint32_t tmpreg = 0;
    295e:	fe042623          	sw	zero,-20(s0)
D:/Desktop/智能车基地/CH32V103_SmartCar_V1.0/4.Demo/Libraries/Device/CH32V10x_p/CH32V10x_Lib/ch32v10x_rcc.c:376

  tmpreg = RCC->CFGR0;
    2962:	400217b7          	lui	a5,0x40021
    2966:	43dc                	lw	a5,4(a5)
    2968:	fef42623          	sw	a5,-20(s0)
D:/Desktop/智能车基地/CH32V103_SmartCar_V1.0/4.Demo/Libraries/Device/CH32V10x_p/CH32V10x_Lib/ch32v10x_rcc.c:377
  tmpreg &= CFGR0_ADCPRE_Reset_Mask;
    296c:	fec42703          	lw	a4,-20(s0)
    2970:	77d1                	lui	a5,0xffff4
    2972:	17fd                	addi	a5,a5,-1
    2974:	8ff9                	and	a5,a5,a4
    2976:	fef42623          	sw	a5,-20(s0)
D:/Desktop/智能车基地/CH32V103_SmartCar_V1.0/4.Demo/Libraries/Device/CH32V10x_p/CH32V10x_Lib/ch32v10x_rcc.c:378
  tmpreg |= RCC_PCLK2;
    297a:	fec42703          	lw	a4,-20(s0)
    297e:	fdc42783          	lw	a5,-36(s0)
    2982:	8fd9                	or	a5,a5,a4
    2984:	fef42623          	sw	a5,-20(s0)
D:/Desktop/智能车基地/CH32V103_SmartCar_V1.0/4.Demo/Libraries/Device/CH32V10x_p/CH32V10x_Lib/ch32v10x_rcc.c:379
  RCC->CFGR0 = tmpreg;
    2988:	400217b7          	lui	a5,0x40021
    298c:	fec42703          	lw	a4,-20(s0)
    2990:	c3d8                	sw	a4,4(a5)
D:/Desktop/智能车基地/CH32V103_SmartCar_V1.0/4.Demo/Libraries/Device/CH32V10x_p/CH32V10x_Lib/ch32v10x_rcc.c:380
}
    2992:	0001                	nop
    2994:	5432                	lw	s0,44(sp)
    2996:	6145                	addi	sp,sp,48
    2998:	8082                	ret

0000299a <RCC_GetClocksFreq>:
RCC_GetClocksFreq():
D:/Desktop/智能车基地/CH32V103_SmartCar_V1.0/4.Demo/Libraries/Device/CH32V10x_p/CH32V10x_Lib/ch32v10x_rcc.c:469
* Input          : The result of this function could be not correct when using
*      fractional value for HSE crystal.
* Return         : None
********************************************************************************/
void RCC_GetClocksFreq(RCC_ClocksTypeDef* RCC_Clocks)
{
    299a:	7179                	addi	sp,sp,-48
    299c:	d622                	sw	s0,44(sp)
    299e:	1800                	addi	s0,sp,48
    29a0:	fca42e23          	sw	a0,-36(s0)
D:/Desktop/智能车基地/CH32V103_SmartCar_V1.0/4.Demo/Libraries/Device/CH32V10x_p/CH32V10x_Lib/ch32v10x_rcc.c:470
  uint32_t tmp = 0, pllmull = 0, pllsource = 0, presc = 0;
    29a4:	fe042623          	sw	zero,-20(s0)
    29a8:	fe042423          	sw	zero,-24(s0)
    29ac:	fe042223          	sw	zero,-28(s0)
    29b0:	fe042023          	sw	zero,-32(s0)
D:/Desktop/智能车基地/CH32V103_SmartCar_V1.0/4.Demo/Libraries/Device/CH32V10x_p/CH32V10x_Lib/ch32v10x_rcc.c:472
  
  tmp = RCC->CFGR0 & CFGR0_SWS_Mask;
    29b4:	400217b7          	lui	a5,0x40021
    29b8:	43dc                	lw	a5,4(a5)
    29ba:	8bb1                	andi	a5,a5,12
    29bc:	fef42623          	sw	a5,-20(s0)
    29c0:	fec42703          	lw	a4,-20(s0)
    29c4:	4791                	li	a5,4
    29c6:	02f70263          	beq	a4,a5,29ea <RCC_GetClocksFreq+0x50>
    29ca:	fec42703          	lw	a4,-20(s0)
    29ce:	47a1                	li	a5,8
    29d0:	02f70563          	beq	a4,a5,29fa <RCC_GetClocksFreq+0x60>
    29d4:	fec42783          	lw	a5,-20(s0)
    29d8:	e7c5                	bnez	a5,2a80 <RCC_GetClocksFreq+0xe6>
D:/Desktop/智能车基地/CH32V103_SmartCar_V1.0/4.Demo/Libraries/Device/CH32V10x_p/CH32V10x_Lib/ch32v10x_rcc.c:477
  
  switch (tmp)
  {
    case 0x00: 
      RCC_Clocks->SYSCLK_Frequency = HSI_VALUE;
    29da:	fdc42783          	lw	a5,-36(s0)
    29de:	007a1737          	lui	a4,0x7a1
    29e2:	20070713          	addi	a4,a4,512 # 7a1200 <_data_lma+0x79d6c0>
    29e6:	c398                	sw	a4,0(a5)
D:/Desktop/智能车基地/CH32V103_SmartCar_V1.0/4.Demo/Libraries/Device/CH32V10x_p/CH32V10x_Lib/ch32v10x_rcc.c:478
      break;
    29e8:	a065                	j	2a90 <RCC_GetClocksFreq+0xf6>
D:/Desktop/智能车基地/CH32V103_SmartCar_V1.0/4.Demo/Libraries/Device/CH32V10x_p/CH32V10x_Lib/ch32v10x_rcc.c:481
		
    case 0x04:
      RCC_Clocks->SYSCLK_Frequency = HSE_VALUE;
    29ea:	fdc42783          	lw	a5,-36(s0)
    29ee:	007a1737          	lui	a4,0x7a1
    29f2:	20070713          	addi	a4,a4,512 # 7a1200 <_data_lma+0x79d6c0>
    29f6:	c398                	sw	a4,0(a5)
D:/Desktop/智能车基地/CH32V103_SmartCar_V1.0/4.Demo/Libraries/Device/CH32V10x_p/CH32V10x_Lib/ch32v10x_rcc.c:482
      break;
    29f8:	a861                	j	2a90 <RCC_GetClocksFreq+0xf6>
D:/Desktop/智能车基地/CH32V103_SmartCar_V1.0/4.Demo/Libraries/Device/CH32V10x_p/CH32V10x_Lib/ch32v10x_rcc.c:485
		
    case 0x08:
      pllmull = RCC->CFGR0 & CFGR0_PLLMull_Mask;
    29fa:	400217b7          	lui	a5,0x40021
    29fe:	43d8                	lw	a4,4(a5)
    2a00:	003c07b7          	lui	a5,0x3c0
    2a04:	8ff9                	and	a5,a5,a4
    2a06:	fef42423          	sw	a5,-24(s0)
D:/Desktop/智能车基地/CH32V103_SmartCar_V1.0/4.Demo/Libraries/Device/CH32V10x_p/CH32V10x_Lib/ch32v10x_rcc.c:486
      pllsource = RCC->CFGR0 & CFGR0_PLLSRC_Mask;    
    2a0a:	400217b7          	lui	a5,0x40021
    2a0e:	43d8                	lw	a4,4(a5)
    2a10:	67c1                	lui	a5,0x10
    2a12:	8ff9                	and	a5,a5,a4
    2a14:	fef42223          	sw	a5,-28(s0)
D:/Desktop/智能车基地/CH32V103_SmartCar_V1.0/4.Demo/Libraries/Device/CH32V10x_p/CH32V10x_Lib/ch32v10x_rcc.c:487
      pllmull = ( pllmull >> 18) + 2;
    2a18:	fe842783          	lw	a5,-24(s0)
    2a1c:	83c9                	srli	a5,a5,0x12
    2a1e:	0789                	addi	a5,a5,2
    2a20:	fef42423          	sw	a5,-24(s0)
D:/Desktop/智能车基地/CH32V103_SmartCar_V1.0/4.Demo/Libraries/Device/CH32V10x_p/CH32V10x_Lib/ch32v10x_rcc.c:489
      
      if (pllsource == 0x00)
    2a24:	fe442783          	lw	a5,-28(s0)
    2a28:	ef89                	bnez	a5,2a42 <RCC_GetClocksFreq+0xa8>
D:/Desktop/智能车基地/CH32V103_SmartCar_V1.0/4.Demo/Libraries/Device/CH32V10x_p/CH32V10x_Lib/ch32v10x_rcc.c:491
      {
        RCC_Clocks->SYSCLK_Frequency = (HSI_VALUE >> 1) * pllmull;
    2a2a:	fe842703          	lw	a4,-24(s0)
    2a2e:	003d17b7          	lui	a5,0x3d1
    2a32:	90078793          	addi	a5,a5,-1792 # 3d0900 <_data_lma+0x3ccdc0>
    2a36:	02f70733          	mul	a4,a4,a5
    2a3a:	fdc42783          	lw	a5,-36(s0)
    2a3e:	c398                	sw	a4,0(a5)
D:/Desktop/智能车基地/CH32V103_SmartCar_V1.0/4.Demo/Libraries/Device/CH32V10x_p/CH32V10x_Lib/ch32v10x_rcc.c:504
        else
        {
          RCC_Clocks->SYSCLK_Frequency = HSE_VALUE * pllmull;
        }
      } 
      break;
    2a40:	a881                	j	2a90 <RCC_GetClocksFreq+0xf6>
D:/Desktop/智能车基地/CH32V103_SmartCar_V1.0/4.Demo/Libraries/Device/CH32V10x_p/CH32V10x_Lib/ch32v10x_rcc.c:495
        if ((RCC->CFGR0 & CFGR0_PLLXTPRE_Mask) != (uint32_t)RESET)
    2a42:	400217b7          	lui	a5,0x40021
    2a46:	43d8                	lw	a4,4(a5)
    2a48:	000207b7          	lui	a5,0x20
    2a4c:	8ff9                	and	a5,a5,a4
    2a4e:	cf89                	beqz	a5,2a68 <RCC_GetClocksFreq+0xce>
D:/Desktop/智能车基地/CH32V103_SmartCar_V1.0/4.Demo/Libraries/Device/CH32V10x_p/CH32V10x_Lib/ch32v10x_rcc.c:497
          RCC_Clocks->SYSCLK_Frequency = (HSE_VALUE >> 1) * pllmull;
    2a50:	fe842703          	lw	a4,-24(s0)
    2a54:	003d17b7          	lui	a5,0x3d1
    2a58:	90078793          	addi	a5,a5,-1792 # 3d0900 <_data_lma+0x3ccdc0>
    2a5c:	02f70733          	mul	a4,a4,a5
    2a60:	fdc42783          	lw	a5,-36(s0)
    2a64:	c398                	sw	a4,0(a5)
D:/Desktop/智能车基地/CH32V103_SmartCar_V1.0/4.Demo/Libraries/Device/CH32V10x_p/CH32V10x_Lib/ch32v10x_rcc.c:504
      break;
    2a66:	a02d                	j	2a90 <RCC_GetClocksFreq+0xf6>
D:/Desktop/智能车基地/CH32V103_SmartCar_V1.0/4.Demo/Libraries/Device/CH32V10x_p/CH32V10x_Lib/ch32v10x_rcc.c:501
          RCC_Clocks->SYSCLK_Frequency = HSE_VALUE * pllmull;
    2a68:	fe842703          	lw	a4,-24(s0)
    2a6c:	007a17b7          	lui	a5,0x7a1
    2a70:	20078793          	addi	a5,a5,512 # 7a1200 <_data_lma+0x79d6c0>
    2a74:	02f70733          	mul	a4,a4,a5
    2a78:	fdc42783          	lw	a5,-36(s0)
    2a7c:	c398                	sw	a4,0(a5)
D:/Desktop/智能车基地/CH32V103_SmartCar_V1.0/4.Demo/Libraries/Device/CH32V10x_p/CH32V10x_Lib/ch32v10x_rcc.c:504
      break;
    2a7e:	a809                	j	2a90 <RCC_GetClocksFreq+0xf6>
D:/Desktop/智能车基地/CH32V103_SmartCar_V1.0/4.Demo/Libraries/Device/CH32V10x_p/CH32V10x_Lib/ch32v10x_rcc.c:507

    default:
      RCC_Clocks->SYSCLK_Frequency = HSI_VALUE;
    2a80:	fdc42783          	lw	a5,-36(s0)
    2a84:	007a1737          	lui	a4,0x7a1
    2a88:	20070713          	addi	a4,a4,512 # 7a1200 <_data_lma+0x79d6c0>
    2a8c:	c398                	sw	a4,0(a5)
D:/Desktop/智能车基地/CH32V103_SmartCar_V1.0/4.Demo/Libraries/Device/CH32V10x_p/CH32V10x_Lib/ch32v10x_rcc.c:508
      break;
    2a8e:	0001                	nop
D:/Desktop/智能车基地/CH32V103_SmartCar_V1.0/4.Demo/Libraries/Device/CH32V10x_p/CH32V10x_Lib/ch32v10x_rcc.c:511
  }

  tmp = RCC->CFGR0 & CFGR0_HPRE_Set_Mask;
    2a90:	400217b7          	lui	a5,0x40021
    2a94:	43dc                	lw	a5,4(a5)
    2a96:	0f07f793          	andi	a5,a5,240
    2a9a:	fef42623          	sw	a5,-20(s0)
D:/Desktop/智能车基地/CH32V103_SmartCar_V1.0/4.Demo/Libraries/Device/CH32V10x_p/CH32V10x_Lib/ch32v10x_rcc.c:512
  tmp = tmp >> 4;
    2a9e:	fec42783          	lw	a5,-20(s0)
    2aa2:	8391                	srli	a5,a5,0x4
    2aa4:	fef42623          	sw	a5,-20(s0)
D:/Desktop/智能车基地/CH32V103_SmartCar_V1.0/4.Demo/Libraries/Device/CH32V10x_p/CH32V10x_Lib/ch32v10x_rcc.c:513
  presc = APBAHBPrescTable[tmp];
    2aa8:	200007b7          	lui	a5,0x20000
    2aac:	00078713          	mv	a4,a5
    2ab0:	fec42783          	lw	a5,-20(s0)
    2ab4:	97ba                	add	a5,a5,a4
    2ab6:	0007c783          	lbu	a5,0(a5) # 20000000 <_data_vma>
    2aba:	0ff7f793          	andi	a5,a5,255
    2abe:	fef42023          	sw	a5,-32(s0)
D:/Desktop/智能车基地/CH32V103_SmartCar_V1.0/4.Demo/Libraries/Device/CH32V10x_p/CH32V10x_Lib/ch32v10x_rcc.c:514
  RCC_Clocks->HCLK_Frequency = RCC_Clocks->SYSCLK_Frequency >> presc;
    2ac2:	fdc42783          	lw	a5,-36(s0)
    2ac6:	4398                	lw	a4,0(a5)
    2ac8:	fe042783          	lw	a5,-32(s0)
    2acc:	00f75733          	srl	a4,a4,a5
    2ad0:	fdc42783          	lw	a5,-36(s0)
    2ad4:	c3d8                	sw	a4,4(a5)
D:/Desktop/智能车基地/CH32V103_SmartCar_V1.0/4.Demo/Libraries/Device/CH32V10x_p/CH32V10x_Lib/ch32v10x_rcc.c:515
  tmp = RCC->CFGR0 & CFGR0_PPRE1_Set_Mask;
    2ad6:	400217b7          	lui	a5,0x40021
    2ada:	43dc                	lw	a5,4(a5)
    2adc:	7007f793          	andi	a5,a5,1792
    2ae0:	fef42623          	sw	a5,-20(s0)
D:/Desktop/智能车基地/CH32V103_SmartCar_V1.0/4.Demo/Libraries/Device/CH32V10x_p/CH32V10x_Lib/ch32v10x_rcc.c:516
  tmp = tmp >> 8;
    2ae4:	fec42783          	lw	a5,-20(s0)
    2ae8:	83a1                	srli	a5,a5,0x8
    2aea:	fef42623          	sw	a5,-20(s0)
D:/Desktop/智能车基地/CH32V103_SmartCar_V1.0/4.Demo/Libraries/Device/CH32V10x_p/CH32V10x_Lib/ch32v10x_rcc.c:517
  presc = APBAHBPrescTable[tmp];
    2aee:	200007b7          	lui	a5,0x20000
    2af2:	00078713          	mv	a4,a5
    2af6:	fec42783          	lw	a5,-20(s0)
    2afa:	97ba                	add	a5,a5,a4
    2afc:	0007c783          	lbu	a5,0(a5) # 20000000 <_data_vma>
    2b00:	0ff7f793          	andi	a5,a5,255
    2b04:	fef42023          	sw	a5,-32(s0)
D:/Desktop/智能车基地/CH32V103_SmartCar_V1.0/4.Demo/Libraries/Device/CH32V10x_p/CH32V10x_Lib/ch32v10x_rcc.c:518
  RCC_Clocks->PCLK1_Frequency = RCC_Clocks->HCLK_Frequency >> presc;
    2b08:	fdc42783          	lw	a5,-36(s0)
    2b0c:	43d8                	lw	a4,4(a5)
    2b0e:	fe042783          	lw	a5,-32(s0)
    2b12:	00f75733          	srl	a4,a4,a5
    2b16:	fdc42783          	lw	a5,-36(s0)
    2b1a:	c798                	sw	a4,8(a5)
D:/Desktop/智能车基地/CH32V103_SmartCar_V1.0/4.Demo/Libraries/Device/CH32V10x_p/CH32V10x_Lib/ch32v10x_rcc.c:519
  tmp = RCC->CFGR0 & CFGR0_PPRE2_Set_Mask;
    2b1c:	400217b7          	lui	a5,0x40021
    2b20:	43d8                	lw	a4,4(a5)
    2b22:	6791                	lui	a5,0x4
    2b24:	80078793          	addi	a5,a5,-2048 # 3800 <USART_Init+0xd4>
    2b28:	8ff9                	and	a5,a5,a4
    2b2a:	fef42623          	sw	a5,-20(s0)
D:/Desktop/智能车基地/CH32V103_SmartCar_V1.0/4.Demo/Libraries/Device/CH32V10x_p/CH32V10x_Lib/ch32v10x_rcc.c:520
  tmp = tmp >> 11;
    2b2e:	fec42783          	lw	a5,-20(s0)
    2b32:	83ad                	srli	a5,a5,0xb
    2b34:	fef42623          	sw	a5,-20(s0)
D:/Desktop/智能车基地/CH32V103_SmartCar_V1.0/4.Demo/Libraries/Device/CH32V10x_p/CH32V10x_Lib/ch32v10x_rcc.c:521
  presc = APBAHBPrescTable[tmp];
    2b38:	200007b7          	lui	a5,0x20000
    2b3c:	00078713          	mv	a4,a5
    2b40:	fec42783          	lw	a5,-20(s0)
    2b44:	97ba                	add	a5,a5,a4
    2b46:	0007c783          	lbu	a5,0(a5) # 20000000 <_data_vma>
    2b4a:	0ff7f793          	andi	a5,a5,255
    2b4e:	fef42023          	sw	a5,-32(s0)
D:/Desktop/智能车基地/CH32V103_SmartCar_V1.0/4.Demo/Libraries/Device/CH32V10x_p/CH32V10x_Lib/ch32v10x_rcc.c:522
  RCC_Clocks->PCLK2_Frequency = RCC_Clocks->HCLK_Frequency >> presc;
    2b52:	fdc42783          	lw	a5,-36(s0)
    2b56:	43d8                	lw	a4,4(a5)
    2b58:	fe042783          	lw	a5,-32(s0)
    2b5c:	00f75733          	srl	a4,a4,a5
    2b60:	fdc42783          	lw	a5,-36(s0)
    2b64:	c7d8                	sw	a4,12(a5)
D:/Desktop/智能车基地/CH32V103_SmartCar_V1.0/4.Demo/Libraries/Device/CH32V10x_p/CH32V10x_Lib/ch32v10x_rcc.c:523
  tmp = RCC->CFGR0 & CFGR0_ADCPRE_Set_Mask;
    2b66:	400217b7          	lui	a5,0x40021
    2b6a:	43d8                	lw	a4,4(a5)
    2b6c:	67b1                	lui	a5,0xc
    2b6e:	8ff9                	and	a5,a5,a4
    2b70:	fef42623          	sw	a5,-20(s0)
D:/Desktop/智能车基地/CH32V103_SmartCar_V1.0/4.Demo/Libraries/Device/CH32V10x_p/CH32V10x_Lib/ch32v10x_rcc.c:524
  tmp = tmp >> 14;
    2b74:	fec42783          	lw	a5,-20(s0)
    2b78:	83b9                	srli	a5,a5,0xe
    2b7a:	fef42623          	sw	a5,-20(s0)
D:/Desktop/智能车基地/CH32V103_SmartCar_V1.0/4.Demo/Libraries/Device/CH32V10x_p/CH32V10x_Lib/ch32v10x_rcc.c:525
  presc = ADCPrescTable[tmp];
    2b7e:	82018713          	addi	a4,gp,-2016 # 20000030 <ADCPrescTable>
    2b82:	fec42783          	lw	a5,-20(s0)
    2b86:	97ba                	add	a5,a5,a4
    2b88:	0007c783          	lbu	a5,0(a5) # c000 <_data_lma+0x84c0>
    2b8c:	0ff7f793          	andi	a5,a5,255
    2b90:	fef42023          	sw	a5,-32(s0)
D:/Desktop/智能车基地/CH32V103_SmartCar_V1.0/4.Demo/Libraries/Device/CH32V10x_p/CH32V10x_Lib/ch32v10x_rcc.c:526
  RCC_Clocks->ADCCLK_Frequency = RCC_Clocks->PCLK2_Frequency / presc;
    2b94:	fdc42783          	lw	a5,-36(s0)
    2b98:	47d8                	lw	a4,12(a5)
    2b9a:	fe042783          	lw	a5,-32(s0)
    2b9e:	02f75733          	divu	a4,a4,a5
    2ba2:	fdc42783          	lw	a5,-36(s0)
    2ba6:	cb98                	sw	a4,16(a5)
D:/Desktop/智能车基地/CH32V103_SmartCar_V1.0/4.Demo/Libraries/Device/CH32V10x_p/CH32V10x_Lib/ch32v10x_rcc.c:527
}
    2ba8:	0001                	nop
    2baa:	5432                	lw	s0,44(sp)
    2bac:	6145                	addi	sp,sp,48
    2bae:	8082                	ret

00002bb0 <RCC_APB2PeriphClockCmd>:
RCC_APB2PeriphClockCmd():
D:/Desktop/智能车基地/CH32V103_SmartCar_V1.0/4.Demo/Libraries/Device/CH32V10x_p/CH32V10x_Lib/ch32v10x_rcc.c:570
*                    RCC_APB2Periph_USART1.
*                  NewState: ENABLE or DISABLE
* Return         : None
*******************************************************************************/	
void RCC_APB2PeriphClockCmd(uint32_t RCC_APB2Periph, FunctionalState NewState)
{
    2bb0:	1101                	addi	sp,sp,-32
    2bb2:	ce22                	sw	s0,28(sp)
    2bb4:	1000                	addi	s0,sp,32
    2bb6:	fea42623          	sw	a0,-20(s0)
    2bba:	feb42423          	sw	a1,-24(s0)
D:/Desktop/智能车基地/CH32V103_SmartCar_V1.0/4.Demo/Libraries/Device/CH32V10x_p/CH32V10x_Lib/ch32v10x_rcc.c:571
  if (NewState != DISABLE)
    2bbe:	fe842783          	lw	a5,-24(s0)
    2bc2:	cb99                	beqz	a5,2bd8 <RCC_APB2PeriphClockCmd+0x28>
D:/Desktop/智能车基地/CH32V103_SmartCar_V1.0/4.Demo/Libraries/Device/CH32V10x_p/CH32V10x_Lib/ch32v10x_rcc.c:573
  {
    RCC->APB2PCENR |= RCC_APB2Periph;
    2bc4:	400217b7          	lui	a5,0x40021
    2bc8:	4f94                	lw	a3,24(a5)
    2bca:	400217b7          	lui	a5,0x40021
    2bce:	fec42703          	lw	a4,-20(s0)
    2bd2:	8f55                	or	a4,a4,a3
    2bd4:	cf98                	sw	a4,24(a5)
D:/Desktop/智能车基地/CH32V103_SmartCar_V1.0/4.Demo/Libraries/Device/CH32V10x_p/CH32V10x_Lib/ch32v10x_rcc.c:579
  }
  else
  {
    RCC->APB2PCENR &= ~RCC_APB2Periph;
  }
}
    2bd6:	a821                	j	2bee <RCC_APB2PeriphClockCmd+0x3e>
D:/Desktop/智能车基地/CH32V103_SmartCar_V1.0/4.Demo/Libraries/Device/CH32V10x_p/CH32V10x_Lib/ch32v10x_rcc.c:577
    RCC->APB2PCENR &= ~RCC_APB2Periph;
    2bd8:	400217b7          	lui	a5,0x40021
    2bdc:	4f94                	lw	a3,24(a5)
    2bde:	fec42783          	lw	a5,-20(s0)
    2be2:	fff7c713          	not	a4,a5
    2be6:	400217b7          	lui	a5,0x40021
    2bea:	8f75                	and	a4,a4,a3
    2bec:	cf98                	sw	a4,24(a5)
D:/Desktop/智能车基地/CH32V103_SmartCar_V1.0/4.Demo/Libraries/Device/CH32V10x_p/CH32V10x_Lib/ch32v10x_rcc.c:579
}
    2bee:	0001                	nop
    2bf0:	4472                	lw	s0,28(sp)
    2bf2:	6105                	addi	sp,sp,32
    2bf4:	8082                	ret

00002bf6 <RCC_APB1PeriphClockCmd>:
RCC_APB1PeriphClockCmd():
D:/Desktop/智能车基地/CH32V103_SmartCar_V1.0/4.Demo/Libraries/Device/CH32V10x_p/CH32V10x_Lib/ch32v10x_rcc.c:603
*                    RCC_APB1Periph_DAC.                
*                  NewState: ENABLE or DISABLE.
* Return         : None
*******************************************************************************/	
void RCC_APB1PeriphClockCmd(uint32_t RCC_APB1Periph, FunctionalState NewState)
{
    2bf6:	1101                	addi	sp,sp,-32
    2bf8:	ce22                	sw	s0,28(sp)
    2bfa:	1000                	addi	s0,sp,32
    2bfc:	fea42623          	sw	a0,-20(s0)
    2c00:	feb42423          	sw	a1,-24(s0)
D:/Desktop/智能车基地/CH32V103_SmartCar_V1.0/4.Demo/Libraries/Device/CH32V10x_p/CH32V10x_Lib/ch32v10x_rcc.c:604
  if (NewState != DISABLE)
    2c04:	fe842783          	lw	a5,-24(s0)
    2c08:	cb99                	beqz	a5,2c1e <RCC_APB1PeriphClockCmd+0x28>
D:/Desktop/智能车基地/CH32V103_SmartCar_V1.0/4.Demo/Libraries/Device/CH32V10x_p/CH32V10x_Lib/ch32v10x_rcc.c:606
  {
    RCC->APB1PCENR |= RCC_APB1Periph;
    2c0a:	400217b7          	lui	a5,0x40021
    2c0e:	4fd4                	lw	a3,28(a5)
    2c10:	400217b7          	lui	a5,0x40021
    2c14:	fec42703          	lw	a4,-20(s0)
    2c18:	8f55                	or	a4,a4,a3
    2c1a:	cfd8                	sw	a4,28(a5)
D:/Desktop/智能车基地/CH32V103_SmartCar_V1.0/4.Demo/Libraries/Device/CH32V10x_p/CH32V10x_Lib/ch32v10x_rcc.c:612
  }
  else
  {
    RCC->APB1PCENR &= ~RCC_APB1Periph;
  }
}
    2c1c:	a821                	j	2c34 <RCC_APB1PeriphClockCmd+0x3e>
D:/Desktop/智能车基地/CH32V103_SmartCar_V1.0/4.Demo/Libraries/Device/CH32V10x_p/CH32V10x_Lib/ch32v10x_rcc.c:610
    RCC->APB1PCENR &= ~RCC_APB1Periph;
    2c1e:	400217b7          	lui	a5,0x40021
    2c22:	4fd4                	lw	a3,28(a5)
    2c24:	fec42783          	lw	a5,-20(s0)
    2c28:	fff7c713          	not	a4,a5
    2c2c:	400217b7          	lui	a5,0x40021
    2c30:	8f75                	and	a4,a4,a3
    2c32:	cfd8                	sw	a4,28(a5)
D:/Desktop/智能车基地/CH32V103_SmartCar_V1.0/4.Demo/Libraries/Device/CH32V10x_p/CH32V10x_Lib/ch32v10x_rcc.c:612
}
    2c34:	0001                	nop
    2c36:	4472                	lw	s0,28(sp)
    2c38:	6105                	addi	sp,sp,32
    2c3a:	8082                	ret

00002c3c <RCC_APB2PeriphResetCmd>:
RCC_APB2PeriphResetCmd():
D:/Desktop/智能车基地/CH32V103_SmartCar_V1.0/4.Demo/Libraries/Device/CH32V10x_p/CH32V10x_Lib/ch32v10x_rcc.c:631
*                    RCC_APB2Periph_USART1.                
*                  NewState: ENABLE or DISABLE.
* Return         : None
*******************************************************************************/	
void RCC_APB2PeriphResetCmd(uint32_t RCC_APB2Periph, FunctionalState NewState)
{
    2c3c:	1101                	addi	sp,sp,-32
    2c3e:	ce22                	sw	s0,28(sp)
    2c40:	1000                	addi	s0,sp,32
    2c42:	fea42623          	sw	a0,-20(s0)
    2c46:	feb42423          	sw	a1,-24(s0)
D:/Desktop/智能车基地/CH32V103_SmartCar_V1.0/4.Demo/Libraries/Device/CH32V10x_p/CH32V10x_Lib/ch32v10x_rcc.c:632
  if (NewState != DISABLE)
    2c4a:	fe842783          	lw	a5,-24(s0)
    2c4e:	cb99                	beqz	a5,2c64 <RCC_APB2PeriphResetCmd+0x28>
D:/Desktop/智能车基地/CH32V103_SmartCar_V1.0/4.Demo/Libraries/Device/CH32V10x_p/CH32V10x_Lib/ch32v10x_rcc.c:634
  {
    RCC->APB2PRSTR |= RCC_APB2Periph;
    2c50:	400217b7          	lui	a5,0x40021
    2c54:	47d4                	lw	a3,12(a5)
    2c56:	400217b7          	lui	a5,0x40021
    2c5a:	fec42703          	lw	a4,-20(s0)
    2c5e:	8f55                	or	a4,a4,a3
    2c60:	c7d8                	sw	a4,12(a5)
D:/Desktop/智能车基地/CH32V103_SmartCar_V1.0/4.Demo/Libraries/Device/CH32V10x_p/CH32V10x_Lib/ch32v10x_rcc.c:640
  }
  else
  {
    RCC->APB2PRSTR &= ~RCC_APB2Periph;
  }
}
    2c62:	a821                	j	2c7a <RCC_APB2PeriphResetCmd+0x3e>
D:/Desktop/智能车基地/CH32V103_SmartCar_V1.0/4.Demo/Libraries/Device/CH32V10x_p/CH32V10x_Lib/ch32v10x_rcc.c:638
    RCC->APB2PRSTR &= ~RCC_APB2Periph;
    2c64:	400217b7          	lui	a5,0x40021
    2c68:	47d4                	lw	a3,12(a5)
    2c6a:	fec42783          	lw	a5,-20(s0)
    2c6e:	fff7c713          	not	a4,a5
    2c72:	400217b7          	lui	a5,0x40021
    2c76:	8f75                	and	a4,a4,a3
    2c78:	c7d8                	sw	a4,12(a5)
D:/Desktop/智能车基地/CH32V103_SmartCar_V1.0/4.Demo/Libraries/Device/CH32V10x_p/CH32V10x_Lib/ch32v10x_rcc.c:640
}
    2c7a:	0001                	nop
    2c7c:	4472                	lw	s0,28(sp)
    2c7e:	6105                	addi	sp,sp,32
    2c80:	8082                	ret

00002c82 <TIM_TimeBaseInit>:
TIM_TimeBaseInit():
D:/Desktop/智能车基地/CH32V103_SmartCar_V1.0/4.Demo/Libraries/Device/CH32V10x_p/CH32V10x_Lib/ch32v10x_tim.c:67
*                  TIM_TimeBaseInitStruct: pointer to a TIM_TimeBaseInitTypeDef
*      structure.
* Return         : None
*******************************************************************************/
void TIM_TimeBaseInit(TIM_TypeDef* TIMx, TIM_TimeBaseInitTypeDef* TIM_TimeBaseInitStruct)
{
    2c82:	7179                	addi	sp,sp,-48
    2c84:	d622                	sw	s0,44(sp)
    2c86:	1800                	addi	s0,sp,48
    2c88:	fca42e23          	sw	a0,-36(s0)
    2c8c:	fcb42c23          	sw	a1,-40(s0)
D:/Desktop/智能车基地/CH32V103_SmartCar_V1.0/4.Demo/Libraries/Device/CH32V10x_p/CH32V10x_Lib/ch32v10x_tim.c:68
  uint16_t tmpcr1 = 0;
    2c90:	fe041723          	sh	zero,-18(s0)
D:/Desktop/智能车基地/CH32V103_SmartCar_V1.0/4.Demo/Libraries/Device/CH32V10x_p/CH32V10x_Lib/ch32v10x_tim.c:70

  tmpcr1 = TIMx->CTLR1;  
    2c94:	fdc42783          	lw	a5,-36(s0)
    2c98:	0007d783          	lhu	a5,0(a5) # 40021000 <_eusrstack+0x2001c000>
    2c9c:	fef41723          	sh	a5,-18(s0)
D:/Desktop/智能车基地/CH32V103_SmartCar_V1.0/4.Demo/Libraries/Device/CH32V10x_p/CH32V10x_Lib/ch32v10x_tim.c:72

  if((TIMx == TIM1) || (TIMx == TIM2) || (TIMx == TIM3)|| (TIMx == TIM4)) 
    2ca0:	fdc42703          	lw	a4,-36(s0)
    2ca4:	400137b7          	lui	a5,0x40013
    2ca8:	c0078793          	addi	a5,a5,-1024 # 40012c00 <_eusrstack+0x2000dc00>
    2cac:	02f70863          	beq	a4,a5,2cdc <TIM_TimeBaseInit+0x5a>
D:/Desktop/智能车基地/CH32V103_SmartCar_V1.0/4.Demo/Libraries/Device/CH32V10x_p/CH32V10x_Lib/ch32v10x_tim.c:72 (discriminator 1)
    2cb0:	fdc42703          	lw	a4,-36(s0)
    2cb4:	400007b7          	lui	a5,0x40000
    2cb8:	02f70263          	beq	a4,a5,2cdc <TIM_TimeBaseInit+0x5a>
D:/Desktop/智能车基地/CH32V103_SmartCar_V1.0/4.Demo/Libraries/Device/CH32V10x_p/CH32V10x_Lib/ch32v10x_tim.c:72 (discriminator 2)
    2cbc:	fdc42703          	lw	a4,-36(s0)
    2cc0:	400007b7          	lui	a5,0x40000
    2cc4:	40078793          	addi	a5,a5,1024 # 40000400 <_eusrstack+0x1fffb400>
    2cc8:	00f70a63          	beq	a4,a5,2cdc <TIM_TimeBaseInit+0x5a>
D:/Desktop/智能车基地/CH32V103_SmartCar_V1.0/4.Demo/Libraries/Device/CH32V10x_p/CH32V10x_Lib/ch32v10x_tim.c:72 (discriminator 3)
    2ccc:	fdc42703          	lw	a4,-36(s0)
    2cd0:	400017b7          	lui	a5,0x40001
    2cd4:	80078793          	addi	a5,a5,-2048 # 40000800 <_eusrstack+0x1fffb800>
    2cd8:	02f71163          	bne	a4,a5,2cfa <TIM_TimeBaseInit+0x78>
D:/Desktop/智能车基地/CH32V103_SmartCar_V1.0/4.Demo/Libraries/Device/CH32V10x_p/CH32V10x_Lib/ch32v10x_tim.c:74
  {
    tmpcr1 &= (uint16_t)(~((uint16_t)(TIM_DIR | TIM_CMS)));
    2cdc:	fee45783          	lhu	a5,-18(s0)
    2ce0:	f8f7f793          	andi	a5,a5,-113
    2ce4:	fef41723          	sh	a5,-18(s0)
D:/Desktop/智能车基地/CH32V103_SmartCar_V1.0/4.Demo/Libraries/Device/CH32V10x_p/CH32V10x_Lib/ch32v10x_tim.c:75
    tmpcr1 |= (uint32_t)TIM_TimeBaseInitStruct->TIM_CounterMode;
    2ce8:	fd842783          	lw	a5,-40(s0)
    2cec:	0027d703          	lhu	a4,2(a5)
    2cf0:	fee45783          	lhu	a5,-18(s0)
    2cf4:	8fd9                	or	a5,a5,a4
    2cf6:	fef41723          	sh	a5,-18(s0)
D:/Desktop/智能车基地/CH32V103_SmartCar_V1.0/4.Demo/Libraries/Device/CH32V10x_p/CH32V10x_Lib/ch32v10x_tim.c:78
  }

  tmpcr1 &= (uint16_t)(~((uint16_t)TIM_CTLR1_CKD));
    2cfa:	fee45783          	lhu	a5,-18(s0)
    2cfe:	cff7f793          	andi	a5,a5,-769
    2d02:	fef41723          	sh	a5,-18(s0)
D:/Desktop/智能车基地/CH32V103_SmartCar_V1.0/4.Demo/Libraries/Device/CH32V10x_p/CH32V10x_Lib/ch32v10x_tim.c:79
  tmpcr1 |= (uint32_t)TIM_TimeBaseInitStruct->TIM_ClockDivision;
    2d06:	fd842783          	lw	a5,-40(s0)
    2d0a:	0067d703          	lhu	a4,6(a5)
    2d0e:	fee45783          	lhu	a5,-18(s0)
    2d12:	8fd9                	or	a5,a5,a4
    2d14:	fef41723          	sh	a5,-18(s0)
D:/Desktop/智能车基地/CH32V103_SmartCar_V1.0/4.Demo/Libraries/Device/CH32V10x_p/CH32V10x_Lib/ch32v10x_tim.c:81

  TIMx->CTLR1 = tmpcr1;
    2d18:	fdc42783          	lw	a5,-36(s0)
    2d1c:	fee45703          	lhu	a4,-18(s0)
    2d20:	00e79023          	sh	a4,0(a5)
D:/Desktop/智能车基地/CH32V103_SmartCar_V1.0/4.Demo/Libraries/Device/CH32V10x_p/CH32V10x_Lib/ch32v10x_tim.c:82
  TIMx->ATRLR = TIM_TimeBaseInitStruct->TIM_Period ;
    2d24:	fd842783          	lw	a5,-40(s0)
    2d28:	0047d703          	lhu	a4,4(a5)
    2d2c:	fdc42783          	lw	a5,-36(s0)
    2d30:	02e79623          	sh	a4,44(a5)
D:/Desktop/智能车基地/CH32V103_SmartCar_V1.0/4.Demo/Libraries/Device/CH32V10x_p/CH32V10x_Lib/ch32v10x_tim.c:83
  TIMx->PSC = TIM_TimeBaseInitStruct->TIM_Prescaler;
    2d34:	fd842783          	lw	a5,-40(s0)
    2d38:	0007d703          	lhu	a4,0(a5)
    2d3c:	fdc42783          	lw	a5,-36(s0)
    2d40:	02e79423          	sh	a4,40(a5)
D:/Desktop/智能车基地/CH32V103_SmartCar_V1.0/4.Demo/Libraries/Device/CH32V10x_p/CH32V10x_Lib/ch32v10x_tim.c:85
    
  if (TIMx == TIM1)  
    2d44:	fdc42703          	lw	a4,-36(s0)
    2d48:	400137b7          	lui	a5,0x40013
    2d4c:	c0078793          	addi	a5,a5,-1024 # 40012c00 <_eusrstack+0x2000dc00>
    2d50:	00f71d63          	bne	a4,a5,2d6a <TIM_TimeBaseInit+0xe8>
D:/Desktop/智能车基地/CH32V103_SmartCar_V1.0/4.Demo/Libraries/Device/CH32V10x_p/CH32V10x_Lib/ch32v10x_tim.c:87
  {
    TIMx->RPTCR = TIM_TimeBaseInitStruct->TIM_RepetitionCounter;
    2d54:	fd842783          	lw	a5,-40(s0)
    2d58:	0087c783          	lbu	a5,8(a5)
    2d5c:	01079713          	slli	a4,a5,0x10
    2d60:	8341                	srli	a4,a4,0x10
    2d62:	fdc42783          	lw	a5,-36(s0)
    2d66:	02e79823          	sh	a4,48(a5)
D:/Desktop/智能车基地/CH32V103_SmartCar_V1.0/4.Demo/Libraries/Device/CH32V10x_p/CH32V10x_Lib/ch32v10x_tim.c:90
  }

  TIMx->SWEVGR = TIM_PSCReloadMode_Immediate;           
    2d6a:	fdc42783          	lw	a5,-36(s0)
    2d6e:	4705                	li	a4,1
    2d70:	00e79a23          	sh	a4,20(a5)
D:/Desktop/智能车基地/CH32V103_SmartCar_V1.0/4.Demo/Libraries/Device/CH32V10x_p/CH32V10x_Lib/ch32v10x_tim.c:91
}
    2d74:	0001                	nop
    2d76:	5432                	lw	s0,44(sp)
    2d78:	6145                	addi	sp,sp,48
    2d7a:	8082                	ret

00002d7c <TIM_OC1Init>:
TIM_OC1Init():
D:/Desktop/智能车基地/CH32V103_SmartCar_V1.0/4.Demo/Libraries/Device/CH32V10x_p/CH32V10x_Lib/ch32v10x_tim.c:102
* Input          : TIMx: where x can be 1 to 4 to select the TIM peripheral.
*                  TIM_OCInitStruct: pointer to a TIM_OCInitTypeDef structure.
* Return         : None
*******************************************************************************/
void TIM_OC1Init(TIM_TypeDef* TIMx, TIM_OCInitTypeDef* TIM_OCInitStruct)
{
    2d7c:	7179                	addi	sp,sp,-48
    2d7e:	d622                	sw	s0,44(sp)
    2d80:	1800                	addi	s0,sp,48
    2d82:	fca42e23          	sw	a0,-36(s0)
    2d86:	fcb42c23          	sw	a1,-40(s0)
D:/Desktop/智能车基地/CH32V103_SmartCar_V1.0/4.Demo/Libraries/Device/CH32V10x_p/CH32V10x_Lib/ch32v10x_tim.c:103
  uint16_t tmpccmrx = 0, tmpccer = 0, tmpcr2 = 0;
    2d8a:	fe041523          	sh	zero,-22(s0)
    2d8e:	fe041723          	sh	zero,-18(s0)
    2d92:	fe041623          	sh	zero,-20(s0)
D:/Desktop/智能车基地/CH32V103_SmartCar_V1.0/4.Demo/Libraries/Device/CH32V10x_p/CH32V10x_Lib/ch32v10x_tim.c:105
     
  TIMx->CCER &= (uint16_t)(~(uint16_t)TIM_CC1E);
    2d96:	fdc42783          	lw	a5,-36(s0)
    2d9a:	0207d783          	lhu	a5,32(a5)
    2d9e:	07c2                	slli	a5,a5,0x10
    2da0:	83c1                	srli	a5,a5,0x10
    2da2:	9bf9                	andi	a5,a5,-2
    2da4:	01079713          	slli	a4,a5,0x10
    2da8:	8341                	srli	a4,a4,0x10
    2daa:	fdc42783          	lw	a5,-36(s0)
    2dae:	02e79023          	sh	a4,32(a5)
D:/Desktop/智能车基地/CH32V103_SmartCar_V1.0/4.Demo/Libraries/Device/CH32V10x_p/CH32V10x_Lib/ch32v10x_tim.c:106
  tmpccer = TIMx->CCER;
    2db2:	fdc42783          	lw	a5,-36(s0)
    2db6:	0207d783          	lhu	a5,32(a5)
    2dba:	fef41723          	sh	a5,-18(s0)
D:/Desktop/智能车基地/CH32V103_SmartCar_V1.0/4.Demo/Libraries/Device/CH32V10x_p/CH32V10x_Lib/ch32v10x_tim.c:107
  tmpcr2 =  TIMx->CTLR2;
    2dbe:	fdc42783          	lw	a5,-36(s0)
    2dc2:	0047d783          	lhu	a5,4(a5)
    2dc6:	fef41623          	sh	a5,-20(s0)
D:/Desktop/智能车基地/CH32V103_SmartCar_V1.0/4.Demo/Libraries/Device/CH32V10x_p/CH32V10x_Lib/ch32v10x_tim.c:108
  tmpccmrx = TIMx->CHCTLR1;
    2dca:	fdc42783          	lw	a5,-36(s0)
    2dce:	0187d783          	lhu	a5,24(a5)
    2dd2:	fef41523          	sh	a5,-22(s0)
D:/Desktop/智能车基地/CH32V103_SmartCar_V1.0/4.Demo/Libraries/Device/CH32V10x_p/CH32V10x_Lib/ch32v10x_tim.c:109
  tmpccmrx &= (uint16_t)(~((uint16_t)TIM_OC1M));
    2dd6:	fea45783          	lhu	a5,-22(s0)
    2dda:	f8f7f793          	andi	a5,a5,-113
    2dde:	fef41523          	sh	a5,-22(s0)
D:/Desktop/智能车基地/CH32V103_SmartCar_V1.0/4.Demo/Libraries/Device/CH32V10x_p/CH32V10x_Lib/ch32v10x_tim.c:110
  tmpccmrx &= (uint16_t)(~((uint16_t)TIM_CC1S));
    2de2:	fea45783          	lhu	a5,-22(s0)
    2de6:	9bf1                	andi	a5,a5,-4
    2de8:	fef41523          	sh	a5,-22(s0)
D:/Desktop/智能车基地/CH32V103_SmartCar_V1.0/4.Demo/Libraries/Device/CH32V10x_p/CH32V10x_Lib/ch32v10x_tim.c:111
  tmpccmrx |= TIM_OCInitStruct->TIM_OCMode;
    2dec:	fd842783          	lw	a5,-40(s0)
    2df0:	0007d703          	lhu	a4,0(a5)
    2df4:	fea45783          	lhu	a5,-22(s0)
    2df8:	8fd9                	or	a5,a5,a4
    2dfa:	fef41523          	sh	a5,-22(s0)
D:/Desktop/智能车基地/CH32V103_SmartCar_V1.0/4.Demo/Libraries/Device/CH32V10x_p/CH32V10x_Lib/ch32v10x_tim.c:112
  tmpccer &= (uint16_t)(~((uint16_t)TIM_CC1P));
    2dfe:	fee45783          	lhu	a5,-18(s0)
    2e02:	9bf5                	andi	a5,a5,-3
    2e04:	fef41723          	sh	a5,-18(s0)
D:/Desktop/智能车基地/CH32V103_SmartCar_V1.0/4.Demo/Libraries/Device/CH32V10x_p/CH32V10x_Lib/ch32v10x_tim.c:113
  tmpccer |= TIM_OCInitStruct->TIM_OCPolarity;
    2e08:	fd842783          	lw	a5,-40(s0)
    2e0c:	0087d703          	lhu	a4,8(a5)
    2e10:	fee45783          	lhu	a5,-18(s0)
    2e14:	8fd9                	or	a5,a5,a4
    2e16:	fef41723          	sh	a5,-18(s0)
D:/Desktop/智能车基地/CH32V103_SmartCar_V1.0/4.Demo/Libraries/Device/CH32V10x_p/CH32V10x_Lib/ch32v10x_tim.c:114
  tmpccer |= TIM_OCInitStruct->TIM_OutputState;
    2e1a:	fd842783          	lw	a5,-40(s0)
    2e1e:	0027d703          	lhu	a4,2(a5)
    2e22:	fee45783          	lhu	a5,-18(s0)
    2e26:	8fd9                	or	a5,a5,a4
    2e28:	fef41723          	sh	a5,-18(s0)
D:/Desktop/智能车基地/CH32V103_SmartCar_V1.0/4.Demo/Libraries/Device/CH32V10x_p/CH32V10x_Lib/ch32v10x_tim.c:116
    
  if(TIMx == TIM1)
    2e2c:	fdc42703          	lw	a4,-36(s0)
    2e30:	400137b7          	lui	a5,0x40013
    2e34:	c0078793          	addi	a5,a5,-1024 # 40012c00 <_eusrstack+0x2000dc00>
    2e38:	06f71c63          	bne	a4,a5,2eb0 <TIM_OC1Init+0x134>
D:/Desktop/智能车基地/CH32V103_SmartCar_V1.0/4.Demo/Libraries/Device/CH32V10x_p/CH32V10x_Lib/ch32v10x_tim.c:118
  {
    tmpccer &= (uint16_t)(~((uint16_t)TIM_CC1NP));
    2e3c:	fee45783          	lhu	a5,-18(s0)
    2e40:	9bdd                	andi	a5,a5,-9
    2e42:	fef41723          	sh	a5,-18(s0)
D:/Desktop/智能车基地/CH32V103_SmartCar_V1.0/4.Demo/Libraries/Device/CH32V10x_p/CH32V10x_Lib/ch32v10x_tim.c:119
    tmpccer |= TIM_OCInitStruct->TIM_OCNPolarity;
    2e46:	fd842783          	lw	a5,-40(s0)
    2e4a:	00a7d703          	lhu	a4,10(a5)
    2e4e:	fee45783          	lhu	a5,-18(s0)
    2e52:	8fd9                	or	a5,a5,a4
    2e54:	fef41723          	sh	a5,-18(s0)
D:/Desktop/智能车基地/CH32V103_SmartCar_V1.0/4.Demo/Libraries/Device/CH32V10x_p/CH32V10x_Lib/ch32v10x_tim.c:121
 
    tmpccer &= (uint16_t)(~((uint16_t)TIM_CC1NE));    
    2e58:	fee45783          	lhu	a5,-18(s0)
    2e5c:	9bed                	andi	a5,a5,-5
    2e5e:	fef41723          	sh	a5,-18(s0)
D:/Desktop/智能车基地/CH32V103_SmartCar_V1.0/4.Demo/Libraries/Device/CH32V10x_p/CH32V10x_Lib/ch32v10x_tim.c:122
    tmpccer |= TIM_OCInitStruct->TIM_OutputNState;
    2e62:	fd842783          	lw	a5,-40(s0)
    2e66:	0047d703          	lhu	a4,4(a5)
    2e6a:	fee45783          	lhu	a5,-18(s0)
    2e6e:	8fd9                	or	a5,a5,a4
    2e70:	fef41723          	sh	a5,-18(s0)
D:/Desktop/智能车基地/CH32V103_SmartCar_V1.0/4.Demo/Libraries/Device/CH32V10x_p/CH32V10x_Lib/ch32v10x_tim.c:124
    
    tmpcr2 &= (uint16_t)(~((uint16_t)TIM_OIS1));
    2e74:	fec45783          	lhu	a5,-20(s0)
    2e78:	eff7f793          	andi	a5,a5,-257
    2e7c:	fef41623          	sh	a5,-20(s0)
D:/Desktop/智能车基地/CH32V103_SmartCar_V1.0/4.Demo/Libraries/Device/CH32V10x_p/CH32V10x_Lib/ch32v10x_tim.c:125
    tmpcr2 &= (uint16_t)(~((uint16_t)TIM_OIS1N));
    2e80:	fec45783          	lhu	a5,-20(s0)
    2e84:	dff7f793          	andi	a5,a5,-513
    2e88:	fef41623          	sh	a5,-20(s0)
D:/Desktop/智能车基地/CH32V103_SmartCar_V1.0/4.Demo/Libraries/Device/CH32V10x_p/CH32V10x_Lib/ch32v10x_tim.c:127
    
    tmpcr2 |= TIM_OCInitStruct->TIM_OCIdleState;
    2e8c:	fd842783          	lw	a5,-40(s0)
    2e90:	00c7d703          	lhu	a4,12(a5)
    2e94:	fec45783          	lhu	a5,-20(s0)
    2e98:	8fd9                	or	a5,a5,a4
    2e9a:	fef41623          	sh	a5,-20(s0)
D:/Desktop/智能车基地/CH32V103_SmartCar_V1.0/4.Demo/Libraries/Device/CH32V10x_p/CH32V10x_Lib/ch32v10x_tim.c:128
    tmpcr2 |= TIM_OCInitStruct->TIM_OCNIdleState;
    2e9e:	fd842783          	lw	a5,-40(s0)
    2ea2:	00e7d703          	lhu	a4,14(a5)
    2ea6:	fec45783          	lhu	a5,-20(s0)
    2eaa:	8fd9                	or	a5,a5,a4
    2eac:	fef41623          	sh	a5,-20(s0)
D:/Desktop/智能车基地/CH32V103_SmartCar_V1.0/4.Demo/Libraries/Device/CH32V10x_p/CH32V10x_Lib/ch32v10x_tim.c:131
  }

  TIMx->CTLR2 = tmpcr2;
    2eb0:	fdc42783          	lw	a5,-36(s0)
    2eb4:	fec45703          	lhu	a4,-20(s0)
    2eb8:	00e79223          	sh	a4,4(a5)
D:/Desktop/智能车基地/CH32V103_SmartCar_V1.0/4.Demo/Libraries/Device/CH32V10x_p/CH32V10x_Lib/ch32v10x_tim.c:132
  TIMx->CHCTLR1 = tmpccmrx;
    2ebc:	fdc42783          	lw	a5,-36(s0)
    2ec0:	fea45703          	lhu	a4,-22(s0)
    2ec4:	00e79c23          	sh	a4,24(a5)
D:/Desktop/智能车基地/CH32V103_SmartCar_V1.0/4.Demo/Libraries/Device/CH32V10x_p/CH32V10x_Lib/ch32v10x_tim.c:133
  TIMx->CH1CVR = TIM_OCInitStruct->TIM_Pulse; 
    2ec8:	fd842783          	lw	a5,-40(s0)
    2ecc:	0067d703          	lhu	a4,6(a5)
    2ed0:	fdc42783          	lw	a5,-36(s0)
    2ed4:	02e79a23          	sh	a4,52(a5)
D:/Desktop/智能车基地/CH32V103_SmartCar_V1.0/4.Demo/Libraries/Device/CH32V10x_p/CH32V10x_Lib/ch32v10x_tim.c:134
  TIMx->CCER = tmpccer;
    2ed8:	fdc42783          	lw	a5,-36(s0)
    2edc:	fee45703          	lhu	a4,-18(s0)
    2ee0:	02e79023          	sh	a4,32(a5)
D:/Desktop/智能车基地/CH32V103_SmartCar_V1.0/4.Demo/Libraries/Device/CH32V10x_p/CH32V10x_Lib/ch32v10x_tim.c:135
}
    2ee4:	0001                	nop
    2ee6:	5432                	lw	s0,44(sp)
    2ee8:	6145                	addi	sp,sp,48
    2eea:	8082                	ret

00002eec <TIM_OC2Init>:
TIM_OC2Init():
D:/Desktop/智能车基地/CH32V103_SmartCar_V1.0/4.Demo/Libraries/Device/CH32V10x_p/CH32V10x_Lib/ch32v10x_tim.c:146
* Input          : TIMx: where x can be 1 to 4 to select the TIM peripheral.
*                  TIM_OCInitStruct: pointer to a TIM_OCInitTypeDef structure.
* Return         : None
*******************************************************************************/
void TIM_OC2Init(TIM_TypeDef* TIMx, TIM_OCInitTypeDef* TIM_OCInitStruct)
{
    2eec:	7179                	addi	sp,sp,-48
    2eee:	d622                	sw	s0,44(sp)
    2ef0:	1800                	addi	s0,sp,48
    2ef2:	fca42e23          	sw	a0,-36(s0)
    2ef6:	fcb42c23          	sw	a1,-40(s0)
D:/Desktop/智能车基地/CH32V103_SmartCar_V1.0/4.Demo/Libraries/Device/CH32V10x_p/CH32V10x_Lib/ch32v10x_tim.c:147
  uint16_t tmpccmrx = 0, tmpccer = 0, tmpcr2 = 0;
    2efa:	fe041523          	sh	zero,-22(s0)
    2efe:	fe041723          	sh	zero,-18(s0)
    2f02:	fe041623          	sh	zero,-20(s0)
D:/Desktop/智能车基地/CH32V103_SmartCar_V1.0/4.Demo/Libraries/Device/CH32V10x_p/CH32V10x_Lib/ch32v10x_tim.c:149
   
  TIMx->CCER &= (uint16_t)(~((uint16_t)TIM_CC2E)); 
    2f06:	fdc42783          	lw	a5,-36(s0)
    2f0a:	0207d783          	lhu	a5,32(a5)
    2f0e:	07c2                	slli	a5,a5,0x10
    2f10:	83c1                	srli	a5,a5,0x10
    2f12:	9bbd                	andi	a5,a5,-17
    2f14:	01079713          	slli	a4,a5,0x10
    2f18:	8341                	srli	a4,a4,0x10
    2f1a:	fdc42783          	lw	a5,-36(s0)
    2f1e:	02e79023          	sh	a4,32(a5)
D:/Desktop/智能车基地/CH32V103_SmartCar_V1.0/4.Demo/Libraries/Device/CH32V10x_p/CH32V10x_Lib/ch32v10x_tim.c:150
  tmpccer = TIMx->CCER;
    2f22:	fdc42783          	lw	a5,-36(s0)
    2f26:	0207d783          	lhu	a5,32(a5)
    2f2a:	fef41723          	sh	a5,-18(s0)
D:/Desktop/智能车基地/CH32V103_SmartCar_V1.0/4.Demo/Libraries/Device/CH32V10x_p/CH32V10x_Lib/ch32v10x_tim.c:151
  tmpcr2 =  TIMx->CTLR2;
    2f2e:	fdc42783          	lw	a5,-36(s0)
    2f32:	0047d783          	lhu	a5,4(a5)
    2f36:	fef41623          	sh	a5,-20(s0)
D:/Desktop/智能车基地/CH32V103_SmartCar_V1.0/4.Demo/Libraries/Device/CH32V10x_p/CH32V10x_Lib/ch32v10x_tim.c:152
  tmpccmrx = TIMx->CHCTLR1;
    2f3a:	fdc42783          	lw	a5,-36(s0)
    2f3e:	0187d783          	lhu	a5,24(a5)
    2f42:	fef41523          	sh	a5,-22(s0)
D:/Desktop/智能车基地/CH32V103_SmartCar_V1.0/4.Demo/Libraries/Device/CH32V10x_p/CH32V10x_Lib/ch32v10x_tim.c:153
  tmpccmrx &= (uint16_t)(~((uint16_t)TIM_OC2M));
    2f46:	fea45703          	lhu	a4,-22(s0)
    2f4a:	77e5                	lui	a5,0xffff9
    2f4c:	17fd                	addi	a5,a5,-1
    2f4e:	8ff9                	and	a5,a5,a4
    2f50:	fef41523          	sh	a5,-22(s0)
D:/Desktop/智能车基地/CH32V103_SmartCar_V1.0/4.Demo/Libraries/Device/CH32V10x_p/CH32V10x_Lib/ch32v10x_tim.c:154
  tmpccmrx &= (uint16_t)(~((uint16_t)TIM_CC2S));
    2f54:	fea45783          	lhu	a5,-22(s0)
    2f58:	cff7f793          	andi	a5,a5,-769
    2f5c:	fef41523          	sh	a5,-22(s0)
D:/Desktop/智能车基地/CH32V103_SmartCar_V1.0/4.Demo/Libraries/Device/CH32V10x_p/CH32V10x_Lib/ch32v10x_tim.c:155
  tmpccmrx |= (uint16_t)(TIM_OCInitStruct->TIM_OCMode << 8);
    2f60:	fd842783          	lw	a5,-40(s0)
    2f64:	0007d783          	lhu	a5,0(a5) # ffff9000 <_eusrstack+0xdfff4000>
    2f68:	07a2                	slli	a5,a5,0x8
    2f6a:	01079713          	slli	a4,a5,0x10
    2f6e:	8341                	srli	a4,a4,0x10
    2f70:	fea45783          	lhu	a5,-22(s0)
    2f74:	8fd9                	or	a5,a5,a4
    2f76:	fef41523          	sh	a5,-22(s0)
D:/Desktop/智能车基地/CH32V103_SmartCar_V1.0/4.Demo/Libraries/Device/CH32V10x_p/CH32V10x_Lib/ch32v10x_tim.c:156
  tmpccer &= (uint16_t)(~((uint16_t)TIM_CC2P));
    2f7a:	fee45783          	lhu	a5,-18(s0)
    2f7e:	fdf7f793          	andi	a5,a5,-33
    2f82:	fef41723          	sh	a5,-18(s0)
D:/Desktop/智能车基地/CH32V103_SmartCar_V1.0/4.Demo/Libraries/Device/CH32V10x_p/CH32V10x_Lib/ch32v10x_tim.c:157
  tmpccer |= (uint16_t)(TIM_OCInitStruct->TIM_OCPolarity << 4);
    2f86:	fd842783          	lw	a5,-40(s0)
    2f8a:	0087d783          	lhu	a5,8(a5)
    2f8e:	0792                	slli	a5,a5,0x4
    2f90:	01079713          	slli	a4,a5,0x10
    2f94:	8341                	srli	a4,a4,0x10
    2f96:	fee45783          	lhu	a5,-18(s0)
    2f9a:	8fd9                	or	a5,a5,a4
    2f9c:	fef41723          	sh	a5,-18(s0)
D:/Desktop/智能车基地/CH32V103_SmartCar_V1.0/4.Demo/Libraries/Device/CH32V10x_p/CH32V10x_Lib/ch32v10x_tim.c:158
  tmpccer |= (uint16_t)(TIM_OCInitStruct->TIM_OutputState << 4);
    2fa0:	fd842783          	lw	a5,-40(s0)
    2fa4:	0027d783          	lhu	a5,2(a5)
    2fa8:	0792                	slli	a5,a5,0x4
    2faa:	01079713          	slli	a4,a5,0x10
    2fae:	8341                	srli	a4,a4,0x10
    2fb0:	fee45783          	lhu	a5,-18(s0)
    2fb4:	8fd9                	or	a5,a5,a4
    2fb6:	fef41723          	sh	a5,-18(s0)
D:/Desktop/智能车基地/CH32V103_SmartCar_V1.0/4.Demo/Libraries/Device/CH32V10x_p/CH32V10x_Lib/ch32v10x_tim.c:160
    
  if(TIMx == TIM1)
    2fba:	fdc42703          	lw	a4,-36(s0)
    2fbe:	400137b7          	lui	a5,0x40013
    2fc2:	c0078793          	addi	a5,a5,-1024 # 40012c00 <_eusrstack+0x2000dc00>
    2fc6:	0af71063          	bne	a4,a5,3066 <TIM_OC2Init+0x17a>
D:/Desktop/智能车基地/CH32V103_SmartCar_V1.0/4.Demo/Libraries/Device/CH32V10x_p/CH32V10x_Lib/ch32v10x_tim.c:162
  {
    tmpccer &= (uint16_t)(~((uint16_t)TIM_CC2NP));
    2fca:	fee45783          	lhu	a5,-18(s0)
    2fce:	f7f7f793          	andi	a5,a5,-129
    2fd2:	fef41723          	sh	a5,-18(s0)
D:/Desktop/智能车基地/CH32V103_SmartCar_V1.0/4.Demo/Libraries/Device/CH32V10x_p/CH32V10x_Lib/ch32v10x_tim.c:163
    tmpccer |= (uint16_t)(TIM_OCInitStruct->TIM_OCNPolarity << 4);
    2fd6:	fd842783          	lw	a5,-40(s0)
    2fda:	00a7d783          	lhu	a5,10(a5)
    2fde:	0792                	slli	a5,a5,0x4
    2fe0:	01079713          	slli	a4,a5,0x10
    2fe4:	8341                	srli	a4,a4,0x10
    2fe6:	fee45783          	lhu	a5,-18(s0)
    2fea:	8fd9                	or	a5,a5,a4
    2fec:	fef41723          	sh	a5,-18(s0)
D:/Desktop/智能车基地/CH32V103_SmartCar_V1.0/4.Demo/Libraries/Device/CH32V10x_p/CH32V10x_Lib/ch32v10x_tim.c:164
    tmpccer &= (uint16_t)(~((uint16_t)TIM_CC2NE));    
    2ff0:	fee45783          	lhu	a5,-18(s0)
    2ff4:	fbf7f793          	andi	a5,a5,-65
    2ff8:	fef41723          	sh	a5,-18(s0)
D:/Desktop/智能车基地/CH32V103_SmartCar_V1.0/4.Demo/Libraries/Device/CH32V10x_p/CH32V10x_Lib/ch32v10x_tim.c:165
    tmpccer |= (uint16_t)(TIM_OCInitStruct->TIM_OutputNState << 4);
    2ffc:	fd842783          	lw	a5,-40(s0)
    3000:	0047d783          	lhu	a5,4(a5)
    3004:	0792                	slli	a5,a5,0x4
    3006:	01079713          	slli	a4,a5,0x10
    300a:	8341                	srli	a4,a4,0x10
    300c:	fee45783          	lhu	a5,-18(s0)
    3010:	8fd9                	or	a5,a5,a4
    3012:	fef41723          	sh	a5,-18(s0)
D:/Desktop/智能车基地/CH32V103_SmartCar_V1.0/4.Demo/Libraries/Device/CH32V10x_p/CH32V10x_Lib/ch32v10x_tim.c:167
    
    tmpcr2 &= (uint16_t)(~((uint16_t)TIM_OIS2));
    3016:	fec45783          	lhu	a5,-20(s0)
    301a:	bff7f793          	andi	a5,a5,-1025
    301e:	fef41623          	sh	a5,-20(s0)
D:/Desktop/智能车基地/CH32V103_SmartCar_V1.0/4.Demo/Libraries/Device/CH32V10x_p/CH32V10x_Lib/ch32v10x_tim.c:168
    tmpcr2 &= (uint16_t)(~((uint16_t)TIM_OIS2N));
    3022:	fec45703          	lhu	a4,-20(s0)
    3026:	77fd                	lui	a5,0xfffff
    3028:	7ff78793          	addi	a5,a5,2047 # fffff7ff <_eusrstack+0xdfffa7ff>
    302c:	8ff9                	and	a5,a5,a4
    302e:	fef41623          	sh	a5,-20(s0)
D:/Desktop/智能车基地/CH32V103_SmartCar_V1.0/4.Demo/Libraries/Device/CH32V10x_p/CH32V10x_Lib/ch32v10x_tim.c:169
    tmpcr2 |= (uint16_t)(TIM_OCInitStruct->TIM_OCIdleState << 2);
    3032:	fd842783          	lw	a5,-40(s0)
    3036:	00c7d783          	lhu	a5,12(a5)
    303a:	078a                	slli	a5,a5,0x2
    303c:	01079713          	slli	a4,a5,0x10
    3040:	8341                	srli	a4,a4,0x10
    3042:	fec45783          	lhu	a5,-20(s0)
    3046:	8fd9                	or	a5,a5,a4
    3048:	fef41623          	sh	a5,-20(s0)
D:/Desktop/智能车基地/CH32V103_SmartCar_V1.0/4.Demo/Libraries/Device/CH32V10x_p/CH32V10x_Lib/ch32v10x_tim.c:170
    tmpcr2 |= (uint16_t)(TIM_OCInitStruct->TIM_OCNIdleState << 2);
    304c:	fd842783          	lw	a5,-40(s0)
    3050:	00e7d783          	lhu	a5,14(a5)
    3054:	078a                	slli	a5,a5,0x2
    3056:	01079713          	slli	a4,a5,0x10
    305a:	8341                	srli	a4,a4,0x10
    305c:	fec45783          	lhu	a5,-20(s0)
    3060:	8fd9                	or	a5,a5,a4
    3062:	fef41623          	sh	a5,-20(s0)
D:/Desktop/智能车基地/CH32V103_SmartCar_V1.0/4.Demo/Libraries/Device/CH32V10x_p/CH32V10x_Lib/ch32v10x_tim.c:173
  }

  TIMx->CTLR2 = tmpcr2;
    3066:	fdc42783          	lw	a5,-36(s0)
    306a:	fec45703          	lhu	a4,-20(s0)
    306e:	00e79223          	sh	a4,4(a5)
D:/Desktop/智能车基地/CH32V103_SmartCar_V1.0/4.Demo/Libraries/Device/CH32V10x_p/CH32V10x_Lib/ch32v10x_tim.c:174
  TIMx->CHCTLR1 = tmpccmrx;
    3072:	fdc42783          	lw	a5,-36(s0)
    3076:	fea45703          	lhu	a4,-22(s0)
    307a:	00e79c23          	sh	a4,24(a5)
D:/Desktop/智能车基地/CH32V103_SmartCar_V1.0/4.Demo/Libraries/Device/CH32V10x_p/CH32V10x_Lib/ch32v10x_tim.c:175
  TIMx->CH2CVR = TIM_OCInitStruct->TIM_Pulse;
    307e:	fd842783          	lw	a5,-40(s0)
    3082:	0067d703          	lhu	a4,6(a5)
    3086:	fdc42783          	lw	a5,-36(s0)
    308a:	02e79c23          	sh	a4,56(a5)
D:/Desktop/智能车基地/CH32V103_SmartCar_V1.0/4.Demo/Libraries/Device/CH32V10x_p/CH32V10x_Lib/ch32v10x_tim.c:176
  TIMx->CCER = tmpccer;
    308e:	fdc42783          	lw	a5,-36(s0)
    3092:	fee45703          	lhu	a4,-18(s0)
    3096:	02e79023          	sh	a4,32(a5)
D:/Desktop/智能车基地/CH32V103_SmartCar_V1.0/4.Demo/Libraries/Device/CH32V10x_p/CH32V10x_Lib/ch32v10x_tim.c:177
}
    309a:	0001                	nop
    309c:	5432                	lw	s0,44(sp)
    309e:	6145                	addi	sp,sp,48
    30a0:	8082                	ret

000030a2 <TIM_OC3Init>:
TIM_OC3Init():
D:/Desktop/智能车基地/CH32V103_SmartCar_V1.0/4.Demo/Libraries/Device/CH32V10x_p/CH32V10x_Lib/ch32v10x_tim.c:188
* Input          : TIMx: where x can be 1 to 4 to select the TIM peripheral.
*                  TIM_OCInitStruct: pointer to a TIM_OCInitTypeDef structure.
* Return         : None
*******************************************************************************/
void TIM_OC3Init(TIM_TypeDef* TIMx, TIM_OCInitTypeDef* TIM_OCInitStruct)
{
    30a2:	7179                	addi	sp,sp,-48
    30a4:	d622                	sw	s0,44(sp)
    30a6:	1800                	addi	s0,sp,48
    30a8:	fca42e23          	sw	a0,-36(s0)
    30ac:	fcb42c23          	sw	a1,-40(s0)
D:/Desktop/智能车基地/CH32V103_SmartCar_V1.0/4.Demo/Libraries/Device/CH32V10x_p/CH32V10x_Lib/ch32v10x_tim.c:189
  uint16_t tmpccmrx = 0, tmpccer = 0, tmpcr2 = 0;
    30b0:	fe041523          	sh	zero,-22(s0)
    30b4:	fe041723          	sh	zero,-18(s0)
    30b8:	fe041623          	sh	zero,-20(s0)
D:/Desktop/智能车基地/CH32V103_SmartCar_V1.0/4.Demo/Libraries/Device/CH32V10x_p/CH32V10x_Lib/ch32v10x_tim.c:191
   
  TIMx->CCER &= (uint16_t)(~((uint16_t)TIM_CC3E));
    30bc:	fdc42783          	lw	a5,-36(s0)
    30c0:	0207d783          	lhu	a5,32(a5)
    30c4:	07c2                	slli	a5,a5,0x10
    30c6:	83c1                	srli	a5,a5,0x10
    30c8:	eff7f793          	andi	a5,a5,-257
    30cc:	01079713          	slli	a4,a5,0x10
    30d0:	8341                	srli	a4,a4,0x10
    30d2:	fdc42783          	lw	a5,-36(s0)
    30d6:	02e79023          	sh	a4,32(a5)
D:/Desktop/智能车基地/CH32V103_SmartCar_V1.0/4.Demo/Libraries/Device/CH32V10x_p/CH32V10x_Lib/ch32v10x_tim.c:192
  tmpccer = TIMx->CCER;
    30da:	fdc42783          	lw	a5,-36(s0)
    30de:	0207d783          	lhu	a5,32(a5)
    30e2:	fef41723          	sh	a5,-18(s0)
D:/Desktop/智能车基地/CH32V103_SmartCar_V1.0/4.Demo/Libraries/Device/CH32V10x_p/CH32V10x_Lib/ch32v10x_tim.c:193
  tmpcr2 =  TIMx->CTLR2;
    30e6:	fdc42783          	lw	a5,-36(s0)
    30ea:	0047d783          	lhu	a5,4(a5)
    30ee:	fef41623          	sh	a5,-20(s0)
D:/Desktop/智能车基地/CH32V103_SmartCar_V1.0/4.Demo/Libraries/Device/CH32V10x_p/CH32V10x_Lib/ch32v10x_tim.c:194
  tmpccmrx = TIMx->CHCTLR2;
    30f2:	fdc42783          	lw	a5,-36(s0)
    30f6:	01c7d783          	lhu	a5,28(a5)
    30fa:	fef41523          	sh	a5,-22(s0)
D:/Desktop/智能车基地/CH32V103_SmartCar_V1.0/4.Demo/Libraries/Device/CH32V10x_p/CH32V10x_Lib/ch32v10x_tim.c:195
  tmpccmrx &= (uint16_t)(~((uint16_t)TIM_OC3M));
    30fe:	fea45783          	lhu	a5,-22(s0)
    3102:	f8f7f793          	andi	a5,a5,-113
    3106:	fef41523          	sh	a5,-22(s0)
D:/Desktop/智能车基地/CH32V103_SmartCar_V1.0/4.Demo/Libraries/Device/CH32V10x_p/CH32V10x_Lib/ch32v10x_tim.c:196
  tmpccmrx &= (uint16_t)(~((uint16_t)TIM_CC3S));  
    310a:	fea45783          	lhu	a5,-22(s0)
    310e:	9bf1                	andi	a5,a5,-4
    3110:	fef41523          	sh	a5,-22(s0)
D:/Desktop/智能车基地/CH32V103_SmartCar_V1.0/4.Demo/Libraries/Device/CH32V10x_p/CH32V10x_Lib/ch32v10x_tim.c:197
  tmpccmrx |= TIM_OCInitStruct->TIM_OCMode;
    3114:	fd842783          	lw	a5,-40(s0)
    3118:	0007d703          	lhu	a4,0(a5)
    311c:	fea45783          	lhu	a5,-22(s0)
    3120:	8fd9                	or	a5,a5,a4
    3122:	fef41523          	sh	a5,-22(s0)
D:/Desktop/智能车基地/CH32V103_SmartCar_V1.0/4.Demo/Libraries/Device/CH32V10x_p/CH32V10x_Lib/ch32v10x_tim.c:198
  tmpccer &= (uint16_t)(~((uint16_t)TIM_CC3P));
    3126:	fee45783          	lhu	a5,-18(s0)
    312a:	dff7f793          	andi	a5,a5,-513
    312e:	fef41723          	sh	a5,-18(s0)
D:/Desktop/智能车基地/CH32V103_SmartCar_V1.0/4.Demo/Libraries/Device/CH32V10x_p/CH32V10x_Lib/ch32v10x_tim.c:199
  tmpccer |= (uint16_t)(TIM_OCInitStruct->TIM_OCPolarity << 8);
    3132:	fd842783          	lw	a5,-40(s0)
    3136:	0087d783          	lhu	a5,8(a5)
    313a:	07a2                	slli	a5,a5,0x8
    313c:	01079713          	slli	a4,a5,0x10
    3140:	8341                	srli	a4,a4,0x10
    3142:	fee45783          	lhu	a5,-18(s0)
    3146:	8fd9                	or	a5,a5,a4
    3148:	fef41723          	sh	a5,-18(s0)
D:/Desktop/智能车基地/CH32V103_SmartCar_V1.0/4.Demo/Libraries/Device/CH32V10x_p/CH32V10x_Lib/ch32v10x_tim.c:200
  tmpccer |= (uint16_t)(TIM_OCInitStruct->TIM_OutputState << 8);
    314c:	fd842783          	lw	a5,-40(s0)
    3150:	0027d783          	lhu	a5,2(a5)
    3154:	07a2                	slli	a5,a5,0x8
    3156:	01079713          	slli	a4,a5,0x10
    315a:	8341                	srli	a4,a4,0x10
    315c:	fee45783          	lhu	a5,-18(s0)
    3160:	8fd9                	or	a5,a5,a4
    3162:	fef41723          	sh	a5,-18(s0)
D:/Desktop/智能车基地/CH32V103_SmartCar_V1.0/4.Demo/Libraries/Device/CH32V10x_p/CH32V10x_Lib/ch32v10x_tim.c:202
    
  if(TIMx == TIM1)
    3166:	fdc42703          	lw	a4,-36(s0)
    316a:	400137b7          	lui	a5,0x40013
    316e:	c0078793          	addi	a5,a5,-1024 # 40012c00 <_eusrstack+0x2000dc00>
    3172:	0af71263          	bne	a4,a5,3216 <TIM_OC3Init+0x174>
D:/Desktop/智能车基地/CH32V103_SmartCar_V1.0/4.Demo/Libraries/Device/CH32V10x_p/CH32V10x_Lib/ch32v10x_tim.c:204
  {
    tmpccer &= (uint16_t)(~((uint16_t)TIM_CC3NP));
    3176:	fee45703          	lhu	a4,-18(s0)
    317a:	77fd                	lui	a5,0xfffff
    317c:	7ff78793          	addi	a5,a5,2047 # fffff7ff <_eusrstack+0xdfffa7ff>
    3180:	8ff9                	and	a5,a5,a4
    3182:	fef41723          	sh	a5,-18(s0)
D:/Desktop/智能车基地/CH32V103_SmartCar_V1.0/4.Demo/Libraries/Device/CH32V10x_p/CH32V10x_Lib/ch32v10x_tim.c:205
    tmpccer |= (uint16_t)(TIM_OCInitStruct->TIM_OCNPolarity << 8);
    3186:	fd842783          	lw	a5,-40(s0)
    318a:	00a7d783          	lhu	a5,10(a5)
    318e:	07a2                	slli	a5,a5,0x8
    3190:	01079713          	slli	a4,a5,0x10
    3194:	8341                	srli	a4,a4,0x10
    3196:	fee45783          	lhu	a5,-18(s0)
    319a:	8fd9                	or	a5,a5,a4
    319c:	fef41723          	sh	a5,-18(s0)
D:/Desktop/智能车基地/CH32V103_SmartCar_V1.0/4.Demo/Libraries/Device/CH32V10x_p/CH32V10x_Lib/ch32v10x_tim.c:206
    tmpccer &= (uint16_t)(~((uint16_t)TIM_CC3NE));
    31a0:	fee45783          	lhu	a5,-18(s0)
    31a4:	bff7f793          	andi	a5,a5,-1025
    31a8:	fef41723          	sh	a5,-18(s0)
D:/Desktop/智能车基地/CH32V103_SmartCar_V1.0/4.Demo/Libraries/Device/CH32V10x_p/CH32V10x_Lib/ch32v10x_tim.c:207
    tmpccer |= (uint16_t)(TIM_OCInitStruct->TIM_OutputNState << 8);
    31ac:	fd842783          	lw	a5,-40(s0)
    31b0:	0047d783          	lhu	a5,4(a5)
    31b4:	07a2                	slli	a5,a5,0x8
    31b6:	01079713          	slli	a4,a5,0x10
    31ba:	8341                	srli	a4,a4,0x10
    31bc:	fee45783          	lhu	a5,-18(s0)
    31c0:	8fd9                	or	a5,a5,a4
    31c2:	fef41723          	sh	a5,-18(s0)
D:/Desktop/智能车基地/CH32V103_SmartCar_V1.0/4.Demo/Libraries/Device/CH32V10x_p/CH32V10x_Lib/ch32v10x_tim.c:208
    tmpcr2 &= (uint16_t)(~((uint16_t)TIM_OIS3));
    31c6:	fec45703          	lhu	a4,-20(s0)
    31ca:	77fd                	lui	a5,0xfffff
    31cc:	17fd                	addi	a5,a5,-1
    31ce:	8ff9                	and	a5,a5,a4
    31d0:	fef41623          	sh	a5,-20(s0)
D:/Desktop/智能车基地/CH32V103_SmartCar_V1.0/4.Demo/Libraries/Device/CH32V10x_p/CH32V10x_Lib/ch32v10x_tim.c:209
    tmpcr2 &= (uint16_t)(~((uint16_t)TIM_OIS3N));
    31d4:	fec45703          	lhu	a4,-20(s0)
    31d8:	77f9                	lui	a5,0xffffe
    31da:	17fd                	addi	a5,a5,-1
    31dc:	8ff9                	and	a5,a5,a4
    31de:	fef41623          	sh	a5,-20(s0)
D:/Desktop/智能车基地/CH32V103_SmartCar_V1.0/4.Demo/Libraries/Device/CH32V10x_p/CH32V10x_Lib/ch32v10x_tim.c:210
    tmpcr2 |= (uint16_t)(TIM_OCInitStruct->TIM_OCIdleState << 4);
    31e2:	fd842783          	lw	a5,-40(s0)
    31e6:	00c7d783          	lhu	a5,12(a5) # ffffe00c <_eusrstack+0xdfff900c>
    31ea:	0792                	slli	a5,a5,0x4
    31ec:	01079713          	slli	a4,a5,0x10
    31f0:	8341                	srli	a4,a4,0x10
    31f2:	fec45783          	lhu	a5,-20(s0)
    31f6:	8fd9                	or	a5,a5,a4
    31f8:	fef41623          	sh	a5,-20(s0)
D:/Desktop/智能车基地/CH32V103_SmartCar_V1.0/4.Demo/Libraries/Device/CH32V10x_p/CH32V10x_Lib/ch32v10x_tim.c:211
    tmpcr2 |= (uint16_t)(TIM_OCInitStruct->TIM_OCNIdleState << 4);
    31fc:	fd842783          	lw	a5,-40(s0)
    3200:	00e7d783          	lhu	a5,14(a5)
    3204:	0792                	slli	a5,a5,0x4
    3206:	01079713          	slli	a4,a5,0x10
    320a:	8341                	srli	a4,a4,0x10
    320c:	fec45783          	lhu	a5,-20(s0)
    3210:	8fd9                	or	a5,a5,a4
    3212:	fef41623          	sh	a5,-20(s0)
D:/Desktop/智能车基地/CH32V103_SmartCar_V1.0/4.Demo/Libraries/Device/CH32V10x_p/CH32V10x_Lib/ch32v10x_tim.c:214
  }

  TIMx->CTLR2 = tmpcr2;
    3216:	fdc42783          	lw	a5,-36(s0)
    321a:	fec45703          	lhu	a4,-20(s0)
    321e:	00e79223          	sh	a4,4(a5)
D:/Desktop/智能车基地/CH32V103_SmartCar_V1.0/4.Demo/Libraries/Device/CH32V10x_p/CH32V10x_Lib/ch32v10x_tim.c:215
  TIMx->CHCTLR2 = tmpccmrx;
    3222:	fdc42783          	lw	a5,-36(s0)
    3226:	fea45703          	lhu	a4,-22(s0)
    322a:	00e79e23          	sh	a4,28(a5)
D:/Desktop/智能车基地/CH32V103_SmartCar_V1.0/4.Demo/Libraries/Device/CH32V10x_p/CH32V10x_Lib/ch32v10x_tim.c:216
  TIMx->CH3CVR = TIM_OCInitStruct->TIM_Pulse;
    322e:	fd842783          	lw	a5,-40(s0)
    3232:	0067d703          	lhu	a4,6(a5)
    3236:	fdc42783          	lw	a5,-36(s0)
    323a:	02e79e23          	sh	a4,60(a5)
D:/Desktop/智能车基地/CH32V103_SmartCar_V1.0/4.Demo/Libraries/Device/CH32V10x_p/CH32V10x_Lib/ch32v10x_tim.c:217
  TIMx->CCER = tmpccer;
    323e:	fdc42783          	lw	a5,-36(s0)
    3242:	fee45703          	lhu	a4,-18(s0)
    3246:	02e79023          	sh	a4,32(a5)
D:/Desktop/智能车基地/CH32V103_SmartCar_V1.0/4.Demo/Libraries/Device/CH32V10x_p/CH32V10x_Lib/ch32v10x_tim.c:218
}
    324a:	0001                	nop
    324c:	5432                	lw	s0,44(sp)
    324e:	6145                	addi	sp,sp,48
    3250:	8082                	ret

00003252 <TIM_OC4Init>:
TIM_OC4Init():
D:/Desktop/智能车基地/CH32V103_SmartCar_V1.0/4.Demo/Libraries/Device/CH32V10x_p/CH32V10x_Lib/ch32v10x_tim.c:229
* Input          : TIMx: where x can be 1 to 4 to select the TIM peripheral.
*                  TIM_OCInitStruct: pointer to a TIM_OCInitTypeDef structure.
* Return         : None
*******************************************************************************/
void TIM_OC4Init(TIM_TypeDef* TIMx, TIM_OCInitTypeDef* TIM_OCInitStruct)
{
    3252:	7179                	addi	sp,sp,-48
    3254:	d622                	sw	s0,44(sp)
    3256:	1800                	addi	s0,sp,48
    3258:	fca42e23          	sw	a0,-36(s0)
    325c:	fcb42c23          	sw	a1,-40(s0)
D:/Desktop/智能车基地/CH32V103_SmartCar_V1.0/4.Demo/Libraries/Device/CH32V10x_p/CH32V10x_Lib/ch32v10x_tim.c:230
  uint16_t tmpccmrx = 0, tmpccer = 0, tmpcr2 = 0;
    3260:	fe041623          	sh	zero,-20(s0)
    3264:	fe041523          	sh	zero,-22(s0)
    3268:	fe041723          	sh	zero,-18(s0)
D:/Desktop/智能车基地/CH32V103_SmartCar_V1.0/4.Demo/Libraries/Device/CH32V10x_p/CH32V10x_Lib/ch32v10x_tim.c:232

  TIMx->CCER &= (uint16_t)(~((uint16_t)TIM_CC4E));
    326c:	fdc42783          	lw	a5,-36(s0)
    3270:	0207d783          	lhu	a5,32(a5)
    3274:	01079713          	slli	a4,a5,0x10
    3278:	8341                	srli	a4,a4,0x10
    327a:	77fd                	lui	a5,0xfffff
    327c:	17fd                	addi	a5,a5,-1
    327e:	8ff9                	and	a5,a5,a4
    3280:	01079713          	slli	a4,a5,0x10
    3284:	8341                	srli	a4,a4,0x10
    3286:	fdc42783          	lw	a5,-36(s0)
    328a:	02e79023          	sh	a4,32(a5) # fffff020 <_eusrstack+0xdfffa020>
D:/Desktop/智能车基地/CH32V103_SmartCar_V1.0/4.Demo/Libraries/Device/CH32V10x_p/CH32V10x_Lib/ch32v10x_tim.c:233
  tmpccer = TIMx->CCER;
    328e:	fdc42783          	lw	a5,-36(s0)
    3292:	0207d783          	lhu	a5,32(a5)
    3296:	fef41523          	sh	a5,-22(s0)
D:/Desktop/智能车基地/CH32V103_SmartCar_V1.0/4.Demo/Libraries/Device/CH32V10x_p/CH32V10x_Lib/ch32v10x_tim.c:234
  tmpcr2 =  TIMx->CTLR2;
    329a:	fdc42783          	lw	a5,-36(s0)
    329e:	0047d783          	lhu	a5,4(a5)
    32a2:	fef41723          	sh	a5,-18(s0)
D:/Desktop/智能车基地/CH32V103_SmartCar_V1.0/4.Demo/Libraries/Device/CH32V10x_p/CH32V10x_Lib/ch32v10x_tim.c:235
  tmpccmrx = TIMx->CHCTLR2;
    32a6:	fdc42783          	lw	a5,-36(s0)
    32aa:	01c7d783          	lhu	a5,28(a5)
    32ae:	fef41623          	sh	a5,-20(s0)
D:/Desktop/智能车基地/CH32V103_SmartCar_V1.0/4.Demo/Libraries/Device/CH32V10x_p/CH32V10x_Lib/ch32v10x_tim.c:236
  tmpccmrx &= (uint16_t)(~((uint16_t)TIM_OC4M));
    32b2:	fec45703          	lhu	a4,-20(s0)
    32b6:	77e5                	lui	a5,0xffff9
    32b8:	17fd                	addi	a5,a5,-1
    32ba:	8ff9                	and	a5,a5,a4
    32bc:	fef41623          	sh	a5,-20(s0)
D:/Desktop/智能车基地/CH32V103_SmartCar_V1.0/4.Demo/Libraries/Device/CH32V10x_p/CH32V10x_Lib/ch32v10x_tim.c:237
  tmpccmrx &= (uint16_t)(~((uint16_t)TIM_CC4S));
    32c0:	fec45783          	lhu	a5,-20(s0)
    32c4:	cff7f793          	andi	a5,a5,-769
    32c8:	fef41623          	sh	a5,-20(s0)
D:/Desktop/智能车基地/CH32V103_SmartCar_V1.0/4.Demo/Libraries/Device/CH32V10x_p/CH32V10x_Lib/ch32v10x_tim.c:238
  tmpccmrx |= (uint16_t)(TIM_OCInitStruct->TIM_OCMode << 8);
    32cc:	fd842783          	lw	a5,-40(s0)
    32d0:	0007d783          	lhu	a5,0(a5) # ffff9000 <_eusrstack+0xdfff4000>
    32d4:	07a2                	slli	a5,a5,0x8
    32d6:	01079713          	slli	a4,a5,0x10
    32da:	8341                	srli	a4,a4,0x10
    32dc:	fec45783          	lhu	a5,-20(s0)
    32e0:	8fd9                	or	a5,a5,a4
    32e2:	fef41623          	sh	a5,-20(s0)
D:/Desktop/智能车基地/CH32V103_SmartCar_V1.0/4.Demo/Libraries/Device/CH32V10x_p/CH32V10x_Lib/ch32v10x_tim.c:239
  tmpccer &= (uint16_t)(~((uint16_t)TIM_CC4P));
    32e6:	fea45703          	lhu	a4,-22(s0)
    32ea:	77f9                	lui	a5,0xffffe
    32ec:	17fd                	addi	a5,a5,-1
    32ee:	8ff9                	and	a5,a5,a4
    32f0:	fef41523          	sh	a5,-22(s0)
D:/Desktop/智能车基地/CH32V103_SmartCar_V1.0/4.Demo/Libraries/Device/CH32V10x_p/CH32V10x_Lib/ch32v10x_tim.c:240
  tmpccer |= (uint16_t)(TIM_OCInitStruct->TIM_OCPolarity << 12);
    32f4:	fd842783          	lw	a5,-40(s0)
    32f8:	0087d783          	lhu	a5,8(a5) # ffffe008 <_eusrstack+0xdfff9008>
    32fc:	07b2                	slli	a5,a5,0xc
    32fe:	01079713          	slli	a4,a5,0x10
    3302:	8341                	srli	a4,a4,0x10
    3304:	fea45783          	lhu	a5,-22(s0)
    3308:	8fd9                	or	a5,a5,a4
    330a:	fef41523          	sh	a5,-22(s0)
D:/Desktop/智能车基地/CH32V103_SmartCar_V1.0/4.Demo/Libraries/Device/CH32V10x_p/CH32V10x_Lib/ch32v10x_tim.c:241
  tmpccer |= (uint16_t)(TIM_OCInitStruct->TIM_OutputState << 12);
    330e:	fd842783          	lw	a5,-40(s0)
    3312:	0027d783          	lhu	a5,2(a5)
    3316:	07b2                	slli	a5,a5,0xc
    3318:	01079713          	slli	a4,a5,0x10
    331c:	8341                	srli	a4,a4,0x10
    331e:	fea45783          	lhu	a5,-22(s0)
    3322:	8fd9                	or	a5,a5,a4
    3324:	fef41523          	sh	a5,-22(s0)
D:/Desktop/智能车基地/CH32V103_SmartCar_V1.0/4.Demo/Libraries/Device/CH32V10x_p/CH32V10x_Lib/ch32v10x_tim.c:243
    
  if(TIMx == TIM1)
    3328:	fdc42703          	lw	a4,-36(s0)
    332c:	400137b7          	lui	a5,0x40013
    3330:	c0078793          	addi	a5,a5,-1024 # 40012c00 <_eusrstack+0x2000dc00>
    3334:	02f71663          	bne	a4,a5,3360 <TIM_OC4Init+0x10e>
D:/Desktop/智能车基地/CH32V103_SmartCar_V1.0/4.Demo/Libraries/Device/CH32V10x_p/CH32V10x_Lib/ch32v10x_tim.c:245
  {
    tmpcr2 &= (uint16_t)(~((uint16_t)TIM_OIS4));
    3338:	fee45703          	lhu	a4,-18(s0)
    333c:	77f1                	lui	a5,0xffffc
    333e:	17fd                	addi	a5,a5,-1
    3340:	8ff9                	and	a5,a5,a4
    3342:	fef41723          	sh	a5,-18(s0)
D:/Desktop/智能车基地/CH32V103_SmartCar_V1.0/4.Demo/Libraries/Device/CH32V10x_p/CH32V10x_Lib/ch32v10x_tim.c:246
    tmpcr2 |= (uint16_t)(TIM_OCInitStruct->TIM_OCIdleState << 6);
    3346:	fd842783          	lw	a5,-40(s0)
    334a:	00c7d783          	lhu	a5,12(a5) # ffffc00c <_eusrstack+0xdfff700c>
    334e:	079a                	slli	a5,a5,0x6
    3350:	01079713          	slli	a4,a5,0x10
    3354:	8341                	srli	a4,a4,0x10
    3356:	fee45783          	lhu	a5,-18(s0)
    335a:	8fd9                	or	a5,a5,a4
    335c:	fef41723          	sh	a5,-18(s0)
D:/Desktop/智能车基地/CH32V103_SmartCar_V1.0/4.Demo/Libraries/Device/CH32V10x_p/CH32V10x_Lib/ch32v10x_tim.c:249
  }

  TIMx->CTLR2 = tmpcr2; 
    3360:	fdc42783          	lw	a5,-36(s0)
    3364:	fee45703          	lhu	a4,-18(s0)
    3368:	00e79223          	sh	a4,4(a5)
D:/Desktop/智能车基地/CH32V103_SmartCar_V1.0/4.Demo/Libraries/Device/CH32V10x_p/CH32V10x_Lib/ch32v10x_tim.c:250
  TIMx->CHCTLR2 = tmpccmrx;
    336c:	fdc42783          	lw	a5,-36(s0)
    3370:	fec45703          	lhu	a4,-20(s0)
    3374:	00e79e23          	sh	a4,28(a5)
D:/Desktop/智能车基地/CH32V103_SmartCar_V1.0/4.Demo/Libraries/Device/CH32V10x_p/CH32V10x_Lib/ch32v10x_tim.c:251
  TIMx->CH4CVR = TIM_OCInitStruct->TIM_Pulse;
    3378:	fd842783          	lw	a5,-40(s0)
    337c:	0067d703          	lhu	a4,6(a5)
    3380:	fdc42783          	lw	a5,-36(s0)
    3384:	04e79023          	sh	a4,64(a5)
D:/Desktop/智能车基地/CH32V103_SmartCar_V1.0/4.Demo/Libraries/Device/CH32V10x_p/CH32V10x_Lib/ch32v10x_tim.c:252
  TIMx->CCER = tmpccer;
    3388:	fdc42783          	lw	a5,-36(s0)
    338c:	fea45703          	lhu	a4,-22(s0)
    3390:	02e79023          	sh	a4,32(a5)
D:/Desktop/智能车基地/CH32V103_SmartCar_V1.0/4.Demo/Libraries/Device/CH32V10x_p/CH32V10x_Lib/ch32v10x_tim.c:253
}
    3394:	0001                	nop
    3396:	5432                	lw	s0,44(sp)
    3398:	6145                	addi	sp,sp,48
    339a:	8082                	ret

0000339c <TIM_Cmd>:
TIM_Cmd():
D:/Desktop/智能车基地/CH32V103_SmartCar_V1.0/4.Demo/Libraries/Device/CH32V10x_p/CH32V10x_Lib/ch32v10x_tim.c:433
* Input          : TIMx: where x can be 1 to 4 to select the TIM peripheral.
*                  NewState: ENABLE or DISABLE.
* Return         : None
*******************************************************************************/
void TIM_Cmd(TIM_TypeDef* TIMx, FunctionalState NewState)
{ 
    339c:	1101                	addi	sp,sp,-32
    339e:	ce22                	sw	s0,28(sp)
    33a0:	1000                	addi	s0,sp,32
    33a2:	fea42623          	sw	a0,-20(s0)
    33a6:	feb42423          	sw	a1,-24(s0)
D:/Desktop/智能车基地/CH32V103_SmartCar_V1.0/4.Demo/Libraries/Device/CH32V10x_p/CH32V10x_Lib/ch32v10x_tim.c:434
  if (NewState != DISABLE)
    33aa:	fe842783          	lw	a5,-24(s0)
    33ae:	c38d                	beqz	a5,33d0 <TIM_Cmd+0x34>
D:/Desktop/智能车基地/CH32V103_SmartCar_V1.0/4.Demo/Libraries/Device/CH32V10x_p/CH32V10x_Lib/ch32v10x_tim.c:436
  {
    TIMx->CTLR1 |= TIM_CEN;
    33b0:	fec42783          	lw	a5,-20(s0)
    33b4:	0007d783          	lhu	a5,0(a5)
    33b8:	07c2                	slli	a5,a5,0x10
    33ba:	83c1                	srli	a5,a5,0x10
    33bc:	0017e793          	ori	a5,a5,1
    33c0:	01079713          	slli	a4,a5,0x10
    33c4:	8341                	srli	a4,a4,0x10
    33c6:	fec42783          	lw	a5,-20(s0)
    33ca:	00e79023          	sh	a4,0(a5)
D:/Desktop/智能车基地/CH32V103_SmartCar_V1.0/4.Demo/Libraries/Device/CH32V10x_p/CH32V10x_Lib/ch32v10x_tim.c:442
  }
  else
  {
    TIMx->CTLR1 &= (uint16_t)(~((uint16_t)TIM_CEN));
  }
}
    33ce:	a839                	j	33ec <TIM_Cmd+0x50>
D:/Desktop/智能车基地/CH32V103_SmartCar_V1.0/4.Demo/Libraries/Device/CH32V10x_p/CH32V10x_Lib/ch32v10x_tim.c:440
    TIMx->CTLR1 &= (uint16_t)(~((uint16_t)TIM_CEN));
    33d0:	fec42783          	lw	a5,-20(s0)
    33d4:	0007d783          	lhu	a5,0(a5)
    33d8:	07c2                	slli	a5,a5,0x10
    33da:	83c1                	srli	a5,a5,0x10
    33dc:	9bf9                	andi	a5,a5,-2
    33de:	01079713          	slli	a4,a5,0x10
    33e2:	8341                	srli	a4,a4,0x10
    33e4:	fec42783          	lw	a5,-20(s0)
    33e8:	00e79023          	sh	a4,0(a5)
D:/Desktop/智能车基地/CH32V103_SmartCar_V1.0/4.Demo/Libraries/Device/CH32V10x_p/CH32V10x_Lib/ch32v10x_tim.c:442
}
    33ec:	0001                	nop
    33ee:	4472                	lw	s0,28(sp)
    33f0:	6105                	addi	sp,sp,32
    33f2:	8082                	ret

000033f4 <TIM_CtrlPWMOutputs>:
TIM_CtrlPWMOutputs():
D:/Desktop/智能车基地/CH32V103_SmartCar_V1.0/4.Demo/Libraries/Device/CH32V10x_p/CH32V10x_Lib/ch32v10x_tim.c:452
* Input          : TIMx: where x can be 1 to 4 to select the TIM peripheral.
*                  NewState: ENABLE or DISABLE.
* Return         : None
*******************************************************************************/
void TIM_CtrlPWMOutputs(TIM_TypeDef* TIMx, FunctionalState NewState)
{
    33f4:	1101                	addi	sp,sp,-32
    33f6:	ce22                	sw	s0,28(sp)
    33f8:	1000                	addi	s0,sp,32
    33fa:	fea42623          	sw	a0,-20(s0)
    33fe:	feb42423          	sw	a1,-24(s0)
D:/Desktop/智能车基地/CH32V103_SmartCar_V1.0/4.Demo/Libraries/Device/CH32V10x_p/CH32V10x_Lib/ch32v10x_tim.c:453
  if (NewState != DISABLE)
    3402:	fe842783          	lw	a5,-24(s0)
    3406:	c395                	beqz	a5,342a <TIM_CtrlPWMOutputs+0x36>
D:/Desktop/智能车基地/CH32V103_SmartCar_V1.0/4.Demo/Libraries/Device/CH32V10x_p/CH32V10x_Lib/ch32v10x_tim.c:455
  {
    TIMx->BDTR |= TIM_MOE;
    3408:	fec42783          	lw	a5,-20(s0)
    340c:	0447d783          	lhu	a5,68(a5)
    3410:	01079713          	slli	a4,a5,0x10
    3414:	8341                	srli	a4,a4,0x10
    3416:	77e1                	lui	a5,0xffff8
    3418:	8fd9                	or	a5,a5,a4
    341a:	01079713          	slli	a4,a5,0x10
    341e:	8341                	srli	a4,a4,0x10
    3420:	fec42783          	lw	a5,-20(s0)
    3424:	04e79223          	sh	a4,68(a5) # ffff8044 <_eusrstack+0xdfff3044>
D:/Desktop/智能车基地/CH32V103_SmartCar_V1.0/4.Demo/Libraries/Device/CH32V10x_p/CH32V10x_Lib/ch32v10x_tim.c:461
  }
  else
  {
    TIMx->BDTR &= (uint16_t)(~((uint16_t)TIM_MOE));
  }  
}
    3428:	a015                	j	344c <TIM_CtrlPWMOutputs+0x58>
D:/Desktop/智能车基地/CH32V103_SmartCar_V1.0/4.Demo/Libraries/Device/CH32V10x_p/CH32V10x_Lib/ch32v10x_tim.c:459
    TIMx->BDTR &= (uint16_t)(~((uint16_t)TIM_MOE));
    342a:	fec42783          	lw	a5,-20(s0)
    342e:	0447d783          	lhu	a5,68(a5)
    3432:	01079713          	slli	a4,a5,0x10
    3436:	8341                	srli	a4,a4,0x10
    3438:	67a1                	lui	a5,0x8
    343a:	17fd                	addi	a5,a5,-1
    343c:	8ff9                	and	a5,a5,a4
    343e:	01079713          	slli	a4,a5,0x10
    3442:	8341                	srli	a4,a4,0x10
    3444:	fec42783          	lw	a5,-20(s0)
    3448:	04e79223          	sh	a4,68(a5) # 8044 <_data_lma+0x4504>
D:/Desktop/智能车基地/CH32V103_SmartCar_V1.0/4.Demo/Libraries/Device/CH32V10x_p/CH32V10x_Lib/ch32v10x_tim.c:461
}
    344c:	0001                	nop
    344e:	4472                	lw	s0,28(sp)
    3450:	6105                	addi	sp,sp,32
    3452:	8082                	ret

00003454 <TIM_OC1PreloadConfig>:
TIM_OC1PreloadConfig():
D:/Desktop/智能车基地/CH32V103_SmartCar_V1.0/4.Demo/Libraries/Device/CH32V10x_p/CH32V10x_Lib/ch32v10x_tim.c:981
*                    TIM_OCPreload_Enable.
*                    TIM_OCPreload_Disable.
* Return         : None
*******************************************************************************/
void TIM_OC1PreloadConfig(TIM_TypeDef* TIMx, uint16_t TIM_OCPreload)
{
    3454:	7179                	addi	sp,sp,-48
    3456:	d622                	sw	s0,44(sp)
    3458:	1800                	addi	s0,sp,48
    345a:	fca42e23          	sw	a0,-36(s0)
    345e:	87ae                	mv	a5,a1
    3460:	fcf41d23          	sh	a5,-38(s0)
D:/Desktop/智能车基地/CH32V103_SmartCar_V1.0/4.Demo/Libraries/Device/CH32V10x_p/CH32V10x_Lib/ch32v10x_tim.c:982
  uint16_t tmpccmr1 = 0;
    3464:	fe041723          	sh	zero,-18(s0)
D:/Desktop/智能车基地/CH32V103_SmartCar_V1.0/4.Demo/Libraries/Device/CH32V10x_p/CH32V10x_Lib/ch32v10x_tim.c:984

  tmpccmr1 = TIMx->CHCTLR1;
    3468:	fdc42783          	lw	a5,-36(s0)
    346c:	0187d783          	lhu	a5,24(a5)
    3470:	fef41723          	sh	a5,-18(s0)
D:/Desktop/智能车基地/CH32V103_SmartCar_V1.0/4.Demo/Libraries/Device/CH32V10x_p/CH32V10x_Lib/ch32v10x_tim.c:985
  tmpccmr1 &= (uint16_t)~((uint16_t)TIM_OC1PE);
    3474:	fee45783          	lhu	a5,-18(s0)
    3478:	9bdd                	andi	a5,a5,-9
    347a:	fef41723          	sh	a5,-18(s0)
D:/Desktop/智能车基地/CH32V103_SmartCar_V1.0/4.Demo/Libraries/Device/CH32V10x_p/CH32V10x_Lib/ch32v10x_tim.c:986
  tmpccmr1 |= TIM_OCPreload;
    347e:	fee45703          	lhu	a4,-18(s0)
    3482:	fda45783          	lhu	a5,-38(s0)
    3486:	8fd9                	or	a5,a5,a4
    3488:	fef41723          	sh	a5,-18(s0)
D:/Desktop/智能车基地/CH32V103_SmartCar_V1.0/4.Demo/Libraries/Device/CH32V10x_p/CH32V10x_Lib/ch32v10x_tim.c:987
  TIMx->CHCTLR1 = tmpccmr1;
    348c:	fdc42783          	lw	a5,-36(s0)
    3490:	fee45703          	lhu	a4,-18(s0)
    3494:	00e79c23          	sh	a4,24(a5)
D:/Desktop/智能车基地/CH32V103_SmartCar_V1.0/4.Demo/Libraries/Device/CH32V10x_p/CH32V10x_Lib/ch32v10x_tim.c:988
}
    3498:	0001                	nop
    349a:	5432                	lw	s0,44(sp)
    349c:	6145                	addi	sp,sp,48
    349e:	8082                	ret

000034a0 <TIM_OC2PreloadConfig>:
TIM_OC2PreloadConfig():
D:/Desktop/智能车基地/CH32V103_SmartCar_V1.0/4.Demo/Libraries/Device/CH32V10x_p/CH32V10x_Lib/ch32v10x_tim.c:1000
*                    TIM_OCPreload_Enable.
*                    TIM_OCPreload_Disable.
* Return         : None
*******************************************************************************/
void TIM_OC2PreloadConfig(TIM_TypeDef* TIMx, uint16_t TIM_OCPreload)
{
    34a0:	7179                	addi	sp,sp,-48
    34a2:	d622                	sw	s0,44(sp)
    34a4:	1800                	addi	s0,sp,48
    34a6:	fca42e23          	sw	a0,-36(s0)
    34aa:	87ae                	mv	a5,a1
    34ac:	fcf41d23          	sh	a5,-38(s0)
D:/Desktop/智能车基地/CH32V103_SmartCar_V1.0/4.Demo/Libraries/Device/CH32V10x_p/CH32V10x_Lib/ch32v10x_tim.c:1001
  uint16_t tmpccmr1 = 0;
    34b0:	fe041723          	sh	zero,-18(s0)
D:/Desktop/智能车基地/CH32V103_SmartCar_V1.0/4.Demo/Libraries/Device/CH32V10x_p/CH32V10x_Lib/ch32v10x_tim.c:1003

  tmpccmr1 = TIMx->CHCTLR1;
    34b4:	fdc42783          	lw	a5,-36(s0)
    34b8:	0187d783          	lhu	a5,24(a5)
    34bc:	fef41723          	sh	a5,-18(s0)
D:/Desktop/智能车基地/CH32V103_SmartCar_V1.0/4.Demo/Libraries/Device/CH32V10x_p/CH32V10x_Lib/ch32v10x_tim.c:1004
  tmpccmr1 &= (uint16_t)~((uint16_t)TIM_OC2PE);
    34c0:	fee45703          	lhu	a4,-18(s0)
    34c4:	77fd                	lui	a5,0xfffff
    34c6:	7ff78793          	addi	a5,a5,2047 # fffff7ff <_eusrstack+0xdfffa7ff>
    34ca:	8ff9                	and	a5,a5,a4
    34cc:	fef41723          	sh	a5,-18(s0)
D:/Desktop/智能车基地/CH32V103_SmartCar_V1.0/4.Demo/Libraries/Device/CH32V10x_p/CH32V10x_Lib/ch32v10x_tim.c:1005
  tmpccmr1 |= (uint16_t)(TIM_OCPreload << 8);	
    34d0:	fda45783          	lhu	a5,-38(s0)
    34d4:	07a2                	slli	a5,a5,0x8
    34d6:	01079713          	slli	a4,a5,0x10
    34da:	8341                	srli	a4,a4,0x10
    34dc:	fee45783          	lhu	a5,-18(s0)
    34e0:	8fd9                	or	a5,a5,a4
    34e2:	fef41723          	sh	a5,-18(s0)
D:/Desktop/智能车基地/CH32V103_SmartCar_V1.0/4.Demo/Libraries/Device/CH32V10x_p/CH32V10x_Lib/ch32v10x_tim.c:1006
  TIMx->CHCTLR1 = tmpccmr1;
    34e6:	fdc42783          	lw	a5,-36(s0)
    34ea:	fee45703          	lhu	a4,-18(s0)
    34ee:	00e79c23          	sh	a4,24(a5)
D:/Desktop/智能车基地/CH32V103_SmartCar_V1.0/4.Demo/Libraries/Device/CH32V10x_p/CH32V10x_Lib/ch32v10x_tim.c:1007
}
    34f2:	0001                	nop
    34f4:	5432                	lw	s0,44(sp)
    34f6:	6145                	addi	sp,sp,48
    34f8:	8082                	ret

000034fa <TIM_OC3PreloadConfig>:
TIM_OC3PreloadConfig():
D:/Desktop/智能车基地/CH32V103_SmartCar_V1.0/4.Demo/Libraries/Device/CH32V10x_p/CH32V10x_Lib/ch32v10x_tim.c:1019
*                    TIM_OCPreload_Enable.
*                    TIM_OCPreload_Disable.
* Return         : None
*******************************************************************************/
void TIM_OC3PreloadConfig(TIM_TypeDef* TIMx, uint16_t TIM_OCPreload)
{
    34fa:	7179                	addi	sp,sp,-48
    34fc:	d622                	sw	s0,44(sp)
    34fe:	1800                	addi	s0,sp,48
    3500:	fca42e23          	sw	a0,-36(s0)
    3504:	87ae                	mv	a5,a1
    3506:	fcf41d23          	sh	a5,-38(s0)
D:/Desktop/智能车基地/CH32V103_SmartCar_V1.0/4.Demo/Libraries/Device/CH32V10x_p/CH32V10x_Lib/ch32v10x_tim.c:1020
  uint16_t tmpccmr2 = 0;
    350a:	fe041723          	sh	zero,-18(s0)
D:/Desktop/智能车基地/CH32V103_SmartCar_V1.0/4.Demo/Libraries/Device/CH32V10x_p/CH32V10x_Lib/ch32v10x_tim.c:1022

  tmpccmr2 = TIMx->CHCTLR2;
    350e:	fdc42783          	lw	a5,-36(s0)
    3512:	01c7d783          	lhu	a5,28(a5)
    3516:	fef41723          	sh	a5,-18(s0)
D:/Desktop/智能车基地/CH32V103_SmartCar_V1.0/4.Demo/Libraries/Device/CH32V10x_p/CH32V10x_Lib/ch32v10x_tim.c:1023
  tmpccmr2 &= (uint16_t)~((uint16_t)TIM_OC3PE);
    351a:	fee45783          	lhu	a5,-18(s0)
    351e:	9bdd                	andi	a5,a5,-9
    3520:	fef41723          	sh	a5,-18(s0)
D:/Desktop/智能车基地/CH32V103_SmartCar_V1.0/4.Demo/Libraries/Device/CH32V10x_p/CH32V10x_Lib/ch32v10x_tim.c:1024
  tmpccmr2 |= TIM_OCPreload;
    3524:	fee45703          	lhu	a4,-18(s0)
    3528:	fda45783          	lhu	a5,-38(s0)
    352c:	8fd9                	or	a5,a5,a4
    352e:	fef41723          	sh	a5,-18(s0)
D:/Desktop/智能车基地/CH32V103_SmartCar_V1.0/4.Demo/Libraries/Device/CH32V10x_p/CH32V10x_Lib/ch32v10x_tim.c:1025
  TIMx->CHCTLR2 = tmpccmr2;
    3532:	fdc42783          	lw	a5,-36(s0)
    3536:	fee45703          	lhu	a4,-18(s0)
    353a:	00e79e23          	sh	a4,28(a5)
D:/Desktop/智能车基地/CH32V103_SmartCar_V1.0/4.Demo/Libraries/Device/CH32V10x_p/CH32V10x_Lib/ch32v10x_tim.c:1026
}
    353e:	0001                	nop
    3540:	5432                	lw	s0,44(sp)
    3542:	6145                	addi	sp,sp,48
    3544:	8082                	ret

00003546 <TIM_OC4PreloadConfig>:
TIM_OC4PreloadConfig():
D:/Desktop/智能车基地/CH32V103_SmartCar_V1.0/4.Demo/Libraries/Device/CH32V10x_p/CH32V10x_Lib/ch32v10x_tim.c:1038
*                    TIM_OCPreload_Enable.
*                    TIM_OCPreload_Disable.
* Return         : None
*******************************************************************************/
void TIM_OC4PreloadConfig(TIM_TypeDef* TIMx, uint16_t TIM_OCPreload)
{
    3546:	7179                	addi	sp,sp,-48
    3548:	d622                	sw	s0,44(sp)
    354a:	1800                	addi	s0,sp,48
    354c:	fca42e23          	sw	a0,-36(s0)
    3550:	87ae                	mv	a5,a1
    3552:	fcf41d23          	sh	a5,-38(s0)
D:/Desktop/智能车基地/CH32V103_SmartCar_V1.0/4.Demo/Libraries/Device/CH32V10x_p/CH32V10x_Lib/ch32v10x_tim.c:1039
  uint16_t tmpccmr2 = 0;
    3556:	fe041723          	sh	zero,-18(s0)
D:/Desktop/智能车基地/CH32V103_SmartCar_V1.0/4.Demo/Libraries/Device/CH32V10x_p/CH32V10x_Lib/ch32v10x_tim.c:1041

  tmpccmr2 = TIMx->CHCTLR2;
    355a:	fdc42783          	lw	a5,-36(s0)
    355e:	01c7d783          	lhu	a5,28(a5)
    3562:	fef41723          	sh	a5,-18(s0)
D:/Desktop/智能车基地/CH32V103_SmartCar_V1.0/4.Demo/Libraries/Device/CH32V10x_p/CH32V10x_Lib/ch32v10x_tim.c:1042
  tmpccmr2 &= (uint16_t)~((uint16_t)TIM_OC4PE);
    3566:	fee45703          	lhu	a4,-18(s0)
    356a:	77fd                	lui	a5,0xfffff
    356c:	7ff78793          	addi	a5,a5,2047 # fffff7ff <_eusrstack+0xdfffa7ff>
    3570:	8ff9                	and	a5,a5,a4
    3572:	fef41723          	sh	a5,-18(s0)
D:/Desktop/智能车基地/CH32V103_SmartCar_V1.0/4.Demo/Libraries/Device/CH32V10x_p/CH32V10x_Lib/ch32v10x_tim.c:1043
  tmpccmr2 |= (uint16_t)(TIM_OCPreload << 8);
    3576:	fda45783          	lhu	a5,-38(s0)
    357a:	07a2                	slli	a5,a5,0x8
    357c:	01079713          	slli	a4,a5,0x10
    3580:	8341                	srli	a4,a4,0x10
    3582:	fee45783          	lhu	a5,-18(s0)
    3586:	8fd9                	or	a5,a5,a4
    3588:	fef41723          	sh	a5,-18(s0)
D:/Desktop/智能车基地/CH32V103_SmartCar_V1.0/4.Demo/Libraries/Device/CH32V10x_p/CH32V10x_Lib/ch32v10x_tim.c:1044
  TIMx->CHCTLR2 = tmpccmr2;
    358c:	fdc42783          	lw	a5,-36(s0)
    3590:	fee45703          	lhu	a4,-18(s0)
    3594:	00e79e23          	sh	a4,28(a5)
D:/Desktop/智能车基地/CH32V103_SmartCar_V1.0/4.Demo/Libraries/Device/CH32V10x_p/CH32V10x_Lib/ch32v10x_tim.c:1045
}
    3598:	0001                	nop
    359a:	5432                	lw	s0,44(sp)
    359c:	6145                	addi	sp,sp,48
    359e:	8082                	ret

000035a0 <TIM_OC2PolarityConfig>:
TIM_OC2PolarityConfig():
D:/Desktop/智能车基地/CH32V103_SmartCar_V1.0/4.Demo/Libraries/Device/CH32V10x_p/CH32V10x_Lib/ch32v10x_tim.c:1247
*                    TIM_OCPolarity_High: Output Compare active high.
*                    TIM_OCPolarity_Low: Output Compare active low.
* Return         : None
*******************************************************************************/
void TIM_OC2PolarityConfig(TIM_TypeDef* TIMx, uint16_t TIM_OCPolarity)
{
    35a0:	7179                	addi	sp,sp,-48
    35a2:	d622                	sw	s0,44(sp)
    35a4:	1800                	addi	s0,sp,48
    35a6:	fca42e23          	sw	a0,-36(s0)
    35aa:	87ae                	mv	a5,a1
    35ac:	fcf41d23          	sh	a5,-38(s0)
D:/Desktop/智能车基地/CH32V103_SmartCar_V1.0/4.Demo/Libraries/Device/CH32V10x_p/CH32V10x_Lib/ch32v10x_tim.c:1248
  uint16_t tmpccer = 0;
    35b0:	fe041723          	sh	zero,-18(s0)
D:/Desktop/智能车基地/CH32V103_SmartCar_V1.0/4.Demo/Libraries/Device/CH32V10x_p/CH32V10x_Lib/ch32v10x_tim.c:1250

  tmpccer = TIMx->CCER;
    35b4:	fdc42783          	lw	a5,-36(s0)
    35b8:	0207d783          	lhu	a5,32(a5)
    35bc:	fef41723          	sh	a5,-18(s0)
D:/Desktop/智能车基地/CH32V103_SmartCar_V1.0/4.Demo/Libraries/Device/CH32V10x_p/CH32V10x_Lib/ch32v10x_tim.c:1251
  tmpccer &= (uint16_t)~((uint16_t)TIM_CC2P);
    35c0:	fee45783          	lhu	a5,-18(s0)
    35c4:	fdf7f793          	andi	a5,a5,-33
    35c8:	fef41723          	sh	a5,-18(s0)
D:/Desktop/智能车基地/CH32V103_SmartCar_V1.0/4.Demo/Libraries/Device/CH32V10x_p/CH32V10x_Lib/ch32v10x_tim.c:1252
  tmpccer |= (uint16_t)(TIM_OCPolarity << 4);
    35cc:	fda45783          	lhu	a5,-38(s0)
    35d0:	0792                	slli	a5,a5,0x4
    35d2:	01079713          	slli	a4,a5,0x10
    35d6:	8341                	srli	a4,a4,0x10
    35d8:	fee45783          	lhu	a5,-18(s0)
    35dc:	8fd9                	or	a5,a5,a4
    35de:	fef41723          	sh	a5,-18(s0)
D:/Desktop/智能车基地/CH32V103_SmartCar_V1.0/4.Demo/Libraries/Device/CH32V10x_p/CH32V10x_Lib/ch32v10x_tim.c:1253
  TIMx->CCER = tmpccer;
    35e2:	fdc42783          	lw	a5,-36(s0)
    35e6:	fee45703          	lhu	a4,-18(s0)
    35ea:	02e79023          	sh	a4,32(a5)
D:/Desktop/智能车基地/CH32V103_SmartCar_V1.0/4.Demo/Libraries/Device/CH32V10x_p/CH32V10x_Lib/ch32v10x_tim.c:1254
}
    35ee:	0001                	nop
    35f0:	5432                	lw	s0,44(sp)
    35f2:	6145                	addi	sp,sp,48
    35f4:	8082                	ret

000035f6 <TIM_SetCounter>:
TIM_SetCounter():
D:/Desktop/智能车基地/CH32V103_SmartCar_V1.0/4.Demo/Libraries/Device/CH32V10x_p/CH32V10x_Lib/ch32v10x_tim.c:1564
* Input          : TIMx: where x can be 1 to 4 select the TIM peripheral.
*                  Counter: specifies the Counter register new value.
* Return         : None
*******************************************************************************/
void TIM_SetCounter(TIM_TypeDef* TIMx, uint16_t Counter)
{
    35f6:	1101                	addi	sp,sp,-32
    35f8:	ce22                	sw	s0,28(sp)
    35fa:	1000                	addi	s0,sp,32
    35fc:	fea42623          	sw	a0,-20(s0)
    3600:	87ae                	mv	a5,a1
    3602:	fef41523          	sh	a5,-22(s0)
D:/Desktop/智能车基地/CH32V103_SmartCar_V1.0/4.Demo/Libraries/Device/CH32V10x_p/CH32V10x_Lib/ch32v10x_tim.c:1565
  TIMx->CNT = Counter;
    3606:	fec42783          	lw	a5,-20(s0)
    360a:	fea45703          	lhu	a4,-22(s0)
    360e:	02e79223          	sh	a4,36(a5)
D:/Desktop/智能车基地/CH32V103_SmartCar_V1.0/4.Demo/Libraries/Device/CH32V10x_p/CH32V10x_Lib/ch32v10x_tim.c:1566
}
    3612:	0001                	nop
    3614:	4472                	lw	s0,28(sp)
    3616:	6105                	addi	sp,sp,32
    3618:	8082                	ret

0000361a <TIM_GetFlagStatus>:
TIM_GetFlagStatus():
D:/Desktop/智能车基地/CH32V103_SmartCar_V1.0/4.Demo/Libraries/Device/CH32V10x_p/CH32V10x_Lib/ch32v10x_tim.c:1798
*                    TIM_FLAG_CC3OF: TIM Capture Compare 3 overcapture Flag.
*                    TIM_FLAG_CC4OF: TIM Capture Compare 4 overcapture Flag.
* Return         : bitstatus: SET or RESET.
*******************************************************************************/
FlagStatus TIM_GetFlagStatus(TIM_TypeDef* TIMx, uint16_t TIM_FLAG)
{ 
    361a:	7179                	addi	sp,sp,-48
    361c:	d622                	sw	s0,44(sp)
    361e:	1800                	addi	s0,sp,48
    3620:	fca42e23          	sw	a0,-36(s0)
    3624:	87ae                	mv	a5,a1
    3626:	fcf41d23          	sh	a5,-38(s0)
D:/Desktop/智能车基地/CH32V103_SmartCar_V1.0/4.Demo/Libraries/Device/CH32V10x_p/CH32V10x_Lib/ch32v10x_tim.c:1799
  ITStatus bitstatus = RESET;  
    362a:	fe042623          	sw	zero,-20(s0)
D:/Desktop/智能车基地/CH32V103_SmartCar_V1.0/4.Demo/Libraries/Device/CH32V10x_p/CH32V10x_Lib/ch32v10x_tim.c:1801
  
  if ((TIMx->INTFR & TIM_FLAG) != (uint16_t)RESET)
    362e:	fdc42783          	lw	a5,-36(s0)
    3632:	0107d783          	lhu	a5,16(a5)
    3636:	01079713          	slli	a4,a5,0x10
    363a:	8341                	srli	a4,a4,0x10
    363c:	fda45783          	lhu	a5,-38(s0)
    3640:	8ff9                	and	a5,a5,a4
    3642:	07c2                	slli	a5,a5,0x10
    3644:	83c1                	srli	a5,a5,0x10
    3646:	c789                	beqz	a5,3650 <TIM_GetFlagStatus+0x36>
D:/Desktop/智能车基地/CH32V103_SmartCar_V1.0/4.Demo/Libraries/Device/CH32V10x_p/CH32V10x_Lib/ch32v10x_tim.c:1803
  {
    bitstatus = SET;
    3648:	4785                	li	a5,1
    364a:	fef42623          	sw	a5,-20(s0)
    364e:	a019                	j	3654 <TIM_GetFlagStatus+0x3a>
D:/Desktop/智能车基地/CH32V103_SmartCar_V1.0/4.Demo/Libraries/Device/CH32V10x_p/CH32V10x_Lib/ch32v10x_tim.c:1807
  }
  else
  {
    bitstatus = RESET;
    3650:	fe042623          	sw	zero,-20(s0)
D:/Desktop/智能车基地/CH32V103_SmartCar_V1.0/4.Demo/Libraries/Device/CH32V10x_p/CH32V10x_Lib/ch32v10x_tim.c:1810
  }
	
  return bitstatus;
    3654:	fec42783          	lw	a5,-20(s0)
D:/Desktop/智能车基地/CH32V103_SmartCar_V1.0/4.Demo/Libraries/Device/CH32V10x_p/CH32V10x_Lib/ch32v10x_tim.c:1811
}
    3658:	853e                	mv	a0,a5
    365a:	5432                	lw	s0,44(sp)
    365c:	6145                	addi	sp,sp,48
    365e:	8082                	ret

00003660 <TIM_ClearFlag>:
TIM_ClearFlag():
D:/Desktop/智能车基地/CH32V103_SmartCar_V1.0/4.Demo/Libraries/Device/CH32V10x_p/CH32V10x_Lib/ch32v10x_tim.c:1833
*                    TIM_FLAG_CC3OF: TIM Capture Compare 3 overcapture Flag.
*                    TIM_FLAG_CC4OF: TIM Capture Compare 4 overcapture Flag.
* Return         : None
*******************************************************************************/
void TIM_ClearFlag(TIM_TypeDef* TIMx, uint16_t TIM_FLAG)
{  
    3660:	1101                	addi	sp,sp,-32
    3662:	ce22                	sw	s0,28(sp)
    3664:	1000                	addi	s0,sp,32
    3666:	fea42623          	sw	a0,-20(s0)
    366a:	87ae                	mv	a5,a1
    366c:	fef41523          	sh	a5,-22(s0)
D:/Desktop/智能车基地/CH32V103_SmartCar_V1.0/4.Demo/Libraries/Device/CH32V10x_p/CH32V10x_Lib/ch32v10x_tim.c:1834
  TIMx->INTFR = (uint16_t)~TIM_FLAG;
    3670:	fea45783          	lhu	a5,-22(s0)
    3674:	fff7c793          	not	a5,a5
    3678:	01079713          	slli	a4,a5,0x10
    367c:	8341                	srli	a4,a4,0x10
    367e:	fec42783          	lw	a5,-20(s0)
    3682:	00e79823          	sh	a4,16(a5)
D:/Desktop/智能车基地/CH32V103_SmartCar_V1.0/4.Demo/Libraries/Device/CH32V10x_p/CH32V10x_Lib/ch32v10x_tim.c:1835
}
    3686:	0001                	nop
    3688:	4472                	lw	s0,28(sp)
    368a:	6105                	addi	sp,sp,32
    368c:	8082                	ret

0000368e <TIM_GetITStatus>:
TIM_GetITStatus():
D:/Desktop/智能车基地/CH32V103_SmartCar_V1.0/4.Demo/Libraries/Device/CH32V10x_p/CH32V10x_Lib/ch32v10x_tim.c:1853
*                    TIM_IT_Trigger: TIM Trigger Interrupt source.
*                    TIM_IT_Break: TIM Break Interrupt source.
* Return         : bitstatus: SET or RESET.
*******************************************************************************/
ITStatus TIM_GetITStatus(TIM_TypeDef* TIMx, uint16_t TIM_IT)
{
    368e:	7179                	addi	sp,sp,-48
    3690:	d622                	sw	s0,44(sp)
    3692:	1800                	addi	s0,sp,48
    3694:	fca42e23          	sw	a0,-36(s0)
    3698:	87ae                	mv	a5,a1
    369a:	fcf41d23          	sh	a5,-38(s0)
D:/Desktop/智能车基地/CH32V103_SmartCar_V1.0/4.Demo/Libraries/Device/CH32V10x_p/CH32V10x_Lib/ch32v10x_tim.c:1854
  ITStatus bitstatus = RESET;  
    369e:	fe042623          	sw	zero,-20(s0)
D:/Desktop/智能车基地/CH32V103_SmartCar_V1.0/4.Demo/Libraries/Device/CH32V10x_p/CH32V10x_Lib/ch32v10x_tim.c:1855
  uint16_t itstatus = 0x0, itenable = 0x0;
    36a2:	fe041523          	sh	zero,-22(s0)
    36a6:	fe041423          	sh	zero,-24(s0)
D:/Desktop/智能车基地/CH32V103_SmartCar_V1.0/4.Demo/Libraries/Device/CH32V10x_p/CH32V10x_Lib/ch32v10x_tim.c:1857
   
  itstatus = TIMx->INTFR & TIM_IT;
    36aa:	fdc42783          	lw	a5,-36(s0)
    36ae:	0107d783          	lhu	a5,16(a5)
    36b2:	01079713          	slli	a4,a5,0x10
    36b6:	8341                	srli	a4,a4,0x10
    36b8:	fda45783          	lhu	a5,-38(s0)
    36bc:	8ff9                	and	a5,a5,a4
    36be:	fef41523          	sh	a5,-22(s0)
D:/Desktop/智能车基地/CH32V103_SmartCar_V1.0/4.Demo/Libraries/Device/CH32V10x_p/CH32V10x_Lib/ch32v10x_tim.c:1859
  
  itenable = TIMx->DMAINTENR & TIM_IT;
    36c2:	fdc42783          	lw	a5,-36(s0)
    36c6:	00c7d783          	lhu	a5,12(a5)
    36ca:	01079713          	slli	a4,a5,0x10
    36ce:	8341                	srli	a4,a4,0x10
    36d0:	fda45783          	lhu	a5,-38(s0)
    36d4:	8ff9                	and	a5,a5,a4
    36d6:	fef41423          	sh	a5,-24(s0)
D:/Desktop/智能车基地/CH32V103_SmartCar_V1.0/4.Demo/Libraries/Device/CH32V10x_p/CH32V10x_Lib/ch32v10x_tim.c:1860
  if ((itstatus != (uint16_t)RESET) && (itenable != (uint16_t)RESET))
    36da:	fea45783          	lhu	a5,-22(s0)
    36de:	cb81                	beqz	a5,36ee <TIM_GetITStatus+0x60>
D:/Desktop/智能车基地/CH32V103_SmartCar_V1.0/4.Demo/Libraries/Device/CH32V10x_p/CH32V10x_Lib/ch32v10x_tim.c:1860 (discriminator 1)
    36e0:	fe845783          	lhu	a5,-24(s0)
    36e4:	c789                	beqz	a5,36ee <TIM_GetITStatus+0x60>
D:/Desktop/智能车基地/CH32V103_SmartCar_V1.0/4.Demo/Libraries/Device/CH32V10x_p/CH32V10x_Lib/ch32v10x_tim.c:1862
  {
    bitstatus = SET;
    36e6:	4785                	li	a5,1
    36e8:	fef42623          	sw	a5,-20(s0)
    36ec:	a019                	j	36f2 <TIM_GetITStatus+0x64>
D:/Desktop/智能车基地/CH32V103_SmartCar_V1.0/4.Demo/Libraries/Device/CH32V10x_p/CH32V10x_Lib/ch32v10x_tim.c:1866
  }
  else
  {
    bitstatus = RESET;
    36ee:	fe042623          	sw	zero,-20(s0)
D:/Desktop/智能车基地/CH32V103_SmartCar_V1.0/4.Demo/Libraries/Device/CH32V10x_p/CH32V10x_Lib/ch32v10x_tim.c:1869
  }
	
  return bitstatus;
    36f2:	fec42783          	lw	a5,-20(s0)
D:/Desktop/智能车基地/CH32V103_SmartCar_V1.0/4.Demo/Libraries/Device/CH32V10x_p/CH32V10x_Lib/ch32v10x_tim.c:1870
}
    36f6:	853e                	mv	a0,a5
    36f8:	5432                	lw	s0,44(sp)
    36fa:	6145                	addi	sp,sp,48
    36fc:	8082                	ret

000036fe <TIM_ClearITPendingBit>:
TIM_ClearITPendingBit():
D:/Desktop/智能车基地/CH32V103_SmartCar_V1.0/4.Demo/Libraries/Device/CH32V10x_p/CH32V10x_Lib/ch32v10x_tim.c:1888
*                    TIM_IT_Trigger: TIM Trigger Interrupt source.
*                    TIM_IT_Break: TIM Break Interrupt source.
* Return         : None
*******************************************************************************/
void TIM_ClearITPendingBit(TIM_TypeDef* TIMx, uint16_t TIM_IT)
{
    36fe:	1101                	addi	sp,sp,-32
    3700:	ce22                	sw	s0,28(sp)
    3702:	1000                	addi	s0,sp,32
    3704:	fea42623          	sw	a0,-20(s0)
    3708:	87ae                	mv	a5,a1
    370a:	fef41523          	sh	a5,-22(s0)
D:/Desktop/智能车基地/CH32V103_SmartCar_V1.0/4.Demo/Libraries/Device/CH32V10x_p/CH32V10x_Lib/ch32v10x_tim.c:1889
  TIMx->INTFR = (uint16_t)~TIM_IT;
    370e:	fea45783          	lhu	a5,-22(s0)
    3712:	fff7c793          	not	a5,a5
    3716:	01079713          	slli	a4,a5,0x10
    371a:	8341                	srli	a4,a4,0x10
    371c:	fec42783          	lw	a5,-20(s0)
    3720:	00e79823          	sh	a4,16(a5)
D:/Desktop/智能车基地/CH32V103_SmartCar_V1.0/4.Demo/Libraries/Device/CH32V10x_p/CH32V10x_Lib/ch32v10x_tim.c:1890
}
    3724:	0001                	nop
    3726:	4472                	lw	s0,28(sp)
    3728:	6105                	addi	sp,sp,32
    372a:	8082                	ret

0000372c <USART_Init>:
USART_Init():
D:/Desktop/智能车基地/CH32V103_SmartCar_V1.0/4.Demo/Libraries/Device/CH32V10x_p/CH32V10x_Lib/ch32v10x_usart.c:105
*                  USART_InitStruct: pointer to a USART_InitTypeDef structure
*      that contains the configuration information for the specified USART peripheral. 
* Return         : None
*******************************************************************************/
void USART_Init(USART_TypeDef* USARTx, USART_InitTypeDef* USART_InitStruct)
{
    372c:	715d                	addi	sp,sp,-80
    372e:	c686                	sw	ra,76(sp)
    3730:	c4a2                	sw	s0,72(sp)
    3732:	0880                	addi	s0,sp,80
    3734:	faa42e23          	sw	a0,-68(s0)
    3738:	fab42c23          	sw	a1,-72(s0)
D:/Desktop/智能车基地/CH32V103_SmartCar_V1.0/4.Demo/Libraries/Device/CH32V10x_p/CH32V10x_Lib/ch32v10x_usart.c:106
  uint32_t tmpreg = 0x00, apbclock = 0x00;
    373c:	fe042623          	sw	zero,-20(s0)
    3740:	fe042423          	sw	zero,-24(s0)
D:/Desktop/智能车基地/CH32V103_SmartCar_V1.0/4.Demo/Libraries/Device/CH32V10x_p/CH32V10x_Lib/ch32v10x_usart.c:107
  uint32_t integerdivider = 0x00;
    3744:	fe042223          	sw	zero,-28(s0)
D:/Desktop/智能车基地/CH32V103_SmartCar_V1.0/4.Demo/Libraries/Device/CH32V10x_p/CH32V10x_Lib/ch32v10x_usart.c:108
  uint32_t fractionaldivider = 0x00;
    3748:	fe042023          	sw	zero,-32(s0)
D:/Desktop/智能车基地/CH32V103_SmartCar_V1.0/4.Demo/Libraries/Device/CH32V10x_p/CH32V10x_Lib/ch32v10x_usart.c:109
  uint32_t usartxbase = 0;
    374c:	fc042e23          	sw	zero,-36(s0)
D:/Desktop/智能车基地/CH32V103_SmartCar_V1.0/4.Demo/Libraries/Device/CH32V10x_p/CH32V10x_Lib/ch32v10x_usart.c:116

  if (USART_InitStruct->USART_HardwareFlowControl != USART_HardwareFlowControl_None)
  {
  }

  usartxbase = (uint32_t)USARTx;
    3750:	fbc42783          	lw	a5,-68(s0)
    3754:	fcf42e23          	sw	a5,-36(s0)
D:/Desktop/智能车基地/CH32V103_SmartCar_V1.0/4.Demo/Libraries/Device/CH32V10x_p/CH32V10x_Lib/ch32v10x_usart.c:117
  tmpreg = USARTx->CTLR2;
    3758:	fbc42783          	lw	a5,-68(s0)
    375c:	0107d783          	lhu	a5,16(a5)
    3760:	07c2                	slli	a5,a5,0x10
    3762:	83c1                	srli	a5,a5,0x10
    3764:	fef42623          	sw	a5,-20(s0)
D:/Desktop/智能车基地/CH32V103_SmartCar_V1.0/4.Demo/Libraries/Device/CH32V10x_p/CH32V10x_Lib/ch32v10x_usart.c:118
  tmpreg &= CTLR2_STOP_CLEAR_Mask;
    3768:	fec42703          	lw	a4,-20(s0)
    376c:	67b5                	lui	a5,0xd
    376e:	17fd                	addi	a5,a5,-1
    3770:	8ff9                	and	a5,a5,a4
    3772:	fef42623          	sw	a5,-20(s0)
D:/Desktop/智能车基地/CH32V103_SmartCar_V1.0/4.Demo/Libraries/Device/CH32V10x_p/CH32V10x_Lib/ch32v10x_usart.c:119
  tmpreg |= (uint32_t)USART_InitStruct->USART_StopBits;  
    3776:	fb842783          	lw	a5,-72(s0)
    377a:	0067d783          	lhu	a5,6(a5) # d006 <_data_lma+0x94c6>
    377e:	873e                	mv	a4,a5
    3780:	fec42783          	lw	a5,-20(s0)
    3784:	8fd9                	or	a5,a5,a4
    3786:	fef42623          	sw	a5,-20(s0)
D:/Desktop/智能车基地/CH32V103_SmartCar_V1.0/4.Demo/Libraries/Device/CH32V10x_p/CH32V10x_Lib/ch32v10x_usart.c:121
	
  USARTx->CTLR2 = (uint16_t)tmpreg;
    378a:	fec42783          	lw	a5,-20(s0)
    378e:	01079713          	slli	a4,a5,0x10
    3792:	8341                	srli	a4,a4,0x10
    3794:	fbc42783          	lw	a5,-68(s0)
    3798:	00e79823          	sh	a4,16(a5)
D:/Desktop/智能车基地/CH32V103_SmartCar_V1.0/4.Demo/Libraries/Device/CH32V10x_p/CH32V10x_Lib/ch32v10x_usart.c:122
  tmpreg = USARTx->CTLR1;
    379c:	fbc42783          	lw	a5,-68(s0)
    37a0:	00c7d783          	lhu	a5,12(a5)
    37a4:	07c2                	slli	a5,a5,0x10
    37a6:	83c1                	srli	a5,a5,0x10
    37a8:	fef42623          	sw	a5,-20(s0)
D:/Desktop/智能车基地/CH32V103_SmartCar_V1.0/4.Demo/Libraries/Device/CH32V10x_p/CH32V10x_Lib/ch32v10x_usart.c:123
  tmpreg &= CTLR1_CLEAR_Mask;
    37ac:	fec42703          	lw	a4,-20(s0)
    37b0:	67bd                	lui	a5,0xf
    37b2:	9f378793          	addi	a5,a5,-1549 # e9f3 <_data_lma+0xaeb3>
    37b6:	8ff9                	and	a5,a5,a4
    37b8:	fef42623          	sw	a5,-20(s0)
D:/Desktop/智能车基地/CH32V103_SmartCar_V1.0/4.Demo/Libraries/Device/CH32V10x_p/CH32V10x_Lib/ch32v10x_usart.c:124
  tmpreg |= (uint32_t)USART_InitStruct->USART_WordLength | USART_InitStruct->USART_Parity |
    37bc:	fb842783          	lw	a5,-72(s0)
    37c0:	0047d703          	lhu	a4,4(a5)
    37c4:	fb842783          	lw	a5,-72(s0)
    37c8:	0087d783          	lhu	a5,8(a5)
    37cc:	8fd9                	or	a5,a5,a4
    37ce:	01079713          	slli	a4,a5,0x10
    37d2:	8341                	srli	a4,a4,0x10
D:/Desktop/智能车基地/CH32V103_SmartCar_V1.0/4.Demo/Libraries/Device/CH32V10x_p/CH32V10x_Lib/ch32v10x_usart.c:125
            USART_InitStruct->USART_Mode;
    37d4:	fb842783          	lw	a5,-72(s0)
    37d8:	00a7d783          	lhu	a5,10(a5)
D:/Desktop/智能车基地/CH32V103_SmartCar_V1.0/4.Demo/Libraries/Device/CH32V10x_p/CH32V10x_Lib/ch32v10x_usart.c:124
  tmpreg |= (uint32_t)USART_InitStruct->USART_WordLength | USART_InitStruct->USART_Parity |
    37dc:	8fd9                	or	a5,a5,a4
    37de:	07c2                	slli	a5,a5,0x10
    37e0:	83c1                	srli	a5,a5,0x10
    37e2:	873e                	mv	a4,a5
    37e4:	fec42783          	lw	a5,-20(s0)
    37e8:	8fd9                	or	a5,a5,a4
    37ea:	fef42623          	sw	a5,-20(s0)
D:/Desktop/智能车基地/CH32V103_SmartCar_V1.0/4.Demo/Libraries/Device/CH32V10x_p/CH32V10x_Lib/ch32v10x_usart.c:126
  USARTx->CTLR1 = (uint16_t)tmpreg;
    37ee:	fec42783          	lw	a5,-20(s0)
    37f2:	01079713          	slli	a4,a5,0x10
    37f6:	8341                	srli	a4,a4,0x10
    37f8:	fbc42783          	lw	a5,-68(s0)
    37fc:	00e79623          	sh	a4,12(a5)
D:/Desktop/智能车基地/CH32V103_SmartCar_V1.0/4.Demo/Libraries/Device/CH32V10x_p/CH32V10x_Lib/ch32v10x_usart.c:128
 
  tmpreg = USARTx->CTLR3;
    3800:	fbc42783          	lw	a5,-68(s0)
    3804:	0147d783          	lhu	a5,20(a5)
    3808:	07c2                	slli	a5,a5,0x10
    380a:	83c1                	srli	a5,a5,0x10
    380c:	fef42623          	sw	a5,-20(s0)
D:/Desktop/智能车基地/CH32V103_SmartCar_V1.0/4.Demo/Libraries/Device/CH32V10x_p/CH32V10x_Lib/ch32v10x_usart.c:129
  tmpreg &= CTLR3_CLEAR_Mask;
    3810:	fec42703          	lw	a4,-20(s0)
    3814:	67c1                	lui	a5,0x10
    3816:	cff78793          	addi	a5,a5,-769 # fcff <_data_lma+0xc1bf>
    381a:	8ff9                	and	a5,a5,a4
    381c:	fef42623          	sw	a5,-20(s0)
D:/Desktop/智能车基地/CH32V103_SmartCar_V1.0/4.Demo/Libraries/Device/CH32V10x_p/CH32V10x_Lib/ch32v10x_usart.c:130
  tmpreg |= USART_InitStruct->USART_HardwareFlowControl;
    3820:	fb842783          	lw	a5,-72(s0)
    3824:	00c7d783          	lhu	a5,12(a5)
    3828:	873e                	mv	a4,a5
    382a:	fec42783          	lw	a5,-20(s0)
    382e:	8fd9                	or	a5,a5,a4
    3830:	fef42623          	sw	a5,-20(s0)
D:/Desktop/智能车基地/CH32V103_SmartCar_V1.0/4.Demo/Libraries/Device/CH32V10x_p/CH32V10x_Lib/ch32v10x_usart.c:131
  USARTx->CTLR3 = (uint16_t)tmpreg;
    3834:	fec42783          	lw	a5,-20(s0)
    3838:	01079713          	slli	a4,a5,0x10
    383c:	8341                	srli	a4,a4,0x10
    383e:	fbc42783          	lw	a5,-68(s0)
    3842:	00e79a23          	sh	a4,20(a5)
D:/Desktop/智能车基地/CH32V103_SmartCar_V1.0/4.Demo/Libraries/Device/CH32V10x_p/CH32V10x_Lib/ch32v10x_usart.c:133

  RCC_GetClocksFreq(&RCC_ClocksStatus);
    3846:	fc840793          	addi	a5,s0,-56
    384a:	853e                	mv	a0,a5
    384c:	94eff0ef          	jal	ra,299a <RCC_GetClocksFreq>
D:/Desktop/智能车基地/CH32V103_SmartCar_V1.0/4.Demo/Libraries/Device/CH32V10x_p/CH32V10x_Lib/ch32v10x_usart.c:135
	
  if (usartxbase == USART1_BASE)
    3850:	fdc42703          	lw	a4,-36(s0)
    3854:	400147b7          	lui	a5,0x40014
    3858:	80078793          	addi	a5,a5,-2048 # 40013800 <_eusrstack+0x2000e800>
    385c:	00f71763          	bne	a4,a5,386a <USART_Init+0x13e>
D:/Desktop/智能车基地/CH32V103_SmartCar_V1.0/4.Demo/Libraries/Device/CH32V10x_p/CH32V10x_Lib/ch32v10x_usart.c:137
  {
    apbclock = RCC_ClocksStatus.PCLK2_Frequency;
    3860:	fd442783          	lw	a5,-44(s0)
    3864:	fef42423          	sw	a5,-24(s0)
    3868:	a029                	j	3872 <USART_Init+0x146>
D:/Desktop/智能车基地/CH32V103_SmartCar_V1.0/4.Demo/Libraries/Device/CH32V10x_p/CH32V10x_Lib/ch32v10x_usart.c:141
  }
  else
  {
    apbclock = RCC_ClocksStatus.PCLK1_Frequency;
    386a:	fd042783          	lw	a5,-48(s0)
    386e:	fef42423          	sw	a5,-24(s0)
D:/Desktop/智能车基地/CH32V103_SmartCar_V1.0/4.Demo/Libraries/Device/CH32V10x_p/CH32V10x_Lib/ch32v10x_usart.c:144
  }
  
  if ((USARTx->CTLR1 & CTLR1_OVER8_Set) != 0)
    3872:	fbc42783          	lw	a5,-68(s0)
    3876:	00c7d783          	lhu	a5,12(a5)
    387a:	07c2                	slli	a5,a5,0x10
    387c:	83c1                	srli	a5,a5,0x10
    387e:	07c2                	slli	a5,a5,0x10
    3880:	87c1                	srai	a5,a5,0x10
    3882:	0207d263          	bgez	a5,38a6 <USART_Init+0x17a>
D:/Desktop/智能车基地/CH32V103_SmartCar_V1.0/4.Demo/Libraries/Device/CH32V10x_p/CH32V10x_Lib/ch32v10x_usart.c:146
  {
    integerdivider = ((25 * apbclock) / (2 * (USART_InitStruct->USART_BaudRate)));    
    3886:	fe842703          	lw	a4,-24(s0)
    388a:	87ba                	mv	a5,a4
    388c:	0786                	slli	a5,a5,0x1
    388e:	97ba                	add	a5,a5,a4
    3890:	078e                	slli	a5,a5,0x3
    3892:	973e                	add	a4,a4,a5
    3894:	fb842783          	lw	a5,-72(s0)
    3898:	439c                	lw	a5,0(a5)
    389a:	0786                	slli	a5,a5,0x1
    389c:	02f757b3          	divu	a5,a4,a5
    38a0:	fef42223          	sw	a5,-28(s0)
    38a4:	a005                	j	38c4 <USART_Init+0x198>
D:/Desktop/智能车基地/CH32V103_SmartCar_V1.0/4.Demo/Libraries/Device/CH32V10x_p/CH32V10x_Lib/ch32v10x_usart.c:150
  }
  else 
  {
    integerdivider = ((25 * apbclock) / (4 * (USART_InitStruct->USART_BaudRate)));    
    38a6:	fe842703          	lw	a4,-24(s0)
    38aa:	87ba                	mv	a5,a4
    38ac:	0786                	slli	a5,a5,0x1
    38ae:	97ba                	add	a5,a5,a4
    38b0:	078e                	slli	a5,a5,0x3
    38b2:	973e                	add	a4,a4,a5
    38b4:	fb842783          	lw	a5,-72(s0)
    38b8:	439c                	lw	a5,0(a5)
    38ba:	078a                	slli	a5,a5,0x2
    38bc:	02f757b3          	divu	a5,a4,a5
    38c0:	fef42223          	sw	a5,-28(s0)
D:/Desktop/智能车基地/CH32V103_SmartCar_V1.0/4.Demo/Libraries/Device/CH32V10x_p/CH32V10x_Lib/ch32v10x_usart.c:152
  }
  tmpreg = (integerdivider / 100) << 4;
    38c4:	fe442703          	lw	a4,-28(s0)
    38c8:	06400793          	li	a5,100
    38cc:	02f757b3          	divu	a5,a4,a5
    38d0:	0792                	slli	a5,a5,0x4
    38d2:	fef42623          	sw	a5,-20(s0)
D:/Desktop/智能车基地/CH32V103_SmartCar_V1.0/4.Demo/Libraries/Device/CH32V10x_p/CH32V10x_Lib/ch32v10x_usart.c:154

  fractionaldivider = integerdivider - (100 * (tmpreg >> 4));
    38d6:	fec42783          	lw	a5,-20(s0)
    38da:	0047d713          	srli	a4,a5,0x4
    38de:	06400793          	li	a5,100
    38e2:	02f707b3          	mul	a5,a4,a5
    38e6:	fe442703          	lw	a4,-28(s0)
    38ea:	40f707b3          	sub	a5,a4,a5
    38ee:	fef42023          	sw	a5,-32(s0)
D:/Desktop/智能车基地/CH32V103_SmartCar_V1.0/4.Demo/Libraries/Device/CH32V10x_p/CH32V10x_Lib/ch32v10x_usart.c:156

  if ((USARTx->CTLR1 & CTLR1_OVER8_Set) != 0)
    38f2:	fbc42783          	lw	a5,-68(s0)
    38f6:	00c7d783          	lhu	a5,12(a5)
    38fa:	07c2                	slli	a5,a5,0x10
    38fc:	83c1                	srli	a5,a5,0x10
    38fe:	07c2                	slli	a5,a5,0x10
    3900:	87c1                	srai	a5,a5,0x10
    3902:	0207d263          	bgez	a5,3926 <USART_Init+0x1fa>
D:/Desktop/智能车基地/CH32V103_SmartCar_V1.0/4.Demo/Libraries/Device/CH32V10x_p/CH32V10x_Lib/ch32v10x_usart.c:158
  {
    tmpreg |= ((((fractionaldivider * 8) + 50) / 100)) & ((uint8_t)0x07);
    3906:	fe042783          	lw	a5,-32(s0)
    390a:	078e                	slli	a5,a5,0x3
    390c:	03278713          	addi	a4,a5,50
    3910:	06400793          	li	a5,100
    3914:	02f757b3          	divu	a5,a4,a5
    3918:	8b9d                	andi	a5,a5,7
    391a:	fec42703          	lw	a4,-20(s0)
    391e:	8fd9                	or	a5,a5,a4
    3920:	fef42623          	sw	a5,-20(s0)
    3924:	a005                	j	3944 <USART_Init+0x218>
D:/Desktop/智能车基地/CH32V103_SmartCar_V1.0/4.Demo/Libraries/Device/CH32V10x_p/CH32V10x_Lib/ch32v10x_usart.c:162
  }
  else 
  {
    tmpreg |= ((((fractionaldivider * 16) + 50) / 100)) & ((uint8_t)0x0F);
    3926:	fe042783          	lw	a5,-32(s0)
    392a:	0792                	slli	a5,a5,0x4
    392c:	03278713          	addi	a4,a5,50
    3930:	06400793          	li	a5,100
    3934:	02f757b3          	divu	a5,a4,a5
    3938:	8bbd                	andi	a5,a5,15
    393a:	fec42703          	lw	a4,-20(s0)
    393e:	8fd9                	or	a5,a5,a4
    3940:	fef42623          	sw	a5,-20(s0)
D:/Desktop/智能车基地/CH32V103_SmartCar_V1.0/4.Demo/Libraries/Device/CH32V10x_p/CH32V10x_Lib/ch32v10x_usart.c:165
  }
  
  USARTx->BRR = (uint16_t)tmpreg;
    3944:	fec42783          	lw	a5,-20(s0)
    3948:	01079713          	slli	a4,a5,0x10
    394c:	8341                	srli	a4,a4,0x10
    394e:	fbc42783          	lw	a5,-68(s0)
    3952:	00e79423          	sh	a4,8(a5)
D:/Desktop/智能车基地/CH32V103_SmartCar_V1.0/4.Demo/Libraries/Device/CH32V10x_p/CH32V10x_Lib/ch32v10x_usart.c:166
}
    3956:	0001                	nop
    3958:	40b6                	lw	ra,76(sp)
    395a:	4426                	lw	s0,72(sp)
    395c:	6161                	addi	sp,sp,80
    395e:	8082                	ret

00003960 <USART_Cmd>:
USART_Cmd():
D:/Desktop/智能车基地/CH32V103_SmartCar_V1.0/4.Demo/Libraries/Device/CH32V10x_p/CH32V10x_Lib/ch32v10x_usart.c:229
* Input          : USARTx: where x can be 1, 2, 3 to select the USART peripheral.
*                  NewState: ENABLE or DISABLE.
* Return         : None
*******************************************************************************/
void USART_Cmd(USART_TypeDef* USARTx, FunctionalState NewState)
{
    3960:	1101                	addi	sp,sp,-32
    3962:	ce22                	sw	s0,28(sp)
    3964:	1000                	addi	s0,sp,32
    3966:	fea42623          	sw	a0,-20(s0)
    396a:	feb42423          	sw	a1,-24(s0)
D:/Desktop/智能车基地/CH32V103_SmartCar_V1.0/4.Demo/Libraries/Device/CH32V10x_p/CH32V10x_Lib/ch32v10x_usart.c:230
  if (NewState != DISABLE)
    396e:	fe842783          	lw	a5,-24(s0)
    3972:	c395                	beqz	a5,3996 <USART_Cmd+0x36>
D:/Desktop/智能车基地/CH32V103_SmartCar_V1.0/4.Demo/Libraries/Device/CH32V10x_p/CH32V10x_Lib/ch32v10x_usart.c:232
  {
    USARTx->CTLR1 |= CTLR1_UE_Set;
    3974:	fec42783          	lw	a5,-20(s0)
    3978:	00c7d783          	lhu	a5,12(a5)
    397c:	01079713          	slli	a4,a5,0x10
    3980:	8341                	srli	a4,a4,0x10
    3982:	6789                	lui	a5,0x2
    3984:	8fd9                	or	a5,a5,a4
    3986:	01079713          	slli	a4,a5,0x10
    398a:	8341                	srli	a4,a4,0x10
    398c:	fec42783          	lw	a5,-20(s0)
    3990:	00e79623          	sh	a4,12(a5) # 200c <car_left_rgb_flash+0x2f8>
D:/Desktop/智能车基地/CH32V103_SmartCar_V1.0/4.Demo/Libraries/Device/CH32V10x_p/CH32V10x_Lib/ch32v10x_usart.c:238
  }
  else
  {
    USARTx->CTLR1 &= CTLR1_UE_Reset;
  }
}
    3994:	a015                	j	39b8 <USART_Cmd+0x58>
D:/Desktop/智能车基地/CH32V103_SmartCar_V1.0/4.Demo/Libraries/Device/CH32V10x_p/CH32V10x_Lib/ch32v10x_usart.c:236
    USARTx->CTLR1 &= CTLR1_UE_Reset;
    3996:	fec42783          	lw	a5,-20(s0)
    399a:	00c7d783          	lhu	a5,12(a5)
    399e:	01079713          	slli	a4,a5,0x10
    39a2:	8341                	srli	a4,a4,0x10
    39a4:	77f9                	lui	a5,0xffffe
    39a6:	17fd                	addi	a5,a5,-1
    39a8:	8ff9                	and	a5,a5,a4
    39aa:	01079713          	slli	a4,a5,0x10
    39ae:	8341                	srli	a4,a4,0x10
    39b0:	fec42783          	lw	a5,-20(s0)
    39b4:	00e79623          	sh	a4,12(a5) # ffffe00c <_eusrstack+0xdfff900c>
D:/Desktop/智能车基地/CH32V103_SmartCar_V1.0/4.Demo/Libraries/Device/CH32V10x_p/CH32V10x_Lib/ch32v10x_usart.c:238
}
    39b8:	0001                	nop
    39ba:	4472                	lw	s0,28(sp)
    39bc:	6105                	addi	sp,sp,32
    39be:	8082                	ret

000039c0 <USART_GetITStatus>:
USART_GetITStatus():
D:/Desktop/智能车基地/CH32V103_SmartCar_V1.0/4.Demo/Libraries/Device/CH32V10x_p/CH32V10x_Lib/ch32v10x_usart.c:660
*                    USART_IT_FE: Framing Error interrupt.
*                    USART_IT_PE: Parity Error interrupt.
* Return         : bitstatus: SET or RESET.
*******************************************************************************/
ITStatus USART_GetITStatus(USART_TypeDef* USARTx, uint16_t USART_IT)
{
    39c0:	7179                	addi	sp,sp,-48
    39c2:	d622                	sw	s0,44(sp)
    39c4:	1800                	addi	s0,sp,48
    39c6:	fca42e23          	sw	a0,-36(s0)
    39ca:	87ae                	mv	a5,a1
    39cc:	fcf41d23          	sh	a5,-38(s0)
D:/Desktop/智能车基地/CH32V103_SmartCar_V1.0/4.Demo/Libraries/Device/CH32V10x_p/CH32V10x_Lib/ch32v10x_usart.c:661
  uint32_t bitpos = 0x00, itmask = 0x00, usartreg = 0x00;
    39d0:	fe042223          	sw	zero,-28(s0)
    39d4:	fe042623          	sw	zero,-20(s0)
    39d8:	fe042023          	sw	zero,-32(s0)
D:/Desktop/智能车基地/CH32V103_SmartCar_V1.0/4.Demo/Libraries/Device/CH32V10x_p/CH32V10x_Lib/ch32v10x_usart.c:662
  ITStatus bitstatus = RESET;
    39dc:	fe042423          	sw	zero,-24(s0)
D:/Desktop/智能车基地/CH32V103_SmartCar_V1.0/4.Demo/Libraries/Device/CH32V10x_p/CH32V10x_Lib/ch32v10x_usart.c:668

  if (USART_IT == USART_IT_CTS)
  {
  }   
  
  usartreg = (((uint8_t)USART_IT) >> 0x05);
    39e0:	fda45783          	lhu	a5,-38(s0)
    39e4:	0ff7f793          	andi	a5,a5,255
    39e8:	8395                	srli	a5,a5,0x5
    39ea:	0ff7f793          	andi	a5,a5,255
    39ee:	fef42023          	sw	a5,-32(s0)
D:/Desktop/智能车基地/CH32V103_SmartCar_V1.0/4.Demo/Libraries/Device/CH32V10x_p/CH32V10x_Lib/ch32v10x_usart.c:669
  itmask = USART_IT & IT_Mask;
    39f2:	fda45783          	lhu	a5,-38(s0)
    39f6:	8bfd                	andi	a5,a5,31
    39f8:	fef42623          	sw	a5,-20(s0)
D:/Desktop/智能车基地/CH32V103_SmartCar_V1.0/4.Demo/Libraries/Device/CH32V10x_p/CH32V10x_Lib/ch32v10x_usart.c:670
  itmask = (uint32_t)0x01 << itmask;
    39fc:	fec42783          	lw	a5,-20(s0)
    3a00:	4705                	li	a4,1
    3a02:	00f717b3          	sll	a5,a4,a5
    3a06:	fef42623          	sw	a5,-20(s0)
D:/Desktop/智能车基地/CH32V103_SmartCar_V1.0/4.Demo/Libraries/Device/CH32V10x_p/CH32V10x_Lib/ch32v10x_usart.c:672
  
  if (usartreg == 0x01) 
    3a0a:	fe042703          	lw	a4,-32(s0)
    3a0e:	4785                	li	a5,1
    3a10:	00f71f63          	bne	a4,a5,3a2e <USART_GetITStatus+0x6e>
D:/Desktop/智能车基地/CH32V103_SmartCar_V1.0/4.Demo/Libraries/Device/CH32V10x_p/CH32V10x_Lib/ch32v10x_usart.c:674
  {
    itmask &= USARTx->CTLR1;
    3a14:	fdc42783          	lw	a5,-36(s0)
    3a18:	00c7d783          	lhu	a5,12(a5)
    3a1c:	07c2                	slli	a5,a5,0x10
    3a1e:	83c1                	srli	a5,a5,0x10
    3a20:	873e                	mv	a4,a5
    3a22:	fec42783          	lw	a5,-20(s0)
    3a26:	8ff9                	and	a5,a5,a4
    3a28:	fef42623          	sw	a5,-20(s0)
    3a2c:	a83d                	j	3a6a <USART_GetITStatus+0xaa>
D:/Desktop/智能车基地/CH32V103_SmartCar_V1.0/4.Demo/Libraries/Device/CH32V10x_p/CH32V10x_Lib/ch32v10x_usart.c:676
  }
  else if (usartreg == 0x02) 
    3a2e:	fe042703          	lw	a4,-32(s0)
    3a32:	4789                	li	a5,2
    3a34:	00f71f63          	bne	a4,a5,3a52 <USART_GetITStatus+0x92>
D:/Desktop/智能车基地/CH32V103_SmartCar_V1.0/4.Demo/Libraries/Device/CH32V10x_p/CH32V10x_Lib/ch32v10x_usart.c:678
  {
    itmask &= USARTx->CTLR2;
    3a38:	fdc42783          	lw	a5,-36(s0)
    3a3c:	0107d783          	lhu	a5,16(a5)
    3a40:	07c2                	slli	a5,a5,0x10
    3a42:	83c1                	srli	a5,a5,0x10
    3a44:	873e                	mv	a4,a5
    3a46:	fec42783          	lw	a5,-20(s0)
    3a4a:	8ff9                	and	a5,a5,a4
    3a4c:	fef42623          	sw	a5,-20(s0)
    3a50:	a829                	j	3a6a <USART_GetITStatus+0xaa>
D:/Desktop/智能车基地/CH32V103_SmartCar_V1.0/4.Demo/Libraries/Device/CH32V10x_p/CH32V10x_Lib/ch32v10x_usart.c:682
  }
  else 
  {
    itmask &= USARTx->CTLR3;
    3a52:	fdc42783          	lw	a5,-36(s0)
    3a56:	0147d783          	lhu	a5,20(a5)
    3a5a:	07c2                	slli	a5,a5,0x10
    3a5c:	83c1                	srli	a5,a5,0x10
    3a5e:	873e                	mv	a4,a5
    3a60:	fec42783          	lw	a5,-20(s0)
    3a64:	8ff9                	and	a5,a5,a4
    3a66:	fef42623          	sw	a5,-20(s0)
D:/Desktop/智能车基地/CH32V103_SmartCar_V1.0/4.Demo/Libraries/Device/CH32V10x_p/CH32V10x_Lib/ch32v10x_usart.c:685
  }
  
  bitpos = USART_IT >> 0x08;
    3a6a:	fda45783          	lhu	a5,-38(s0)
    3a6e:	83a1                	srli	a5,a5,0x8
    3a70:	07c2                	slli	a5,a5,0x10
    3a72:	83c1                	srli	a5,a5,0x10
    3a74:	fef42223          	sw	a5,-28(s0)
D:/Desktop/智能车基地/CH32V103_SmartCar_V1.0/4.Demo/Libraries/Device/CH32V10x_p/CH32V10x_Lib/ch32v10x_usart.c:686
  bitpos = (uint32_t)0x01 << bitpos;
    3a78:	fe442783          	lw	a5,-28(s0)
    3a7c:	4705                	li	a4,1
    3a7e:	00f717b3          	sll	a5,a4,a5
    3a82:	fef42223          	sw	a5,-28(s0)
D:/Desktop/智能车基地/CH32V103_SmartCar_V1.0/4.Demo/Libraries/Device/CH32V10x_p/CH32V10x_Lib/ch32v10x_usart.c:687
  bitpos &= USARTx->STATR;
    3a86:	fdc42783          	lw	a5,-36(s0)
    3a8a:	0007d783          	lhu	a5,0(a5)
    3a8e:	07c2                	slli	a5,a5,0x10
    3a90:	83c1                	srli	a5,a5,0x10
    3a92:	873e                	mv	a4,a5
    3a94:	fe442783          	lw	a5,-28(s0)
    3a98:	8ff9                	and	a5,a5,a4
    3a9a:	fef42223          	sw	a5,-28(s0)
D:/Desktop/智能车基地/CH32V103_SmartCar_V1.0/4.Demo/Libraries/Device/CH32V10x_p/CH32V10x_Lib/ch32v10x_usart.c:689
	
  if ((itmask != (uint16_t)RESET)&&(bitpos != (uint16_t)RESET))
    3a9e:	fec42783          	lw	a5,-20(s0)
    3aa2:	cb81                	beqz	a5,3ab2 <USART_GetITStatus+0xf2>
D:/Desktop/智能车基地/CH32V103_SmartCar_V1.0/4.Demo/Libraries/Device/CH32V10x_p/CH32V10x_Lib/ch32v10x_usart.c:689 (discriminator 1)
    3aa4:	fe442783          	lw	a5,-28(s0)
    3aa8:	c789                	beqz	a5,3ab2 <USART_GetITStatus+0xf2>
D:/Desktop/智能车基地/CH32V103_SmartCar_V1.0/4.Demo/Libraries/Device/CH32V10x_p/CH32V10x_Lib/ch32v10x_usart.c:691
  {
    bitstatus = SET;
    3aaa:	4785                	li	a5,1
    3aac:	fef42423          	sw	a5,-24(s0)
    3ab0:	a019                	j	3ab6 <USART_GetITStatus+0xf6>
D:/Desktop/智能车基地/CH32V103_SmartCar_V1.0/4.Demo/Libraries/Device/CH32V10x_p/CH32V10x_Lib/ch32v10x_usart.c:695
  }
  else
  {
    bitstatus = RESET;
    3ab2:	fe042423          	sw	zero,-24(s0)
D:/Desktop/智能车基地/CH32V103_SmartCar_V1.0/4.Demo/Libraries/Device/CH32V10x_p/CH32V10x_Lib/ch32v10x_usart.c:698
  }
  
  return bitstatus;  
    3ab6:	fe842783          	lw	a5,-24(s0)
D:/Desktop/智能车基地/CH32V103_SmartCar_V1.0/4.Demo/Libraries/Device/CH32V10x_p/CH32V10x_Lib/ch32v10x_usart.c:699
}
    3aba:	853e                	mv	a0,a5
    3abc:	5432                	lw	s0,44(sp)
    3abe:	6145                	addi	sp,sp,48
    3ac0:	8082                	ret

00003ac2 <USART_ClearITPendingBit>:
USART_ClearITPendingBit():
D:/Desktop/智能车基地/CH32V103_SmartCar_V1.0/4.Demo/Libraries/Device/CH32V10x_p/CH32V10x_Lib/ch32v10x_usart.c:713
*                    USART_IT_TC:   Transmission complete interrupt.
*                    USART_IT_RXNE: Receive Data register not empty interrupt.
* Return         : None
*******************************************************************************/
void USART_ClearITPendingBit(USART_TypeDef* USARTx, uint16_t USART_IT)
{
    3ac2:	7179                	addi	sp,sp,-48
    3ac4:	d622                	sw	s0,44(sp)
    3ac6:	1800                	addi	s0,sp,48
    3ac8:	fca42e23          	sw	a0,-36(s0)
    3acc:	87ae                	mv	a5,a1
    3ace:	fcf41d23          	sh	a5,-38(s0)
D:/Desktop/智能车基地/CH32V103_SmartCar_V1.0/4.Demo/Libraries/Device/CH32V10x_p/CH32V10x_Lib/ch32v10x_usart.c:714
  uint16_t bitpos = 0x00, itmask = 0x00;
    3ad2:	fe041723          	sh	zero,-18(s0)
    3ad6:	fe041623          	sh	zero,-20(s0)
D:/Desktop/智能车基地/CH32V103_SmartCar_V1.0/4.Demo/Libraries/Device/CH32V10x_p/CH32V10x_Lib/ch32v10x_usart.c:720

  if (USART_IT == USART_IT_CTS)
  {
  }   
  
  bitpos = USART_IT >> 0x08;
    3ada:	fda45783          	lhu	a5,-38(s0)
    3ade:	83a1                	srli	a5,a5,0x8
    3ae0:	fef41723          	sh	a5,-18(s0)
D:/Desktop/智能车基地/CH32V103_SmartCar_V1.0/4.Demo/Libraries/Device/CH32V10x_p/CH32V10x_Lib/ch32v10x_usart.c:721
  itmask = ((uint16_t)0x01 << (uint16_t)bitpos);
    3ae4:	fee45783          	lhu	a5,-18(s0)
    3ae8:	4705                	li	a4,1
    3aea:	00f717b3          	sll	a5,a4,a5
    3aee:	fef41623          	sh	a5,-20(s0)
D:/Desktop/智能车基地/CH32V103_SmartCar_V1.0/4.Demo/Libraries/Device/CH32V10x_p/CH32V10x_Lib/ch32v10x_usart.c:722
  USARTx->STATR = (uint16_t)~itmask;
    3af2:	fec45783          	lhu	a5,-20(s0)
    3af6:	fff7c793          	not	a5,a5
    3afa:	01079713          	slli	a4,a5,0x10
    3afe:	8341                	srli	a4,a4,0x10
    3b00:	fdc42783          	lw	a5,-36(s0)
    3b04:	00e79023          	sh	a4,0(a5)
D:/Desktop/智能车基地/CH32V103_SmartCar_V1.0/4.Demo/Libraries/Device/CH32V10x_p/CH32V10x_Lib/ch32v10x_usart.c:723
}
    3b08:	0001                	nop
    3b0a:	5432                	lw	s0,44(sp)
    3b0c:	6145                	addi	sp,sp,48
    3b0e:	8082                	ret

00003b10 <GPION>:
    3b10:	0800 4001 0c00 4001 1000 4001 1400 4001     ...@...@...@...@

00003b20 <TIMERN>:
    3b20:	2c00 4001 0000 4000 0400 4000 0800 4000     .,.@...@...@...@

00003b30 <UARTN>:
    3b30:	3800 4001 4400 4000 4800 4000 4c00 4000     .8.@.D.@.H.@.L.@
