
Template.elf:     file format elf32-littleriscv
Template.elf
architecture: riscv:rv32, flags 0x00000112:
EXEC_P, HAS_SYMS, D_PAGED
start address 0x00000000

Program Header:
    LOAD off    0x00001000 vaddr 0x00000000 paddr 0x00000000 align 2**12
         filesz 0x00001798 memsz 0x00001798 flags r-x
    LOAD off    0x00003000 vaddr 0x20000000 paddr 0x00001798 align 2**12
         filesz 0x00000018 memsz 0x0000002c flags rw-
    LOAD off    0x00003800 vaddr 0x20004800 paddr 0x20004800 align 2**12
         filesz 0x00000000 memsz 0x00000800 flags rw-

Sections:
Idx Name           Size      VMA       LMA       File off  Algn  Flags
  0 .init          00000038  00000000  00000000  00001000  2**1  CONTENTS, ALLOC, LOAD, READONLY, CODE
  1 .vector        00000108  00000038  00000038  00001038  2**1  CONTENTS, ALLOC, LOAD, READONLY, CODE
  2 .text          00001658  00000140  00000140  00001140  2**2  CONTENTS, ALLOC, LOAD, READONLY, CODE
  3 .fini          00000000  00001798  00001798  00003018  2**0  CONTENTS, ALLOC, LOAD, CODE
  4 .dalign        00000000  20000000  20000000  00003018  2**0  CONTENTS
  5 .dlalign       00000000  00001798  00001798  00003018  2**0  CONTENTS
  6 .data          00000018  20000000  00001798  00003000  2**2  CONTENTS, ALLOC, LOAD, DATA
  7 .bss           00000014  20000018  000017b0  00003018  2**2  ALLOC
  8 .stack         00000800  20004800  20004800  00003800  2**0  ALLOC
  9 .debug_info    0001597e  00000000  00000000  00003018  2**0  CONTENTS, READONLY, DEBUGGING
 10 .debug_abbrev  00003deb  00000000  00000000  00018996  2**0  CONTENTS, READONLY, DEBUGGING
 11 .debug_aranges 00000a58  00000000  00000000  0001c788  2**3  CONTENTS, READONLY, DEBUGGING
 12 .debug_ranges  00000950  00000000  00000000  0001d1e0  2**3  CONTENTS, READONLY, DEBUGGING
 13 .debug_line    0000cf83  00000000  00000000  0001db30  2**0  CONTENTS, READONLY, DEBUGGING
 14 .debug_str     000037dc  00000000  00000000  0002aab3  2**0  CONTENTS, READONLY, DEBUGGING
 15 .comment       00000033  00000000  00000000  0002e28f  2**0  CONTENTS, READONLY
 16 .debug_frame   00001680  00000000  00000000  0002e2c4  2**2  CONTENTS, READONLY, DEBUGGING
 17 .debug_loc     00004a7d  00000000  00000000  0002f944  2**0  CONTENTS, READONLY, DEBUGGING
 18 .stabstr       00000183  00000000  00000000  000343c1  2**0  CONTENTS, READONLY, DEBUGGING
SYMBOL TABLE:
00000000 l    d  .init	00000000 .init
00000038 l    d  .vector	00000000 .vector
00000140 l    d  .text	00000000 .text
00001798 l    d  .fini	00000000 .fini
20000000 l    d  .dalign	00000000 .dalign
00001798 l    d  .dlalign	00000000 .dlalign
20000000 l    d  .data	00000000 .data
20000018 l    d  .bss	00000000 .bss
20004800 l    d  .stack	00000000 .stack
00000000 l    d  .debug_info	00000000 .debug_info
00000000 l    d  .debug_abbrev	00000000 .debug_abbrev
00000000 l    d  .debug_aranges	00000000 .debug_aranges
00000000 l    d  .debug_ranges	00000000 .debug_ranges
00000000 l    d  .debug_line	00000000 .debug_line
00000000 l    d  .debug_str	00000000 .debug_str
00000000 l    d  .comment	00000000 .comment
00000000 l    d  .debug_frame	00000000 .debug_frame
00000000 l    d  .debug_loc	00000000 .debug_loc
00000000 l    d  .stabstr	00000000 .stabstr
00000000 l    df *ABS*	00000000 ./CH32V10x/CH32V10x_p/Startup/startup_ch32v10x.o
00000038 l       .vector	00000000 _vector_base
00000000 l    df *ABS*	00000000 isr.c
00000000 l    df *ABS*	00000000 main.c
00000000 l    df *ABS*	00000000 HF_L9110S_2.c
00000000 l    df *ABS*	00000000 hf_HC_SR04.c
00000000 l    df *ABS*	00000000 hf_tm1637.c
00000000 l    df *ABS*	00000000 hf_ws2812.c
00000000 l    df *ABS*	00000000 board.c
00000000 l    df *ABS*	00000000 clock_config.c
00000000 l    df *ABS*	00000000 delay.c
2000001c l     O .bss	00000002 p_ms
2000001e l     O .bss	00000001 p_us
00000000 l    df *ABS*	00000000 hf_exti.c
00000000 l    df *ABS*	00000000 hf_gpio.c
00000000 l    df *ABS*	00000000 hf_nvic.c
00000000 l    df *ABS*	00000000 hf_pwm.c
00000000 l    df *ABS*	00000000 hf_tim.c
00000000 l    df *ABS*	00000000 hf_uart.c
00000000 l    df *ABS*	00000000 car_init.c
00000000 l    df *ABS*	00000000 car_motion.c
00000000 l    df *ABS*	00000000 ch32v10x_dma.c
00000000 l    df *ABS*	00000000 ch32v10x_exti.c
00000000 l    df *ABS*	00000000 ch32v10x_gpio.c
00000000 l    df *ABS*	00000000 ch32v10x_misc.c
00000000 l    df *ABS*	00000000 ch32v10x_rcc.c
20000000 l     O .data	00000010 APBAHBPrescTable
20000010 l     O .data	00000004 ADCPrescTable
00000000 l    df *ABS*	00000000 ch32v10x_tim.c
00000000 l    df *ABS*	00000000 ch32v10x_usart.c
00000000 l    df *ABS*	00000000 common.c
00000000 l    df *ABS*	00000000 close.c
0000015a g     F .text	0000000a EXTI2_IRQHandler
20000810 g       .data	00000000 __global_pointer$
00000210 g     F .text	00000074 TIM1_CC_IRQHandler
0000034e g     F .text	00000002 HardFault_Handler
00000ea4 g     F .text	00000020 car_turnright
00001570 g     F .text	00000012 TIM_OC1PreloadConfig
00001102 g     F .text	00000064 NVIC_Init
20000018 g     O .bss	00000004 sys_clk
00000e84 g     F .text	00000020 car_turnleft
0000034a g     F .text	00000004 NMI_Handler
00000c4a g     F .text	0000006a timbase_init
00000164 g     F .text	00000004 EXTI3_IRQHandler
00001778 g     O .text	00000010 TIMERN
20000018 g       .bss	00000000 _sbss
00000800 g       *ABS*	00000000 __stack_size
0000155a g     F .text	00000016 TIM_CtrlPWMOutputs
00000140 g     F .text	00000004 EXTI0_IRQHandler
0000153e g     F .text	0000001c TIM_Cmd
000015ae g     F .text	0000001a TIM_OC4PreloadConfig
000015e2 g     F .text	0000000e TIM_ClearFlag
00000038 g       .init	00000000 _einit
00000866 g     F .text	0000001c sys_recover_irq
0000160c g     F .text	0000000e TIM_ClearITPendingBit
0000121a g     F .text	0000001e RCC_APB2PeriphClockCmd
00000174 g     F .text	00000004 ADC1_2_IRQHandler
0000100a g     F .text	000000c2 GPIO_Init
000003f6 g     F .text	00000032 l9110s_forward
000007ea g     F .text	00000052 nvic_init
00000466 g     F .text	0000002a tim_init
000016f2 g     F .text	0000001c USART_Cmd
0000140a g     F .text	000000b2 TIM_OC3Init
00000e28 g     F .text	00000022 car_forward
00001752 g     F .text	00000016 USART_ClearITPendingBit
00001238 g     F .text	0000001e RCC_APB1PeriphClockCmd
00000328 g     F .text	00000016 DMA1_Channel4_IRQHandler
00000dda g     F .text	0000004e car_init
00000f3e g     F .text	00000020 DMA_GetFlagStatus
00000318 g     F .text	00000004 USART3_IRQHandler
00001000 g     F .text	0000000a EXTI_ClearITPendingBit
2000002c g       .bss	00000000 _ebss
0000170e g     F .text	00000044 USART_GetITStatus
00000346 g     F .text	00000004 DMA1_Channel7_IRQHandler
000012ce g     F .text	00000088 TIM_OC1Init
0000159c g     F .text	00000012 TIM_OC3PreloadConfig
0000065a g     F .text	0000002a Delay_Init
00001788 g     O .text	00000010 UARTN
00000b36 g     F .text	00000114 pwm_init
000002c4 g     F .text	00000026 TIM4_IRQHandler
000010cc g     F .text	0000000a GPIO_WriteBit
00000490 g     F .text	00000040 ultrasonic_init
2000002c g       .bss	00000000 end
000015f0 g     F .text	0000001c TIM_GetITStatus
00001166 g     F .text	000000b4 RCC_GetClocksFreq
00000342 g     F .text	00000004 DMA1_Channel6_IRQHandler
00000d62 g     F .text	00000078 uart_init
0000161a g     F .text	000000d8 USART_Init
0000029e g     F .text	00000026 TIM3_IRQHandler
00000882 g     F .text	0000000a EnableGlobalIRQ
00000cb4 g     F .text	000000ae uart_gpio_init
000001c8 g     F .text	00000048 TIM1_TRG_COM_IRQHandler
0000031c g     F .text	00000004 DMA1_Channel1_IRQHandler
00000000 g       .init	00000000 _start
00001582 g     F .text	0000001a TIM_OC2PreloadConfig
000007da g     F .text	00000010 close_all_irq
00000170 g     F .text	00000004 EXTI15_10_IRQHandler
00001768 g     O .text	00000010 GPION
00001356 g     F .text	000000b4 TIM_OC2Init
00000f78 g     F .text	0000006a EXTI_Init
000006b4 g     F .text	00000048 exti_enable
20000000 g       .dalign	00000000 _data_vma
000004fc g     F .text	00000024 ws2812b_init
000014bc g     F .text	00000082 TIM_OC4Init
0000016c g     F .text	00000004 EXTI9_5_IRQHandler
000010d6 g     F .text	0000002c GPIO_EXTILineConfig
00000520 g     F .text	00000038 board_init
00000428 g     F .text	0000003e l9110s_backward
00000e6c g     F .text	00000018 car_stop
00000fe2 g     F .text	0000001e EXTI_GetITStatus
00000350 g     F .text	00000052 main
0000033e g     F .text	00000004 DMA1_Channel5_IRQHandler
00000168 g     F .text	00000004 EXTI4_IRQHandler
00000684 g     F .text	00000030 Delay_Ms
0000083c g     F .text	0000002a DisableGlobalIRQ
00000558 g     F .text	00000102 SystemInit
00000000 g       .init	00000000 _sinit
00000324 g     F .text	00000004 DMA1_Channel3_IRQHandler
20000020 g     O .bss	0000000c irq_status
000001a2 g     F .text	00000026 TIM1_UP_IRQHandler
00000284 g     F .text	0000001a TIM2_IRQHandler
20005000 g       .stack	00000000 _eusrstack
0000088c g     F .text	00000070 pwm_duty
00000178 g     F .text	0000002a TIM1_BRK_IRQHandler
00000144 g     F .text	00000016 EXTI1_IRQHandler
20000018 g       .data	00000000 _edata
00001256 g     F .text	00000078 TIM_TimeBaseInit
00001798 g       .dlalign	00000000 _data_lma
000002ee g     F .text	0000002a USART2_IRQHandler
00000320 g     F .text	00000004 DMA1_Channel2_IRQHandler
00000f5e g     F .text	0000001a DMA_ClearFlag
00000ec4  w      .text	00000000 handle_reset
000008fc g     F .text	0000023a pwm_gpio_init
000003a2 g     F .text	00000054 l9110s_init
000002ea g     F .text	00000004 USART1_IRQHandler
00000e4a g     F .text	00000022 car_backward
000004d0 g     F .text	0000002c tm1637_init
000006fc g     F .text	000000de gpio_init
000015c8 g     F .text	0000001a TIM_OC2PolarityConfig



Disassembly of section .init:

00000000 <_sinit>:
_start():
C:/Users/DELL/Desktop/01-Car_motion/Libraries/Device/CH32V10x_p/Startup/startup_ch32v10x.S:13

	.section	.init,"ax",@progbits
	.global	_start
	.align	1
_start:
	j	handle_reset
   0:	6c50006f          	j	ec4 <handle_reset>
   4:	00000013          	nop
   8:	00000013          	nop
   c:	00000013          	nop
  10:	00000013          	nop
  14:	00000013          	nop
  18:	00000013          	nop
  1c:	00000013          	nop
  20:	00000013          	nop
  24:	00000013          	nop
  28:	00000013          	nop
  2c:	00000013          	nop
  30:	00000013          	nop
  34:	00100073          	ebreak

Disassembly of section .vector:

00000038 <_vector_base>:
_vector_base():
C:/Users/DELL/Desktop/01-Car_motion/Libraries/Device/CH32V10x_p/Startup/startup_ch32v10x.S:31
	.word 0x00100073
    .section    .vector,"ax",@progbits
    .align  1
_vector_base:
    .option norvc;
        j   _start
  38:	fc9ff06f          	j	0 <_sinit>
  3c:	0000                	unimp
  3e:	0000                	unimp
C:/Users/DELL/Desktop/01-Car_motion/Libraries/Device/CH32V10x_p/Startup/startup_ch32v10x.S:33
    .word   0
        j   NMI_Handler                 /* NMI Handler */
  40:	30a0006f          	j	34a <NMI_Handler>
C:/Users/DELL/Desktop/01-Car_motion/Libraries/Device/CH32V10x_p/Startup/startup_ch32v10x.S:34
        j   HardFault_Handler           /* Hard Fault Handler */
  44:	30a0006f          	j	34e <HardFault_Handler>
	...
C:/Users/DELL/Desktop/01-Car_motion/Libraries/Device/CH32V10x_p/Startup/startup_ch32v10x.S:43
    .word   0
    .word   0
    .word   0
    .word   0
    .word   0
        j   SysTick_Handler            /* SysTick Handler */
  68:	f99ff06f          	j	0 <_sinit>
  6c:	0000                	unimp
  6e:	0000                	unimp
C:/Users/DELL/Desktop/01-Car_motion/Libraries/Device/CH32V10x_p/Startup/startup_ch32v10x.S:45
    .word   0
        j   SW_handler                 /* SW Handler */
  70:	f91ff06f          	j	0 <_sinit>
  74:	0000                	unimp
  76:	0000                	unimp
C:/Users/DELL/Desktop/01-Car_motion/Libraries/Device/CH32V10x_p/Startup/startup_ch32v10x.S:48
    .word   0
    /* External Interrupts */
        j   WWDG_IRQHandler            /* Window Watchdog */
  78:	f89ff06f          	j	0 <_sinit>
C:/Users/DELL/Desktop/01-Car_motion/Libraries/Device/CH32V10x_p/Startup/startup_ch32v10x.S:49
        j   PVD_IRQHandler             /* PVD through EXTI Line detect */
  7c:	f85ff06f          	j	0 <_sinit>
C:/Users/DELL/Desktop/01-Car_motion/Libraries/Device/CH32V10x_p/Startup/startup_ch32v10x.S:50
        j   TAMPER_IRQHandler          /* TAMPER */
  80:	f81ff06f          	j	0 <_sinit>
C:/Users/DELL/Desktop/01-Car_motion/Libraries/Device/CH32V10x_p/Startup/startup_ch32v10x.S:51
        j   RTC_IRQHandler             /* RTC */
  84:	f7dff06f          	j	0 <_sinit>
C:/Users/DELL/Desktop/01-Car_motion/Libraries/Device/CH32V10x_p/Startup/startup_ch32v10x.S:52
        j   FLASH_IRQHandler           /* Flash */
  88:	f79ff06f          	j	0 <_sinit>
C:/Users/DELL/Desktop/01-Car_motion/Libraries/Device/CH32V10x_p/Startup/startup_ch32v10x.S:53
        j   RCC_IRQHandler             /* RCC */
  8c:	f75ff06f          	j	0 <_sinit>
C:/Users/DELL/Desktop/01-Car_motion/Libraries/Device/CH32V10x_p/Startup/startup_ch32v10x.S:54
        j   EXTI0_IRQHandler           /* EXTI Line 0 */
  90:	0b00006f          	j	140 <EXTI0_IRQHandler>
C:/Users/DELL/Desktop/01-Car_motion/Libraries/Device/CH32V10x_p/Startup/startup_ch32v10x.S:55
        j   EXTI1_IRQHandler           /* EXTI Line 1 */
  94:	0b00006f          	j	144 <EXTI1_IRQHandler>
C:/Users/DELL/Desktop/01-Car_motion/Libraries/Device/CH32V10x_p/Startup/startup_ch32v10x.S:56
        j   EXTI2_IRQHandler           /* EXTI Line 2 */
  98:	0c20006f          	j	15a <EXTI2_IRQHandler>
C:/Users/DELL/Desktop/01-Car_motion/Libraries/Device/CH32V10x_p/Startup/startup_ch32v10x.S:57
        j   EXTI3_IRQHandler           /* EXTI Line 3 */
  9c:	0c80006f          	j	164 <EXTI3_IRQHandler>
C:/Users/DELL/Desktop/01-Car_motion/Libraries/Device/CH32V10x_p/Startup/startup_ch32v10x.S:58
        j   EXTI4_IRQHandler           /* EXTI Line 4 */
  a0:	0c80006f          	j	168 <EXTI4_IRQHandler>
C:/Users/DELL/Desktop/01-Car_motion/Libraries/Device/CH32V10x_p/Startup/startup_ch32v10x.S:59
        j   DMA1_Channel1_IRQHandler   /* DMA1 Channel 1 */
  a4:	2780006f          	j	31c <DMA1_Channel1_IRQHandler>
C:/Users/DELL/Desktop/01-Car_motion/Libraries/Device/CH32V10x_p/Startup/startup_ch32v10x.S:60
        j   DMA1_Channel2_IRQHandler   /* DMA1 Channel 2 */
  a8:	2780006f          	j	320 <DMA1_Channel2_IRQHandler>
C:/Users/DELL/Desktop/01-Car_motion/Libraries/Device/CH32V10x_p/Startup/startup_ch32v10x.S:61
        j   DMA1_Channel3_IRQHandler   /* DMA1 Channel 3 */
  ac:	2780006f          	j	324 <DMA1_Channel3_IRQHandler>
C:/Users/DELL/Desktop/01-Car_motion/Libraries/Device/CH32V10x_p/Startup/startup_ch32v10x.S:62
        j   DMA1_Channel4_IRQHandler   /* DMA1 Channel 4 */
  b0:	2780006f          	j	328 <DMA1_Channel4_IRQHandler>
C:/Users/DELL/Desktop/01-Car_motion/Libraries/Device/CH32V10x_p/Startup/startup_ch32v10x.S:63
        j   DMA1_Channel5_IRQHandler   /* DMA1 Channel 5 */
  b4:	28a0006f          	j	33e <DMA1_Channel5_IRQHandler>
C:/Users/DELL/Desktop/01-Car_motion/Libraries/Device/CH32V10x_p/Startup/startup_ch32v10x.S:64
        j   DMA1_Channel6_IRQHandler   /* DMA1 Channel 6 */
  b8:	28a0006f          	j	342 <DMA1_Channel6_IRQHandler>
C:/Users/DELL/Desktop/01-Car_motion/Libraries/Device/CH32V10x_p/Startup/startup_ch32v10x.S:65
        j   DMA1_Channel7_IRQHandler   /* DMA1 Channel 7 */
  bc:	28a0006f          	j	346 <DMA1_Channel7_IRQHandler>
C:/Users/DELL/Desktop/01-Car_motion/Libraries/Device/CH32V10x_p/Startup/startup_ch32v10x.S:66
        j   ADC1_2_IRQHandler          /* ADC1_2 */
  c0:	0b40006f          	j	174 <ADC1_2_IRQHandler>
	...
C:/Users/DELL/Desktop/01-Car_motion/Libraries/Device/CH32V10x_p/Startup/startup_ch32v10x.S:71
        .word   0
        .word   0
        .word   0
        .word   0
        j   EXTI9_5_IRQHandler         /* EXTI Line 9..5 */
  d4:	0980006f          	j	16c <EXTI9_5_IRQHandler>
C:/Users/DELL/Desktop/01-Car_motion/Libraries/Device/CH32V10x_p/Startup/startup_ch32v10x.S:72
        j   TIM1_BRK_IRQHandler        /* TIM1 Break */
  d8:	0a00006f          	j	178 <TIM1_BRK_IRQHandler>
C:/Users/DELL/Desktop/01-Car_motion/Libraries/Device/CH32V10x_p/Startup/startup_ch32v10x.S:73
        j   TIM1_UP_IRQHandler         /* TIM1 Update */
  dc:	0c60006f          	j	1a2 <TIM1_UP_IRQHandler>
C:/Users/DELL/Desktop/01-Car_motion/Libraries/Device/CH32V10x_p/Startup/startup_ch32v10x.S:74
        j   TIM1_TRG_COM_IRQHandler    /* TIM1 Trigger and Commutation */
  e0:	0e80006f          	j	1c8 <TIM1_TRG_COM_IRQHandler>
C:/Users/DELL/Desktop/01-Car_motion/Libraries/Device/CH32V10x_p/Startup/startup_ch32v10x.S:75
        j   TIM1_CC_IRQHandler         /* TIM1 Capture Compare */
  e4:	12c0006f          	j	210 <TIM1_CC_IRQHandler>
C:/Users/DELL/Desktop/01-Car_motion/Libraries/Device/CH32V10x_p/Startup/startup_ch32v10x.S:76
        j   TIM2_IRQHandler            /* TIM2 */
  e8:	19c0006f          	j	284 <TIM2_IRQHandler>
C:/Users/DELL/Desktop/01-Car_motion/Libraries/Device/CH32V10x_p/Startup/startup_ch32v10x.S:77
        j   TIM3_IRQHandler            /* TIM3 */
  ec:	1b20006f          	j	29e <TIM3_IRQHandler>
C:/Users/DELL/Desktop/01-Car_motion/Libraries/Device/CH32V10x_p/Startup/startup_ch32v10x.S:78
        j   TIM4_IRQHandler            /* TIM4 */
  f0:	1d40006f          	j	2c4 <TIM4_IRQHandler>
C:/Users/DELL/Desktop/01-Car_motion/Libraries/Device/CH32V10x_p/Startup/startup_ch32v10x.S:79
        j   I2C1_EV_IRQHandler         /* I2C1 Event */
  f4:	f0dff06f          	j	0 <_sinit>
C:/Users/DELL/Desktop/01-Car_motion/Libraries/Device/CH32V10x_p/Startup/startup_ch32v10x.S:80
        j   I2C1_ER_IRQHandler         /* I2C1 Error */
  f8:	f09ff06f          	j	0 <_sinit>
C:/Users/DELL/Desktop/01-Car_motion/Libraries/Device/CH32V10x_p/Startup/startup_ch32v10x.S:81
        j   I2C2_EV_IRQHandler         /* I2C2 Event */
  fc:	f05ff06f          	j	0 <_sinit>
C:/Users/DELL/Desktop/01-Car_motion/Libraries/Device/CH32V10x_p/Startup/startup_ch32v10x.S:82
        j   I2C2_ER_IRQHandler         /* I2C2 Error */
 100:	f01ff06f          	j	0 <_sinit>
C:/Users/DELL/Desktop/01-Car_motion/Libraries/Device/CH32V10x_p/Startup/startup_ch32v10x.S:83
        j   SPI1_IRQHandler            /* SPI1 */
 104:	efdff06f          	j	0 <_sinit>
C:/Users/DELL/Desktop/01-Car_motion/Libraries/Device/CH32V10x_p/Startup/startup_ch32v10x.S:84
        j   SPI2_IRQHandler            /* SPI2 */
 108:	ef9ff06f          	j	0 <_sinit>
C:/Users/DELL/Desktop/01-Car_motion/Libraries/Device/CH32V10x_p/Startup/startup_ch32v10x.S:85
        j   USART1_IRQHandler          /* USART1 */
 10c:	1de0006f          	j	2ea <USART1_IRQHandler>
C:/Users/DELL/Desktop/01-Car_motion/Libraries/Device/CH32V10x_p/Startup/startup_ch32v10x.S:86
        j   USART2_IRQHandler          /* USART2 */
 110:	1de0006f          	j	2ee <USART2_IRQHandler>
C:/Users/DELL/Desktop/01-Car_motion/Libraries/Device/CH32V10x_p/Startup/startup_ch32v10x.S:87
        j   USART3_IRQHandler          /* USART3 */
 114:	2040006f          	j	318 <USART3_IRQHandler>
C:/Users/DELL/Desktop/01-Car_motion/Libraries/Device/CH32V10x_p/Startup/startup_ch32v10x.S:88
        j   EXTI15_10_IRQHandler       /* EXTI Line 15..10 */
 118:	0580006f          	j	170 <EXTI15_10_IRQHandler>
C:/Users/DELL/Desktop/01-Car_motion/Libraries/Device/CH32V10x_p/Startup/startup_ch32v10x.S:89
        j   RTCAlarm_IRQHandler        /* RTC Alarm through EXTI Line */
 11c:	ee5ff06f          	j	0 <_sinit>
C:/Users/DELL/Desktop/01-Car_motion/Libraries/Device/CH32V10x_p/Startup/startup_ch32v10x.S:90
        j   USBWakeUp_IRQHandler       /* USB Wakeup from suspend */
 120:	ee1ff06f          	j	0 <_sinit>
C:/Users/DELL/Desktop/01-Car_motion/Libraries/Device/CH32V10x_p/Startup/startup_ch32v10x.S:91
        j   USBHD_IRQHandler           /* USBHD */
 124:	eddff06f          	j	0 <_sinit>
	...

Disassembly of section .text:

00000140 <EXTI0_IRQHandler>:
EXTI0_IRQHandler():
     140:	30200073          	mret

00000144 <EXTI1_IRQHandler>:
EXTI1_IRQHandler():
C:/Users/DELL/Desktop/01-Car_motion/01-Car_motion/USER/src/isr.c:57
    ;
}

void EXTI1_IRQHandler(void)
{
    if(SET == EXTI_GetITStatus(EXTI_Line1))
     144:	4509                	li	a0,2
     146:	69d000ef          	jal	ra,fe2 <EXTI_GetITStatus>
     14a:	4785                	li	a5,1
     14c:	00f51563          	bne	a0,a5,156 <EXTI1_IRQHandler+0x12>
C:/Users/DELL/Desktop/01-Car_motion/01-Car_motion/USER/src/isr.c:63
    {
//        if(camera_type == CAMERA_BIN_UART)
//            ov7725_uart_vsync();
//        else if(camera_type == CAMERA_GRAYSCALE)
//            mt9v03x_vsync();
        EXTI_ClearITPendingBit(EXTI_Line1);
     150:	4509                	li	a0,2
     152:	6af000ef          	jal	ra,1000 <EXTI_ClearITPendingBit>
C:/Users/DELL/Desktop/01-Car_motion/01-Car_motion/USER/src/isr.c:66
    }

}
     156:	30200073          	mret

0000015a <EXTI2_IRQHandler>:
EXTI2_IRQHandler():
C:/Users/DELL/Desktop/01-Car_motion/01-Car_motion/USER/src/isr.c:70

void EXTI2_IRQHandler(void)
{
    EXTI_ClearITPendingBit(EXTI_Line2);
     15a:	4511                	li	a0,4
     15c:	6a5000ef          	jal	ra,1000 <EXTI_ClearITPendingBit>
C:/Users/DELL/Desktop/01-Car_motion/01-Car_motion/USER/src/isr.c:71
}
     160:	30200073          	mret

00000164 <EXTI3_IRQHandler>:
EXTI3_IRQHandler():
     164:	30200073          	mret

00000168 <EXTI4_IRQHandler>:
EXTI4_IRQHandler():
     168:	30200073          	mret

0000016c <EXTI9_5_IRQHandler>:
EXTI9_5_IRQHandler():
     16c:	30200073          	mret

00000170 <EXTI15_10_IRQHandler>:
EXTI15_10_IRQHandler():
     170:	30200073          	mret

00000174 <ADC1_2_IRQHandler>:
ADC1_2_IRQHandler():
     174:	30200073          	mret

00000178 <TIM1_BRK_IRQHandler>:
TIM1_BRK_IRQHandler():
C:/Users/DELL/Desktop/01-Car_motion/01-Car_motion/USER/src/isr.c:102


}

void TIM1_BRK_IRQHandler(void)
{
     178:	1141                	addi	sp,sp,-16
     17a:	c622                	sw	s0,12(sp)
C:/Users/DELL/Desktop/01-Car_motion/01-Car_motion/USER/src/isr.c:103
    if(TIM_GetITStatus(TIM1, TIM_IT_Break) != RESET)
     17c:	40013437          	lui	s0,0x40013
     180:	08000593          	li	a1,128
     184:	c0040513          	addi	a0,s0,-1024 # 40012c00 <_eusrstack+0x2000dc00>
     188:	468010ef          	jal	ra,15f0 <TIM_GetITStatus>
     18c:	c519                	beqz	a0,19a <TIM1_BRK_IRQHandler+0x22>
C:/Users/DELL/Desktop/01-Car_motion/01-Car_motion/USER/src/isr.c:105
    {
        TIM_ClearITPendingBit(TIM1, TIM_IT_Break);
     18e:	08000593          	li	a1,128
     192:	c0040513          	addi	a0,s0,-1024
     196:	476010ef          	jal	ra,160c <TIM_ClearITPendingBit>
C:/Users/DELL/Desktop/01-Car_motion/01-Car_motion/USER/src/isr.c:108

    }
}
     19a:	4432                	lw	s0,12(sp)
     19c:	0141                	addi	sp,sp,16
     19e:	30200073          	mret

000001a2 <TIM1_UP_IRQHandler>:
TIM1_UP_IRQHandler():
C:/Users/DELL/Desktop/01-Car_motion/01-Car_motion/USER/src/isr.c:111

void TIM1_UP_IRQHandler(void)
{
     1a2:	1141                	addi	sp,sp,-16
     1a4:	c622                	sw	s0,12(sp)
C:/Users/DELL/Desktop/01-Car_motion/01-Car_motion/USER/src/isr.c:112
    if(TIM_GetITStatus(TIM1, TIM_IT_Update) != RESET)
     1a6:	40013437          	lui	s0,0x40013
     1aa:	4585                	li	a1,1
     1ac:	c0040513          	addi	a0,s0,-1024 # 40012c00 <_eusrstack+0x2000dc00>
     1b0:	440010ef          	jal	ra,15f0 <TIM_GetITStatus>
     1b4:	c511                	beqz	a0,1c0 <TIM1_UP_IRQHandler+0x1e>
C:/Users/DELL/Desktop/01-Car_motion/01-Car_motion/USER/src/isr.c:114
    {
        TIM_ClearITPendingBit(TIM1, TIM_IT_Update);
     1b6:	4585                	li	a1,1
     1b8:	c0040513          	addi	a0,s0,-1024
     1bc:	450010ef          	jal	ra,160c <TIM_ClearITPendingBit>
C:/Users/DELL/Desktop/01-Car_motion/01-Car_motion/USER/src/isr.c:117

    }
}
     1c0:	4432                	lw	s0,12(sp)
     1c2:	0141                	addi	sp,sp,16
     1c4:	30200073          	mret

000001c8 <TIM1_TRG_COM_IRQHandler>:
TIM1_TRG_COM_IRQHandler():
C:/Users/DELL/Desktop/01-Car_motion/01-Car_motion/USER/src/isr.c:120

void TIM1_TRG_COM_IRQHandler(void)
{
     1c8:	1141                	addi	sp,sp,-16
     1ca:	c622                	sw	s0,12(sp)
C:/Users/DELL/Desktop/01-Car_motion/01-Car_motion/USER/src/isr.c:121
    if(TIM_GetITStatus(TIM1, TIM_IT_Trigger) != RESET)
     1cc:	40013437          	lui	s0,0x40013
     1d0:	04000593          	li	a1,64
     1d4:	c0040513          	addi	a0,s0,-1024 # 40012c00 <_eusrstack+0x2000dc00>
     1d8:	418010ef          	jal	ra,15f0 <TIM_GetITStatus>
     1dc:	c519                	beqz	a0,1ea <TIM1_TRG_COM_IRQHandler+0x22>
C:/Users/DELL/Desktop/01-Car_motion/01-Car_motion/USER/src/isr.c:123
    {
        TIM_ClearITPendingBit(TIM1, TIM_IT_Trigger);
     1de:	04000593          	li	a1,64
     1e2:	c0040513          	addi	a0,s0,-1024
     1e6:	426010ef          	jal	ra,160c <TIM_ClearITPendingBit>
C:/Users/DELL/Desktop/01-Car_motion/01-Car_motion/USER/src/isr.c:126

    }
    if(TIM_GetITStatus(TIM1, TIM_IT_COM) != RESET)
     1ea:	40013437          	lui	s0,0x40013
     1ee:	02000593          	li	a1,32
     1f2:	c0040513          	addi	a0,s0,-1024 # 40012c00 <_eusrstack+0x2000dc00>
     1f6:	3fa010ef          	jal	ra,15f0 <TIM_GetITStatus>
     1fa:	c519                	beqz	a0,208 <TIM1_TRG_COM_IRQHandler+0x40>
C:/Users/DELL/Desktop/01-Car_motion/01-Car_motion/USER/src/isr.c:128
    {
        TIM_ClearITPendingBit(TIM1, TIM_IT_COM);
     1fc:	02000593          	li	a1,32
     200:	c0040513          	addi	a0,s0,-1024
     204:	408010ef          	jal	ra,160c <TIM_ClearITPendingBit>
C:/Users/DELL/Desktop/01-Car_motion/01-Car_motion/USER/src/isr.c:131

    }
}
     208:	4432                	lw	s0,12(sp)
     20a:	0141                	addi	sp,sp,16
     20c:	30200073          	mret

00000210 <TIM1_CC_IRQHandler>:
TIM1_CC_IRQHandler():
C:/Users/DELL/Desktop/01-Car_motion/01-Car_motion/USER/src/isr.c:134

void TIM1_CC_IRQHandler(void)
{
     210:	1141                	addi	sp,sp,-16
     212:	c622                	sw	s0,12(sp)
C:/Users/DELL/Desktop/01-Car_motion/01-Car_motion/USER/src/isr.c:135
    if(TIM_GetITStatus(TIM1, TIM_IT_CC1) != RESET)
     214:	40013437          	lui	s0,0x40013
     218:	4589                	li	a1,2
     21a:	c0040513          	addi	a0,s0,-1024 # 40012c00 <_eusrstack+0x2000dc00>
     21e:	3d2010ef          	jal	ra,15f0 <TIM_GetITStatus>
     222:	c511                	beqz	a0,22e <TIM1_CC_IRQHandler+0x1e>
C:/Users/DELL/Desktop/01-Car_motion/01-Car_motion/USER/src/isr.c:137
    {
        TIM_ClearITPendingBit(TIM1, TIM_IT_CC1);
     224:	4589                	li	a1,2
     226:	c0040513          	addi	a0,s0,-1024
     22a:	3e2010ef          	jal	ra,160c <TIM_ClearITPendingBit>
C:/Users/DELL/Desktop/01-Car_motion/01-Car_motion/USER/src/isr.c:140

    }
    if(TIM_GetITStatus(TIM1, TIM_IT_CC2) != RESET)
     22e:	40013437          	lui	s0,0x40013
     232:	4591                	li	a1,4
     234:	c0040513          	addi	a0,s0,-1024 # 40012c00 <_eusrstack+0x2000dc00>
     238:	3b8010ef          	jal	ra,15f0 <TIM_GetITStatus>
     23c:	c511                	beqz	a0,248 <TIM1_CC_IRQHandler+0x38>
C:/Users/DELL/Desktop/01-Car_motion/01-Car_motion/USER/src/isr.c:142
    {
        TIM_ClearITPendingBit(TIM1, TIM_IT_CC2);
     23e:	4591                	li	a1,4
     240:	c0040513          	addi	a0,s0,-1024
     244:	3c8010ef          	jal	ra,160c <TIM_ClearITPendingBit>
C:/Users/DELL/Desktop/01-Car_motion/01-Car_motion/USER/src/isr.c:145

    }
    if(TIM_GetITStatus(TIM1, TIM_IT_CC3) != RESET)
     248:	40013437          	lui	s0,0x40013
     24c:	45a1                	li	a1,8
     24e:	c0040513          	addi	a0,s0,-1024 # 40012c00 <_eusrstack+0x2000dc00>
     252:	39e010ef          	jal	ra,15f0 <TIM_GetITStatus>
     256:	c511                	beqz	a0,262 <TIM1_CC_IRQHandler+0x52>
C:/Users/DELL/Desktop/01-Car_motion/01-Car_motion/USER/src/isr.c:147
    {
        TIM_ClearITPendingBit(TIM1, TIM_IT_CC3);
     258:	45a1                	li	a1,8
     25a:	c0040513          	addi	a0,s0,-1024
     25e:	3ae010ef          	jal	ra,160c <TIM_ClearITPendingBit>
C:/Users/DELL/Desktop/01-Car_motion/01-Car_motion/USER/src/isr.c:150

    }
    if(TIM_GetITStatus(TIM1, TIM_IT_CC4) != RESET)
     262:	40013437          	lui	s0,0x40013
     266:	45c1                	li	a1,16
     268:	c0040513          	addi	a0,s0,-1024 # 40012c00 <_eusrstack+0x2000dc00>
     26c:	384010ef          	jal	ra,15f0 <TIM_GetITStatus>
     270:	c511                	beqz	a0,27c <TIM1_CC_IRQHandler+0x6c>
C:/Users/DELL/Desktop/01-Car_motion/01-Car_motion/USER/src/isr.c:152
    {
        TIM_ClearITPendingBit(TIM1, TIM_IT_CC4);
     272:	45c1                	li	a1,16
     274:	c0040513          	addi	a0,s0,-1024
     278:	394010ef          	jal	ra,160c <TIM_ClearITPendingBit>
C:/Users/DELL/Desktop/01-Car_motion/01-Car_motion/USER/src/isr.c:155

    }
}
     27c:	4432                	lw	s0,12(sp)
     27e:	0141                	addi	sp,sp,16
     280:	30200073          	mret

00000284 <TIM2_IRQHandler>:
TIM2_IRQHandler():
C:/Users/DELL/Desktop/01-Car_motion/01-Car_motion/USER/src/isr.c:160

void TIM2_IRQHandler(void)
{

    if(TIM_GetITStatus(TIM2, TIM_IT_Update) != RESET)
     284:	4585                	li	a1,1
     286:	40000537          	lui	a0,0x40000
     28a:	366010ef          	jal	ra,15f0 <TIM_GetITStatus>
     28e:	c511                	beqz	a0,29a <TIM2_IRQHandler+0x16>
C:/Users/DELL/Desktop/01-Car_motion/01-Car_motion/USER/src/isr.c:162
    {
        TIM_ClearITPendingBit(TIM2, TIM_IT_Update );
     290:	4585                	li	a1,1
     292:	40000537          	lui	a0,0x40000
     296:	376010ef          	jal	ra,160c <TIM_ClearITPendingBit>
C:/Users/DELL/Desktop/01-Car_motion/01-Car_motion/USER/src/isr.c:168
        //ccd_collect();//CCD数据采集
        //gpio_toggle(B5);
        //GPIO_PIN_RESET(B5);
        //GPIO_PIN_SET(B5);
    }
}
     29a:	30200073          	mret

0000029e <TIM3_IRQHandler>:
TIM3_IRQHandler():
C:/Users/DELL/Desktop/01-Car_motion/01-Car_motion/USER/src/isr.c:171

void TIM3_IRQHandler(void)
{
     29e:	1141                	addi	sp,sp,-16
     2a0:	c622                	sw	s0,12(sp)
C:/Users/DELL/Desktop/01-Car_motion/01-Car_motion/USER/src/isr.c:172
    if(TIM_GetITStatus(TIM3, TIM_IT_Update) != RESET)
     2a2:	40000437          	lui	s0,0x40000
     2a6:	4585                	li	a1,1
     2a8:	40040513          	addi	a0,s0,1024 # 40000400 <_eusrstack+0x1fffb400>
     2ac:	344010ef          	jal	ra,15f0 <TIM_GetITStatus>
     2b0:	c511                	beqz	a0,2bc <TIM3_IRQHandler+0x1e>
C:/Users/DELL/Desktop/01-Car_motion/01-Car_motion/USER/src/isr.c:174
    {
        TIM_ClearITPendingBit(TIM3, TIM_IT_Update );
     2b2:	4585                	li	a1,1
     2b4:	40040513          	addi	a0,s0,1024
     2b8:	354010ef          	jal	ra,160c <TIM_ClearITPendingBit>
C:/Users/DELL/Desktop/01-Car_motion/01-Car_motion/USER/src/isr.c:177

    }
}
     2bc:	4432                	lw	s0,12(sp)
     2be:	0141                	addi	sp,sp,16
     2c0:	30200073          	mret

000002c4 <TIM4_IRQHandler>:
TIM4_IRQHandler():
C:/Users/DELL/Desktop/01-Car_motion/01-Car_motion/USER/src/isr.c:180

void TIM4_IRQHandler(void)
{
     2c4:	1141                	addi	sp,sp,-16
     2c6:	c622                	sw	s0,12(sp)
C:/Users/DELL/Desktop/01-Car_motion/01-Car_motion/USER/src/isr.c:181
    if(TIM_GetITStatus(TIM4, TIM_IT_Update) != RESET)
     2c8:	40001437          	lui	s0,0x40001
     2cc:	4585                	li	a1,1
     2ce:	80040513          	addi	a0,s0,-2048 # 40000800 <_eusrstack+0x1fffb800>
     2d2:	31e010ef          	jal	ra,15f0 <TIM_GetITStatus>
     2d6:	c511                	beqz	a0,2e2 <TIM4_IRQHandler+0x1e>
C:/Users/DELL/Desktop/01-Car_motion/01-Car_motion/USER/src/isr.c:183
    {
        TIM_ClearITPendingBit(TIM4, TIM_IT_Update );
     2d8:	4585                	li	a1,1
     2da:	80040513          	addi	a0,s0,-2048
     2de:	32e010ef          	jal	ra,160c <TIM_ClearITPendingBit>
C:/Users/DELL/Desktop/01-Car_motion/01-Car_motion/USER/src/isr.c:186

    }
}
     2e2:	4432                	lw	s0,12(sp)
     2e4:	0141                	addi	sp,sp,16
     2e6:	30200073          	mret

000002ea <USART1_IRQHandler>:
USART1_IRQHandler():
     2ea:	30200073          	mret

000002ee <USART2_IRQHandler>:
USART2_IRQHandler():
C:/Users/DELL/Desktop/01-Car_motion/01-Car_motion/USER/src/isr.c:194
{

}

void USART2_IRQHandler(void)
{
     2ee:	1141                	addi	sp,sp,-16
     2f0:	c622                	sw	s0,12(sp)
C:/Users/DELL/Desktop/01-Car_motion/01-Car_motion/USER/src/isr.c:195
    if(USART_GetITStatus(USART2, USART_IT_RXNE) != RESET)
     2f2:	40004437          	lui	s0,0x40004
     2f6:	52500593          	li	a1,1317
     2fa:	40040513          	addi	a0,s0,1024 # 40004400 <_eusrstack+0x1ffff400>
     2fe:	410010ef          	jal	ra,170e <USART_GetITStatus>
     302:	c519                	beqz	a0,310 <USART2_IRQHandler+0x22>
C:/Users/DELL/Desktop/01-Car_motion/01-Car_motion/USER/src/isr.c:197
    {
        USART_ClearITPendingBit(USART2, USART_IT_RXNE);
     304:	52500593          	li	a1,1317
     308:	40040513          	addi	a0,s0,1024
     30c:	446010ef          	jal	ra,1752 <USART_ClearITPendingBit>
C:/Users/DELL/Desktop/01-Car_motion/01-Car_motion/USER/src/isr.c:203
//        if(camera_type == CAMERA_BIN_UART)
//            ov7725_cof_uart_interrupt();
//        else if(camera_type == CAMERA_GRAYSCALE)
//            mt9v03x_uart_callback();
    }
}
     310:	4432                	lw	s0,12(sp)
     312:	0141                	addi	sp,sp,16
     314:	30200073          	mret

00000318 <USART3_IRQHandler>:
USART3_IRQHandler():
     318:	30200073          	mret

0000031c <DMA1_Channel1_IRQHandler>:
DMA1_Channel1_IRQHandler():
     31c:	30200073          	mret

00000320 <DMA1_Channel2_IRQHandler>:
DMA1_Channel2_IRQHandler():
     320:	30200073          	mret

00000324 <DMA1_Channel3_IRQHandler>:
DMA1_Channel3_IRQHandler():
     324:	30200073          	mret

00000328 <DMA1_Channel4_IRQHandler>:
DMA1_Channel4_IRQHandler():
C:/Users/DELL/Desktop/01-Car_motion/01-Car_motion/USER/src/isr.c:227

}

void DMA1_Channel4_IRQHandler(void)
{
    if(SET == DMA_GetFlagStatus(DMA1_FLAG_TC4))
     328:	6509                	lui	a0,0x2
     32a:	415000ef          	jal	ra,f3e <DMA_GetFlagStatus>
     32e:	4785                	li	a5,1
     330:	00f51563          	bne	a0,a5,33a <DMA1_Channel4_IRQHandler+0x12>
C:/Users/DELL/Desktop/01-Car_motion/01-Car_motion/USER/src/isr.c:229
    {
        DMA_ClearFlag(DMA1_FLAG_TC4);
     334:	6509                	lui	a0,0x2
     336:	429000ef          	jal	ra,f5e <DMA_ClearFlag>
C:/Users/DELL/Desktop/01-Car_motion/01-Car_motion/USER/src/isr.c:231
    }
}
     33a:	30200073          	mret

0000033e <DMA1_Channel5_IRQHandler>:
DMA1_Channel5_IRQHandler():
     33e:	30200073          	mret

00000342 <DMA1_Channel6_IRQHandler>:
DMA1_Channel6_IRQHandler():
     342:	30200073          	mret

00000346 <DMA1_Channel7_IRQHandler>:
DMA1_Channel7_IRQHandler():
     346:	30200073          	mret

0000034a <NMI_Handler>:
NMI_Handler():
C:/Users/DELL/Desktop/01-Car_motion/01-Car_motion/USER/src/isr.c:257
* Return         : None
*******************************************************************************/
void NMI_Handler(void)
{

}
     34a:	30200073          	mret

0000034e <HardFault_Handler>:
HardFault_Handler():
C:/Users/DELL/Desktop/01-Car_motion/01-Car_motion/USER/src/isr.c:270 (discriminator 1)
void HardFault_Handler(void)
{

  while (1)
  {
  }
     34e:	a001                	j	34e <HardFault_Handler>

00000350 <main>:
main():
C:/Users/DELL/Desktop/01-Car_motion/01-Car_motion/USER/src/main.c:33
/* 全局变量声明 */


/* 主函数 */
int main()
{
     350:	1141                	addi	sp,sp,-16
     352:	c422                	sw	s0,8(sp)
C:/Users/DELL/Desktop/01-Car_motion/01-Car_motion/USER/src/main.c:45

    while(1)
    {
        /* 此处编写需要循环执行的代码 */
        car_forward();      //智能车前进
        Delay_Ms(3000);
     354:	6405                	lui	s0,0x1
C:/Users/DELL/Desktop/01-Car_motion/01-Car_motion/USER/src/main.c:33
{
     356:	c606                	sw	ra,12(sp)
C:/Users/DELL/Desktop/01-Car_motion/01-Car_motion/USER/src/main.c:45
        Delay_Ms(3000);
     358:	bb840413          	addi	s0,s0,-1096 # bb8 <pwm_init+0x82>
C:/Users/DELL/Desktop/01-Car_motion/01-Car_motion/USER/src/main.c:37
    car_init();             //智能车初始化
     35c:	27f000ef          	jal	ra,dda <car_init>
C:/Users/DELL/Desktop/01-Car_motion/01-Car_motion/USER/src/main.c:44 (discriminator 1)
        car_forward();      //智能车前进
     360:	2c9000ef          	jal	ra,e28 <car_forward>
C:/Users/DELL/Desktop/01-Car_motion/01-Car_motion/USER/src/main.c:45 (discriminator 1)
        Delay_Ms(3000);
     364:	8522                	mv	a0,s0
     366:	2e39                	jal	684 <Delay_Ms>
C:/Users/DELL/Desktop/01-Car_motion/01-Car_motion/USER/src/main.c:47 (discriminator 1)

        car_turnleft();     //智能车左转
     368:	31d000ef          	jal	ra,e84 <car_turnleft>
C:/Users/DELL/Desktop/01-Car_motion/01-Car_motion/USER/src/main.c:48 (discriminator 1)
        Delay_Ms(3000);
     36c:	8522                	mv	a0,s0
     36e:	2e19                	jal	684 <Delay_Ms>
C:/Users/DELL/Desktop/01-Car_motion/01-Car_motion/USER/src/main.c:50 (discriminator 1)

        car_forward();      //智能车前进
     370:	2b9000ef          	jal	ra,e28 <car_forward>
C:/Users/DELL/Desktop/01-Car_motion/01-Car_motion/USER/src/main.c:51 (discriminator 1)
        Delay_Ms(3000);
     374:	8522                	mv	a0,s0
     376:	2639                	jal	684 <Delay_Ms>
C:/Users/DELL/Desktop/01-Car_motion/01-Car_motion/USER/src/main.c:53 (discriminator 1)

        car_turnright();    //智能车右转
     378:	32d000ef          	jal	ra,ea4 <car_turnright>
C:/Users/DELL/Desktop/01-Car_motion/01-Car_motion/USER/src/main.c:54 (discriminator 1)
        Delay_Ms(3000);
     37c:	8522                	mv	a0,s0
     37e:	2619                	jal	684 <Delay_Ms>
C:/Users/DELL/Desktop/01-Car_motion/01-Car_motion/USER/src/main.c:56 (discriminator 1)

        car_forward();      //智能车前进
     380:	2a9000ef          	jal	ra,e28 <car_forward>
C:/Users/DELL/Desktop/01-Car_motion/01-Car_motion/USER/src/main.c:57 (discriminator 1)
        Delay_Ms(3000);
     384:	8522                	mv	a0,s0
     386:	2cfd                	jal	684 <Delay_Ms>
C:/Users/DELL/Desktop/01-Car_motion/01-Car_motion/USER/src/main.c:59 (discriminator 1)

        car_stop();         //智能车停止
     388:	2e5000ef          	jal	ra,e6c <car_stop>
C:/Users/DELL/Desktop/01-Car_motion/01-Car_motion/USER/src/main.c:60 (discriminator 1)
        Delay_Ms(3000);
     38c:	8522                	mv	a0,s0
     38e:	2cdd                	jal	684 <Delay_Ms>
C:/Users/DELL/Desktop/01-Car_motion/01-Car_motion/USER/src/main.c:62 (discriminator 1)

        car_backward();     //智能车后退
     390:	2bb000ef          	jal	ra,e4a <car_backward>
C:/Users/DELL/Desktop/01-Car_motion/01-Car_motion/USER/src/main.c:63 (discriminator 1)
        Delay_Ms(3000);
     394:	8522                	mv	a0,s0
     396:	24fd                	jal	684 <Delay_Ms>
C:/Users/DELL/Desktop/01-Car_motion/01-Car_motion/USER/src/main.c:65 (discriminator 1)

        car_stop();         //智能车停止
     398:	2d5000ef          	jal	ra,e6c <car_stop>
C:/Users/DELL/Desktop/01-Car_motion/01-Car_motion/USER/src/main.c:66 (discriminator 1)
        Delay_Ms(3000);
     39c:	8522                	mv	a0,s0
     39e:	24dd                	jal	684 <Delay_Ms>
     3a0:	b7c1                	j	360 <main+0x10>

000003a2 <l9110s_init>:
l9110s_init():
C:/Users/DELL/Desktop/01-Car_motion/Libraries/hefei_peripheral/HF_L9110S_2.c:19
// @return       void
// Sample usage:        PWM_9110_init(left);
                        //初始化左电机PWM
//-------------------------------------------------------------------------------------------------------------------
void l9110s_init(left_or_right object)
{
     3a2:	1141                	addi	sp,sp,-16
     3a4:	c606                	sw	ra,12(sp)
C:/Users/DELL/Desktop/01-Car_motion/Libraries/hefei_peripheral/HF_L9110S_2.c:20
    if(object == left)
     3a6:	e11d                	bnez	a0,3cc <l9110s_init+0x2a>
C:/Users/DELL/Desktop/01-Car_motion/Libraries/hefei_peripheral/HF_L9110S_2.c:22
    {
        pwm_init(L_PWM_F, 72, 0, TIM_OCPreload_Enable);
     3a8:	46a1                	li	a3,8
     3aa:	4601                	li	a2,0
     3ac:	04800593          	li	a1,72
     3b0:	30200513          	li	a0,770
     3b4:	782000ef          	jal	ra,b36 <pwm_init>
C:/Users/DELL/Desktop/01-Car_motion/Libraries/hefei_peripheral/HF_L9110S_2.c:23
        pwm_init(L_PWM_B, 72, 0, TIM_OCPreload_Enable);
     3b8:	46a1                	li	a3,8
     3ba:	4601                	li	a2,0
     3bc:	04800593          	li	a1,72
     3c0:	30300513          	li	a0,771
C:/Users/DELL/Desktop/01-Car_motion/Libraries/hefei_peripheral/HF_L9110S_2.c:31
    else if(object == right)
    {
        pwm_init(R_PWM_F, 72, 0, TIM_OCPreload_Disable);
        pwm_init(R_PWM_B, 72, 0, TIM_OCPreload_Disable);
    }
}
     3c4:	40b2                	lw	ra,12(sp)
     3c6:	0141                	addi	sp,sp,16
C:/Users/DELL/Desktop/01-Car_motion/Libraries/hefei_peripheral/HF_L9110S_2.c:29
        pwm_init(R_PWM_B, 72, 0, TIM_OCPreload_Disable);
     3c8:	76e0006f          	j	b36 <pwm_init>
C:/Users/DELL/Desktop/01-Car_motion/Libraries/hefei_peripheral/HF_L9110S_2.c:26
    else if(object == right)
     3cc:	4785                	li	a5,1
     3ce:	02f51163          	bne	a0,a5,3f0 <l9110s_init+0x4e>
C:/Users/DELL/Desktop/01-Car_motion/Libraries/hefei_peripheral/HF_L9110S_2.c:28
        pwm_init(R_PWM_F, 72, 0, TIM_OCPreload_Disable);
     3d2:	4681                	li	a3,0
     3d4:	4601                	li	a2,0
     3d6:	04800593          	li	a1,72
     3da:	20200513          	li	a0,514
     3de:	758000ef          	jal	ra,b36 <pwm_init>
C:/Users/DELL/Desktop/01-Car_motion/Libraries/hefei_peripheral/HF_L9110S_2.c:29
        pwm_init(R_PWM_B, 72, 0, TIM_OCPreload_Disable);
     3e2:	4681                	li	a3,0
     3e4:	4601                	li	a2,0
     3e6:	04800593          	li	a1,72
     3ea:	20300513          	li	a0,515
     3ee:	bfd9                	j	3c4 <l9110s_init+0x22>
C:/Users/DELL/Desktop/01-Car_motion/Libraries/hefei_peripheral/HF_L9110S_2.c:31
}
     3f0:	40b2                	lw	ra,12(sp)
     3f2:	0141                	addi	sp,sp,16
     3f4:	8082                	ret

000003f6 <l9110s_forward>:
l9110s_forward():
C:/Users/DELL/Desktop/01-Car_motion/Libraries/hefei_peripheral/HF_L9110S_2.c:42
// @return       void
// Sample usage:        PWM_9110_forward(right, 10000);
                        //右电机满速正转(10000/10000)
//-------------------------------------------------------------------------------------------------------------------
void l9110s_forward(left_or_right object, uint16 value)
{
     3f6:	1141                	addi	sp,sp,-16
     3f8:	c606                	sw	ra,12(sp)
C:/Users/DELL/Desktop/01-Car_motion/Libraries/hefei_peripheral/HF_L9110S_2.c:43
    if(object == left)
     3fa:	e911                	bnez	a0,40e <l9110s_forward+0x18>
C:/Users/DELL/Desktop/01-Car_motion/Libraries/hefei_peripheral/HF_L9110S_2.c:45
    {
        pwm_duty(L_PWM_F, value);
     3fc:	30200513          	li	a0,770
     400:	2171                	jal	88c <pwm_duty>
C:/Users/DELL/Desktop/01-Car_motion/Libraries/hefei_peripheral/HF_L9110S_2.c:46
        pwm_duty(L_PWM_B, 0);
     402:	4581                	li	a1,0
     404:	30300513          	li	a0,771
C:/Users/DELL/Desktop/01-Car_motion/Libraries/hefei_peripheral/HF_L9110S_2.c:54
    else if(object == right)
    {
        pwm_duty(R_PWM_F, value);
        pwm_duty(R_PWM_B, 0);
    }
}
     408:	40b2                	lw	ra,12(sp)
     40a:	0141                	addi	sp,sp,16
C:/Users/DELL/Desktop/01-Car_motion/Libraries/hefei_peripheral/HF_L9110S_2.c:52
        pwm_duty(R_PWM_B, 0);
     40c:	a141                	j	88c <pwm_duty>
C:/Users/DELL/Desktop/01-Car_motion/Libraries/hefei_peripheral/HF_L9110S_2.c:49
    else if(object == right)
     40e:	4785                	li	a5,1
     410:	00f51963          	bne	a0,a5,422 <l9110s_forward+0x2c>
C:/Users/DELL/Desktop/01-Car_motion/Libraries/hefei_peripheral/HF_L9110S_2.c:51
        pwm_duty(R_PWM_F, value);
     414:	20200513          	li	a0,514
     418:	2995                	jal	88c <pwm_duty>
C:/Users/DELL/Desktop/01-Car_motion/Libraries/hefei_peripheral/HF_L9110S_2.c:52
        pwm_duty(R_PWM_B, 0);
     41a:	4581                	li	a1,0
     41c:	20300513          	li	a0,515
     420:	b7e5                	j	408 <l9110s_forward+0x12>
C:/Users/DELL/Desktop/01-Car_motion/Libraries/hefei_peripheral/HF_L9110S_2.c:54
}
     422:	40b2                	lw	ra,12(sp)
     424:	0141                	addi	sp,sp,16
     426:	8082                	ret

00000428 <l9110s_backward>:
l9110s_backward():
C:/Users/DELL/Desktop/01-Car_motion/Libraries/hefei_peripheral/HF_L9110S_2.c:65
// @return       void
// Sample usage:        PWM_9110_back(left, 10000)；
                        //左电机满速反转(10000/10000)
//-------------------------------------------------------------------------------------------------------------------
void l9110s_backward(left_or_right object, uint16 value)
{
     428:	1141                	addi	sp,sp,-16
     42a:	c422                	sw	s0,8(sp)
     42c:	c606                	sw	ra,12(sp)
     42e:	842e                	mv	s0,a1
C:/Users/DELL/Desktop/01-Car_motion/Libraries/hefei_peripheral/HF_L9110S_2.c:66
    if(object == left)
     430:	ed01                	bnez	a0,448 <l9110s_backward+0x20>
C:/Users/DELL/Desktop/01-Car_motion/Libraries/hefei_peripheral/HF_L9110S_2.c:68
    {
        pwm_duty(L_PWM_F, 0);
     432:	4581                	li	a1,0
     434:	30200513          	li	a0,770
     438:	2991                	jal	88c <pwm_duty>
C:/Users/DELL/Desktop/01-Car_motion/Libraries/hefei_peripheral/HF_L9110S_2.c:69
        pwm_duty(L_PWM_B, value);
     43a:	85a2                	mv	a1,s0
     43c:	30300513          	li	a0,771
C:/Users/DELL/Desktop/01-Car_motion/Libraries/hefei_peripheral/HF_L9110S_2.c:77
    else if(object == right)
    {
        pwm_duty(R_PWM_F, 0);
        pwm_duty(R_PWM_B, value);
    }
}
     440:	4422                	lw	s0,8(sp)
     442:	40b2                	lw	ra,12(sp)
     444:	0141                	addi	sp,sp,16
C:/Users/DELL/Desktop/01-Car_motion/Libraries/hefei_peripheral/HF_L9110S_2.c:75
        pwm_duty(R_PWM_B, value);
     446:	a199                	j	88c <pwm_duty>
C:/Users/DELL/Desktop/01-Car_motion/Libraries/hefei_peripheral/HF_L9110S_2.c:72
    else if(object == right)
     448:	4785                	li	a5,1
     44a:	00f51a63          	bne	a0,a5,45e <l9110s_backward+0x36>
C:/Users/DELL/Desktop/01-Car_motion/Libraries/hefei_peripheral/HF_L9110S_2.c:74
        pwm_duty(R_PWM_F, 0);
     44e:	4581                	li	a1,0
     450:	20200513          	li	a0,514
     454:	2925                	jal	88c <pwm_duty>
C:/Users/DELL/Desktop/01-Car_motion/Libraries/hefei_peripheral/HF_L9110S_2.c:75
        pwm_duty(R_PWM_B, value);
     456:	85a2                	mv	a1,s0
     458:	20300513          	li	a0,515
     45c:	b7d5                	j	440 <l9110s_backward+0x18>
C:/Users/DELL/Desktop/01-Car_motion/Libraries/hefei_peripheral/HF_L9110S_2.c:77
}
     45e:	40b2                	lw	ra,12(sp)
     460:	4422                	lw	s0,8(sp)
     462:	0141                	addi	sp,sp,16
     464:	8082                	ret

00000466 <tim_init>:
tim_init():
C:/Users/DELL/Desktop/01-Car_motion/Libraries/hefei_peripheral/hf_HC_SR04.c:42
// @param        void
// @return       void
// Sample usage:        tim_init();//初始化超声波模块时钟
//-------------------------------------------------------------------------------------------------------------------
void tim_init()
{
     466:	1141                	addi	sp,sp,-16
C:/Users/DELL/Desktop/01-Car_motion/Libraries/hefei_peripheral/hf_HC_SR04.c:43
    timbase_init(TIMER_2, 1000 - 1, 719);
     468:	2cf00613          	li	a2,719
     46c:	3e700593          	li	a1,999
     470:	4505                	li	a0,1
C:/Users/DELL/Desktop/01-Car_motion/Libraries/hefei_peripheral/hf_HC_SR04.c:42
{
     472:	c606                	sw	ra,12(sp)
C:/Users/DELL/Desktop/01-Car_motion/Libraries/hefei_peripheral/hf_HC_SR04.c:43
    timbase_init(TIMER_2, 1000 - 1, 719);
     474:	7d6000ef          	jal	ra,c4a <timbase_init>
C:/Users/DELL/Desktop/01-Car_motion/Libraries/hefei_peripheral/hf_HC_SR04.c:44
    TIM_ClearFlag(TIM2, TIM_FLAG_Update);
     478:	4585                	li	a1,1
     47a:	40000537          	lui	a0,0x40000
     47e:	164010ef          	jal	ra,15e2 <TIM_ClearFlag>
C:/Users/DELL/Desktop/01-Car_motion/Libraries/hefei_peripheral/hf_HC_SR04.c:46
    TIM_Cmd(TIM2, DISABLE);
}
     482:	40b2                	lw	ra,12(sp)
C:/Users/DELL/Desktop/01-Car_motion/Libraries/hefei_peripheral/hf_HC_SR04.c:45
    TIM_Cmd(TIM2, DISABLE);
     484:	4581                	li	a1,0
     486:	40000537          	lui	a0,0x40000
C:/Users/DELL/Desktop/01-Car_motion/Libraries/hefei_peripheral/hf_HC_SR04.c:46
}
     48a:	0141                	addi	sp,sp,16
C:/Users/DELL/Desktop/01-Car_motion/Libraries/hefei_peripheral/hf_HC_SR04.c:45
    TIM_Cmd(TIM2, DISABLE);
     48c:	0b20106f          	j	153e <TIM_Cmd>

00000490 <ultrasonic_init>:
ultrasonic_init():
C:/Users/DELL/Desktop/01-Car_motion/Libraries/hefei_peripheral/hf_HC_SR04.c:20
{
     490:	1141                	addi	sp,sp,-16
     492:	c422                	sw	s0,8(sp)
C:/Users/DELL/Desktop/01-Car_motion/Libraries/hefei_peripheral/hf_HC_SR04.c:22
    gpio_init(trig, GPO, 0, SPEED_50MHZ | OUT_PP);                //PA0,初始化为GPIO功能、输出模式、输出高电平、速度50MHZ 推挽输出
     494:	31000693          	li	a3,784
C:/Users/DELL/Desktop/01-Car_motion/Libraries/hefei_peripheral/hf_HC_SR04.c:20
{
     498:	842e                	mv	s0,a1
C:/Users/DELL/Desktop/01-Car_motion/Libraries/hefei_peripheral/hf_HC_SR04.c:22
    gpio_init(trig, GPO, 0, SPEED_50MHZ | OUT_PP);                //PA0,初始化为GPIO功能、输出模式、输出高电平、速度50MHZ 推挽输出
     49a:	4601                	li	a2,0
     49c:	4585                	li	a1,1
C:/Users/DELL/Desktop/01-Car_motion/Libraries/hefei_peripheral/hf_HC_SR04.c:20
{
     49e:	c606                	sw	ra,12(sp)
C:/Users/DELL/Desktop/01-Car_motion/Libraries/hefei_peripheral/hf_HC_SR04.c:22
    gpio_init(trig, GPO, 0, SPEED_50MHZ | OUT_PP);                //PA0,初始化为GPIO功能、输出模式、输出高电平、速度50MHZ 推挽输出
     4a0:	2cb1                	jal	6fc <gpio_init>
C:/Users/DELL/Desktop/01-Car_motion/Libraries/hefei_peripheral/hf_HC_SR04.c:25
    gpio_init(echo, GPI, 0, IN_FLOAT);
     4a2:	4691                	li	a3,4
     4a4:	4601                	li	a2,0
     4a6:	8522                	mv	a0,s0
     4a8:	4581                	li	a1,0
     4aa:	2c89                	jal	6fc <gpio_init>
C:/Users/DELL/Desktop/01-Car_motion/Libraries/hefei_peripheral/hf_HC_SR04.c:28
    exti_enable(echo, BOTH);                                      //双边沿
     4ac:	8522                	mv	a0,s0
     4ae:	45c1                	li	a1,16
     4b0:	2411                	jal	6b4 <exti_enable>
C:/Users/DELL/Desktop/01-Car_motion/Libraries/hefei_peripheral/hf_HC_SR04.c:30
    tim_init();
     4b2:	3f55                	jal	466 <tim_init>
C:/Users/DELL/Desktop/01-Car_motion/Libraries/hefei_peripheral/hf_HC_SR04.c:31
    nvic_init(EXTI0_IRQn, 0, 0, ENABLE);
     4b4:	4685                	li	a3,1
     4b6:	4601                	li	a2,0
     4b8:	4581                	li	a1,0
     4ba:	4559                	li	a0,22
     4bc:	263d                	jal	7ea <nvic_init>
C:/Users/DELL/Desktop/01-Car_motion/Libraries/hefei_peripheral/hf_HC_SR04.c:33
}
     4be:	4422                	lw	s0,8(sp)
     4c0:	40b2                	lw	ra,12(sp)
C:/Users/DELL/Desktop/01-Car_motion/Libraries/hefei_peripheral/hf_HC_SR04.c:32
    nvic_init(TIM2_IRQn, 0, 1, ENABLE);
     4c2:	4685                	li	a3,1
     4c4:	4605                	li	a2,1
     4c6:	4581                	li	a1,0
     4c8:	02c00513          	li	a0,44
C:/Users/DELL/Desktop/01-Car_motion/Libraries/hefei_peripheral/hf_HC_SR04.c:33
}
     4cc:	0141                	addi	sp,sp,16
C:/Users/DELL/Desktop/01-Car_motion/Libraries/hefei_peripheral/hf_HC_SR04.c:32
    nvic_init(TIM2_IRQn, 0, 1, ENABLE);
     4ce:	ae31                	j	7ea <nvic_init>

000004d0 <tm1637_init>:
tm1637_init():
C:/Users/DELL/Desktop/01-Car_motion/Libraries/hefei_peripheral/hf_tm1637.c:18
// @param        void
// @return       void
// Sample usage:        tm1637_init();//初始化数码管
//-------------------------------------------------------------------------------------------------------------------
void tm1637_init(void)
{
     4d0:	1141                	addi	sp,sp,-16
C:/Users/DELL/Desktop/01-Car_motion/Libraries/hefei_peripheral/hf_tm1637.c:20
    /* 配置GPIO时钟 */
    RCC_APB2PeriphClockCmd(RCC_APB2Periph_GPIOA, ENABLE);
     4d2:	4585                	li	a1,1
     4d4:	4511                	li	a0,4
C:/Users/DELL/Desktop/01-Car_motion/Libraries/hefei_peripheral/hf_tm1637.c:18
{
     4d6:	c606                	sw	ra,12(sp)
C:/Users/DELL/Desktop/01-Car_motion/Libraries/hefei_peripheral/hf_tm1637.c:20
    RCC_APB2PeriphClockCmd(RCC_APB2Periph_GPIOA, ENABLE);
     4d8:	543000ef          	jal	ra,121a <RCC_APB2PeriphClockCmd>
C:/Users/DELL/Desktop/01-Car_motion/Libraries/hefei_peripheral/hf_tm1637.c:23

    /* 配置PA8、PA11接口 */
    gpio_init(B10, GPO, 1, SPEED_50MHZ | OUT_PP);
     4dc:	31000693          	li	a3,784
     4e0:	4605                	li	a2,1
     4e2:	4585                	li	a1,1
     4e4:	02a00513          	li	a0,42
     4e8:	2c11                	jal	6fc <gpio_init>
C:/Users/DELL/Desktop/01-Car_motion/Libraries/hefei_peripheral/hf_tm1637.c:25
    gpio_init(B11, GPO, 1, SPEED_50MHZ | OUT_PP);
}
     4ea:	40b2                	lw	ra,12(sp)
C:/Users/DELL/Desktop/01-Car_motion/Libraries/hefei_peripheral/hf_tm1637.c:24
    gpio_init(B11, GPO, 1, SPEED_50MHZ | OUT_PP);
     4ec:	31000693          	li	a3,784
     4f0:	4605                	li	a2,1
     4f2:	4585                	li	a1,1
     4f4:	02b00513          	li	a0,43
C:/Users/DELL/Desktop/01-Car_motion/Libraries/hefei_peripheral/hf_tm1637.c:25
}
     4f8:	0141                	addi	sp,sp,16
C:/Users/DELL/Desktop/01-Car_motion/Libraries/hefei_peripheral/hf_tm1637.c:24
    gpio_init(B11, GPO, 1, SPEED_50MHZ | OUT_PP);
     4fa:	a409                	j	6fc <gpio_init>

000004fc <ws2812b_init>:
ws2812b_init():
C:/Users/DELL/Desktop/01-Car_motion/Libraries/hefei_peripheral/hf_ws2812.c:22
//  Sample usage:           ws2812b_init();
//                          //初始化RGB等
//-------------------------------------------------------------------------------------------------------------------
void ws2812b_init()
{
    pwm_init(PWM2_CH2_A1, 180000, 0, TIM_OCPreload_Disable);
     4fc:	0002c5b7          	lui	a1,0x2c
C:/Users/DELL/Desktop/01-Car_motion/Libraries/hefei_peripheral/hf_ws2812.c:21
{
     500:	1141                	addi	sp,sp,-16
C:/Users/DELL/Desktop/01-Car_motion/Libraries/hefei_peripheral/hf_ws2812.c:22
    pwm_init(PWM2_CH2_A1, 180000, 0, TIM_OCPreload_Disable);
     502:	f2058593          	addi	a1,a1,-224 # 2bf20 <_data_lma+0x2a788>
     506:	10100513          	li	a0,257
     50a:	4681                	li	a3,0
     50c:	4601                	li	a2,0
C:/Users/DELL/Desktop/01-Car_motion/Libraries/hefei_peripheral/hf_ws2812.c:21
{
     50e:	c606                	sw	ra,12(sp)
C:/Users/DELL/Desktop/01-Car_motion/Libraries/hefei_peripheral/hf_ws2812.c:22
    pwm_init(PWM2_CH2_A1, 180000, 0, TIM_OCPreload_Disable);
     510:	251d                	jal	b36 <pwm_init>
C:/Users/DELL/Desktop/01-Car_motion/Libraries/hefei_peripheral/hf_ws2812.c:24
    TIM_OC2PolarityConfig(TIM2, TIM_OCPolarity_Low);
}
     512:	40b2                	lw	ra,12(sp)
C:/Users/DELL/Desktop/01-Car_motion/Libraries/hefei_peripheral/hf_ws2812.c:23
    TIM_OC2PolarityConfig(TIM2, TIM_OCPolarity_Low);
     514:	4589                	li	a1,2
     516:	40000537          	lui	a0,0x40000
C:/Users/DELL/Desktop/01-Car_motion/Libraries/hefei_peripheral/hf_ws2812.c:24
}
     51a:	0141                	addi	sp,sp,16
C:/Users/DELL/Desktop/01-Car_motion/Libraries/hefei_peripheral/hf_ws2812.c:23
    TIM_OC2PolarityConfig(TIM2, TIM_OCPolarity_Low);
     51c:	0ac0106f          	j	15c8 <TIM_OC2PolarityConfig>

00000520 <board_init>:
board_init():
C:/Users/DELL/Desktop/01-Car_motion/Libraries/hefei_libraries/board/board.c:22
//  Sample usage:              board_init();
//-------------------------------------------------------------------------------------------------------------------
void board_init(void)
{
    //获取系统主频
    sys_clk = 8000000 * (((RCC->CFGR0 >> 18)&0x0F) + 2);
     520:	400217b7          	lui	a5,0x40021
     524:	43dc                	lw	a5,4(a5)
     526:	007a1737          	lui	a4,0x7a1
     52a:	20070713          	addi	a4,a4,512 # 7a1200 <_data_lma+0x79fa68>
     52e:	83c9                	srli	a5,a5,0x12
     530:	8bbd                	andi	a5,a5,15
     532:	02e787b3          	mul	a5,a5,a4
     536:	00f42737          	lui	a4,0xf42
     53a:	40070713          	addi	a4,a4,1024 # f42400 <_data_lma+0xf40c68>
C:/Users/DELL/Desktop/01-Car_motion/Libraries/hefei_libraries/board/board.c:24
    //初始化DEBUG串口
    uart_init(DEBUG_UART, DEBUG_UART_BAUD, DEBUG_UART_TX_PIN, DEBUG_UART_RX_PIN);
     53e:	65f1                	lui	a1,0x1c
     540:	4685                	li	a3,1
     542:	4601                	li	a2,0
     544:	20058593          	addi	a1,a1,512 # 1c200 <_data_lma+0x1aa68>
     548:	4501                	li	a0,0
C:/Users/DELL/Desktop/01-Car_motion/Libraries/hefei_libraries/board/board.c:22
    sys_clk = 8000000 * (((RCC->CFGR0 >> 18)&0x0F) + 2);
     54a:	97ba                	add	a5,a5,a4
     54c:	20000737          	lui	a4,0x20000
     550:	00f72c23          	sw	a5,24(a4) # 20000018 <_edata>
C:/Users/DELL/Desktop/01-Car_motion/Libraries/hefei_libraries/board/board.c:24
    uart_init(DEBUG_UART, DEBUG_UART_BAUD, DEBUG_UART_TX_PIN, DEBUG_UART_RX_PIN);
     554:	00f0006f          	j	d62 <uart_init>

00000558 <SystemInit>:
SystemInit():
C:/Users/DELL/Desktop/01-Car_motion/Libraries/hefei_libraries/board/clock_config.c:94
* Input          : None
* Return         : None
*******************************************************************************************/
void SystemInit (void)
{
    RCC->CTLR |= (uint32_t)0x00000001;
     558:	400217b7          	lui	a5,0x40021
     55c:	4398                	lw	a4,0(a5)
C:/Users/DELL/Desktop/01-Car_motion/Libraries/hefei_libraries/board/clock_config.c:95
    RCC->CFGR0 &= (uint32_t)0xF8FF0000;
     55e:	f8ff06b7          	lui	a3,0xf8ff0
C:/Users/DELL/Desktop/01-Car_motion/Libraries/hefei_libraries/board/clock_config.c:93
{
     562:	1141                	addi	sp,sp,-16
C:/Users/DELL/Desktop/01-Car_motion/Libraries/hefei_libraries/board/clock_config.c:94
    RCC->CTLR |= (uint32_t)0x00000001;
     564:	00176713          	ori	a4,a4,1
     568:	c398                	sw	a4,0(a5)
C:/Users/DELL/Desktop/01-Car_motion/Libraries/hefei_libraries/board/clock_config.c:95
    RCC->CFGR0 &= (uint32_t)0xF8FF0000;
     56a:	43d8                	lw	a4,4(a5)
SetSysClock():
C:/Users/DELL/Desktop/01-Car_motion/Libraries/hefei_libraries/board/clock_config.c:28
        HSEStatus = RCC->CTLR & RCC_HSERDY;
     56c:	00020637          	lui	a2,0x20
SystemInit():
C:/Users/DELL/Desktop/01-Car_motion/Libraries/hefei_libraries/board/clock_config.c:95
    RCC->CFGR0 &= (uint32_t)0xF8FF0000;
     570:	8f75                	and	a4,a4,a3
     572:	c3d8                	sw	a4,4(a5)
C:/Users/DELL/Desktop/01-Car_motion/Libraries/hefei_libraries/board/clock_config.c:96
    RCC->CTLR &= (uint32_t)0xFEF6FFFF;
     574:	4398                	lw	a4,0(a5)
     576:	fef706b7          	lui	a3,0xfef70
     57a:	16fd                	addi	a3,a3,-1
     57c:	8f75                	and	a4,a4,a3
     57e:	c398                	sw	a4,0(a5)
C:/Users/DELL/Desktop/01-Car_motion/Libraries/hefei_libraries/board/clock_config.c:97
    RCC->CTLR &= (uint32_t)0xFFFBFFFF;
     580:	4398                	lw	a4,0(a5)
     582:	fffc06b7          	lui	a3,0xfffc0
     586:	16fd                	addi	a3,a3,-1
     588:	8f75                	and	a4,a4,a3
     58a:	c398                	sw	a4,0(a5)
C:/Users/DELL/Desktop/01-Car_motion/Libraries/hefei_libraries/board/clock_config.c:98
    RCC->CFGR0 &= (uint32_t)0xFF80FFFF;
     58c:	43d8                	lw	a4,4(a5)
     58e:	ff8106b7          	lui	a3,0xff810
     592:	16fd                	addi	a3,a3,-1
     594:	8f75                	and	a4,a4,a3
     596:	c3d8                	sw	a4,4(a5)
C:/Users/DELL/Desktop/01-Car_motion/Libraries/hefei_libraries/board/clock_config.c:99
    RCC->INTR = 0x009F0000;
     598:	009f0737          	lui	a4,0x9f0
     59c:	c798                	sw	a4,8(a5)
SetSysClock():
C:/Users/DELL/Desktop/01-Car_motion/Libraries/hefei_libraries/board/clock_config.c:21
    __IO uint32_t StartUpCounter = 0, HSEStatus = 0;
     59e:	c402                	sw	zero,8(sp)
     5a0:	c602                	sw	zero,12(sp)
C:/Users/DELL/Desktop/01-Car_motion/Libraries/hefei_libraries/board/clock_config.c:23
    RCC->CTLR |= ((uint32_t)RCC_HSEON);
     5a2:	4398                	lw	a4,0(a5)
     5a4:	66c1                	lui	a3,0x10
     5a6:	8f55                	or	a4,a4,a3
     5a8:	c398                	sw	a4,0(a5)
C:/Users/DELL/Desktop/01-Car_motion/Libraries/hefei_libraries/board/clock_config.c:28
        HSEStatus = RCC->CTLR & RCC_HSERDY;
     5aa:	400216b7          	lui	a3,0x40021
C:/Users/DELL/Desktop/01-Car_motion/Libraries/hefei_libraries/board/clock_config.c:30
    } while((HSEStatus == 0) && (StartUpCounter != HSE_STARTUP_TIMEOUT));
     5ae:	50000713          	li	a4,1280
C:/Users/DELL/Desktop/01-Car_motion/Libraries/hefei_libraries/board/clock_config.c:28
        HSEStatus = RCC->CTLR & RCC_HSERDY;
     5b2:	429c                	lw	a5,0(a3)
     5b4:	8ff1                	and	a5,a5,a2
     5b6:	c63e                	sw	a5,12(sp)
C:/Users/DELL/Desktop/01-Car_motion/Libraries/hefei_libraries/board/clock_config.c:29
        StartUpCounter++;
     5b8:	47a2                	lw	a5,8(sp)
     5ba:	0785                	addi	a5,a5,1
     5bc:	c43e                	sw	a5,8(sp)
C:/Users/DELL/Desktop/01-Car_motion/Libraries/hefei_libraries/board/clock_config.c:30
    } while((HSEStatus == 0) && (StartUpCounter != HSE_STARTUP_TIMEOUT));
     5be:	47b2                	lw	a5,12(sp)
     5c0:	e781                	bnez	a5,5c8 <SystemInit+0x70>
     5c2:	47a2                	lw	a5,8(sp)
     5c4:	fee797e3          	bne	a5,a4,5b2 <SystemInit+0x5a>
C:/Users/DELL/Desktop/01-Car_motion/Libraries/hefei_libraries/board/clock_config.c:32
    if ((RCC->CTLR & RCC_HSERDY) != RESET)
     5c8:	400217b7          	lui	a5,0x40021
     5cc:	439c                	lw	a5,0(a5)
     5ce:	00e79713          	slli	a4,a5,0xe
     5d2:	08075263          	bgez	a4,656 <SystemInit+0xfe>
C:/Users/DELL/Desktop/01-Car_motion/Libraries/hefei_libraries/board/clock_config.c:34
        HSEStatus = (uint32_t)0x01;
     5d6:	4785                	li	a5,1
     5d8:	c63e                	sw	a5,12(sp)
C:/Users/DELL/Desktop/01-Car_motion/Libraries/hefei_libraries/board/clock_config.c:41
    if (HSEStatus == (uint32_t)0x01)
     5da:	4732                	lw	a4,12(sp)
     5dc:	4785                	li	a5,1
     5de:	06f71a63          	bne	a4,a5,652 <SystemInit+0xfa>
C:/Users/DELL/Desktop/01-Car_motion/Libraries/hefei_libraries/board/clock_config.c:44
        FLASH->ACTLR |= FLASH_ACTLR_PRFTBE;
     5e2:	400227b7          	lui	a5,0x40022
     5e6:	4398                	lw	a4,0(a5)
C:/Users/DELL/Desktop/01-Car_motion/Libraries/hefei_libraries/board/clock_config.c:58
        RCC->CFGR0 &= (uint32_t)((uint32_t)~(RCC_PLLSRC | RCC_PLLXTPRE |
     5e8:	ffc106b7          	lui	a3,0xffc10
     5ec:	16fd                	addi	a3,a3,-1
C:/Users/DELL/Desktop/01-Car_motion/Libraries/hefei_libraries/board/clock_config.c:44
        FLASH->ACTLR |= FLASH_ACTLR_PRFTBE;
     5ee:	01076713          	ori	a4,a4,16
     5f2:	c398                	sw	a4,0(a5)
C:/Users/DELL/Desktop/01-Car_motion/Libraries/hefei_libraries/board/clock_config.c:47
        FLASH->ACTLR &= (uint32_t)((uint32_t)~FLASH_ACTLR_LATENCY);
     5f4:	4398                	lw	a4,0(a5)
     5f6:	9b71                	andi	a4,a4,-4
     5f8:	c398                	sw	a4,0(a5)
C:/Users/DELL/Desktop/01-Car_motion/Libraries/hefei_libraries/board/clock_config.c:48
        FLASH->ACTLR |= (uint32_t)FLASH_ACTLR_LATENCY_2;
     5fa:	4398                	lw	a4,0(a5)
     5fc:	00276713          	ori	a4,a4,2
     600:	c398                	sw	a4,0(a5)
C:/Users/DELL/Desktop/01-Car_motion/Libraries/hefei_libraries/board/clock_config.c:51
        RCC->CFGR0 |= (uint32_t)RCC_HPRE_DIV1;
     602:	400217b7          	lui	a5,0x40021
     606:	43d8                	lw	a4,4(a5)
     608:	c3d8                	sw	a4,4(a5)
C:/Users/DELL/Desktop/01-Car_motion/Libraries/hefei_libraries/board/clock_config.c:53
        RCC->CFGR0 |= (uint32_t)RCC_PPRE2_DIV1;
     60a:	43d8                	lw	a4,4(a5)
     60c:	c3d8                	sw	a4,4(a5)
C:/Users/DELL/Desktop/01-Car_motion/Libraries/hefei_libraries/board/clock_config.c:55
        RCC->CFGR0 |= (uint32_t)RCC_PPRE1_DIV1;
     60e:	43d8                	lw	a4,4(a5)
     610:	c3d8                	sw	a4,4(a5)
C:/Users/DELL/Desktop/01-Car_motion/Libraries/hefei_libraries/board/clock_config.c:58
        RCC->CFGR0 &= (uint32_t)((uint32_t)~(RCC_PLLSRC | RCC_PLLXTPRE |
     612:	43d8                	lw	a4,4(a5)
     614:	8f75                	and	a4,a4,a3
     616:	c3d8                	sw	a4,4(a5)
C:/Users/DELL/Desktop/01-Car_motion/Libraries/hefei_libraries/board/clock_config.c:61
        RCC->CFGR0 |= (uint32_t)(RCC_PLLSRC_HSE | RCC_PLLMULL11);
     618:	43d8                	lw	a4,4(a5)
     61a:	002506b7          	lui	a3,0x250
     61e:	8f55                	or	a4,a4,a3
     620:	c3d8                	sw	a4,4(a5)
C:/Users/DELL/Desktop/01-Car_motion/Libraries/hefei_libraries/board/clock_config.c:63
        RCC->CTLR |= RCC_PLLON;
     622:	4398                	lw	a4,0(a5)
     624:	010006b7          	lui	a3,0x1000
     628:	8f55                	or	a4,a4,a3
     62a:	c398                	sw	a4,0(a5)
C:/Users/DELL/Desktop/01-Car_motion/Libraries/hefei_libraries/board/clock_config.c:65
        while((RCC->CTLR & RCC_PLLRDY) == 0)
     62c:	4398                	lw	a4,0(a5)
     62e:	00671693          	slli	a3,a4,0x6
     632:	fe06dde3          	bgez	a3,62c <SystemInit+0xd4>
C:/Users/DELL/Desktop/01-Car_motion/Libraries/hefei_libraries/board/clock_config.c:69
        RCC->CFGR0 &= (uint32_t)((uint32_t)~(RCC_SW));
     636:	43d8                	lw	a4,4(a5)
C:/Users/DELL/Desktop/01-Car_motion/Libraries/hefei_libraries/board/clock_config.c:72
        while ((RCC->CFGR0 & (uint32_t)RCC_SWS) != (uint32_t)0x08)
     638:	400216b7          	lui	a3,0x40021
C:/Users/DELL/Desktop/01-Car_motion/Libraries/hefei_libraries/board/clock_config.c:69
        RCC->CFGR0 &= (uint32_t)((uint32_t)~(RCC_SW));
     63c:	9b71                	andi	a4,a4,-4
     63e:	c3d8                	sw	a4,4(a5)
C:/Users/DELL/Desktop/01-Car_motion/Libraries/hefei_libraries/board/clock_config.c:70
        RCC->CFGR0 |= (uint32_t)RCC_SW_PLL;
     640:	43d8                	lw	a4,4(a5)
     642:	00276713          	ori	a4,a4,2
     646:	c3d8                	sw	a4,4(a5)
C:/Users/DELL/Desktop/01-Car_motion/Libraries/hefei_libraries/board/clock_config.c:72
        while ((RCC->CFGR0 & (uint32_t)RCC_SWS) != (uint32_t)0x08)
     648:	4721                	li	a4,8
     64a:	42dc                	lw	a5,4(a3)
     64c:	8bb1                	andi	a5,a5,12
     64e:	fee79ee3          	bne	a5,a4,64a <SystemInit+0xf2>
SystemInit():
C:/Users/DELL/Desktop/01-Car_motion/Libraries/hefei_libraries/board/clock_config.c:101
    SetSysClock();
}
     652:	0141                	addi	sp,sp,16
     654:	8082                	ret
SetSysClock():
C:/Users/DELL/Desktop/01-Car_motion/Libraries/hefei_libraries/board/clock_config.c:38
        HSEStatus = (uint32_t)0x00;
     656:	c602                	sw	zero,12(sp)
     658:	b749                	j	5da <SystemInit+0x82>

0000065a <Delay_Init>:
Delay_Init():
C:/Users/DELL/Desktop/01-Car_motion/Libraries/hefei_libraries/delay.c:24
//  @return     void
//  Sample usage:           Delay_Init();
//-------------------------------------------------------------------------------------------------------------------
void Delay_Init(void)
{
    p_us=sys_clk/8000000;
     65a:	200007b7          	lui	a5,0x20000
     65e:	0187a783          	lw	a5,24(a5) # 20000018 <_edata>
     662:	007a1737          	lui	a4,0x7a1
     666:	20070713          	addi	a4,a4,512 # 7a1200 <_data_lma+0x79fa68>
     66a:	02e7d7b3          	divu	a5,a5,a4
     66e:	0ff7f793          	andi	a5,a5,255
     672:	80f18723          	sb	a5,-2034(gp) # 2000001e <p_us>
C:/Users/DELL/Desktop/01-Car_motion/Libraries/hefei_libraries/delay.c:25
    p_ms=(uint16_t)p_us*1000;
     676:	3e800713          	li	a4,1000
     67a:	02e787b3          	mul	a5,a5,a4
     67e:	80f19623          	sh	a5,-2036(gp) # 2000001c <p_ms>
C:/Users/DELL/Desktop/01-Car_motion/Libraries/hefei_libraries/delay.c:26
}
     682:	8082                	ret

00000684 <Delay_Ms>:
Delay_Ms():
C:/Users/DELL/Desktop/01-Car_motion/Libraries/hefei_libraries/delay.c:61
//-------------------------------------------------------------------------------------------------------------------
void Delay_Ms (uint32_t n)
{
    uint32_t i;

    SysTick->CTLR = 0;
     684:	e000f7b7          	lui	a5,0xe000f
     688:	0007a023          	sw	zero,0(a5) # e000f000 <_eusrstack+0xc000a000>
C:/Users/DELL/Desktop/01-Car_motion/Libraries/hefei_libraries/delay.c:62
    i = (uint32_t)n*p_ms;
     68c:	80c1d703          	lhu	a4,-2036(gp) # 2000001c <p_ms>
C:/Users/DELL/Desktop/01-Car_motion/Libraries/hefei_libraries/delay.c:64

    SysTick->CNTL0 = 0;
     690:	00078223          	sb	zero,4(a5)
C:/Users/DELL/Desktop/01-Car_motion/Libraries/hefei_libraries/delay.c:65
    SysTick->CNTL1 = 0;
     694:	000782a3          	sb	zero,5(a5)
C:/Users/DELL/Desktop/01-Car_motion/Libraries/hefei_libraries/delay.c:66
    SysTick->CNTL2 = 0;
     698:	00078323          	sb	zero,6(a5)
C:/Users/DELL/Desktop/01-Car_motion/Libraries/hefei_libraries/delay.c:62
    i = (uint32_t)n*p_ms;
     69c:	02a70533          	mul	a0,a4,a0
C:/Users/DELL/Desktop/01-Car_motion/Libraries/hefei_libraries/delay.c:67
    SysTick->CNTL3 = 0;
     6a0:	000783a3          	sb	zero,7(a5)
C:/Users/DELL/Desktop/01-Car_motion/Libraries/hefei_libraries/delay.c:68
    SysTick->CTLR = 1;
     6a4:	4705                	li	a4,1
     6a6:	c398                	sw	a4,0(a5)
C:/Users/DELL/Desktop/01-Car_motion/Libraries/hefei_libraries/delay.c:70

  while((*(__IO uint32_t*)0xE000F004) <= i);
     6a8:	e000f737          	lui	a4,0xe000f
C:/Users/DELL/Desktop/01-Car_motion/Libraries/hefei_libraries/delay.c:70 (discriminator 1)
     6ac:	435c                	lw	a5,4(a4)
     6ae:	fef57fe3          	bgeu	a0,a5,6ac <Delay_Ms+0x28>
C:/Users/DELL/Desktop/01-Car_motion/Libraries/hefei_libraries/delay.c:71
}
     6b2:	8082                	ret

000006b4 <exti_enable>:
exti_enable():
C:/Users/DELL/Desktop/01-Car_motion/Libraries/hefei_libraries/hf_exti.c:24
// @return       void
// Sample usage:            exti_enable(A0, RISING);//开启PA0外部中断，模式为电平上升沿触发
                            //注：无法同时开启同一引脚数的外部中断（如PA0和PB0）
//-------------------------------------------------------------------------------------------------------------------
void exti_enable(PIN_enum pin,TRIGGER_enum trigger)
{
     6b4:	1101                	addi	sp,sp,-32
     6b6:	ca26                	sw	s1,20(sp)
     6b8:	c84a                	sw	s2,16(sp)
     6ba:	84aa                	mv	s1,a0
     6bc:	892e                	mv	s2,a1
C:/Users/DELL/Desktop/01-Car_motion/Libraries/hefei_libraries/hf_exti.c:27
    //GPIO 外部中断初始化
    EXTI_InitTypeDef EXTI_InitStructure;
    RCC_APB2PeriphClockCmd(RCC_APB2Periph_AFIO,ENABLE);
     6be:	4505                	li	a0,1
     6c0:	4585                	li	a1,1
C:/Users/DELL/Desktop/01-Car_motion/Libraries/hefei_libraries/hf_exti.c:24
{
     6c2:	ce06                	sw	ra,28(sp)
     6c4:	cc22                	sw	s0,24(sp)
C:/Users/DELL/Desktop/01-Car_motion/Libraries/hefei_libraries/hf_exti.c:27
    RCC_APB2PeriphClockCmd(RCC_APB2Periph_AFIO,ENABLE);
     6c6:	355000ef          	jal	ra,121a <RCC_APB2PeriphClockCmd>
C:/Users/DELL/Desktop/01-Car_motion/Libraries/hefei_libraries/hf_exti.c:28
    GPIO_EXTILineConfig(pin >> 5, pin & 0x1F);              //引脚中断号配置
     6ca:	01f4f413          	andi	s0,s1,31
     6ce:	0054d513          	srli	a0,s1,0x5
     6d2:	85a2                	mv	a1,s0
     6d4:	0ff57513          	andi	a0,a0,255
     6d8:	1ff000ef          	jal	ra,10d6 <GPIO_EXTILineConfig>
C:/Users/DELL/Desktop/01-Car_motion/Libraries/hefei_libraries/hf_exti.c:29
    EXTI_InitStructure.EXTI_Line = 1 << (pin & 0x1F);       //引脚号配置
     6dc:	4785                	li	a5,1
     6de:	00879433          	sll	s0,a5,s0
C:/Users/DELL/Desktop/01-Car_motion/Libraries/hefei_libraries/hf_exti.c:33
    EXTI_InitStructure.EXTI_Mode = EXTI_Mode_Interrupt;     //触发模式
    EXTI_InitStructure.EXTI_Trigger = trigger;              //触发方式
    EXTI_InitStructure.EXTI_LineCmd = ENABLE;               //使能或者失能
    EXTI_Init(&EXTI_InitStructure);
     6e2:	850a                	mv	a0,sp
C:/Users/DELL/Desktop/01-Car_motion/Libraries/hefei_libraries/hf_exti.c:29
    EXTI_InitStructure.EXTI_Line = 1 << (pin & 0x1F);       //引脚号配置
     6e4:	c022                	sw	s0,0(sp)
C:/Users/DELL/Desktop/01-Car_motion/Libraries/hefei_libraries/hf_exti.c:31
    EXTI_InitStructure.EXTI_Trigger = trigger;              //触发方式
     6e6:	c44a                	sw	s2,8(sp)
C:/Users/DELL/Desktop/01-Car_motion/Libraries/hefei_libraries/hf_exti.c:30
    EXTI_InitStructure.EXTI_Mode = EXTI_Mode_Interrupt;     //触发模式
     6e8:	c202                	sw	zero,4(sp)
C:/Users/DELL/Desktop/01-Car_motion/Libraries/hefei_libraries/hf_exti.c:32
    EXTI_InitStructure.EXTI_LineCmd = ENABLE;               //使能或者失能
     6ea:	c63e                	sw	a5,12(sp)
C:/Users/DELL/Desktop/01-Car_motion/Libraries/hefei_libraries/hf_exti.c:33
    EXTI_Init(&EXTI_InitStructure);
     6ec:	08d000ef          	jal	ra,f78 <EXTI_Init>
C:/Users/DELL/Desktop/01-Car_motion/Libraries/hefei_libraries/hf_exti.c:34
}
     6f0:	40f2                	lw	ra,28(sp)
     6f2:	4462                	lw	s0,24(sp)
     6f4:	44d2                	lw	s1,20(sp)
     6f6:	4942                	lw	s2,16(sp)
     6f8:	6105                	addi	sp,sp,32
     6fa:	8082                	ret

000006fc <gpio_init>:
gpio_init():
C:/Users/DELL/Desktop/01-Car_motion/Libraries/hefei_libraries/hf_gpio.c:31
    GPIO_InitTypeDef GPIO_InitStructure;
    uint8 io_group = (pin & 0xE0) >> 5;
    uint8 io_pin = pin & 0x1F;


    if(PIN_NULL == pin) return;
     6fc:	08000713          	li	a4,128
     700:	0ce50c63          	beq	a0,a4,7d8 <gpio_init+0xdc>
C:/Users/DELL/Desktop/01-Car_motion/Libraries/hefei_libraries/hf_gpio.c:25
{
     704:	7179                	addi	sp,sp,-48
     706:	d422                	sw	s0,40(sp)
     708:	d226                	sw	s1,36(sp)
     70a:	d04a                	sw	s2,32(sp)
     70c:	ce4e                	sw	s3,28(sp)
     70e:	cc52                	sw	s4,24(sp)
     710:	00555793          	srli	a5,a0,0x5
     714:	d606                	sw	ra,44(sp)
     716:	0077fa13          	andi	s4,a5,7
     71a:	01f57413          	andi	s0,a0,31
     71e:	84b6                	mv	s1,a3
     720:	89b2                	mv	s3,a2
     722:	892e                	mv	s2,a1
C:/Users/DELL/Desktop/01-Car_motion/Libraries/hefei_libraries/hf_gpio.c:33
    //GPIO总线使能
    if(0 == (pin >> 5))      RCC_APB2PeriphClockCmd(RCC_APB2Periph_GPIOA, ENABLE);
     724:	e3b5                	bnez	a5,788 <gpio_init+0x8c>
C:/Users/DELL/Desktop/01-Car_motion/Libraries/hefei_libraries/hf_gpio.c:33 (discriminator 1)
     726:	4585                	li	a1,1
     728:	4511                	li	a0,4
C:/Users/DELL/Desktop/01-Car_motion/Libraries/hefei_libraries/hf_gpio.c:39 (discriminator 1)
    else if(1 == (pin >> 5)) RCC_APB2PeriphClockCmd(RCC_APB2Periph_GPIOB, ENABLE);
    else if(2 == (pin >> 5)) RCC_APB2PeriphClockCmd(RCC_APB2Periph_GPIOC, ENABLE);
    else if(3 == (pin >> 5)) RCC_APB2PeriphClockCmd(RCC_APB2Periph_GPIOD, ENABLE);
    else if(4 == (pin >> 5)) RCC_APB2PeriphClockCmd(RCC_APB2Periph_GPIOE, ENABLE);
    else if(5 == (pin >> 5)) RCC_APB2PeriphClockCmd(RCC_APB2Periph_GPIOF, ENABLE);
    else if(6 == (pin >> 5)) RCC_APB2PeriphClockCmd(RCC_APB2Periph_GPIOG, ENABLE);
     72a:	2f1000ef          	jal	ra,121a <RCC_APB2PeriphClockCmd>
C:/Users/DELL/Desktop/01-Car_motion/Libraries/hefei_libraries/hf_gpio.c:43


    //设置引脚号
    GPIO_InitStructure.GPIO_Pin = (uint16)(1 << io_pin);
     72e:	4785                	li	a5,1
     730:	00879433          	sll	s0,a5,s0
     734:	0442                	slli	s0,s0,0x10
     736:	8041                	srli	s0,s0,0x10
     738:	00811223          	sh	s0,4(sp)
C:/Users/DELL/Desktop/01-Car_motion/Libraries/hefei_libraries/hf_gpio.c:45

    if(GPO == dir)
     73c:	00f91963          	bne	s2,a5,74e <gpio_init+0x52>
C:/Users/DELL/Desktop/01-Car_motion/Libraries/hefei_libraries/hf_gpio.c:48
    {
        //只有输出需要设置速度
        if((uint16)pinconf >> 8 == 0) GPIO_InitStructure.GPIO_Speed = (GPIOSpeed_TypeDef)(GPIO_Speed_50MHz);  //防止没有填写这个参数,默认设置50Mhz
     740:	01049793          	slli	a5,s1,0x10
     744:	83c1                	srli	a5,a5,0x10
     746:	83a1                	srli	a5,a5,0x8
     748:	e391                	bnez	a5,74c <gpio_init+0x50>
C:/Users/DELL/Desktop/01-Car_motion/Libraries/hefei_libraries/hf_gpio.c:48 (discriminator 1)
     74a:	478d                	li	a5,3
C:/Users/DELL/Desktop/01-Car_motion/Libraries/hefei_libraries/hf_gpio.c:49
        else GPIO_InitStructure.GPIO_Speed = (GPIOSpeed_TypeDef)((uint16)pinconf >> 8);                       //已经填写了该参数。根据值来设置
     74c:	c43e                	sw	a5,8(sp)
C:/Users/DELL/Desktop/01-Car_motion/Libraries/hefei_libraries/hf_gpio.c:54
    }

    //设置模式
    GPIO_InitStructure.GPIO_Mode = (GPIOMode_TypeDef)((uint16)pinconf & 0xff);
    GPIO_Init((GPIO_TypeDef *)(GPION[io_group]), &GPIO_InitStructure);
     74e:	6785                	lui	a5,0x1
     750:	0a0a                	slli	s4,s4,0x2
     752:	76878793          	addi	a5,a5,1896 # 1768 <GPION>
     756:	97d2                	add	a5,a5,s4
C:/Users/DELL/Desktop/01-Car_motion/Libraries/hefei_libraries/hf_gpio.c:53
    GPIO_InitStructure.GPIO_Mode = (GPIOMode_TypeDef)((uint16)pinconf & 0xff);
     758:	0ff4f493          	andi	s1,s1,255
     75c:	c626                	sw	s1,12(sp)
C:/Users/DELL/Desktop/01-Car_motion/Libraries/hefei_libraries/hf_gpio.c:54
    GPIO_Init((GPIO_TypeDef *)(GPION[io_group]), &GPIO_InitStructure);
     75e:	4384                	lw	s1,0(a5)
     760:	004c                	addi	a1,sp,4
     762:	8526                	mv	a0,s1
     764:	0a7000ef          	jal	ra,100a <GPIO_Init>
C:/Users/DELL/Desktop/01-Car_motion/Libraries/hefei_libraries/hf_gpio.c:56

    if(GPO == dir)
     768:	4785                	li	a5,1
     76a:	00f91763          	bne	s2,a5,778 <gpio_init+0x7c>
C:/Users/DELL/Desktop/01-Car_motion/Libraries/hefei_libraries/hf_gpio.c:59
    {
        //只有输出需要设置引脚状态
        GPIO_WriteBit((GPIO_TypeDef *)(GPION[io_group]), (uint16)(1 << io_pin), dat);
     76e:	864e                	mv	a2,s3
     770:	85a2                	mv	a1,s0
     772:	8526                	mv	a0,s1
     774:	159000ef          	jal	ra,10cc <GPIO_WriteBit>
C:/Users/DELL/Desktop/01-Car_motion/Libraries/hefei_libraries/hf_gpio.c:61
    }
}
     778:	50b2                	lw	ra,44(sp)
     77a:	5422                	lw	s0,40(sp)
     77c:	5492                	lw	s1,36(sp)
     77e:	5902                	lw	s2,32(sp)
     780:	49f2                	lw	s3,28(sp)
     782:	4a62                	lw	s4,24(sp)
     784:	6145                	addi	sp,sp,48
     786:	8082                	ret
C:/Users/DELL/Desktop/01-Car_motion/Libraries/hefei_libraries/hf_gpio.c:34
    else if(1 == (pin >> 5)) RCC_APB2PeriphClockCmd(RCC_APB2Periph_GPIOB, ENABLE);
     788:	4705                	li	a4,1
     78a:	00e79563          	bne	a5,a4,794 <gpio_init+0x98>
C:/Users/DELL/Desktop/01-Car_motion/Libraries/hefei_libraries/hf_gpio.c:34 (discriminator 1)
     78e:	4585                	li	a1,1
     790:	4521                	li	a0,8
     792:	bf61                	j	72a <gpio_init+0x2e>
C:/Users/DELL/Desktop/01-Car_motion/Libraries/hefei_libraries/hf_gpio.c:35
    else if(2 == (pin >> 5)) RCC_APB2PeriphClockCmd(RCC_APB2Periph_GPIOC, ENABLE);
     794:	4709                	li	a4,2
     796:	00e79563          	bne	a5,a4,7a0 <gpio_init+0xa4>
C:/Users/DELL/Desktop/01-Car_motion/Libraries/hefei_libraries/hf_gpio.c:35 (discriminator 1)
     79a:	4585                	li	a1,1
     79c:	4541                	li	a0,16
     79e:	b771                	j	72a <gpio_init+0x2e>
C:/Users/DELL/Desktop/01-Car_motion/Libraries/hefei_libraries/hf_gpio.c:36
    else if(3 == (pin >> 5)) RCC_APB2PeriphClockCmd(RCC_APB2Periph_GPIOD, ENABLE);
     7a0:	470d                	li	a4,3
     7a2:	00e79663          	bne	a5,a4,7ae <gpio_init+0xb2>
C:/Users/DELL/Desktop/01-Car_motion/Libraries/hefei_libraries/hf_gpio.c:36 (discriminator 1)
     7a6:	4585                	li	a1,1
     7a8:	02000513          	li	a0,32
     7ac:	bfbd                	j	72a <gpio_init+0x2e>
C:/Users/DELL/Desktop/01-Car_motion/Libraries/hefei_libraries/hf_gpio.c:37
    else if(4 == (pin >> 5)) RCC_APB2PeriphClockCmd(RCC_APB2Periph_GPIOE, ENABLE);
     7ae:	4711                	li	a4,4
     7b0:	00e79663          	bne	a5,a4,7bc <gpio_init+0xc0>
C:/Users/DELL/Desktop/01-Car_motion/Libraries/hefei_libraries/hf_gpio.c:37 (discriminator 1)
     7b4:	4585                	li	a1,1
     7b6:	04000513          	li	a0,64
     7ba:	bf85                	j	72a <gpio_init+0x2e>
C:/Users/DELL/Desktop/01-Car_motion/Libraries/hefei_libraries/hf_gpio.c:38
    else if(5 == (pin >> 5)) RCC_APB2PeriphClockCmd(RCC_APB2Periph_GPIOF, ENABLE);
     7bc:	4715                	li	a4,5
     7be:	00e79663          	bne	a5,a4,7ca <gpio_init+0xce>
C:/Users/DELL/Desktop/01-Car_motion/Libraries/hefei_libraries/hf_gpio.c:38 (discriminator 1)
     7c2:	4585                	li	a1,1
     7c4:	08000513          	li	a0,128
     7c8:	b78d                	j	72a <gpio_init+0x2e>
C:/Users/DELL/Desktop/01-Car_motion/Libraries/hefei_libraries/hf_gpio.c:39
    else if(6 == (pin >> 5)) RCC_APB2PeriphClockCmd(RCC_APB2Periph_GPIOG, ENABLE);
     7ca:	4719                	li	a4,6
     7cc:	f6e791e3          	bne	a5,a4,72e <gpio_init+0x32>
C:/Users/DELL/Desktop/01-Car_motion/Libraries/hefei_libraries/hf_gpio.c:39 (discriminator 1)
     7d0:	4585                	li	a1,1
     7d2:	10000513          	li	a0,256
     7d6:	bf91                	j	72a <gpio_init+0x2e>
     7d8:	8082                	ret

000007da <close_all_irq>:
close_all_irq():
C:/Users/DELL/Desktop/01-Car_motion/Libraries/hefei_libraries/hf_nvic.c:82
//  Sample usage:       内部使用  用户无需关心
//-------------------------------------------------------------------------------------------------------------------
void close_all_irq(void)
{
    /* 写1，清空状态 */
    PFIC->IRER[0] = 0xffffffff;
     7da:	e000e7b7          	lui	a5,0xe000e
     7de:	577d                	li	a4,-1
     7e0:	18e7a023          	sw	a4,384(a5) # e000e180 <_eusrstack+0xc0009180>
C:/Users/DELL/Desktop/01-Car_motion/Libraries/hefei_libraries/hf_nvic.c:83
    PFIC->IRER[1] = 0xffffffff;
     7e4:	18e7a223          	sw	a4,388(a5)
C:/Users/DELL/Desktop/01-Car_motion/Libraries/hefei_libraries/hf_nvic.c:84
}
     7e8:	8082                	ret

000007ea <nvic_init>:
nvic_init():
C:/Users/DELL/Desktop/01-Car_motion/Libraries/hefei_libraries/hf_nvic.c:22
{
     7ea:	1101                	addi	sp,sp,-32
C:/Users/DELL/Desktop/01-Car_motion/Libraries/hefei_libraries/hf_nvic.c:25
    NVIC_InitStructure.NVIC_IRQChannel = irqn;                                  //中断号设置
     7ec:	00a10423          	sb	a0,8(sp)
C:/Users/DELL/Desktop/01-Car_motion/Libraries/hefei_libraries/hf_nvic.c:29
    NVIC_Init(&NVIC_InitStructure);
     7f0:	0028                	addi	a0,sp,8
C:/Users/DELL/Desktop/01-Car_motion/Libraries/hefei_libraries/hf_nvic.c:27
    NVIC_InitStructure.NVIC_IRQChannelSubPriority = sub_priority;               //次优先级值越小，优先级越高
     7f2:	00c10523          	sb	a2,10(sp)
C:/Users/DELL/Desktop/01-Car_motion/Libraries/hefei_libraries/hf_nvic.c:28
    NVIC_InitStructure.NVIC_IRQChannelCmd = status;                             //使能
     7f6:	c636                	sw	a3,12(sp)
C:/Users/DELL/Desktop/01-Car_motion/Libraries/hefei_libraries/hf_nvic.c:22
{
     7f8:	ce06                	sw	ra,28(sp)
C:/Users/DELL/Desktop/01-Car_motion/Libraries/hefei_libraries/hf_nvic.c:26
    NVIC_InitStructure.NVIC_IRQChannelPreemptionPriority=preemption_priority;   //抢占优先级值越小，优先级越高
     7fa:	00b104a3          	sb	a1,9(sp)
C:/Users/DELL/Desktop/01-Car_motion/Libraries/hefei_libraries/hf_nvic.c:29
    NVIC_Init(&NVIC_InitStructure);
     7fe:	105000ef          	jal	ra,1102 <NVIC_Init>
C:/Users/DELL/Desktop/01-Car_motion/Libraries/hefei_libraries/hf_nvic.c:32
    irq_status.ienr0 |= (PFIC->ISR[0] & 0xFFFFF000);    //[31:12]
     802:	e000e637          	lui	a2,0xe000e
     806:	4218                	lw	a4,0(a2)
     808:	200007b7          	lui	a5,0x20000
     80c:	76fd                	lui	a3,0xfffff
     80e:	8ef9                	and	a3,a3,a4
     810:	0207a703          	lw	a4,32(a5) # 20000020 <irq_status>
     814:	8f55                	or	a4,a4,a3
     816:	02e7a023          	sw	a4,32(a5)
C:/Users/DELL/Desktop/01-Car_motion/Libraries/hefei_libraries/hf_nvic.c:33
    irq_status.ienr1 |= (PFIC->ISR[1] & 0x0FFFFFFF);    //[27:0]
     81a:	4258                	lw	a4,4(a2)
     81c:	02078793          	addi	a5,a5,32
     820:	43d4                	lw	a3,4(a5)
     822:	0712                	slli	a4,a4,0x4
     824:	8311                	srli	a4,a4,0x4
     826:	8f55                	or	a4,a4,a3
     828:	c3d8                	sw	a4,4(a5)
C:/Users/DELL/Desktop/01-Car_motion/Libraries/hefei_libraries/hf_nvic.c:34
    if(irq_status.flag == 1)
     82a:	0087c703          	lbu	a4,8(a5)
     82e:	4785                	li	a5,1
     830:	00f71363          	bne	a4,a5,836 <__stack_size+0x36>
C:/Users/DELL/Desktop/01-Car_motion/Libraries/hefei_libraries/hf_nvic.c:36
        close_all_irq();
     834:	375d                	jal	7da <close_all_irq>
C:/Users/DELL/Desktop/01-Car_motion/Libraries/hefei_libraries/hf_nvic.c:38
}
     836:	40f2                	lw	ra,28(sp)
     838:	6105                	addi	sp,sp,32
     83a:	8082                	ret

0000083c <DisableGlobalIRQ>:
DisableGlobalIRQ():
C:/Users/DELL/Desktop/01-Car_motion/Libraries/hefei_libraries/hf_nvic.c:48
{
     83c:	1101                	addi	sp,sp,-32
C:/Users/DELL/Desktop/01-Car_motion/Libraries/hefei_libraries/hf_nvic.c:50
    irq_status.flag = 1;
     83e:	20000737          	lui	a4,0x20000
C:/Users/DELL/Desktop/01-Car_motion/Libraries/hefei_libraries/hf_nvic.c:48
{
     842:	ce06                	sw	ra,28(sp)
C:/Users/DELL/Desktop/01-Car_motion/Libraries/hefei_libraries/hf_nvic.c:50
    irq_status.flag = 1;
     844:	02070793          	addi	a5,a4,32 # 20000020 <irq_status>
     848:	4685                	li	a3,1
     84a:	00d78423          	sb	a3,8(a5)
C:/Users/DELL/Desktop/01-Car_motion/Libraries/hefei_libraries/hf_nvic.c:51
    if((irq_status.ienr0 == 0) && (irq_status.ienr1 == 0))   state = 0;  //没有就返回0
     84e:	02072503          	lw	a0,32(a4)
     852:	43dc                	lw	a5,4(a5)
     854:	8d5d                	or	a0,a0,a5
     856:	00a03533          	snez	a0,a0
     85a:	c62a                	sw	a0,12(sp)
C:/Users/DELL/Desktop/01-Car_motion/Libraries/hefei_libraries/hf_nvic.c:53
    close_all_irq();
     85c:	3fbd                	jal	7da <close_all_irq>
C:/Users/DELL/Desktop/01-Car_motion/Libraries/hefei_libraries/hf_nvic.c:55
}
     85e:	40f2                	lw	ra,28(sp)
     860:	4532                	lw	a0,12(sp)
     862:	6105                	addi	sp,sp,32
     864:	8082                	ret

00000866 <sys_recover_irq>:
sys_recover_irq():
C:/Users/DELL/Desktop/01-Car_motion/Libraries/hefei_libraries/hf_nvic.c:95
//  @since      v1.0
//  Sample usage:       内部使用  用户无需关心
//-------------------------------------------------------------------------------------------------------------------
void sys_recover_irq(void)
{
    PFIC->IENR[0] = irq_status.ienr0;
     866:	200007b7          	lui	a5,0x20000
     86a:	0207a683          	lw	a3,32(a5) # 20000020 <irq_status>
     86e:	e000e737          	lui	a4,0xe000e
C:/Users/DELL/Desktop/01-Car_motion/Libraries/hefei_libraries/hf_nvic.c:96
    PFIC->IENR[1] = irq_status.ienr1;
     872:	02078793          	addi	a5,a5,32
C:/Users/DELL/Desktop/01-Car_motion/Libraries/hefei_libraries/hf_nvic.c:95
    PFIC->IENR[0] = irq_status.ienr0;
     876:	10d72023          	sw	a3,256(a4) # e000e100 <_eusrstack+0xc0009100>
C:/Users/DELL/Desktop/01-Car_motion/Libraries/hefei_libraries/hf_nvic.c:96
    PFIC->IENR[1] = irq_status.ienr1;
     87a:	43dc                	lw	a5,4(a5)
     87c:	10f72223          	sw	a5,260(a4)
C:/Users/DELL/Desktop/01-Car_motion/Libraries/hefei_libraries/hf_nvic.c:97
}
     880:	8082                	ret

00000882 <EnableGlobalIRQ>:
EnableGlobalIRQ():
C:/Users/DELL/Desktop/01-Car_motion/Libraries/hefei_libraries/hf_nvic.c:66
    if(state == 0)
     882:	e501                	bnez	a0,88a <EnableGlobalIRQ+0x8>
C:/Users/DELL/Desktop/01-Car_motion/Libraries/hefei_libraries/hf_nvic.c:68
        irq_status.flag = 0;
     884:	80018c23          	sb	zero,-2024(gp) # 20000028 <irq_status+0x8>
C:/Users/DELL/Desktop/01-Car_motion/Libraries/hefei_libraries/hf_nvic.c:69
        sys_recover_irq();
     888:	bff9                	j	866 <sys_recover_irq>
C:/Users/DELL/Desktop/01-Car_motion/Libraries/hefei_libraries/hf_nvic.c:71
}
     88a:	8082                	ret

0000088c <pwm_duty>:
pwm_duty():
C:/Users/DELL/Desktop/01-Car_motion/Libraries/hefei_libraries/hf_pwm.c:93
void pwm_duty(PWMCH_enum pwmch, uint32 duty)
{
    uint16 match_temp;
    uint16 period_temp;

    period_temp = ((TIM_TypeDef *) TIMERN[pwmch>>8])->ATRLR;    //获取定时器的周期值
     88c:	00855713          	srli	a4,a0,0x8
     890:	6685                	lui	a3,0x1
     892:	00271793          	slli	a5,a4,0x2
     896:	77868693          	addi	a3,a3,1912 # 1778 <TIMERN>
     89a:	97b6                	add	a5,a5,a3
     89c:	439c                	lw	a5,0(a5)
     89e:	02c7d783          	lhu	a5,44(a5)
C:/Users/DELL/Desktop/01-Car_motion/Libraries/hefei_libraries/hf_pwm.c:94
    match_temp = period_temp * duty / PWM_DUTY_MAX;             //占空比
     8a2:	02f585b3          	mul	a1,a1,a5
     8a6:	6789                	lui	a5,0x2
     8a8:	71078793          	addi	a5,a5,1808 # 2710 <_data_lma+0xf78>
     8ac:	02f5d5b3          	divu	a1,a1,a5
C:/Users/DELL/Desktop/01-Car_motion/Libraries/hefei_libraries/hf_pwm.c:96

    if((pwmch >> 8) == 0x00)
     8b0:	ef01                	bnez	a4,8c8 <pwm_duty+0x3c>
C:/Users/DELL/Desktop/01-Car_motion/Libraries/hefei_libraries/hf_pwm.c:98
    {
        (*(volatile uint32*)(0x40012C34 + (pwmch&0x03) * 0x04)) = match_temp;
     8b2:	100057b7          	lui	a5,0x10005
     8b6:	890d                	andi	a0,a0,3
     8b8:	b0d78793          	addi	a5,a5,-1267 # 10004b0d <_data_lma+0x10003375>
C:/Users/DELL/Desktop/01-Car_motion/Libraries/hefei_libraries/hf_pwm.c:122
        //0x4000043C TIM3->CH3CVR
        //0x40000440 TIM3->CH4CVR
    }
    else if((pwmch >> 8) == 0x03)
    {
        (*(volatile uint32*)(0x40000834 + (pwmch&0x03) * 0x04)) = match_temp;
     8bc:	953e                	add	a0,a0,a5
     8be:	05c2                	slli	a1,a1,0x10
     8c0:	050a                	slli	a0,a0,0x2
     8c2:	81c1                	srli	a1,a1,0x10
     8c4:	c10c                	sw	a1,0(a0)
C:/Users/DELL/Desktop/01-Car_motion/Libraries/hefei_libraries/hf_pwm.c:128
        //0x40000834 TIM4->CH1CVR
        //0x40000838 TIM4->CH2CVR
        //0x4000083C TIM4->CH3CVR
        //0x40000840 TIM4->CH4CVR
    }
}
     8c6:	8082                	ret
C:/Users/DELL/Desktop/01-Car_motion/Libraries/hefei_libraries/hf_pwm.c:104
    else if((pwmch >> 8) == 0x01)
     8c8:	4785                	li	a5,1
     8ca:	00f71763          	bne	a4,a5,8d8 <pwm_duty+0x4c>
C:/Users/DELL/Desktop/01-Car_motion/Libraries/hefei_libraries/hf_pwm.c:106
        (*(volatile uint32*)(0x40000034 + (pwmch&0x03) * 0x04)) = match_temp;
     8ce:	100007b7          	lui	a5,0x10000
     8d2:	890d                	andi	a0,a0,3
     8d4:	07b5                	addi	a5,a5,13
     8d6:	b7dd                	j	8bc <pwm_duty+0x30>
C:/Users/DELL/Desktop/01-Car_motion/Libraries/hefei_libraries/hf_pwm.c:112
    else if((pwmch >> 8) == 0x02)
     8d8:	4789                	li	a5,2
     8da:	00f71863          	bne	a4,a5,8ea <pwm_duty+0x5e>
C:/Users/DELL/Desktop/01-Car_motion/Libraries/hefei_libraries/hf_pwm.c:114
        (*(volatile uint32*)(0x40000434 + (pwmch&0x03) * 0x04)) = match_temp;
     8de:	100007b7          	lui	a5,0x10000
     8e2:	890d                	andi	a0,a0,3
     8e4:	10d78793          	addi	a5,a5,269 # 1000010d <_data_lma+0xfffe975>
     8e8:	bfd1                	j	8bc <pwm_duty+0x30>
C:/Users/DELL/Desktop/01-Car_motion/Libraries/hefei_libraries/hf_pwm.c:120
    else if((pwmch >> 8) == 0x03)
     8ea:	478d                	li	a5,3
     8ec:	fcf71de3          	bne	a4,a5,8c6 <pwm_duty+0x3a>
C:/Users/DELL/Desktop/01-Car_motion/Libraries/hefei_libraries/hf_pwm.c:122
        (*(volatile uint32*)(0x40000834 + (pwmch&0x03) * 0x04)) = match_temp;
     8f0:	100007b7          	lui	a5,0x10000
     8f4:	890d                	andi	a0,a0,3
     8f6:	20d78793          	addi	a5,a5,525 # 1000020d <_data_lma+0xfffea75>
     8fa:	b7c9                	j	8bc <pwm_duty+0x30>

000008fc <pwm_gpio_init>:
pwm_gpio_init():
C:/Users/DELL/Desktop/01-Car_motion/Libraries/hefei_libraries/hf_pwm.c:190
//  @return     void
//  Sample usage:           内部使用  用户无需关心
//-------------------------------------------------------------------------------------------------------------------
void pwm_gpio_init(PWMCH_enum pwmch)
{
    switch(pwmch)
     8fc:	20000793          	li	a5,512
     900:	16f50b63          	beq	a0,a5,a76 <pwm_gpio_init+0x17a>
     904:	06a7e463          	bltu	a5,a0,96c <pwm_gpio_init+0x70>
     908:	10100793          	li	a5,257
     90c:	10f50863          	beq	a0,a5,a1c <pwm_gpio_init+0x120>
     910:	02a7e463          	bltu	a5,a0,938 <pwm_gpio_init+0x3c>
     914:	4789                	li	a5,2
     916:	0ef50163          	beq	a0,a5,9f8 <pwm_gpio_init+0xfc>
     91a:	00a7e763          	bltu	a5,a0,928 <pwm_gpio_init+0x2c>
     91e:	c169                	beqz	a0,9e0 <pwm_gpio_init+0xe4>
     920:	4785                	li	a5,1
     922:	0cf50563          	beq	a0,a5,9ec <pwm_gpio_init+0xf0>
     926:	8082                	ret
     928:	478d                	li	a5,3
     92a:	0cf50d63          	beq	a0,a5,a04 <pwm_gpio_init+0x108>
     92e:	10000793          	li	a5,256
     932:	0cf50f63          	beq	a0,a5,a10 <pwm_gpio_init+0x114>
     936:	8082                	ret
     938:	11000793          	li	a5,272
     93c:	10f50263          	beq	a0,a5,a40 <pwm_gpio_init+0x144>
     940:	00a7eb63          	bltu	a5,a0,956 <pwm_gpio_init+0x5a>
     944:	10200793          	li	a5,258
     948:	0ef50063          	beq	a0,a5,a28 <pwm_gpio_init+0x12c>
     94c:	10300793          	li	a5,259
     950:	0ef50263          	beq	a0,a5,a34 <pwm_gpio_init+0x138>
     954:	8082                	ret
     956:	11200793          	li	a5,274
     95a:	10f50063          	beq	a0,a5,a5a <pwm_gpio_init+0x15e>
     95e:	0ef56763          	bltu	a0,a5,a4c <pwm_gpio_init+0x150>
     962:	11300793          	li	a5,275
     966:	10f50163          	beq	a0,a5,a68 <pwm_gpio_init+0x16c>
     96a:	8082                	ret
     96c:	21300793          	li	a5,531
     970:	16f50263          	beq	a0,a5,ad4 <pwm_gpio_init+0x1d8>
     974:	02a7ec63          	bltu	a5,a0,9ac <pwm_gpio_init+0xb0>
     978:	20300793          	li	a5,515
     97c:	12f50063          	beq	a0,a5,a9c <pwm_gpio_init+0x1a0>
     980:	00a7eb63          	bltu	a5,a0,996 <pwm_gpio_init+0x9a>
     984:	20100793          	li	a5,513
     988:	0ef50d63          	beq	a0,a5,a82 <pwm_gpio_init+0x186>
     98c:	20200793          	li	a5,514
     990:	0ef50f63          	beq	a0,a5,a8e <pwm_gpio_init+0x192>
     994:	8082                	ret
     996:	21100793          	li	a5,529
     99a:	10f50f63          	beq	a0,a5,ab8 <pwm_gpio_init+0x1bc>
     99e:	12a7e463          	bltu	a5,a0,ac6 <pwm_gpio_init+0x1ca>
     9a2:	21000793          	li	a5,528
     9a6:	10f50263          	beq	a0,a5,aaa <pwm_gpio_init+0x1ae>
     9aa:	8082                	ret
     9ac:	30000793          	li	a5,768
     9b0:	14f50763          	beq	a0,a5,afe <pwm_gpio_init+0x202>
     9b4:	00a7eb63          	bltu	a5,a0,9ca <pwm_gpio_init+0xce>
     9b8:	22000793          	li	a5,544
     9bc:	12f50363          	beq	a0,a5,ae2 <pwm_gpio_init+0x1e6>
     9c0:	22100793          	li	a5,545
     9c4:	12f50663          	beq	a0,a5,af0 <pwm_gpio_init+0x1f4>
     9c8:	8082                	ret
     9ca:	30200793          	li	a5,770
     9ce:	14f50663          	beq	a0,a5,b1a <pwm_gpio_init+0x21e>
     9d2:	12f56d63          	bltu	a0,a5,b0c <pwm_gpio_init+0x210>
     9d6:	30300793          	li	a5,771
     9da:	14f50763          	beq	a0,a5,b28 <pwm_gpio_init+0x22c>
     9de:	8082                	ret
C:/Users/DELL/Desktop/01-Car_motion/Libraries/hefei_libraries/hf_pwm.c:194
    {

        case PWM1_CH1_A8:
            gpio_init(A8, GPO, 0, SPEED_50MHZ|OUT_AF_PP);
     9e0:	31800693          	li	a3,792
     9e4:	4601                	li	a2,0
     9e6:	4585                	li	a1,1
     9e8:	4521                	li	a0,8
C:/Users/DELL/Desktop/01-Car_motion/Libraries/hefei_libraries/hf_pwm.c:275
            break;
        case PWM4_CH3_B8:
            gpio_init(B8, GPO, 0, SPEED_50MHZ|OUT_AF_PP);
            break;
        case PWM4_CH4_B9:
            gpio_init(B9, GPO, 0, SPEED_50MHZ|OUT_AF_PP);
     9ea:	bb09                	j	6fc <gpio_init>
C:/Users/DELL/Desktop/01-Car_motion/Libraries/hefei_libraries/hf_pwm.c:197
            gpio_init(A9, GPO, 0, SPEED_50MHZ|OUT_AF_PP);
     9ec:	31800693          	li	a3,792
     9f0:	4601                	li	a2,0
     9f2:	4585                	li	a1,1
     9f4:	4525                	li	a0,9
     9f6:	bfd5                	j	9ea <pwm_gpio_init+0xee>
C:/Users/DELL/Desktop/01-Car_motion/Libraries/hefei_libraries/hf_pwm.c:200
            gpio_init(A10, GPO, 0, SPEED_50MHZ|OUT_AF_PP);
     9f8:	31800693          	li	a3,792
     9fc:	4601                	li	a2,0
     9fe:	4585                	li	a1,1
     a00:	4529                	li	a0,10
     a02:	b7e5                	j	9ea <pwm_gpio_init+0xee>
C:/Users/DELL/Desktop/01-Car_motion/Libraries/hefei_libraries/hf_pwm.c:203
            gpio_init(A11, GPO, 0, SPEED_50MHZ|OUT_AF_PP);
     a04:	31800693          	li	a3,792
     a08:	4601                	li	a2,0
     a0a:	4585                	li	a1,1
     a0c:	452d                	li	a0,11
     a0e:	bff1                	j	9ea <pwm_gpio_init+0xee>
C:/Users/DELL/Desktop/01-Car_motion/Libraries/hefei_libraries/hf_pwm.c:207
            gpio_init(A0, GPO, 0, SPEED_50MHZ|OUT_AF_PP);
     a10:	31800693          	li	a3,792
     a14:	4601                	li	a2,0
     a16:	4585                	li	a1,1
     a18:	4501                	li	a0,0
     a1a:	bfc1                	j	9ea <pwm_gpio_init+0xee>
C:/Users/DELL/Desktop/01-Car_motion/Libraries/hefei_libraries/hf_pwm.c:210
            gpio_init(A1, GPO, 0, SPEED_50MHZ|OUT_AF_PP);
     a1c:	31800693          	li	a3,792
     a20:	4601                	li	a2,0
     a22:	4585                	li	a1,1
     a24:	4505                	li	a0,1
     a26:	b7d1                	j	9ea <pwm_gpio_init+0xee>
C:/Users/DELL/Desktop/01-Car_motion/Libraries/hefei_libraries/hf_pwm.c:213
            gpio_init(A2, GPO, 0, SPEED_50MHZ|OUT_AF_PP);
     a28:	31800693          	li	a3,792
     a2c:	4601                	li	a2,0
     a2e:	4585                	li	a1,1
     a30:	4509                	li	a0,2
     a32:	bf65                	j	9ea <pwm_gpio_init+0xee>
C:/Users/DELL/Desktop/01-Car_motion/Libraries/hefei_libraries/hf_pwm.c:216
            gpio_init(A3, GPO, 0, SPEED_50MHZ|OUT_AF_PP);
     a34:	31800693          	li	a3,792
     a38:	4601                	li	a2,0
     a3a:	4585                	li	a1,1
     a3c:	450d                	li	a0,3
     a3e:	b775                	j	9ea <pwm_gpio_init+0xee>
C:/Users/DELL/Desktop/01-Car_motion/Libraries/hefei_libraries/hf_pwm.c:220
            gpio_init(A15, GPO, 0, SPEED_50MHZ|OUT_AF_PP);
     a40:	31800693          	li	a3,792
     a44:	4601                	li	a2,0
     a46:	4585                	li	a1,1
     a48:	453d                	li	a0,15
     a4a:	b745                	j	9ea <pwm_gpio_init+0xee>
C:/Users/DELL/Desktop/01-Car_motion/Libraries/hefei_libraries/hf_pwm.c:223
            gpio_init(B3, GPO, 0, SPEED_50MHZ|OUT_AF_PP);
     a4c:	31800693          	li	a3,792
     a50:	4601                	li	a2,0
     a52:	4585                	li	a1,1
     a54:	02300513          	li	a0,35
     a58:	bf49                	j	9ea <pwm_gpio_init+0xee>
C:/Users/DELL/Desktop/01-Car_motion/Libraries/hefei_libraries/hf_pwm.c:226
            gpio_init(B10, GPO, 0, SPEED_50MHZ|OUT_AF_PP);
     a5a:	31800693          	li	a3,792
     a5e:	4601                	li	a2,0
     a60:	4585                	li	a1,1
     a62:	02a00513          	li	a0,42
     a66:	b751                	j	9ea <pwm_gpio_init+0xee>
C:/Users/DELL/Desktop/01-Car_motion/Libraries/hefei_libraries/hf_pwm.c:229
            gpio_init(B11, GPO, 0, SPEED_50MHZ|OUT_AF_PP);
     a68:	31800693          	li	a3,792
     a6c:	4601                	li	a2,0
     a6e:	4585                	li	a1,1
     a70:	02b00513          	li	a0,43
     a74:	bf9d                	j	9ea <pwm_gpio_init+0xee>
C:/Users/DELL/Desktop/01-Car_motion/Libraries/hefei_libraries/hf_pwm.c:233
            gpio_init(A6, GPO, 0, SPEED_50MHZ|OUT_AF_PP);
     a76:	31800693          	li	a3,792
     a7a:	4601                	li	a2,0
     a7c:	4585                	li	a1,1
     a7e:	4519                	li	a0,6
     a80:	b7ad                	j	9ea <pwm_gpio_init+0xee>
C:/Users/DELL/Desktop/01-Car_motion/Libraries/hefei_libraries/hf_pwm.c:236
            gpio_init(A7, GPO, 0, SPEED_50MHZ|OUT_AF_PP);
     a82:	31800693          	li	a3,792
     a86:	4601                	li	a2,0
     a88:	4585                	li	a1,1
     a8a:	451d                	li	a0,7
     a8c:	bfb9                	j	9ea <pwm_gpio_init+0xee>
C:/Users/DELL/Desktop/01-Car_motion/Libraries/hefei_libraries/hf_pwm.c:239
            gpio_init(B0, GPO, 0, SPEED_50MHZ|OUT_AF_PP);
     a8e:	31800693          	li	a3,792
     a92:	4601                	li	a2,0
     a94:	4585                	li	a1,1
     a96:	02000513          	li	a0,32
     a9a:	bf81                	j	9ea <pwm_gpio_init+0xee>
C:/Users/DELL/Desktop/01-Car_motion/Libraries/hefei_libraries/hf_pwm.c:242
            gpio_init(B1, GPO, 0, SPEED_50MHZ|OUT_AF_PP);
     a9c:	31800693          	li	a3,792
     aa0:	4601                	li	a2,0
     aa2:	4585                	li	a1,1
     aa4:	02100513          	li	a0,33
     aa8:	b789                	j	9ea <pwm_gpio_init+0xee>
C:/Users/DELL/Desktop/01-Car_motion/Libraries/hefei_libraries/hf_pwm.c:246
            gpio_init(C6, GPO, 0, SPEED_50MHZ|OUT_AF_PP);
     aaa:	31800693          	li	a3,792
     aae:	4601                	li	a2,0
     ab0:	4585                	li	a1,1
     ab2:	04600513          	li	a0,70
     ab6:	bf15                	j	9ea <pwm_gpio_init+0xee>
C:/Users/DELL/Desktop/01-Car_motion/Libraries/hefei_libraries/hf_pwm.c:249
            gpio_init(C7, GPO, 0, SPEED_50MHZ|OUT_AF_PP);
     ab8:	31800693          	li	a3,792
     abc:	4601                	li	a2,0
     abe:	4585                	li	a1,1
     ac0:	04700513          	li	a0,71
     ac4:	b71d                	j	9ea <pwm_gpio_init+0xee>
C:/Users/DELL/Desktop/01-Car_motion/Libraries/hefei_libraries/hf_pwm.c:252
            gpio_init(C8, GPO, 0, SPEED_50MHZ|OUT_AF_PP);
     ac6:	31800693          	li	a3,792
     aca:	4601                	li	a2,0
     acc:	4585                	li	a1,1
     ace:	04800513          	li	a0,72
     ad2:	bf21                	j	9ea <pwm_gpio_init+0xee>
C:/Users/DELL/Desktop/01-Car_motion/Libraries/hefei_libraries/hf_pwm.c:255
            gpio_init(C9, GPO, 0, SPEED_50MHZ|OUT_AF_PP);
     ad4:	31800693          	li	a3,792
     ad8:	4601                	li	a2,0
     ada:	4585                	li	a1,1
     adc:	04900513          	li	a0,73
     ae0:	b729                	j	9ea <pwm_gpio_init+0xee>
C:/Users/DELL/Desktop/01-Car_motion/Libraries/hefei_libraries/hf_pwm.c:259
            gpio_init(B4, GPO, 0, SPEED_50MHZ|OUT_AF_PP);
     ae2:	31800693          	li	a3,792
     ae6:	4601                	li	a2,0
     ae8:	4585                	li	a1,1
     aea:	02400513          	li	a0,36
     aee:	bdf5                	j	9ea <pwm_gpio_init+0xee>
C:/Users/DELL/Desktop/01-Car_motion/Libraries/hefei_libraries/hf_pwm.c:262
            gpio_init(B5, GPO, 0, SPEED_50MHZ|OUT_AF_PP);
     af0:	31800693          	li	a3,792
     af4:	4601                	li	a2,0
     af6:	4585                	li	a1,1
     af8:	02500513          	li	a0,37
     afc:	b5fd                	j	9ea <pwm_gpio_init+0xee>
C:/Users/DELL/Desktop/01-Car_motion/Libraries/hefei_libraries/hf_pwm.c:266
            gpio_init(B6, GPO, 0, SPEED_50MHZ|OUT_AF_PP);
     afe:	31800693          	li	a3,792
     b02:	4601                	li	a2,0
     b04:	4585                	li	a1,1
     b06:	02600513          	li	a0,38
     b0a:	b5c5                	j	9ea <pwm_gpio_init+0xee>
C:/Users/DELL/Desktop/01-Car_motion/Libraries/hefei_libraries/hf_pwm.c:269
            gpio_init(B7, GPO, 0, SPEED_50MHZ|OUT_AF_PP);
     b0c:	31800693          	li	a3,792
     b10:	4601                	li	a2,0
     b12:	4585                	li	a1,1
     b14:	02700513          	li	a0,39
     b18:	bdc9                	j	9ea <pwm_gpio_init+0xee>
C:/Users/DELL/Desktop/01-Car_motion/Libraries/hefei_libraries/hf_pwm.c:272
            gpio_init(B8, GPO, 0, SPEED_50MHZ|OUT_AF_PP);
     b1a:	31800693          	li	a3,792
     b1e:	4601                	li	a2,0
     b20:	4585                	li	a1,1
     b22:	02800513          	li	a0,40
     b26:	b5d1                	j	9ea <pwm_gpio_init+0xee>
C:/Users/DELL/Desktop/01-Car_motion/Libraries/hefei_libraries/hf_pwm.c:275
            gpio_init(B9, GPO, 0, SPEED_50MHZ|OUT_AF_PP);
     b28:	31800693          	li	a3,792
     b2c:	4601                	li	a2,0
     b2e:	4585                	li	a1,1
     b30:	02900513          	li	a0,41
     b34:	bd5d                	j	9ea <pwm_gpio_init+0xee>

00000b36 <pwm_init>:
pwm_init():
C:/Users/DELL/Desktop/01-Car_motion/Libraries/hefei_libraries/hf_pwm.c:25
{
     b36:	7139                	addi	sp,sp,-64
     b38:	de06                	sw	ra,60(sp)
     b3a:	dc22                	sw	s0,56(sp)
     b3c:	da26                	sw	s1,52(sp)
     b3e:	d84a                	sw	s2,48(sp)
     b40:	84aa                	mv	s1,a0
     b42:	d64e                	sw	s3,44(sp)
     b44:	d452                	sw	s4,40(sp)
     b46:	89b6                	mv	s3,a3
     b48:	8a32                	mv	s4,a2
     b4a:	c62e                	sw	a1,12(sp)
C:/Users/DELL/Desktop/01-Car_motion/Libraries/hefei_libraries/hf_pwm.c:32
    pwm_gpio_init(pwmch);                                       //PWM引脚初始化
     b4c:	3b45                	jal	8fc <pwm_gpio_init>
C:/Users/DELL/Desktop/01-Car_motion/Libraries/hefei_libraries/hf_pwm.c:36
    freq_div = (uint16)((sys_clk / freq) >> 16);                            //多少分频
     b4e:	45b2                	lw	a1,12(sp)
C:/Users/DELL/Desktop/01-Car_motion/Libraries/hefei_libraries/hf_pwm.c:35
    sys_clk = (uint32)72000000;
     b50:	044aa7b7          	lui	a5,0x44aa
     b54:	20078793          	addi	a5,a5,512 # 44aa200 <_data_lma+0x44a8a68>
C:/Users/DELL/Desktop/01-Car_motion/Libraries/hefei_libraries/hf_pwm.c:36
    freq_div = (uint16)((sys_clk / freq) >> 16);                            //多少分频
     b58:	02b7d633          	divu	a2,a5,a1
C:/Users/DELL/Desktop/01-Car_motion/Libraries/hefei_libraries/hf_pwm.c:41
    timbase_init((pwmch >> 8), period_temp - 1, freq_div);
     b5c:	0084d913          	srli	s2,s1,0x8
C:/Users/DELL/Desktop/01-Car_motion/Libraries/hefei_libraries/hf_pwm.c:35
    sys_clk = (uint32)72000000;
     b60:	20000737          	lui	a4,0x20000
C:/Users/DELL/Desktop/01-Car_motion/Libraries/hefei_libraries/hf_pwm.c:41
    timbase_init((pwmch >> 8), period_temp - 1, freq_div);
     b64:	854a                	mv	a0,s2
C:/Users/DELL/Desktop/01-Car_motion/Libraries/hefei_libraries/hf_pwm.c:35
    sys_clk = (uint32)72000000;
     b66:	00f72c23          	sw	a5,24(a4) # 20000018 <_edata>
C:/Users/DELL/Desktop/01-Car_motion/Libraries/hefei_libraries/hf_pwm.c:36
    freq_div = (uint16)((sys_clk / freq) >> 16);                            //多少分频
     b6a:	090a                	slli	s2,s2,0x2
     b6c:	8241                	srli	a2,a2,0x10
C:/Users/DELL/Desktop/01-Car_motion/Libraries/hefei_libraries/hf_pwm.c:37
    period_temp = (uint16)(sys_clk/(freq*(freq_div + 1)));                  //周期
     b6e:	00160413          	addi	s0,a2,1 # e000e001 <_eusrstack+0xc0009001>
     b72:	02b40433          	mul	s0,s0,a1
     b76:	0287d433          	divu	s0,a5,s0
C:/Users/DELL/Desktop/01-Car_motion/Libraries/hefei_libraries/hf_pwm.c:41
    timbase_init((pwmch >> 8), period_temp - 1, freq_div);
     b7a:	fff40593          	addi	a1,s0,-1
     b7e:	05c2                	slli	a1,a1,0x10
     b80:	81c1                	srli	a1,a1,0x10
     b82:	20e1                	jal	c4a <timbase_init>
C:/Users/DELL/Desktop/01-Car_motion/Libraries/hefei_libraries/hf_pwm.c:43
    RCC_APB2PeriphClockCmd(RCC_APB2Periph_AFIO, ENABLE);        //使能AFIO复用功能模块时钟
     b84:	4585                	li	a1,1
     b86:	4505                	li	a0,1
     b88:	2d49                	jal	121a <RCC_APB2PeriphClockCmd>
C:/Users/DELL/Desktop/01-Car_motion/Libraries/hefei_libraries/hf_pwm.c:38
    match_temp = period_temp * duty / PWM_DUTY_MAX;                         //占空比
     b8a:	01041793          	slli	a5,s0,0x10
     b8e:	83c1                	srli	a5,a5,0x10
     b90:	034787b3          	mul	a5,a5,s4
     b94:	6409                	lui	s0,0x2
     b96:	71040413          	addi	s0,s0,1808 # 2710 <_data_lma+0xf78>
C:/Users/DELL/Desktop/01-Car_motion/Libraries/hefei_libraries/hf_pwm.c:46
    TIM_OCInitStructure.TIM_OCMode = TIM_OCMode_PWM1;                       //选择定时器模式:TIM脉冲宽度调制模式2
     b9a:	6741                	lui	a4,0x10
     b9c:	06070713          	addi	a4,a4,96 # 10060 <_data_lma+0xe8c8>
     ba0:	c83a                	sw	a4,16(sp)
C:/Users/DELL/Desktop/01-Car_motion/Libraries/hefei_libraries/hf_pwm.c:48
    TIM_OCInitStructure.TIM_Pulse = match_temp;
     ba2:	6705                	lui	a4,0x1
     ba4:	77870713          	addi	a4,a4,1912 # 1778 <TIMERN>
     ba8:	993a                	add	s2,s2,a4
C:/Users/DELL/Desktop/01-Car_motion/Libraries/hefei_libraries/hf_pwm.c:49
    TIM_OCInitStructure.TIM_OCPolarity = TIM_OCPolarity_High;               //输出极性:TIM输出比较极性高
     baa:	00011c23          	sh	zero,24(sp)
C:/Users/DELL/Desktop/01-Car_motion/Libraries/hefei_libraries/hf_pwm.c:38
    match_temp = period_temp * duty / PWM_DUTY_MAX;                         //占空比
     bae:	0287d7b3          	divu	a5,a5,s0
C:/Users/DELL/Desktop/01-Car_motion/Libraries/hefei_libraries/hf_pwm.c:50
    TIM_OCInitStructure.TIM_OCIdleState = TIM_OCIdleState_Reset;
     bb2:	00011e23          	sh	zero,28(sp)
     bb6:	00092403          	lw	s0,0(s2)
C:/Users/DELL/Desktop/01-Car_motion/Libraries/hefei_libraries/hf_pwm.c:38
    match_temp = period_temp * duty / PWM_DUTY_MAX;                         //占空比
     bba:	00f11b23          	sh	a5,22(sp)
C:/Users/DELL/Desktop/01-Car_motion/Libraries/hefei_libraries/hf_pwm.c:52
    if((pwmch & 0x03) == 0x00)                                              //通道选择
     bbe:	0034f793          	andi	a5,s1,3
     bc2:	eb8d                	bnez	a5,bf4 <pwm_init+0xbe>
C:/Users/DELL/Desktop/01-Car_motion/Libraries/hefei_libraries/hf_pwm.c:54
        TIM_OC1Init(((TIM_TypeDef *) TIMERN[pwmch>>8]), &TIM_OCInitStructure );                         //定时器通道1初始化
     bc4:	080c                	addi	a1,sp,16
     bc6:	8522                	mv	a0,s0
     bc8:	706000ef          	jal	ra,12ce <TIM_OC1Init>
C:/Users/DELL/Desktop/01-Car_motion/Libraries/hefei_libraries/hf_pwm.c:55
        TIM_CtrlPWMOutputs(((TIM_TypeDef *) TIMERN[pwmch>>8]), ENABLE );
     bcc:	4585                	li	a1,1
     bce:	8522                	mv	a0,s0
     bd0:	18b000ef          	jal	ra,155a <TIM_CtrlPWMOutputs>
C:/Users/DELL/Desktop/01-Car_motion/Libraries/hefei_libraries/hf_pwm.c:56
        TIM_OC1PreloadConfig(((TIM_TypeDef *) TIMERN[pwmch>>8]), TIM_OCPreload_Enable_Disable);         //定时器预装载配置
     bd4:	85ce                	mv	a1,s3
     bd6:	8522                	mv	a0,s0
     bd8:	199000ef          	jal	ra,1570 <TIM_OC1PreloadConfig>
C:/Users/DELL/Desktop/01-Car_motion/Libraries/hefei_libraries/hf_pwm.c:77
    TIM_Cmd(((TIM_TypeDef *) TIMERN[pwmch>>8]), ENABLE);                                              //定时器使能
     bdc:	8522                	mv	a0,s0
     bde:	4585                	li	a1,1
     be0:	15f000ef          	jal	ra,153e <TIM_Cmd>
C:/Users/DELL/Desktop/01-Car_motion/Libraries/hefei_libraries/hf_pwm.c:78
}
     be4:	50f2                	lw	ra,60(sp)
     be6:	5462                	lw	s0,56(sp)
     be8:	54d2                	lw	s1,52(sp)
     bea:	5942                	lw	s2,48(sp)
     bec:	59b2                	lw	s3,44(sp)
     bee:	5a22                	lw	s4,40(sp)
     bf0:	6121                	addi	sp,sp,64
     bf2:	8082                	ret
C:/Users/DELL/Desktop/01-Car_motion/Libraries/hefei_libraries/hf_pwm.c:58
    else if((pwmch & 0x03) == 0x01)
     bf4:	4705                	li	a4,1
     bf6:	00e79f63          	bne	a5,a4,c14 <pwm_init+0xde>
C:/Users/DELL/Desktop/01-Car_motion/Libraries/hefei_libraries/hf_pwm.c:60
        TIM_OC2Init(((TIM_TypeDef *) TIMERN[pwmch>>8]), &TIM_OCInitStructure );
     bfa:	080c                	addi	a1,sp,16
     bfc:	8522                	mv	a0,s0
     bfe:	758000ef          	jal	ra,1356 <TIM_OC2Init>
C:/Users/DELL/Desktop/01-Car_motion/Libraries/hefei_libraries/hf_pwm.c:61
        TIM_CtrlPWMOutputs(((TIM_TypeDef *) TIMERN[pwmch>>8]), ENABLE );
     c02:	8522                	mv	a0,s0
     c04:	4585                	li	a1,1
     c06:	155000ef          	jal	ra,155a <TIM_CtrlPWMOutputs>
C:/Users/DELL/Desktop/01-Car_motion/Libraries/hefei_libraries/hf_pwm.c:62
        TIM_OC2PreloadConfig(((TIM_TypeDef *) TIMERN[pwmch>>8]), TIM_OCPreload_Enable_Disable);
     c0a:	85ce                	mv	a1,s3
     c0c:	8522                	mv	a0,s0
     c0e:	175000ef          	jal	ra,1582 <TIM_OC2PreloadConfig>
     c12:	b7e9                	j	bdc <pwm_init+0xa6>
C:/Users/DELL/Desktop/01-Car_motion/Libraries/hefei_libraries/hf_pwm.c:64
    else if((pwmch & 0x03) == 0x02)
     c14:	4709                	li	a4,2
C:/Users/DELL/Desktop/01-Car_motion/Libraries/hefei_libraries/hf_pwm.c:66
        TIM_OC3Init(((TIM_TypeDef *) TIMERN[pwmch>>8]), &TIM_OCInitStructure );
     c16:	080c                	addi	a1,sp,16
     c18:	8522                	mv	a0,s0
C:/Users/DELL/Desktop/01-Car_motion/Libraries/hefei_libraries/hf_pwm.c:64
    else if((pwmch & 0x03) == 0x02)
     c1a:	00e79d63          	bne	a5,a4,c34 <pwm_init+0xfe>
C:/Users/DELL/Desktop/01-Car_motion/Libraries/hefei_libraries/hf_pwm.c:66
        TIM_OC3Init(((TIM_TypeDef *) TIMERN[pwmch>>8]), &TIM_OCInitStructure );
     c1e:	7ec000ef          	jal	ra,140a <TIM_OC3Init>
C:/Users/DELL/Desktop/01-Car_motion/Libraries/hefei_libraries/hf_pwm.c:67
        TIM_CtrlPWMOutputs(((TIM_TypeDef *) TIMERN[pwmch>>8]), ENABLE );
     c22:	8522                	mv	a0,s0
     c24:	4585                	li	a1,1
     c26:	135000ef          	jal	ra,155a <TIM_CtrlPWMOutputs>
C:/Users/DELL/Desktop/01-Car_motion/Libraries/hefei_libraries/hf_pwm.c:68
        TIM_OC3PreloadConfig(((TIM_TypeDef *) TIMERN[pwmch>>8]), TIM_OCPreload_Enable_Disable);
     c2a:	85ce                	mv	a1,s3
     c2c:	8522                	mv	a0,s0
     c2e:	16f000ef          	jal	ra,159c <TIM_OC3PreloadConfig>
     c32:	b76d                	j	bdc <pwm_init+0xa6>
C:/Users/DELL/Desktop/01-Car_motion/Libraries/hefei_libraries/hf_pwm.c:72
        TIM_OC4Init(((TIM_TypeDef *) TIMERN[pwmch>>8]), &TIM_OCInitStructure );
     c34:	089000ef          	jal	ra,14bc <TIM_OC4Init>
C:/Users/DELL/Desktop/01-Car_motion/Libraries/hefei_libraries/hf_pwm.c:73
        TIM_CtrlPWMOutputs(((TIM_TypeDef *) TIMERN[pwmch>>8]), ENABLE );
     c38:	8522                	mv	a0,s0
     c3a:	4585                	li	a1,1
     c3c:	11f000ef          	jal	ra,155a <TIM_CtrlPWMOutputs>
C:/Users/DELL/Desktop/01-Car_motion/Libraries/hefei_libraries/hf_pwm.c:74
        TIM_OC4PreloadConfig(((TIM_TypeDef *) TIMERN[pwmch>>8]), TIM_OCPreload_Enable_Disable);
     c40:	85ce                	mv	a1,s3
     c42:	8522                	mv	a0,s0
     c44:	16b000ef          	jal	ra,15ae <TIM_OC4PreloadConfig>
     c48:	bf51                	j	bdc <pwm_init+0xa6>

00000c4a <timbase_init>:
timbase_init():
C:/Users/DELL/Desktop/01-Car_motion/Libraries/hefei_libraries/hf_tim.c:24
//  @return     void
//  Sample usage:           timbase_init(TIMER_2, 71, 0);
//                          //时基初始化为定时器2,频率为1MHz
//-------------------------------------------------------------------------------------------------------------------
void timbase_init(TIMERN_enum TIMER_x, uint16 arr, uint16 pre)
{
     c4a:	1101                	addi	sp,sp,-32
     c4c:	cc22                	sw	s0,24(sp)
     c4e:	ca26                	sw	s1,20(sp)
     c50:	c84a                	sw	s2,16(sp)
     c52:	ce06                	sw	ra,28(sp)
     c54:	842a                	mv	s0,a0
     c56:	892e                	mv	s2,a1
     c58:	84b2                	mv	s1,a2
C:/Users/DELL/Desktop/01-Car_motion/Libraries/hefei_libraries/hf_tim.c:27
    TIM_TimeBaseInitTypeDef  TIM_TimeBaseStructure;

    if(TIMER_1 == TIMER_x)
     c5a:	ed15                	bnez	a0,c96 <timbase_init+0x4c>
C:/Users/DELL/Desktop/01-Car_motion/Libraries/hefei_libraries/hf_tim.c:28
        RCC_APB2PeriphClockCmd(RCC_APB2Periph_TIM1, ENABLE);                //时钟使能
     c5c:	6505                	lui	a0,0x1
     c5e:	4585                	li	a1,1
     c60:	80050513          	addi	a0,a0,-2048 # 800 <__stack_size>
     c64:	2b5d                	jal	121a <RCC_APB2PeriphClockCmd>
C:/Users/DELL/Desktop/01-Car_motion/Libraries/hefei_libraries/hf_tim.c:42
    TIM_TimeBaseStructure.TIM_Period = arr;                    //计数44000
    TIM_TimeBaseStructure.TIM_Prescaler = pre;                      //设置为1MHZ计数一次,也就是1us计数一次
    TIM_TimeBaseStructure.TIM_ClockDivision = TIM_CKD_DIV1;                 //设置时钟分割:TDTS = Tck_tim
    TIM_TimeBaseStructure.TIM_CounterMode = TIM_CounterMode_Up;             //TIM向上计数模式
    TIM_TimeBaseStructure.TIM_RepetitionCounter = 0;                        //重复计数器设置为0
    TIM_TimeBaseInit((TIM_TypeDef *)TIMERN[TIMER_x], &TIM_TimeBaseStructure);//根据指定的参数初始化TIMx的时间基数单位
     c66:	6785                	lui	a5,0x1
     c68:	77878793          	addi	a5,a5,1912 # 1778 <TIMERN>
     c6c:	040a                	slli	s0,s0,0x2
     c6e:	943e                	add	s0,s0,a5
     c70:	4008                	lw	a0,0(s0)
     c72:	004c                	addi	a1,sp,4
C:/Users/DELL/Desktop/01-Car_motion/Libraries/hefei_libraries/hf_tim.c:37
    TIM_TimeBaseStructure.TIM_Period = arr;                    //计数44000
     c74:	01211423          	sh	s2,8(sp)
C:/Users/DELL/Desktop/01-Car_motion/Libraries/hefei_libraries/hf_tim.c:38
    TIM_TimeBaseStructure.TIM_Prescaler = pre;                      //设置为1MHZ计数一次,也就是1us计数一次
     c78:	00911223          	sh	s1,4(sp)
C:/Users/DELL/Desktop/01-Car_motion/Libraries/hefei_libraries/hf_tim.c:39
    TIM_TimeBaseStructure.TIM_ClockDivision = TIM_CKD_DIV1;                 //设置时钟分割:TDTS = Tck_tim
     c7c:	00011523          	sh	zero,10(sp)
C:/Users/DELL/Desktop/01-Car_motion/Libraries/hefei_libraries/hf_tim.c:40
    TIM_TimeBaseStructure.TIM_CounterMode = TIM_CounterMode_Up;             //TIM向上计数模式
     c80:	00011323          	sh	zero,6(sp)
C:/Users/DELL/Desktop/01-Car_motion/Libraries/hefei_libraries/hf_tim.c:41
    TIM_TimeBaseStructure.TIM_RepetitionCounter = 0;                        //重复计数器设置为0
     c84:	00010623          	sb	zero,12(sp)
C:/Users/DELL/Desktop/01-Car_motion/Libraries/hefei_libraries/hf_tim.c:42
    TIM_TimeBaseInit((TIM_TypeDef *)TIMERN[TIMER_x], &TIM_TimeBaseStructure);//根据指定的参数初始化TIMx的时间基数单位
     c88:	23f9                	jal	1256 <TIM_TimeBaseInit>
C:/Users/DELL/Desktop/01-Car_motion/Libraries/hefei_libraries/hf_tim.c:43
}
     c8a:	40f2                	lw	ra,28(sp)
     c8c:	4462                	lw	s0,24(sp)
     c8e:	44d2                	lw	s1,20(sp)
     c90:	4942                	lw	s2,16(sp)
     c92:	6105                	addi	sp,sp,32
     c94:	8082                	ret
C:/Users/DELL/Desktop/01-Car_motion/Libraries/hefei_libraries/hf_tim.c:29
    else if(TIMER_2 == TIMER_x)
     c96:	4785                	li	a5,1
     c98:	00f51563          	bne	a0,a5,ca2 <timbase_init+0x58>
C:/Users/DELL/Desktop/01-Car_motion/Libraries/hefei_libraries/hf_tim.c:32
        RCC_APB1PeriphClockCmd(RCC_APB1Periph_TIM3, ENABLE);                //时钟使能
     c9c:	4585                	li	a1,1
C:/Users/DELL/Desktop/01-Car_motion/Libraries/hefei_libraries/hf_tim.c:34
        RCC_APB1PeriphClockCmd(RCC_APB1Periph_TIM4, ENABLE);                //时钟使能
     c9e:	2b69                	jal	1238 <RCC_APB1PeriphClockCmd>
     ca0:	b7d9                	j	c66 <timbase_init+0x1c>
C:/Users/DELL/Desktop/01-Car_motion/Libraries/hefei_libraries/hf_tim.c:31
    else if(TIMER_3 == TIMER_x)
     ca2:	4789                	li	a5,2
     ca4:	fef50ce3          	beq	a0,a5,c9c <timbase_init+0x52>
C:/Users/DELL/Desktop/01-Car_motion/Libraries/hefei_libraries/hf_tim.c:33
    else if(TIMER_4 == TIMER_x)
     ca8:	478d                	li	a5,3
     caa:	faf51ee3          	bne	a0,a5,c66 <timbase_init+0x1c>
C:/Users/DELL/Desktop/01-Car_motion/Libraries/hefei_libraries/hf_tim.c:34
        RCC_APB1PeriphClockCmd(RCC_APB1Periph_TIM4, ENABLE);                //时钟使能
     cae:	4585                	li	a1,1
     cb0:	4511                	li	a0,4
     cb2:	b7f5                	j	c9e <timbase_init+0x54>

00000cb4 <uart_gpio_init>:
uart_gpio_init():
C:/Users/DELL/Desktop/01-Car_motion/Libraries/hefei_libraries/hf_uart.c:164
//  @param      rx_pin      串口接收引脚号
//  @return     void
//  Sample usage:           内部使用，用户无需关心
//-------------------------------------------------------------------------------------------------------------------
void uart_gpio_init(UARTPIN_enum tx_pin, UARTPIN_enum rx_pin)
{
     cb4:	1141                	addi	sp,sp,-16
     cb6:	c606                	sw	ra,12(sp)
C:/Users/DELL/Desktop/01-Car_motion/Libraries/hefei_libraries/hf_uart.c:165
    if(tx_pin == UART1_TX_A9 && rx_pin == UART1_RX_A10)
     cb8:	e105                	bnez	a0,cd8 <uart_gpio_init+0x24>
C:/Users/DELL/Desktop/01-Car_motion/Libraries/hefei_libraries/hf_uart.c:165 (discriminator 1)
     cba:	4785                	li	a5,1
     cbc:	0af59063          	bne	a1,a5,d5c <uart_gpio_init+0xa8>
C:/Users/DELL/Desktop/01-Car_motion/Libraries/hefei_libraries/hf_uart.c:167
    {
        gpio_init(A9, GPO, 0, SPEED_50MHZ|OUT_AF_PP);
     cc0:	31800693          	li	a3,792
     cc4:	4601                	li	a2,0
     cc6:	4525                	li	a0,9
     cc8:	3c15                	jal	6fc <gpio_init>
C:/Users/DELL/Desktop/01-Car_motion/Libraries/hefei_libraries/hf_uart.c:168
        gpio_init(A10, GPI, 0, IN_FLOAT);
     cca:	4691                	li	a3,4
     ccc:	4601                	li	a2,0
     cce:	4581                	li	a1,0
     cd0:	4529                	li	a0,10
C:/Users/DELL/Desktop/01-Car_motion/Libraries/hefei_libraries/hf_uart.c:193
    else if(tx_pin == UART3_TX_C10)
    {
        gpio_init(C10, GPO, 0, SPEED_50MHZ|OUT_PP);
        gpio_init(C11, GPI, 0, IN_FLOAT);
    }
}
     cd2:	40b2                	lw	ra,12(sp)
     cd4:	0141                	addi	sp,sp,16
C:/Users/DELL/Desktop/01-Car_motion/Libraries/hefei_libraries/hf_uart.c:191
        gpio_init(C11, GPI, 0, IN_FLOAT);
     cd6:	b41d                	j	6fc <gpio_init>
C:/Users/DELL/Desktop/01-Car_motion/Libraries/hefei_libraries/hf_uart.c:170
    else if(tx_pin == UART1_TX_B6)
     cd8:	4789                	li	a5,2
     cda:	00f51f63          	bne	a0,a5,cf8 <uart_gpio_init+0x44>
C:/Users/DELL/Desktop/01-Car_motion/Libraries/hefei_libraries/hf_uart.c:172
        gpio_init(B6, GPO, 0, SPEED_50MHZ|OUT_AF_PP);
     cde:	31800693          	li	a3,792
     ce2:	4601                	li	a2,0
     ce4:	4585                	li	a1,1
     ce6:	02600513          	li	a0,38
     cea:	3c09                	jal	6fc <gpio_init>
C:/Users/DELL/Desktop/01-Car_motion/Libraries/hefei_libraries/hf_uart.c:173
        gpio_init(B7, GPI, 0, IN_FLOAT);
     cec:	4691                	li	a3,4
     cee:	4601                	li	a2,0
     cf0:	4581                	li	a1,0
     cf2:	02700513          	li	a0,39
     cf6:	bff1                	j	cd2 <uart_gpio_init+0x1e>
C:/Users/DELL/Desktop/01-Car_motion/Libraries/hefei_libraries/hf_uart.c:176
    else if(tx_pin == UART2_TX_A2)
     cf8:	47c1                	li	a5,16
     cfa:	00f51d63          	bne	a0,a5,d14 <uart_gpio_init+0x60>
C:/Users/DELL/Desktop/01-Car_motion/Libraries/hefei_libraries/hf_uart.c:178
        gpio_init(A2, GPO, 0, SPEED_50MHZ|OUT_AF_PP);
     cfe:	31800693          	li	a3,792
     d02:	4601                	li	a2,0
     d04:	4585                	li	a1,1
     d06:	4509                	li	a0,2
     d08:	3ad5                	jal	6fc <gpio_init>
C:/Users/DELL/Desktop/01-Car_motion/Libraries/hefei_libraries/hf_uart.c:179
        gpio_init(A3, GPI, 0, IN_FLOAT);
     d0a:	4691                	li	a3,4
     d0c:	4601                	li	a2,0
     d0e:	4581                	li	a1,0
     d10:	450d                	li	a0,3
     d12:	b7c1                	j	cd2 <uart_gpio_init+0x1e>
C:/Users/DELL/Desktop/01-Car_motion/Libraries/hefei_libraries/hf_uart.c:182
    else if(tx_pin == UART3_TX_B10)
     d14:	02000793          	li	a5,32
     d18:	02f51063          	bne	a0,a5,d38 <uart_gpio_init+0x84>
C:/Users/DELL/Desktop/01-Car_motion/Libraries/hefei_libraries/hf_uart.c:184
        gpio_init(B10, GPO, 0, SPEED_50MHZ|OUT_AF_PP);
     d1c:	31800693          	li	a3,792
     d20:	4601                	li	a2,0
     d22:	4585                	li	a1,1
     d24:	02a00513          	li	a0,42
     d28:	9d5ff0ef          	jal	ra,6fc <gpio_init>
C:/Users/DELL/Desktop/01-Car_motion/Libraries/hefei_libraries/hf_uart.c:185
        gpio_init(B11, GPI, 0, IN_FLOAT);
     d2c:	4691                	li	a3,4
     d2e:	4601                	li	a2,0
     d30:	4581                	li	a1,0
     d32:	02b00513          	li	a0,43
     d36:	bf71                	j	cd2 <uart_gpio_init+0x1e>
C:/Users/DELL/Desktop/01-Car_motion/Libraries/hefei_libraries/hf_uart.c:188
    else if(tx_pin == UART3_TX_C10)
     d38:	02200793          	li	a5,34
     d3c:	02f51063          	bne	a0,a5,d5c <uart_gpio_init+0xa8>
C:/Users/DELL/Desktop/01-Car_motion/Libraries/hefei_libraries/hf_uart.c:190
        gpio_init(C10, GPO, 0, SPEED_50MHZ|OUT_PP);
     d40:	31000693          	li	a3,784
     d44:	4601                	li	a2,0
     d46:	4585                	li	a1,1
     d48:	04a00513          	li	a0,74
     d4c:	9b1ff0ef          	jal	ra,6fc <gpio_init>
C:/Users/DELL/Desktop/01-Car_motion/Libraries/hefei_libraries/hf_uart.c:191
        gpio_init(C11, GPI, 0, IN_FLOAT);
     d50:	4691                	li	a3,4
     d52:	4601                	li	a2,0
     d54:	4581                	li	a1,0
     d56:	04b00513          	li	a0,75
     d5a:	bfa5                	j	cd2 <uart_gpio_init+0x1e>
C:/Users/DELL/Desktop/01-Car_motion/Libraries/hefei_libraries/hf_uart.c:193
}
     d5c:	40b2                	lw	ra,12(sp)
     d5e:	0141                	addi	sp,sp,16
     d60:	8082                	ret

00000d62 <uart_init>:
uart_init():
C:/Users/DELL/Desktop/01-Car_motion/Libraries/hefei_libraries/hf_uart.c:25
{
     d62:	7179                	addi	sp,sp,-48
     d64:	d422                	sw	s0,40(sp)
     d66:	d226                	sw	s1,36(sp)
     d68:	d04a                	sw	s2,32(sp)
     d6a:	ce4e                	sw	s3,28(sp)
     d6c:	d606                	sw	ra,44(sp)
     d6e:	842a                	mv	s0,a0
     d70:	84ae                	mv	s1,a1
     d72:	8932                	mv	s2,a2
     d74:	89b6                	mv	s3,a3
C:/Users/DELL/Desktop/01-Car_motion/Libraries/hefei_libraries/hf_uart.c:29
    if(UART_1 == UART_x) RCC_APB2PeriphClockCmd(RCC_APB2Periph_USART1, ENABLE);
     d76:	e139                	bnez	a0,dbc <uart_init+0x5a>
C:/Users/DELL/Desktop/01-Car_motion/Libraries/hefei_libraries/hf_uart.c:29 (discriminator 1)
     d78:	4585                	li	a1,1
     d7a:	6511                	lui	a0,0x4
     d7c:	2979                	jal	121a <RCC_APB2PeriphClockCmd>
C:/Users/DELL/Desktop/01-Car_motion/Libraries/hefei_libraries/hf_uart.c:34
    uart_gpio_init(tx_pin, rx_pin);
     d7e:	85ce                	mv	a1,s3
     d80:	854a                	mv	a0,s2
     d82:	3f0d                	jal	cb4 <uart_gpio_init>
C:/Users/DELL/Desktop/01-Car_motion/Libraries/hefei_libraries/hf_uart.c:40
    USART_InitStructure.USART_Parity = USART_Parity_No;
     d84:	000c07b7          	lui	a5,0xc0
     d88:	c43e                	sw	a5,8(sp)
C:/Users/DELL/Desktop/01-Car_motion/Libraries/hefei_libraries/hf_uart.c:45
    USART_Init((USART_TypeDef*)UARTN[UART_x], &USART_InitStructure);
     d8a:	6785                	lui	a5,0x1
     d8c:	78878793          	addi	a5,a5,1928 # 1788 <UARTN>
     d90:	040a                	slli	s0,s0,0x2
     d92:	943e                	add	s0,s0,a5
     d94:	4000                	lw	s0,0(s0)
     d96:	858a                	mv	a1,sp
C:/Users/DELL/Desktop/01-Car_motion/Libraries/hefei_libraries/hf_uart.c:37
    USART_InitStructure.USART_BaudRate = baud;
     d98:	c026                	sw	s1,0(sp)
C:/Users/DELL/Desktop/01-Car_motion/Libraries/hefei_libraries/hf_uart.c:45
    USART_Init((USART_TypeDef*)UARTN[UART_x], &USART_InitStructure);
     d9a:	8522                	mv	a0,s0
C:/Users/DELL/Desktop/01-Car_motion/Libraries/hefei_libraries/hf_uart.c:38
    USART_InitStructure.USART_WordLength = USART_WordLength_8b;
     d9c:	c202                	sw	zero,4(sp)
C:/Users/DELL/Desktop/01-Car_motion/Libraries/hefei_libraries/hf_uart.c:41
    USART_InitStructure.USART_HardwareFlowControl = USART_HardwareFlowControl_None;
     d9e:	00011623          	sh	zero,12(sp)
C:/Users/DELL/Desktop/01-Car_motion/Libraries/hefei_libraries/hf_uart.c:45
    USART_Init((USART_TypeDef*)UARTN[UART_x], &USART_InitStructure);
     da2:	079000ef          	jal	ra,161a <USART_Init>
C:/Users/DELL/Desktop/01-Car_motion/Libraries/hefei_libraries/hf_uart.c:46
    USART_Cmd((USART_TypeDef*)UARTN[UART_x], ENABLE);
     da6:	8522                	mv	a0,s0
     da8:	4585                	li	a1,1
     daa:	149000ef          	jal	ra,16f2 <USART_Cmd>
C:/Users/DELL/Desktop/01-Car_motion/Libraries/hefei_libraries/hf_uart.c:48
}
     dae:	50b2                	lw	ra,44(sp)
     db0:	5422                	lw	s0,40(sp)
     db2:	5492                	lw	s1,36(sp)
     db4:	5902                	lw	s2,32(sp)
     db6:	49f2                	lw	s3,28(sp)
     db8:	6145                	addi	sp,sp,48
     dba:	8082                	ret
C:/Users/DELL/Desktop/01-Car_motion/Libraries/hefei_libraries/hf_uart.c:30
    else if(UART_2 == UART_x) RCC_APB1PeriphClockCmd(RCC_APB1Periph_USART2, ENABLE);
     dbc:	4785                	li	a5,1
     dbe:	00f51763          	bne	a0,a5,dcc <uart_init+0x6a>
C:/Users/DELL/Desktop/01-Car_motion/Libraries/hefei_libraries/hf_uart.c:30 (discriminator 1)
     dc2:	4585                	li	a1,1
     dc4:	00020537          	lui	a0,0x20
C:/Users/DELL/Desktop/01-Car_motion/Libraries/hefei_libraries/hf_uart.c:31 (discriminator 1)
    else if(UART_3 == UART_x) RCC_APB1PeriphClockCmd(RCC_APB1Periph_USART3, ENABLE);
     dc8:	2985                	jal	1238 <RCC_APB1PeriphClockCmd>
     dca:	bf55                	j	d7e <uart_init+0x1c>
C:/Users/DELL/Desktop/01-Car_motion/Libraries/hefei_libraries/hf_uart.c:31
     dcc:	4789                	li	a5,2
     dce:	faf518e3          	bne	a0,a5,d7e <uart_init+0x1c>
C:/Users/DELL/Desktop/01-Car_motion/Libraries/hefei_libraries/hf_uart.c:31 (discriminator 1)
     dd2:	4585                	li	a1,1
     dd4:	00040537          	lui	a0,0x40
     dd8:	bfc5                	j	dc8 <uart_init+0x66>

00000dda <car_init>:
car_init():
C:/Users/DELL/Desktop/01-Car_motion/01-Car_motion/CODE/car_init.c:20
// @return       void
// Sample usage:        car_init(); 
                        //初始化智能车
//-------------------------------------------------------------------------------------------------------------------
void car_init()
{
     dda:	1141                	addi	sp,sp,-16
C:/Users/DELL/Desktop/01-Car_motion/01-Car_motion/CODE/car_init.c:21
	l9110s_init(left);
     ddc:	4501                	li	a0,0
C:/Users/DELL/Desktop/01-Car_motion/01-Car_motion/CODE/car_init.c:20
{
     dde:	c606                	sw	ra,12(sp)
C:/Users/DELL/Desktop/01-Car_motion/01-Car_motion/CODE/car_init.c:21
	l9110s_init(left);
     de0:	dc2ff0ef          	jal	ra,3a2 <l9110s_init>
C:/Users/DELL/Desktop/01-Car_motion/01-Car_motion/CODE/car_init.c:22
	l9110s_init(right);
     de4:	4505                	li	a0,1
     de6:	dbcff0ef          	jal	ra,3a2 <l9110s_init>
C:/Users/DELL/Desktop/01-Car_motion/01-Car_motion/CODE/car_init.c:23
    ws2812b_init();
     dea:	f12ff0ef          	jal	ra,4fc <ws2812b_init>
C:/Users/DELL/Desktop/01-Car_motion/01-Car_motion/CODE/car_init.c:24
    ultrasonic_init(A4, A0);
     dee:	4581                	li	a1,0
     df0:	4511                	li	a0,4
     df2:	e9eff0ef          	jal	ra,490 <ultrasonic_init>
C:/Users/DELL/Desktop/01-Car_motion/01-Car_motion/CODE/car_init.c:25
    tm1637_init();
     df6:	edaff0ef          	jal	ra,4d0 <tm1637_init>
C:/Users/DELL/Desktop/01-Car_motion/01-Car_motion/CODE/car_init.c:26
    gpio_init(A6, GPO, 1, SPEED_50MHZ|OUT_PP);                //初始化蜂鸣器引脚
     dfa:	31000693          	li	a3,784
     dfe:	4605                	li	a2,1
     e00:	4585                	li	a1,1
     e02:	4519                	li	a0,6
     e04:	8f9ff0ef          	jal	ra,6fc <gpio_init>
C:/Users/DELL/Desktop/01-Car_motion/01-Car_motion/CODE/car_init.c:27
    DisableGlobalIRQ();                                         //默认关所有中断
     e08:	3c15                	jal	83c <DisableGlobalIRQ>
C:/Users/DELL/Desktop/01-Car_motion/01-Car_motion/CODE/car_init.c:28
    uart_init(UART_1, 115200U, UART1_TX_A9, UART1_RX_A10);      //配置TYPE-C串行通信接口，用于printf打印数据
     e0a:	65f1                	lui	a1,0x1c
     e0c:	4501                	li	a0,0
     e0e:	4685                	li	a3,1
     e10:	4601                	li	a2,0
     e12:	20058593          	addi	a1,a1,512 # 1c200 <_data_lma+0x1aa68>
     e16:	37b1                	jal	d62 <uart_init>
C:/Users/DELL/Desktop/01-Car_motion/01-Car_motion/CODE/car_init.c:29
    board_init();                                               //务必保留，本函数用于初始化MPU,时钟/调试串口
     e18:	f08ff0ef          	jal	ra,520 <board_init>
C:/Users/DELL/Desktop/01-Car_motion/01-Car_motion/CODE/car_init.c:30
    Delay_Init();
     e1c:	83fff0ef          	jal	ra,65a <Delay_Init>
C:/Users/DELL/Desktop/01-Car_motion/01-Car_motion/CODE/car_init.c:35


    /* 总中断最后开启 */
    EnableGlobalIRQ(0);
}	
     e20:	40b2                	lw	ra,12(sp)
C:/Users/DELL/Desktop/01-Car_motion/01-Car_motion/CODE/car_init.c:34
    EnableGlobalIRQ(0);
     e22:	4501                	li	a0,0
C:/Users/DELL/Desktop/01-Car_motion/01-Car_motion/CODE/car_init.c:35
}	
     e24:	0141                	addi	sp,sp,16
C:/Users/DELL/Desktop/01-Car_motion/01-Car_motion/CODE/car_init.c:34
    EnableGlobalIRQ(0);
     e26:	bcb1                	j	882 <EnableGlobalIRQ>

00000e28 <car_forward>:
car_forward():
C:/Users/DELL/Desktop/01-Car_motion/01-Car_motion/CODE/car_motion.c:20
// @return       void
// Sample usage:        car_forward(); 
                        //智能车前进
//-----------------------------------------------------------------------------------------------------------------
void car_forward(void)
{
     e28:	1141                	addi	sp,sp,-16
     e2a:	c422                	sw	s0,8(sp)
C:/Users/DELL/Desktop/01-Car_motion/01-Car_motion/CODE/car_motion.c:21
    l9110s_forward(left,10000);
     e2c:	6409                	lui	s0,0x2
     e2e:	71040593          	addi	a1,s0,1808 # 2710 <_data_lma+0xf78>
     e32:	4501                	li	a0,0
C:/Users/DELL/Desktop/01-Car_motion/01-Car_motion/CODE/car_motion.c:20
{
     e34:	c606                	sw	ra,12(sp)
C:/Users/DELL/Desktop/01-Car_motion/01-Car_motion/CODE/car_motion.c:21
    l9110s_forward(left,10000);
     e36:	dc0ff0ef          	jal	ra,3f6 <l9110s_forward>
C:/Users/DELL/Desktop/01-Car_motion/01-Car_motion/CODE/car_motion.c:22
    l9110s_forward(right,10000);
     e3a:	71040593          	addi	a1,s0,1808
C:/Users/DELL/Desktop/01-Car_motion/01-Car_motion/CODE/car_motion.c:23
}
     e3e:	4422                	lw	s0,8(sp)
     e40:	40b2                	lw	ra,12(sp)
C:/Users/DELL/Desktop/01-Car_motion/01-Car_motion/CODE/car_motion.c:22
    l9110s_forward(right,10000);
     e42:	4505                	li	a0,1
C:/Users/DELL/Desktop/01-Car_motion/01-Car_motion/CODE/car_motion.c:23
}
     e44:	0141                	addi	sp,sp,16
C:/Users/DELL/Desktop/01-Car_motion/01-Car_motion/CODE/car_motion.c:22
    l9110s_forward(right,10000);
     e46:	db0ff06f          	j	3f6 <l9110s_forward>

00000e4a <car_backward>:
car_backward():
C:/Users/DELL/Desktop/01-Car_motion/01-Car_motion/CODE/car_motion.c:33
// @return       void
// Sample usage:        car_back(); 
                        //智能车后退
//-----------------------------------------------------------------------------------------------------------------
void car_backward(void)
{
     e4a:	1141                	addi	sp,sp,-16
     e4c:	c422                	sw	s0,8(sp)
C:/Users/DELL/Desktop/01-Car_motion/01-Car_motion/CODE/car_motion.c:34
    l9110s_backward(left,10000);
     e4e:	6409                	lui	s0,0x2
     e50:	71040593          	addi	a1,s0,1808 # 2710 <_data_lma+0xf78>
     e54:	4501                	li	a0,0
C:/Users/DELL/Desktop/01-Car_motion/01-Car_motion/CODE/car_motion.c:33
{
     e56:	c606                	sw	ra,12(sp)
C:/Users/DELL/Desktop/01-Car_motion/01-Car_motion/CODE/car_motion.c:34
    l9110s_backward(left,10000);
     e58:	dd0ff0ef          	jal	ra,428 <l9110s_backward>
C:/Users/DELL/Desktop/01-Car_motion/01-Car_motion/CODE/car_motion.c:35
    l9110s_backward(right,10000);
     e5c:	71040593          	addi	a1,s0,1808
C:/Users/DELL/Desktop/01-Car_motion/01-Car_motion/CODE/car_motion.c:36
}
     e60:	4422                	lw	s0,8(sp)
     e62:	40b2                	lw	ra,12(sp)
C:/Users/DELL/Desktop/01-Car_motion/01-Car_motion/CODE/car_motion.c:35
    l9110s_backward(right,10000);
     e64:	4505                	li	a0,1
C:/Users/DELL/Desktop/01-Car_motion/01-Car_motion/CODE/car_motion.c:36
}
     e66:	0141                	addi	sp,sp,16
C:/Users/DELL/Desktop/01-Car_motion/01-Car_motion/CODE/car_motion.c:35
    l9110s_backward(right,10000);
     e68:	dc0ff06f          	j	428 <l9110s_backward>

00000e6c <car_stop>:
car_stop():
C:/Users/DELL/Desktop/01-Car_motion/01-Car_motion/CODE/car_motion.c:46
// @return       void
// Sample usage:        car_stop(); 
                        //智能车停止
//-----------------------------------------------------------------------------------------------------------------
void car_stop(void)
{
     e6c:	1141                	addi	sp,sp,-16
C:/Users/DELL/Desktop/01-Car_motion/01-Car_motion/CODE/car_motion.c:47
    l9110s_forward(left,0);
     e6e:	4581                	li	a1,0
     e70:	4501                	li	a0,0
C:/Users/DELL/Desktop/01-Car_motion/01-Car_motion/CODE/car_motion.c:46
{
     e72:	c606                	sw	ra,12(sp)
C:/Users/DELL/Desktop/01-Car_motion/01-Car_motion/CODE/car_motion.c:47
    l9110s_forward(left,0);
     e74:	d82ff0ef          	jal	ra,3f6 <l9110s_forward>
C:/Users/DELL/Desktop/01-Car_motion/01-Car_motion/CODE/car_motion.c:49
    l9110s_forward(right,0);
}
     e78:	40b2                	lw	ra,12(sp)
C:/Users/DELL/Desktop/01-Car_motion/01-Car_motion/CODE/car_motion.c:48
    l9110s_forward(right,0);
     e7a:	4581                	li	a1,0
     e7c:	4505                	li	a0,1
C:/Users/DELL/Desktop/01-Car_motion/01-Car_motion/CODE/car_motion.c:49
}
     e7e:	0141                	addi	sp,sp,16
C:/Users/DELL/Desktop/01-Car_motion/01-Car_motion/CODE/car_motion.c:48
    l9110s_forward(right,0);
     e80:	d76ff06f          	j	3f6 <l9110s_forward>

00000e84 <car_turnleft>:
car_turnleft():
C:/Users/DELL/Desktop/01-Car_motion/01-Car_motion/CODE/car_motion.c:60
// Sample usage:        car_turnleft(); 
                        //智能车左转
//-----------------------------------------------------------------------------------------------------------------
void car_turnleft(void)
{
    l9110s_forward(left,5000);
     e84:	6585                	lui	a1,0x1
C:/Users/DELL/Desktop/01-Car_motion/01-Car_motion/CODE/car_motion.c:59
{
     e86:	1141                	addi	sp,sp,-16
C:/Users/DELL/Desktop/01-Car_motion/01-Car_motion/CODE/car_motion.c:60
    l9110s_forward(left,5000);
     e88:	38858593          	addi	a1,a1,904 # 1388 <TIM_OC2Init+0x32>
     e8c:	4501                	li	a0,0
C:/Users/DELL/Desktop/01-Car_motion/01-Car_motion/CODE/car_motion.c:59
{
     e8e:	c606                	sw	ra,12(sp)
C:/Users/DELL/Desktop/01-Car_motion/01-Car_motion/CODE/car_motion.c:60
    l9110s_forward(left,5000);
     e90:	d66ff0ef          	jal	ra,3f6 <l9110s_forward>
C:/Users/DELL/Desktop/01-Car_motion/01-Car_motion/CODE/car_motion.c:62
    l9110s_forward(right,10000);
}
     e94:	40b2                	lw	ra,12(sp)
C:/Users/DELL/Desktop/01-Car_motion/01-Car_motion/CODE/car_motion.c:61
    l9110s_forward(right,10000);
     e96:	6589                	lui	a1,0x2
     e98:	71058593          	addi	a1,a1,1808 # 2710 <_data_lma+0xf78>
     e9c:	4505                	li	a0,1
C:/Users/DELL/Desktop/01-Car_motion/01-Car_motion/CODE/car_motion.c:62
}
     e9e:	0141                	addi	sp,sp,16
C:/Users/DELL/Desktop/01-Car_motion/01-Car_motion/CODE/car_motion.c:61
    l9110s_forward(right,10000);
     ea0:	d56ff06f          	j	3f6 <l9110s_forward>

00000ea4 <car_turnright>:
car_turnright():
C:/Users/DELL/Desktop/01-Car_motion/01-Car_motion/CODE/car_motion.c:73
// Sample usage:        car_turnright(); 
                        //智能车右转
//-----------------------------------------------------------------------------------------------------------------
void car_turnright(void)
{
    l9110s_forward(left,10000);
     ea4:	6589                	lui	a1,0x2
C:/Users/DELL/Desktop/01-Car_motion/01-Car_motion/CODE/car_motion.c:72
{
     ea6:	1141                	addi	sp,sp,-16
C:/Users/DELL/Desktop/01-Car_motion/01-Car_motion/CODE/car_motion.c:73
    l9110s_forward(left,10000);
     ea8:	71058593          	addi	a1,a1,1808 # 2710 <_data_lma+0xf78>
     eac:	4501                	li	a0,0
C:/Users/DELL/Desktop/01-Car_motion/01-Car_motion/CODE/car_motion.c:72
{
     eae:	c606                	sw	ra,12(sp)
C:/Users/DELL/Desktop/01-Car_motion/01-Car_motion/CODE/car_motion.c:73
    l9110s_forward(left,10000);
     eb0:	d46ff0ef          	jal	ra,3f6 <l9110s_forward>
C:/Users/DELL/Desktop/01-Car_motion/01-Car_motion/CODE/car_motion.c:75
    l9110s_forward(right,5000);
}
     eb4:	40b2                	lw	ra,12(sp)
C:/Users/DELL/Desktop/01-Car_motion/01-Car_motion/CODE/car_motion.c:74
    l9110s_forward(right,5000);
     eb6:	6585                	lui	a1,0x1
     eb8:	38858593          	addi	a1,a1,904 # 1388 <TIM_OC2Init+0x32>
     ebc:	4505                	li	a0,1
C:/Users/DELL/Desktop/01-Car_motion/01-Car_motion/CODE/car_motion.c:75
}
     ebe:	0141                	addi	sp,sp,16
C:/Users/DELL/Desktop/01-Car_motion/01-Car_motion/CODE/car_motion.c:74
    l9110s_forward(right,5000);
     ec0:	d36ff06f          	j	3f6 <l9110s_forward>

00000ec4 <handle_reset>:
handle_reset():
C:/Users/DELL/Desktop/01-Car_motion/Libraries/Device/CH32V10x_p/Startup/startup_ch32v10x.S:147
	.weak	handle_reset
	.align	1
handle_reset:
.option push 
.option	norelax 
	la gp, __global_pointer$
     ec4:	20000197          	auipc	gp,0x20000
     ec8:	94c18193          	addi	gp,gp,-1716 # 20000810 <__global_pointer$>
C:/Users/DELL/Desktop/01-Car_motion/Libraries/Device/CH32V10x_p/Startup/startup_ch32v10x.S:150
.option	pop 
1:
	la sp, _eusrstack 
     ecc:	20004117          	auipc	sp,0x20004
     ed0:	13410113          	addi	sp,sp,308 # 20005000 <_eusrstack>
C:/Users/DELL/Desktop/01-Car_motion/Libraries/Device/CH32V10x_p/Startup/startup_ch32v10x.S:153
2:
	/* Load data section from flash to RAM */
	la a0, _data_lma
     ed4:	00001517          	auipc	a0,0x1
     ed8:	8c450513          	addi	a0,a0,-1852 # 1798 <_data_lma>
C:/Users/DELL/Desktop/01-Car_motion/Libraries/Device/CH32V10x_p/Startup/startup_ch32v10x.S:154
	la a1, _data_vma
     edc:	1ffff597          	auipc	a1,0x1ffff
     ee0:	12458593          	addi	a1,a1,292 # 20000000 <_data_vma>
C:/Users/DELL/Desktop/01-Car_motion/Libraries/Device/CH32V10x_p/Startup/startup_ch32v10x.S:155
	la a2, _edata
     ee4:	80818613          	addi	a2,gp,-2040 # 20000018 <_edata>
C:/Users/DELL/Desktop/01-Car_motion/Libraries/Device/CH32V10x_p/Startup/startup_ch32v10x.S:156
	bgeu a1, a2, 2f
     ee8:	00c5fa63          	bgeu	a1,a2,efc <handle_reset+0x38>
C:/Users/DELL/Desktop/01-Car_motion/Libraries/Device/CH32V10x_p/Startup/startup_ch32v10x.S:158
1:
	lw t0, (a0)
     eec:	00052283          	lw	t0,0(a0)
C:/Users/DELL/Desktop/01-Car_motion/Libraries/Device/CH32V10x_p/Startup/startup_ch32v10x.S:159
	sw t0, (a1)
     ef0:	0055a023          	sw	t0,0(a1)
C:/Users/DELL/Desktop/01-Car_motion/Libraries/Device/CH32V10x_p/Startup/startup_ch32v10x.S:160
	addi a0, a0, 4
     ef4:	0511                	addi	a0,a0,4
C:/Users/DELL/Desktop/01-Car_motion/Libraries/Device/CH32V10x_p/Startup/startup_ch32v10x.S:161
	addi a1, a1, 4
     ef6:	0591                	addi	a1,a1,4
C:/Users/DELL/Desktop/01-Car_motion/Libraries/Device/CH32V10x_p/Startup/startup_ch32v10x.S:162
	bltu a1, a2, 1b
     ef8:	fec5eae3          	bltu	a1,a2,eec <handle_reset+0x28>
C:/Users/DELL/Desktop/01-Car_motion/Libraries/Device/CH32V10x_p/Startup/startup_ch32v10x.S:165
2:
	/* clear bss section */
	la a0, _sbss
     efc:	80818513          	addi	a0,gp,-2040 # 20000018 <_edata>
C:/Users/DELL/Desktop/01-Car_motion/Libraries/Device/CH32V10x_p/Startup/startup_ch32v10x.S:166
	la a1, _ebss
     f00:	81c18593          	addi	a1,gp,-2020 # 2000002c <_ebss>
C:/Users/DELL/Desktop/01-Car_motion/Libraries/Device/CH32V10x_p/Startup/startup_ch32v10x.S:167
	bgeu a0, a1, 2f
     f04:	00b57763          	bgeu	a0,a1,f12 <handle_reset+0x4e>
C:/Users/DELL/Desktop/01-Car_motion/Libraries/Device/CH32V10x_p/Startup/startup_ch32v10x.S:169
1:
	sw zero, (a0)
     f08:	00052023          	sw	zero,0(a0)
C:/Users/DELL/Desktop/01-Car_motion/Libraries/Device/CH32V10x_p/Startup/startup_ch32v10x.S:170
	addi a0, a0, 4
     f0c:	0511                	addi	a0,a0,4
C:/Users/DELL/Desktop/01-Car_motion/Libraries/Device/CH32V10x_p/Startup/startup_ch32v10x.S:171
	bltu a0, a1, 1b
     f0e:	feb56de3          	bltu	a0,a1,f08 <handle_reset+0x44>
C:/Users/DELL/Desktop/01-Car_motion/Libraries/Device/CH32V10x_p/Startup/startup_ch32v10x.S:174
2:
	/* enable all interrupt */
  li t0, 0x88
     f12:	08800293          	li	t0,136
C:/Users/DELL/Desktop/01-Car_motion/Libraries/Device/CH32V10x_p/Startup/startup_ch32v10x.S:175
  csrs mstatus, t0
     f16:	3002a073          	csrs	mstatus,t0
C:/Users/DELL/Desktop/01-Car_motion/Libraries/Device/CH32V10x_p/Startup/startup_ch32v10x.S:176
	la t0, _vector_base
     f1a:	fffff297          	auipc	t0,0xfffff
     f1e:	11e28293          	addi	t0,t0,286 # 38 <_einit>
C:/Users/DELL/Desktop/01-Car_motion/Libraries/Device/CH32V10x_p/Startup/startup_ch32v10x.S:177
  ori t0, t0, 1
     f22:	0012e293          	ori	t0,t0,1
C:/Users/DELL/Desktop/01-Car_motion/Libraries/Device/CH32V10x_p/Startup/startup_ch32v10x.S:178
	csrw mtvec, t0
     f26:	30529073          	csrw	mtvec,t0
C:/Users/DELL/Desktop/01-Car_motion/Libraries/Device/CH32V10x_p/Startup/startup_ch32v10x.S:180

  jal  SystemInit
     f2a:	e2eff0ef          	jal	ra,558 <SystemInit>
C:/Users/DELL/Desktop/01-Car_motion/Libraries/Device/CH32V10x_p/Startup/startup_ch32v10x.S:181
	la t0, main
     f2e:	fffff297          	auipc	t0,0xfffff
     f32:	42228293          	addi	t0,t0,1058 # 350 <main>
C:/Users/DELL/Desktop/01-Car_motion/Libraries/Device/CH32V10x_p/Startup/startup_ch32v10x.S:182
	csrw mepc, t0
     f36:	34129073          	csrw	mepc,t0
C:/Users/DELL/Desktop/01-Car_motion/Libraries/Device/CH32V10x_p/Startup/startup_ch32v10x.S:183
	mret
     f3a:	30200073          	mret

00000f3e <DMA_GetFlagStatus>:
DMA_GetFlagStatus():
C:/Users/DELL/Desktop/01-Car_motion/Libraries/Device/CH32V10x_p/CH32V10x_Lib/ch32v10x_dma.c:294
FlagStatus DMA_GetFlagStatus(uint32_t DMAy_FLAG)
{
  FlagStatus bitstatus = RESET;
  uint32_t tmpreg = 0;
  
  if ((DMAy_FLAG & FLAG_Mask) != (uint32_t)RESET)
     f3e:	00351793          	slli	a5,a0,0x3
     f42:	0007da63          	bgez	a5,f56 <DMA_GetFlagStatus+0x18>
C:/Users/DELL/Desktop/01-Car_motion/Libraries/Device/CH32V10x_p/CH32V10x_Lib/ch32v10x_dma.c:296
  {
    tmpreg = DMA2->INTFR ;
     f46:	400207b7          	lui	a5,0x40020
     f4a:	4007a783          	lw	a5,1024(a5) # 40020400 <_eusrstack+0x2001b400>
C:/Users/DELL/Desktop/01-Car_motion/Libraries/Device/CH32V10x_p/CH32V10x_Lib/ch32v10x_dma.c:303
  else
  {
    tmpreg = DMA1->INTFR ;
  }

  if ((tmpreg & DMAy_FLAG) != (uint32_t)RESET)
     f4e:	8d7d                	and	a0,a0,a5
C:/Users/DELL/Desktop/01-Car_motion/Libraries/Device/CH32V10x_p/CH32V10x_Lib/ch32v10x_dma.c:313
  {
    bitstatus = RESET;
  }
  
  return  bitstatus;
}
     f50:	00a03533          	snez	a0,a0
     f54:	8082                	ret
C:/Users/DELL/Desktop/01-Car_motion/Libraries/Device/CH32V10x_p/CH32V10x_Lib/ch32v10x_dma.c:300
    tmpreg = DMA1->INTFR ;
     f56:	400207b7          	lui	a5,0x40020
     f5a:	439c                	lw	a5,0(a5)
     f5c:	bfcd                	j	f4e <DMA_GetFlagStatus+0x10>

00000f5e <DMA_ClearFlag>:
DMA_ClearFlag():
C:/Users/DELL/Desktop/01-Car_motion/Libraries/Device/CH32V10x_p/CH32V10x_Lib/ch32v10x_dma.c:372
*                      DMA2_FLAG_TE5: DMA2 Channel5 transfer error flag.
* Return         : None 
*********************************************************************************/
void DMA_ClearFlag(uint32_t DMAy_FLAG)
{
  if ((DMAy_FLAG & FLAG_Mask) != (uint32_t)RESET)
     f5e:	00351793          	slli	a5,a0,0x3
     f62:	0007d763          	bgez	a5,f70 <DMA_ClearFlag+0x12>
C:/Users/DELL/Desktop/01-Car_motion/Libraries/Device/CH32V10x_p/CH32V10x_Lib/ch32v10x_dma.c:374
  {
    DMA2->INTFCR = DMAy_FLAG;
     f66:	400207b7          	lui	a5,0x40020
     f6a:	40a7a223          	sw	a0,1028(a5) # 40020404 <_eusrstack+0x2001b404>
     f6e:	8082                	ret
C:/Users/DELL/Desktop/01-Car_motion/Libraries/Device/CH32V10x_p/CH32V10x_Lib/ch32v10x_dma.c:378
  }
  else
  {
    DMA1->INTFCR = DMAy_FLAG;
     f70:	400207b7          	lui	a5,0x40020
     f74:	c3c8                	sw	a0,4(a5)
C:/Users/DELL/Desktop/01-Car_motion/Libraries/Device/CH32V10x_p/CH32V10x_Lib/ch32v10x_dma.c:380
  }
}
     f76:	8082                	ret

00000f78 <EXTI_Init>:
EXTI_Init():
C:/Users/DELL/Desktop/01-Car_motion/Libraries/Device/CH32V10x_p/CH32V10x_Lib/ch32v10x_exti.c:41
void EXTI_Init(EXTI_InitTypeDef* EXTI_InitStruct)
{
  uint32_t tmp = 0;

  tmp = (uint32_t)EXTI_BASE;
  if (EXTI_InitStruct->EXTI_LineCmd != DISABLE)
     f78:	4158                	lw	a4,4(a0)
     f7a:	00052803          	lw	a6,0(a0)
     f7e:	454c                	lw	a1,12(a0)
     f80:	40010637          	lui	a2,0x40010
     f84:	40060793          	addi	a5,a2,1024 # 40010400 <_eusrstack+0x2000b400>
     f88:	973e                	add	a4,a4,a5
     f8a:	fff84693          	not	a3,a6
     f8e:	c5b1                	beqz	a1,fda <EXTI_Init+0x62>
C:/Users/DELL/Desktop/01-Car_motion/Libraries/Device/CH32V10x_p/CH32V10x_Lib/ch32v10x_exti.c:43
  {
    EXTI->INTENR &= ~EXTI_InitStruct->EXTI_Line;
     f90:	40062583          	lw	a1,1024(a2)
     f94:	8df5                	and	a1,a1,a3
     f96:	40b62023          	sw	a1,1024(a2)
C:/Users/DELL/Desktop/01-Car_motion/Libraries/Device/CH32V10x_p/CH32V10x_Lib/ch32v10x_exti.c:44
    EXTI->EVENR &= ~EXTI_InitStruct->EXTI_Line;
     f9a:	43d0                	lw	a2,4(a5)
     f9c:	8ef1                	and	a3,a3,a2
     f9e:	c3d4                	sw	a3,4(a5)
C:/Users/DELL/Desktop/01-Car_motion/Libraries/Device/CH32V10x_p/CH32V10x_Lib/ch32v10x_exti.c:46
    tmp += EXTI_InitStruct->EXTI_Mode;
    *(__IO uint32_t *) tmp |= EXTI_InitStruct->EXTI_Line;
     fa0:	4314                	lw	a3,0(a4)
     fa2:	0106e6b3          	or	a3,a3,a6
     fa6:	c314                	sw	a3,0(a4)
C:/Users/DELL/Desktop/01-Car_motion/Libraries/Device/CH32V10x_p/CH32V10x_Lib/ch32v10x_exti.c:47
    EXTI->RTENR &= ~EXTI_InitStruct->EXTI_Line;
     fa8:	4118                	lw	a4,0(a0)
     faa:	4790                	lw	a2,8(a5)
     fac:	fff74693          	not	a3,a4
     fb0:	8e75                	and	a2,a2,a3
     fb2:	c790                	sw	a2,8(a5)
C:/Users/DELL/Desktop/01-Car_motion/Libraries/Device/CH32V10x_p/CH32V10x_Lib/ch32v10x_exti.c:48
    EXTI->FTENR &= ~EXTI_InitStruct->EXTI_Line;
     fb4:	47d0                	lw	a2,12(a5)
     fb6:	8ef1                	and	a3,a3,a2
     fb8:	c7d4                	sw	a3,12(a5)
C:/Users/DELL/Desktop/01-Car_motion/Libraries/Device/CH32V10x_p/CH32V10x_Lib/ch32v10x_exti.c:49
    if (EXTI_InitStruct->EXTI_Trigger == EXTI_Trigger_Rising_Falling)
     fba:	4514                	lw	a3,8(a0)
     fbc:	4641                	li	a2,16
     fbe:	00c69963          	bne	a3,a2,fd0 <EXTI_Init+0x58>
C:/Users/DELL/Desktop/01-Car_motion/Libraries/Device/CH32V10x_p/CH32V10x_Lib/ch32v10x_exti.c:51
    {
      EXTI->RTENR |= EXTI_InitStruct->EXTI_Line;
     fc2:	4794                	lw	a3,8(a5)
     fc4:	8ed9                	or	a3,a3,a4
     fc6:	c794                	sw	a3,8(a5)
C:/Users/DELL/Desktop/01-Car_motion/Libraries/Device/CH32V10x_p/CH32V10x_Lib/ch32v10x_exti.c:52
      EXTI->FTENR |= EXTI_InitStruct->EXTI_Line;
     fc8:	47d4                	lw	a3,12(a5)
     fca:	8f55                	or	a4,a4,a3
     fcc:	c7d8                	sw	a4,12(a5)
     fce:	8082                	ret
C:/Users/DELL/Desktop/01-Car_motion/Libraries/Device/CH32V10x_p/CH32V10x_Lib/ch32v10x_exti.c:57
    }
    else
    {
      tmp = (uint32_t)EXTI_BASE;
      tmp += EXTI_InitStruct->EXTI_Trigger;
     fd0:	97b6                	add	a5,a5,a3
C:/Users/DELL/Desktop/01-Car_motion/Libraries/Device/CH32V10x_p/CH32V10x_Lib/ch32v10x_exti.c:58
      *(__IO uint32_t *) tmp |= EXTI_InitStruct->EXTI_Line;
     fd2:	4394                	lw	a3,0(a5)
     fd4:	8f55                	or	a4,a4,a3
     fd6:	c398                	sw	a4,0(a5)
     fd8:	8082                	ret
C:/Users/DELL/Desktop/01-Car_motion/Libraries/Device/CH32V10x_p/CH32V10x_Lib/ch32v10x_exti.c:64
    }
  }
  else
  {
    tmp += EXTI_InitStruct->EXTI_Mode;
    *(__IO uint32_t *) tmp &= ~EXTI_InitStruct->EXTI_Line;
     fda:	431c                	lw	a5,0(a4)
     fdc:	8ff5                	and	a5,a5,a3
     fde:	c31c                	sw	a5,0(a4)
C:/Users/DELL/Desktop/01-Car_motion/Libraries/Device/CH32V10x_p/CH32V10x_Lib/ch32v10x_exti.c:66
  }
}
     fe0:	8082                	ret

00000fe2 <EXTI_GetITStatus>:
EXTI_GetITStatus():
C:/Users/DELL/Desktop/01-Car_motion/Libraries/Device/CH32V10x_p/CH32V10x_Lib/ch32v10x_exti.c:135
ITStatus EXTI_GetITStatus(uint32_t EXTI_Line)
{
  ITStatus bitstatus = RESET;
  uint32_t enablestatus = 0;
  
  enablestatus =  EXTI->INTENR & EXTI_Line;
     fe2:	400107b7          	lui	a5,0x40010
     fe6:	40078713          	addi	a4,a5,1024 # 40010400 <_eusrstack+0x2000b400>
     fea:	4007a783          	lw	a5,1024(a5)
C:/Users/DELL/Desktop/01-Car_motion/Libraries/Device/CH32V10x_p/CH32V10x_Lib/ch32v10x_exti.c:136
  if (((EXTI->INTFR & EXTI_Line) != (uint32_t)RESET) && (enablestatus != (uint32_t)RESET))
     fee:	4b58                	lw	a4,20(a4)
     ff0:	8f69                	and	a4,a4,a0
     ff2:	c709                	beqz	a4,ffc <EXTI_GetITStatus+0x1a>
C:/Users/DELL/Desktop/01-Car_motion/Libraries/Device/CH32V10x_p/CH32V10x_Lib/ch32v10x_exti.c:135 (discriminator 1)
  enablestatus =  EXTI->INTENR & EXTI_Line;
     ff4:	8d7d                	and	a0,a0,a5
C:/Users/DELL/Desktop/01-Car_motion/Libraries/Device/CH32V10x_p/CH32V10x_Lib/ch32v10x_exti.c:136 (discriminator 1)
  if (((EXTI->INTFR & EXTI_Line) != (uint32_t)RESET) && (enablestatus != (uint32_t)RESET))
     ff6:	00a03533          	snez	a0,a0
     ffa:	8082                	ret
C:/Users/DELL/Desktop/01-Car_motion/Libraries/Device/CH32V10x_p/CH32V10x_Lib/ch32v10x_exti.c:142
  {
    bitstatus = SET;
  }
  else
  {
    bitstatus = RESET;
     ffc:	4501                	li	a0,0
C:/Users/DELL/Desktop/01-Car_motion/Libraries/Device/CH32V10x_p/CH32V10x_Lib/ch32v10x_exti.c:145
  }
  return bitstatus;
}
     ffe:	8082                	ret

00001000 <EXTI_ClearITPendingBit>:
EXTI_ClearITPendingBit():
    1000:	400107b7          	lui	a5,0x40010
    1004:	40a7aa23          	sw	a0,1044(a5) # 40010414 <_eusrstack+0x2000b414>
    1008:	8082                	ret

0000100a <GPIO_Init>:
GPIO_Init():
C:/Users/DELL/Desktop/01-Car_motion/Libraries/Device/CH32V10x_p/CH32V10x_Lib/ch32v10x_gpio.c:92
void GPIO_Init(GPIO_TypeDef* GPIOx, GPIO_InitTypeDef* GPIO_InitStruct)
{
  uint32_t currentmode = 0x00, currentpin = 0x00, pinpos = 0x00, pos = 0x00;
  uint32_t tmpreg = 0x00, pinmask = 0x00;

  currentmode = ((uint32_t)GPIO_InitStruct->GPIO_Mode) & ((uint32_t)0x0F);
    100a:	459c                	lw	a5,8(a1)
C:/Users/DELL/Desktop/01-Car_motion/Libraries/Device/CH32V10x_p/CH32V10x_Lib/ch32v10x_gpio.c:94
	
  if ((((uint32_t)GPIO_InitStruct->GPIO_Mode) & ((uint32_t)0x10)) != 0x00)
    100c:	0107f713          	andi	a4,a5,16
C:/Users/DELL/Desktop/01-Car_motion/Libraries/Device/CH32V10x_p/CH32V10x_Lib/ch32v10x_gpio.c:92
  currentmode = ((uint32_t)GPIO_InitStruct->GPIO_Mode) & ((uint32_t)0x0F);
    1010:	00f7f813          	andi	a6,a5,15
C:/Users/DELL/Desktop/01-Car_motion/Libraries/Device/CH32V10x_p/CH32V10x_Lib/ch32v10x_gpio.c:94
  if ((((uint32_t)GPIO_InitStruct->GPIO_Mode) & ((uint32_t)0x10)) != 0x00)
    1014:	c701                	beqz	a4,101c <GPIO_Init+0x12>
C:/Users/DELL/Desktop/01-Car_motion/Libraries/Device/CH32V10x_p/CH32V10x_Lib/ch32v10x_gpio.c:96
  { 
    currentmode |= (uint32_t)GPIO_InitStruct->GPIO_Speed;
    1016:	41d8                	lw	a4,4(a1)
    1018:	00e86833          	or	a6,a6,a4
C:/Users/DELL/Desktop/01-Car_motion/Libraries/Device/CH32V10x_p/CH32V10x_Lib/ch32v10x_gpio.c:99
  }

  if (((uint32_t)GPIO_InitStruct->GPIO_Pin & ((uint32_t)0x00FF)) != 0x00)
    101c:	0005d583          	lhu	a1,0(a1)
    1020:	0ff5f713          	andi	a4,a1,255
    1024:	c339                	beqz	a4,106a <GPIO_Init+0x60>
C:/Users/DELL/Desktop/01-Car_motion/Libraries/Device/CH32V10x_p/CH32V10x_Lib/ch32v10x_gpio.c:101
  {
    tmpreg = GPIOx->CFGLR;
    1026:	4118                	lw	a4,0(a0)
C:/Users/DELL/Desktop/01-Car_motion/Libraries/Device/CH32V10x_p/CH32V10x_Lib/ch32v10x_gpio.c:103
		
    for (pinpos = 0x00; pinpos < 0x08; pinpos++)
    1028:	4681                	li	a3,0
C:/Users/DELL/Desktop/01-Car_motion/Libraries/Device/CH32V10x_p/CH32V10x_Lib/ch32v10x_gpio.c:105
    {
      pos = ((uint32_t)0x01) << pinpos;
    102a:	4e85                	li	t4,1
C:/Users/DELL/Desktop/01-Car_motion/Libraries/Device/CH32V10x_p/CH32V10x_Lib/ch32v10x_gpio.c:111
      currentpin = (GPIO_InitStruct->GPIO_Pin) & pos;
			
      if (currentpin == pos)
      {
        pos = pinpos << 2;
        pinmask = ((uint32_t)0x0F) << pos;
    102c:	4f3d                	li	t5,15
C:/Users/DELL/Desktop/01-Car_motion/Libraries/Device/CH32V10x_p/CH32V10x_Lib/ch32v10x_gpio.c:115
        tmpreg &= ~pinmask;
        tmpreg |= (currentmode << pos);

        if (GPIO_InitStruct->GPIO_Mode == GPIO_Mode_IPD)
    102e:	02800f93          	li	t6,40
C:/Users/DELL/Desktop/01-Car_motion/Libraries/Device/CH32V10x_p/CH32V10x_Lib/ch32v10x_gpio.c:121
        {
          GPIOx->BCR = (((uint32_t)0x01) << pinpos);
        }
        else
        {
          if (GPIO_InitStruct->GPIO_Mode == GPIO_Mode_IPU)
    1032:	04800293          	li	t0,72
C:/Users/DELL/Desktop/01-Car_motion/Libraries/Device/CH32V10x_p/CH32V10x_Lib/ch32v10x_gpio.c:103
    for (pinpos = 0x00; pinpos < 0x08; pinpos++)
    1036:	4e21                	li	t3,8
C:/Users/DELL/Desktop/01-Car_motion/Libraries/Device/CH32V10x_p/CH32V10x_Lib/ch32v10x_gpio.c:105
      pos = ((uint32_t)0x01) << pinpos;
    1038:	00de9633          	sll	a2,t4,a3
C:/Users/DELL/Desktop/01-Car_motion/Libraries/Device/CH32V10x_p/CH32V10x_Lib/ch32v10x_gpio.c:106
      currentpin = (GPIO_InitStruct->GPIO_Pin) & pos;
    103c:	00c5f8b3          	and	a7,a1,a2
C:/Users/DELL/Desktop/01-Car_motion/Libraries/Device/CH32V10x_p/CH32V10x_Lib/ch32v10x_gpio.c:108
      if (currentpin == pos)
    1040:	03161163          	bne	a2,a7,1062 <GPIO_Init+0x58>
C:/Users/DELL/Desktop/01-Car_motion/Libraries/Device/CH32V10x_p/CH32V10x_Lib/ch32v10x_gpio.c:110
        pos = pinpos << 2;
    1044:	00269893          	slli	a7,a3,0x2
C:/Users/DELL/Desktop/01-Car_motion/Libraries/Device/CH32V10x_p/CH32V10x_Lib/ch32v10x_gpio.c:111
        pinmask = ((uint32_t)0x0F) << pos;
    1048:	011f1333          	sll	t1,t5,a7
C:/Users/DELL/Desktop/01-Car_motion/Libraries/Device/CH32V10x_p/CH32V10x_Lib/ch32v10x_gpio.c:112
        tmpreg &= ~pinmask;
    104c:	fff34313          	not	t1,t1
    1050:	00e37733          	and	a4,t1,a4
C:/Users/DELL/Desktop/01-Car_motion/Libraries/Device/CH32V10x_p/CH32V10x_Lib/ch32v10x_gpio.c:113
        tmpreg |= (currentmode << pos);
    1054:	011818b3          	sll	a7,a6,a7
    1058:	00e8e733          	or	a4,a7,a4
C:/Users/DELL/Desktop/01-Car_motion/Libraries/Device/CH32V10x_p/CH32V10x_Lib/ch32v10x_gpio.c:115
        if (GPIO_InitStruct->GPIO_Mode == GPIO_Mode_IPD)
    105c:	05f79f63          	bne	a5,t6,10ba <GPIO_Init+0xb0>
C:/Users/DELL/Desktop/01-Car_motion/Libraries/Device/CH32V10x_p/CH32V10x_Lib/ch32v10x_gpio.c:117
          GPIOx->BCR = (((uint32_t)0x01) << pinpos);
    1060:	c950                	sw	a2,20(a0)
C:/Users/DELL/Desktop/01-Car_motion/Libraries/Device/CH32V10x_p/CH32V10x_Lib/ch32v10x_gpio.c:103 (discriminator 2)
    for (pinpos = 0x00; pinpos < 0x08; pinpos++)
    1062:	0685                	addi	a3,a3,1
    1064:	fdc69ae3          	bne	a3,t3,1038 <GPIO_Init+0x2e>
C:/Users/DELL/Desktop/01-Car_motion/Libraries/Device/CH32V10x_p/CH32V10x_Lib/ch32v10x_gpio.c:128
            GPIOx->BSHR = (((uint32_t)0x01) << pinpos);
          }
        }
      }
    }
    GPIOx->CFGLR = tmpreg;
    1068:	c118                	sw	a4,0(a0)
C:/Users/DELL/Desktop/01-Car_motion/Libraries/Device/CH32V10x_p/CH32V10x_Lib/ch32v10x_gpio.c:131
  }

  if (GPIO_InitStruct->GPIO_Pin > 0x00FF)
    106a:	0ff00713          	li	a4,255
    106e:	04b77563          	bgeu	a4,a1,10b8 <GPIO_Init+0xae>
C:/Users/DELL/Desktop/01-Car_motion/Libraries/Device/CH32V10x_p/CH32V10x_Lib/ch32v10x_gpio.c:133
  {
    tmpreg = GPIOx->CFGHR;
    1072:	4154                	lw	a3,4(a0)
    1074:	4621                	li	a2,8
C:/Users/DELL/Desktop/01-Car_motion/Libraries/Device/CH32V10x_p/CH32V10x_Lib/ch32v10x_gpio.c:137
		
    for (pinpos = 0x00; pinpos < 0x08; pinpos++)
    {
      pos = (((uint32_t)0x01) << (pinpos + 0x08));
    1076:	4e85                	li	t4,1
C:/Users/DELL/Desktop/01-Car_motion/Libraries/Device/CH32V10x_p/CH32V10x_Lib/ch32v10x_gpio.c:143
      currentpin = ((GPIO_InitStruct->GPIO_Pin) & pos);
			
      if (currentpin == pos)
      {
        pos = pinpos << 2;
        pinmask = ((uint32_t)0x0F) << pos;
    1078:	4f3d                	li	t5,15
C:/Users/DELL/Desktop/01-Car_motion/Libraries/Device/CH32V10x_p/CH32V10x_Lib/ch32v10x_gpio.c:147
        tmpreg &= ~pinmask;
        tmpreg |= (currentmode << pos);

        if (GPIO_InitStruct->GPIO_Mode == GPIO_Mode_IPD)
    107a:	02800f93          	li	t6,40
C:/Users/DELL/Desktop/01-Car_motion/Libraries/Device/CH32V10x_p/CH32V10x_Lib/ch32v10x_gpio.c:152
        {
          GPIOx->BCR = (((uint32_t)0x01) << (pinpos + 0x08));
        }

        if (GPIO_InitStruct->GPIO_Mode == GPIO_Mode_IPU)
    107e:	04800293          	li	t0,72
C:/Users/DELL/Desktop/01-Car_motion/Libraries/Device/CH32V10x_p/CH32V10x_Lib/ch32v10x_gpio.c:135
    for (pinpos = 0x00; pinpos < 0x08; pinpos++)
    1082:	4e41                	li	t3,16
C:/Users/DELL/Desktop/01-Car_motion/Libraries/Device/CH32V10x_p/CH32V10x_Lib/ch32v10x_gpio.c:137
      pos = (((uint32_t)0x01) << (pinpos + 0x08));
    1084:	00ce98b3          	sll	a7,t4,a2
C:/Users/DELL/Desktop/01-Car_motion/Libraries/Device/CH32V10x_p/CH32V10x_Lib/ch32v10x_gpio.c:138
      currentpin = ((GPIO_InitStruct->GPIO_Pin) & pos);
    1088:	0115f733          	and	a4,a1,a7
C:/Users/DELL/Desktop/01-Car_motion/Libraries/Device/CH32V10x_p/CH32V10x_Lib/ch32v10x_gpio.c:140
      if (currentpin == pos)
    108c:	02e89263          	bne	a7,a4,10b0 <GPIO_Init+0xa6>
C:/Users/DELL/Desktop/01-Car_motion/Libraries/Device/CH32V10x_p/CH32V10x_Lib/ch32v10x_gpio.c:142
        pos = pinpos << 2;
    1090:	00261713          	slli	a4,a2,0x2
    1094:	1701                	addi	a4,a4,-32
C:/Users/DELL/Desktop/01-Car_motion/Libraries/Device/CH32V10x_p/CH32V10x_Lib/ch32v10x_gpio.c:143
        pinmask = ((uint32_t)0x0F) << pos;
    1096:	00ef1333          	sll	t1,t5,a4
C:/Users/DELL/Desktop/01-Car_motion/Libraries/Device/CH32V10x_p/CH32V10x_Lib/ch32v10x_gpio.c:144
        tmpreg &= ~pinmask;
    109a:	fff34313          	not	t1,t1
    109e:	00d376b3          	and	a3,t1,a3
C:/Users/DELL/Desktop/01-Car_motion/Libraries/Device/CH32V10x_p/CH32V10x_Lib/ch32v10x_gpio.c:145
        tmpreg |= (currentmode << pos);
    10a2:	00e81733          	sll	a4,a6,a4
    10a6:	8ed9                	or	a3,a3,a4
C:/Users/DELL/Desktop/01-Car_motion/Libraries/Device/CH32V10x_p/CH32V10x_Lib/ch32v10x_gpio.c:147
        if (GPIO_InitStruct->GPIO_Mode == GPIO_Mode_IPD)
    10a8:	01f79d63          	bne	a5,t6,10c2 <GPIO_Init+0xb8>
C:/Users/DELL/Desktop/01-Car_motion/Libraries/Device/CH32V10x_p/CH32V10x_Lib/ch32v10x_gpio.c:149
          GPIOx->BCR = (((uint32_t)0x01) << (pinpos + 0x08));
    10ac:	01152a23          	sw	a7,20(a0)
C:/Users/DELL/Desktop/01-Car_motion/Libraries/Device/CH32V10x_p/CH32V10x_Lib/ch32v10x_gpio.c:152
        if (GPIO_InitStruct->GPIO_Mode == GPIO_Mode_IPU)
    10b0:	0605                	addi	a2,a2,1
C:/Users/DELL/Desktop/01-Car_motion/Libraries/Device/CH32V10x_p/CH32V10x_Lib/ch32v10x_gpio.c:135 (discriminator 2)
    for (pinpos = 0x00; pinpos < 0x08; pinpos++)
    10b2:	fdc619e3          	bne	a2,t3,1084 <GPIO_Init+0x7a>
C:/Users/DELL/Desktop/01-Car_motion/Libraries/Device/CH32V10x_p/CH32V10x_Lib/ch32v10x_gpio.c:158
        {
          GPIOx->BSHR = (((uint32_t)0x01) << (pinpos + 0x08));
        }
      }
    }
    GPIOx->CFGHR = tmpreg;
    10b6:	c154                	sw	a3,4(a0)
C:/Users/DELL/Desktop/01-Car_motion/Libraries/Device/CH32V10x_p/CH32V10x_Lib/ch32v10x_gpio.c:160
  }
}
    10b8:	8082                	ret
C:/Users/DELL/Desktop/01-Car_motion/Libraries/Device/CH32V10x_p/CH32V10x_Lib/ch32v10x_gpio.c:121
          if (GPIO_InitStruct->GPIO_Mode == GPIO_Mode_IPU)
    10ba:	fa5794e3          	bne	a5,t0,1062 <GPIO_Init+0x58>
C:/Users/DELL/Desktop/01-Car_motion/Libraries/Device/CH32V10x_p/CH32V10x_Lib/ch32v10x_gpio.c:123
            GPIOx->BSHR = (((uint32_t)0x01) << pinpos);
    10be:	c910                	sw	a2,16(a0)
    10c0:	b74d                	j	1062 <GPIO_Init+0x58>
C:/Users/DELL/Desktop/01-Car_motion/Libraries/Device/CH32V10x_p/CH32V10x_Lib/ch32v10x_gpio.c:152
        if (GPIO_InitStruct->GPIO_Mode == GPIO_Mode_IPU)
    10c2:	fe5797e3          	bne	a5,t0,10b0 <GPIO_Init+0xa6>
C:/Users/DELL/Desktop/01-Car_motion/Libraries/Device/CH32V10x_p/CH32V10x_Lib/ch32v10x_gpio.c:154
          GPIOx->BSHR = (((uint32_t)0x01) << (pinpos + 0x08));
    10c6:	01152823          	sw	a7,16(a0)
    10ca:	b7dd                	j	10b0 <GPIO_Init+0xa6>

000010cc <GPIO_WriteBit>:
GPIO_WriteBit():
C:/Users/DELL/Desktop/01-Car_motion/Libraries/Device/CH32V10x_p/CH32V10x_Lib/ch32v10x_gpio.c:283
*                    Bit_SetH: to set the port pin.                  
* Return         : None
*******************************************************************************/
void GPIO_WriteBit(GPIO_TypeDef* GPIOx, uint16_t GPIO_Pin, BitAction BitVal)
{
  if (BitVal != Bit_RESET)
    10cc:	c219                	beqz	a2,10d2 <GPIO_WriteBit+0x6>
C:/Users/DELL/Desktop/01-Car_motion/Libraries/Device/CH32V10x_p/CH32V10x_Lib/ch32v10x_gpio.c:285
  {
    GPIOx->BSHR = GPIO_Pin;
    10ce:	c90c                	sw	a1,16(a0)
    10d0:	8082                	ret
C:/Users/DELL/Desktop/01-Car_motion/Libraries/Device/CH32V10x_p/CH32V10x_Lib/ch32v10x_gpio.c:289
  }
  else
  {
    GPIOx->BCR = GPIO_Pin;
    10d2:	c94c                	sw	a1,20(a0)
C:/Users/DELL/Desktop/01-Car_motion/Libraries/Device/CH32V10x_p/CH32V10x_Lib/ch32v10x_gpio.c:291
  }
}
    10d4:	8082                	ret

000010d6 <GPIO_EXTILineConfig>:
GPIO_EXTILineConfig():
C:/Users/DELL/Desktop/01-Car_motion/Libraries/Device/CH32V10x_p/CH32V10x_Lib/ch32v10x_gpio.c:462
*******************************************************************************/
void GPIO_EXTILineConfig(uint8_t GPIO_PortSource, uint8_t GPIO_PinSource)
{
  uint32_t tmp = 0x00;

  tmp = ((uint32_t)0x0F) << (0x04 * (GPIO_PinSource & (uint8_t)0x03));
    10d6:	0fc5f713          	andi	a4,a1,252
    10da:	0035f793          	andi	a5,a1,3
    10de:	400105b7          	lui	a1,0x40010
    10e2:	95ba                	add	a1,a1,a4
C:/Users/DELL/Desktop/01-Car_motion/Libraries/Device/CH32V10x_p/CH32V10x_Lib/ch32v10x_gpio.c:463
  AFIO->EXTICR[GPIO_PinSource >> 0x02] &= ~tmp;
    10e4:	4594                	lw	a3,8(a1)
C:/Users/DELL/Desktop/01-Car_motion/Libraries/Device/CH32V10x_p/CH32V10x_Lib/ch32v10x_gpio.c:462
  tmp = ((uint32_t)0x0F) << (0x04 * (GPIO_PinSource & (uint8_t)0x03));
    10e6:	078a                	slli	a5,a5,0x2
    10e8:	473d                	li	a4,15
    10ea:	00f71733          	sll	a4,a4,a5
C:/Users/DELL/Desktop/01-Car_motion/Libraries/Device/CH32V10x_p/CH32V10x_Lib/ch32v10x_gpio.c:463
  AFIO->EXTICR[GPIO_PinSource >> 0x02] &= ~tmp;
    10ee:	fff74713          	not	a4,a4
    10f2:	8f75                	and	a4,a4,a3
    10f4:	c598                	sw	a4,8(a1)
C:/Users/DELL/Desktop/01-Car_motion/Libraries/Device/CH32V10x_p/CH32V10x_Lib/ch32v10x_gpio.c:464
  AFIO->EXTICR[GPIO_PinSource >> 0x02] |= (((uint32_t)GPIO_PortSource) << (0x04 * (GPIO_PinSource & (uint8_t)0x03)));
    10f6:	4598                	lw	a4,8(a1)
    10f8:	00f51533          	sll	a0,a0,a5
    10fc:	8d59                	or	a0,a0,a4
    10fe:	c588                	sw	a0,8(a1)
C:/Users/DELL/Desktop/01-Car_motion/Libraries/Device/CH32V10x_p/CH32V10x_Lib/ch32v10x_gpio.c:465
}
    1100:	8082                	ret

00001102 <NVIC_Init>:
NVIC_Init():
C:/Users/DELL/Desktop/01-Car_motion/Libraries/Device/CH32V10x_p/CH32V10x_Lib/ch32v10x_misc.c:47
*******************************************************************************************/
void NVIC_Init(NVIC_InitTypeDef* NVIC_InitStruct)
{
	//uint8_t tmppre = 0;

	if((PFIC->CFGR&(1<<1)) != 0)                    //中断嵌套标志位：1为关闭
    1102:	e000e737          	lui	a4,0xe000e
    1106:	473c                	lw	a5,72(a4)
    1108:	00054683          	lbu	a3,0(a0)
    110c:	8b89                	andi	a5,a5,2
    110e:	cb85                	beqz	a5,113e <NVIC_Init+0x3c>
C:/Users/DELL/Desktop/01-Car_motion/Libraries/Device/CH32V10x_p/CH32V10x_Lib/ch32v10x_misc.c:49
	{
		NVIC_SetPriority( NVIC_InitStruct->NVIC_IRQChannel, NVIC_InitStruct->NVIC_IRQChannelSubPriority<<4);
    1110:	00254783          	lbu	a5,2(a0)
NVIC_SetPriority():
C:\Users\DELL\Desktop\01-Car_motion\Libraries\Device\Core/core_riscv.h:209
*                            bit6-bit4: subpriority
* Return         : None
*******************************************************************************/
RV_STATIC_INLINE void NVIC_SetPriority(IRQn_Type IRQn, uint8_t priority)
{
  NVIC->IPRIOR[(uint32_t)(IRQn)] = priority;
    1114:	9736                	add	a4,a4,a3
NVIC_Init():
C:/Users/DELL/Desktop/01-Car_motion/Libraries/Device/CH32V10x_p/CH32V10x_Lib/ch32v10x_misc.c:49
    1116:	0792                	slli	a5,a5,0x4
    1118:	0ff7f793          	andi	a5,a5,255
NVIC_SetPriority():
C:\Users\DELL\Desktop\01-Car_motion\Libraries\Device\Core/core_riscv.h:209
    111c:	40f70023          	sb	a5,1024(a4) # e000e400 <_eusrstack+0xc0009400>
NVIC_Init():
C:/Users/DELL/Desktop/01-Car_motion/Libraries/Device/CH32V10x_p/CH32V10x_Lib/ch32v10x_misc.c:93
//	else if(NVIC_Priority_Group == NVIC_PriorityGroup_4)
//	{
//		NVIC_SetPriority( NVIC_InitStruct->NVIC_IRQChannel, NVIC_InitStruct->NVIC_IRQChannelPreemptionPriority<<4);
//	}

  if (NVIC_InitStruct->NVIC_IRQChannelCmd != DISABLE)
    1120:	4705                	li	a4,1
    1122:	0056d793          	srli	a5,a3,0x5
    1126:	00d71733          	sll	a4,a4,a3
    112a:	4154                	lw	a3,4(a0)
    112c:	ca95                	beqz	a3,1160 <NVIC_Init+0x5e>
NVIC_EnableIRQ():
C:\Users\DELL\Desktop\01-Car_motion\Libraries\Device\Core/core_riscv.h:127
  NVIC->IENR[((uint32_t)(IRQn) >> 5)] = (1 << ((uint32_t)(IRQn) & 0x1F));
    112e:	04078793          	addi	a5,a5,64
NVIC_DisableIRQ():
C:\Users\DELL\Desktop\01-Car_motion\Libraries\Device\Core/core_riscv.h:138
  NVIC->IRER[((uint32_t)(IRQn) >> 5)] = (1 << ((uint32_t)(IRQn) & 0x1F));
    1132:	078a                	slli	a5,a5,0x2
    1134:	e000e6b7          	lui	a3,0xe000e
    1138:	97b6                	add	a5,a5,a3
    113a:	c398                	sw	a4,0(a5)
NVIC_Init():
C:/Users/DELL/Desktop/01-Car_motion/Libraries/Device/CH32V10x_p/CH32V10x_Lib/ch32v10x_misc.c:101
  }
  else
  {
  	NVIC_DisableIRQ(NVIC_InitStruct->NVIC_IRQChannel);
  }
}
    113c:	8082                	ret
C:/Users/DELL/Desktop/01-Car_motion/Libraries/Device/CH32V10x_p/CH32V10x_Lib/ch32v10x_misc.c:51
	else if((PFIC->CFGR&(1<<1)) == 0)               //中断嵌套标志位：0为打开
    113e:	473c                	lw	a5,72(a4)
    1140:	8b89                	andi	a5,a5,2
    1142:	fff9                	bnez	a5,1120 <NVIC_Init+0x1e>
C:/Users/DELL/Desktop/01-Car_motion/Libraries/Device/CH32V10x_p/CH32V10x_Lib/ch32v10x_misc.c:53
        if(NVIC_InitStruct->NVIC_IRQChannelPreemptionPriority == 1)
    1144:	00254783          	lbu	a5,2(a0)
    1148:	00154583          	lbu	a1,1(a0)
    114c:	4605                	li	a2,1
    114e:	9736                	add	a4,a4,a3
    1150:	0792                	slli	a5,a5,0x4
    1152:	00c59463          	bne	a1,a2,115a <NVIC_Init+0x58>
C:/Users/DELL/Desktop/01-Car_motion/Libraries/Device/CH32V10x_p/CH32V10x_Lib/ch32v10x_misc.c:55
            NVIC_SetPriority( NVIC_InitStruct->NVIC_IRQChannel, (1<<7)|(NVIC_InitStruct->NVIC_IRQChannelSubPriority<<4));
    1156:	f807e793          	ori	a5,a5,-128
C:/Users/DELL/Desktop/01-Car_motion/Libraries/Device/CH32V10x_p/CH32V10x_Lib/ch32v10x_misc.c:59
            NVIC_SetPriority( NVIC_InitStruct->NVIC_IRQChannel, (0<<7)|(NVIC_InitStruct->NVIC_IRQChannelSubPriority<<4));
    115a:	0ff7f793          	andi	a5,a5,255
    115e:	bf7d                	j	111c <NVIC_Init+0x1a>
NVIC_DisableIRQ():
C:\Users\DELL\Desktop\01-Car_motion\Libraries\Device\Core/core_riscv.h:138
    1160:	06078793          	addi	a5,a5,96
    1164:	b7f9                	j	1132 <NVIC_Init+0x30>

00001166 <RCC_GetClocksFreq>:
RCC_GetClocksFreq():
C:/Users/DELL/Desktop/01-Car_motion/Libraries/Device/CH32V10x_p/CH32V10x_Lib/ch32v10x_rcc.c:472
********************************************************************************/
void RCC_GetClocksFreq(RCC_ClocksTypeDef* RCC_Clocks)
{
  uint32_t tmp = 0, pllmull = 0, pllsource = 0, presc = 0;
  
  tmp = RCC->CFGR0 & CFGR0_SWS_Mask;
    1166:	40021737          	lui	a4,0x40021
    116a:	435c                	lw	a5,4(a4)
    116c:	4691                	li	a3,4
    116e:	8bb1                	andi	a5,a5,12
C:/Users/DELL/Desktop/01-Car_motion/Libraries/Device/CH32V10x_p/CH32V10x_Lib/ch32v10x_rcc.c:474
  
  switch (tmp)
    1170:	00d78563          	beq	a5,a3,117a <RCC_GetClocksFreq+0x14>
    1174:	46a1                	li	a3,8
    1176:	06d78863          	beq	a5,a3,11e6 <RCC_GetClocksFreq+0x80>
C:/Users/DELL/Desktop/01-Car_motion/Libraries/Device/CH32V10x_p/CH32V10x_Lib/ch32v10x_rcc.c:477
  {
    case 0x00: 
      RCC_Clocks->SYSCLK_Frequency = HSI_VALUE;
    117a:	007a17b7          	lui	a5,0x7a1
    117e:	20078793          	addi	a5,a5,512 # 7a1200 <_data_lma+0x79fa68>
C:/Users/DELL/Desktop/01-Car_motion/Libraries/Device/CH32V10x_p/CH32V10x_Lib/ch32v10x_rcc.c:501
        {
          RCC_Clocks->SYSCLK_Frequency = (HSE_VALUE >> 1) * pllmull;
        }
        else
        {
          RCC_Clocks->SYSCLK_Frequency = HSE_VALUE * pllmull;
    1182:	c11c                	sw	a5,0(a0)
C:/Users/DELL/Desktop/01-Car_motion/Libraries/Device/CH32V10x_p/CH32V10x_Lib/ch32v10x_rcc.c:511
    default:
      RCC_Clocks->SYSCLK_Frequency = HSI_VALUE;
      break;
  }

  tmp = RCC->CFGR0 & CFGR0_HPRE_Set_Mask;
    1184:	40021637          	lui	a2,0x40021
    1188:	425c                	lw	a5,4(a2)
C:/Users/DELL/Desktop/01-Car_motion/Libraries/Device/CH32V10x_p/CH32V10x_Lib/ch32v10x_rcc.c:513
  tmp = tmp >> 4;
  presc = APBAHBPrescTable[tmp];
    118a:	20000737          	lui	a4,0x20000
    118e:	00070713          	mv	a4,a4
C:/Users/DELL/Desktop/01-Car_motion/Libraries/Device/CH32V10x_p/CH32V10x_Lib/ch32v10x_rcc.c:512
  tmp = tmp >> 4;
    1192:	8391                	srli	a5,a5,0x4
    1194:	8bbd                	andi	a5,a5,15
C:/Users/DELL/Desktop/01-Car_motion/Libraries/Device/CH32V10x_p/CH32V10x_Lib/ch32v10x_rcc.c:513
  presc = APBAHBPrescTable[tmp];
    1196:	97ba                	add	a5,a5,a4
    1198:	0007c683          	lbu	a3,0(a5)
C:/Users/DELL/Desktop/01-Car_motion/Libraries/Device/CH32V10x_p/CH32V10x_Lib/ch32v10x_rcc.c:514
  RCC_Clocks->HCLK_Frequency = RCC_Clocks->SYSCLK_Frequency >> presc;
    119c:	411c                	lw	a5,0(a0)
    119e:	00d7d7b3          	srl	a5,a5,a3
    11a2:	c15c                	sw	a5,4(a0)
C:/Users/DELL/Desktop/01-Car_motion/Libraries/Device/CH32V10x_p/CH32V10x_Lib/ch32v10x_rcc.c:515
  tmp = RCC->CFGR0 & CFGR0_PPRE1_Set_Mask;
    11a4:	4254                	lw	a3,4(a2)
C:/Users/DELL/Desktop/01-Car_motion/Libraries/Device/CH32V10x_p/CH32V10x_Lib/ch32v10x_rcc.c:516
  tmp = tmp >> 8;
    11a6:	82a1                	srli	a3,a3,0x8
    11a8:	8a9d                	andi	a3,a3,7
C:/Users/DELL/Desktop/01-Car_motion/Libraries/Device/CH32V10x_p/CH32V10x_Lib/ch32v10x_rcc.c:517
  presc = APBAHBPrescTable[tmp];
    11aa:	96ba                	add	a3,a3,a4
    11ac:	0006c683          	lbu	a3,0(a3) # e000e000 <_eusrstack+0xc0009000>
C:/Users/DELL/Desktop/01-Car_motion/Libraries/Device/CH32V10x_p/CH32V10x_Lib/ch32v10x_rcc.c:518
  RCC_Clocks->PCLK1_Frequency = RCC_Clocks->HCLK_Frequency >> presc;
    11b0:	00d7d6b3          	srl	a3,a5,a3
    11b4:	c514                	sw	a3,8(a0)
C:/Users/DELL/Desktop/01-Car_motion/Libraries/Device/CH32V10x_p/CH32V10x_Lib/ch32v10x_rcc.c:519
  tmp = RCC->CFGR0 & CFGR0_PPRE2_Set_Mask;
    11b6:	4254                	lw	a3,4(a2)
C:/Users/DELL/Desktop/01-Car_motion/Libraries/Device/CH32V10x_p/CH32V10x_Lib/ch32v10x_rcc.c:520
  tmp = tmp >> 11;
    11b8:	82ad                	srli	a3,a3,0xb
    11ba:	8a9d                	andi	a3,a3,7
C:/Users/DELL/Desktop/01-Car_motion/Libraries/Device/CH32V10x_p/CH32V10x_Lib/ch32v10x_rcc.c:521
  presc = APBAHBPrescTable[tmp];
    11bc:	9736                	add	a4,a4,a3
    11be:	00074703          	lbu	a4,0(a4) # 20000000 <_data_vma>
C:/Users/DELL/Desktop/01-Car_motion/Libraries/Device/CH32V10x_p/CH32V10x_Lib/ch32v10x_rcc.c:522
  RCC_Clocks->PCLK2_Frequency = RCC_Clocks->HCLK_Frequency >> presc;
    11c2:	00e7d7b3          	srl	a5,a5,a4
    11c6:	c55c                	sw	a5,12(a0)
C:/Users/DELL/Desktop/01-Car_motion/Libraries/Device/CH32V10x_p/CH32V10x_Lib/ch32v10x_rcc.c:523
  tmp = RCC->CFGR0 & CFGR0_ADCPRE_Set_Mask;
    11c8:	4258                	lw	a4,4(a2)
C:/Users/DELL/Desktop/01-Car_motion/Libraries/Device/CH32V10x_p/CH32V10x_Lib/ch32v10x_rcc.c:524
  tmp = tmp >> 14;
    11ca:	8339                	srli	a4,a4,0xe
    11cc:	00377693          	andi	a3,a4,3
C:/Users/DELL/Desktop/01-Car_motion/Libraries/Device/CH32V10x_p/CH32V10x_Lib/ch32v10x_rcc.c:525
  presc = ADCPrescTable[tmp];
    11d0:	20000737          	lui	a4,0x20000
    11d4:	01070713          	addi	a4,a4,16 # 20000010 <ADCPrescTable>
    11d8:	9736                	add	a4,a4,a3
    11da:	00074703          	lbu	a4,0(a4)
C:/Users/DELL/Desktop/01-Car_motion/Libraries/Device/CH32V10x_p/CH32V10x_Lib/ch32v10x_rcc.c:526
  RCC_Clocks->ADCCLK_Frequency = RCC_Clocks->PCLK2_Frequency / presc;
    11de:	02e7d7b3          	divu	a5,a5,a4
    11e2:	c91c                	sw	a5,16(a0)
C:/Users/DELL/Desktop/01-Car_motion/Libraries/Device/CH32V10x_p/CH32V10x_Lib/ch32v10x_rcc.c:527
}
    11e4:	8082                	ret
C:/Users/DELL/Desktop/01-Car_motion/Libraries/Device/CH32V10x_p/CH32V10x_Lib/ch32v10x_rcc.c:485
      pllmull = RCC->CFGR0 & CFGR0_PLLMull_Mask;
    11e6:	435c                	lw	a5,4(a4)
C:/Users/DELL/Desktop/01-Car_motion/Libraries/Device/CH32V10x_p/CH32V10x_Lib/ch32v10x_rcc.c:486
      pllsource = RCC->CFGR0 & CFGR0_PLLSRC_Mask;    
    11e8:	4354                	lw	a3,4(a4)
C:/Users/DELL/Desktop/01-Car_motion/Libraries/Device/CH32V10x_p/CH32V10x_Lib/ch32v10x_rcc.c:487
      pllmull = ( pllmull >> 18) + 2;
    11ea:	83c9                	srli	a5,a5,0x12
    11ec:	8bbd                	andi	a5,a5,15
C:/Users/DELL/Desktop/01-Car_motion/Libraries/Device/CH32V10x_p/CH32V10x_Lib/ch32v10x_rcc.c:489
      if (pllsource == 0x00)
    11ee:	00f69613          	slli	a2,a3,0xf
C:/Users/DELL/Desktop/01-Car_motion/Libraries/Device/CH32V10x_p/CH32V10x_Lib/ch32v10x_rcc.c:487
      pllmull = ( pllmull >> 18) + 2;
    11f2:	0789                	addi	a5,a5,2
C:/Users/DELL/Desktop/01-Car_motion/Libraries/Device/CH32V10x_p/CH32V10x_Lib/ch32v10x_rcc.c:489
      if (pllsource == 0x00)
    11f4:	00064963          	bltz	a2,1206 <RCC_GetClocksFreq+0xa0>
C:/Users/DELL/Desktop/01-Car_motion/Libraries/Device/CH32V10x_p/CH32V10x_Lib/ch32v10x_rcc.c:497
          RCC_Clocks->SYSCLK_Frequency = (HSE_VALUE >> 1) * pllmull;
    11f8:	003d1737          	lui	a4,0x3d1
    11fc:	90070713          	addi	a4,a4,-1792 # 3d0900 <_data_lma+0x3cf168>
C:/Users/DELL/Desktop/01-Car_motion/Libraries/Device/CH32V10x_p/CH32V10x_Lib/ch32v10x_rcc.c:501
          RCC_Clocks->SYSCLK_Frequency = HSE_VALUE * pllmull;
    1200:	02e787b3          	mul	a5,a5,a4
    1204:	bfbd                	j	1182 <RCC_GetClocksFreq+0x1c>
C:/Users/DELL/Desktop/01-Car_motion/Libraries/Device/CH32V10x_p/CH32V10x_Lib/ch32v10x_rcc.c:495
        if ((RCC->CFGR0 & CFGR0_PLLXTPRE_Mask) != (uint32_t)RESET)
    1206:	4358                	lw	a4,4(a4)
    1208:	00e71693          	slli	a3,a4,0xe
    120c:	fe06c6e3          	bltz	a3,11f8 <RCC_GetClocksFreq+0x92>
C:/Users/DELL/Desktop/01-Car_motion/Libraries/Device/CH32V10x_p/CH32V10x_Lib/ch32v10x_rcc.c:501
          RCC_Clocks->SYSCLK_Frequency = HSE_VALUE * pllmull;
    1210:	007a1737          	lui	a4,0x7a1
    1214:	20070713          	addi	a4,a4,512 # 7a1200 <_data_lma+0x79fa68>
    1218:	b7e5                	j	1200 <RCC_GetClocksFreq+0x9a>

0000121a <RCC_APB2PeriphClockCmd>:
RCC_APB2PeriphClockCmd():
C:/Users/DELL/Desktop/01-Car_motion/Libraries/Device/CH32V10x_p/CH32V10x_Lib/ch32v10x_rcc.c:571
*                  NewState: ENABLE or DISABLE
* Return         : None
*******************************************************************************/	
void RCC_APB2PeriphClockCmd(uint32_t RCC_APB2Periph, FunctionalState NewState)
{
  if (NewState != DISABLE)
    121a:	c599                	beqz	a1,1228 <RCC_APB2PeriphClockCmd+0xe>
C:/Users/DELL/Desktop/01-Car_motion/Libraries/Device/CH32V10x_p/CH32V10x_Lib/ch32v10x_rcc.c:573
  {
    RCC->APB2PCENR |= RCC_APB2Periph;
    121c:	40021737          	lui	a4,0x40021
    1220:	4f1c                	lw	a5,24(a4)
    1222:	8d5d                	or	a0,a0,a5
    1224:	cf08                	sw	a0,24(a4)
    1226:	8082                	ret
C:/Users/DELL/Desktop/01-Car_motion/Libraries/Device/CH32V10x_p/CH32V10x_Lib/ch32v10x_rcc.c:577
  }
  else
  {
    RCC->APB2PCENR &= ~RCC_APB2Periph;
    1228:	400217b7          	lui	a5,0x40021
    122c:	4f98                	lw	a4,24(a5)
    122e:	fff54513          	not	a0,a0
    1232:	8d79                	and	a0,a0,a4
    1234:	cf88                	sw	a0,24(a5)
C:/Users/DELL/Desktop/01-Car_motion/Libraries/Device/CH32V10x_p/CH32V10x_Lib/ch32v10x_rcc.c:579
  }
}
    1236:	8082                	ret

00001238 <RCC_APB1PeriphClockCmd>:
RCC_APB1PeriphClockCmd():
C:/Users/DELL/Desktop/01-Car_motion/Libraries/Device/CH32V10x_p/CH32V10x_Lib/ch32v10x_rcc.c:604
*                  NewState: ENABLE or DISABLE.
* Return         : None
*******************************************************************************/	
void RCC_APB1PeriphClockCmd(uint32_t RCC_APB1Periph, FunctionalState NewState)
{
  if (NewState != DISABLE)
    1238:	c599                	beqz	a1,1246 <RCC_APB1PeriphClockCmd+0xe>
C:/Users/DELL/Desktop/01-Car_motion/Libraries/Device/CH32V10x_p/CH32V10x_Lib/ch32v10x_rcc.c:606
  {
    RCC->APB1PCENR |= RCC_APB1Periph;
    123a:	40021737          	lui	a4,0x40021
    123e:	4f5c                	lw	a5,28(a4)
    1240:	8d5d                	or	a0,a0,a5
    1242:	cf48                	sw	a0,28(a4)
    1244:	8082                	ret
C:/Users/DELL/Desktop/01-Car_motion/Libraries/Device/CH32V10x_p/CH32V10x_Lib/ch32v10x_rcc.c:610
  }
  else
  {
    RCC->APB1PCENR &= ~RCC_APB1Periph;
    1246:	400217b7          	lui	a5,0x40021
    124a:	4fd8                	lw	a4,28(a5)
    124c:	fff54513          	not	a0,a0
    1250:	8d79                	and	a0,a0,a4
    1252:	cfc8                	sw	a0,28(a5)
C:/Users/DELL/Desktop/01-Car_motion/Libraries/Device/CH32V10x_p/CH32V10x_Lib/ch32v10x_rcc.c:612
  }
}
    1254:	8082                	ret

00001256 <TIM_TimeBaseInit>:
TIM_TimeBaseInit():
C:/Users/DELL/Desktop/01-Car_motion/Libraries/Device/CH32V10x_p/CH32V10x_Lib/ch32v10x_tim.c:70
*******************************************************************************/
void TIM_TimeBaseInit(TIM_TypeDef* TIMx, TIM_TimeBaseInitTypeDef* TIM_TimeBaseInitStruct)
{
  uint16_t tmpcr1 = 0;

  tmpcr1 = TIMx->CTLR1;  
    1256:	00055783          	lhu	a5,0(a0)
C:/Users/DELL/Desktop/01-Car_motion/Libraries/Device/CH32V10x_p/CH32V10x_Lib/ch32v10x_tim.c:72

  if((TIMx == TIM1) || (TIMx == TIM2) || (TIMx == TIM3)|| (TIMx == TIM4)) 
    125a:	40013737          	lui	a4,0x40013
    125e:	c0070713          	addi	a4,a4,-1024 # 40012c00 <_eusrstack+0x2000dc00>
C:/Users/DELL/Desktop/01-Car_motion/Libraries/Device/CH32V10x_p/CH32V10x_Lib/ch32v10x_tim.c:70
  tmpcr1 = TIMx->CTLR1;  
    1262:	07c2                	slli	a5,a5,0x10
    1264:	83c1                	srli	a5,a5,0x10
C:/Users/DELL/Desktop/01-Car_motion/Libraries/Device/CH32V10x_p/CH32V10x_Lib/ch32v10x_tim.c:72
  if((TIMx == TIM1) || (TIMx == TIM2) || (TIMx == TIM3)|| (TIMx == TIM4)) 
    1266:	02e50063          	beq	a0,a4,1286 <TIM_TimeBaseInit+0x30>
C:/Users/DELL/Desktop/01-Car_motion/Libraries/Device/CH32V10x_p/CH32V10x_Lib/ch32v10x_tim.c:72 (discriminator 1)
    126a:	40000737          	lui	a4,0x40000
    126e:	00e50c63          	beq	a0,a4,1286 <TIM_TimeBaseInit+0x30>
C:/Users/DELL/Desktop/01-Car_motion/Libraries/Device/CH32V10x_p/CH32V10x_Lib/ch32v10x_tim.c:72 (discriminator 2)
    1272:	40070713          	addi	a4,a4,1024 # 40000400 <_eusrstack+0x1fffb400>
    1276:	00e50863          	beq	a0,a4,1286 <TIM_TimeBaseInit+0x30>
C:/Users/DELL/Desktop/01-Car_motion/Libraries/Device/CH32V10x_p/CH32V10x_Lib/ch32v10x_tim.c:72 (discriminator 3)
    127a:	40001737          	lui	a4,0x40001
    127e:	80070713          	addi	a4,a4,-2048 # 40000800 <_eusrstack+0x1fffb800>
    1282:	00e51763          	bne	a0,a4,1290 <TIM_TimeBaseInit+0x3a>
C:/Users/DELL/Desktop/01-Car_motion/Libraries/Device/CH32V10x_p/CH32V10x_Lib/ch32v10x_tim.c:75
  {
    tmpcr1 &= (uint16_t)(~((uint16_t)(TIM_DIR | TIM_CMS)));
    tmpcr1 |= (uint32_t)TIM_TimeBaseInitStruct->TIM_CounterMode;
    1286:	0025d703          	lhu	a4,2(a1) # 40010002 <_eusrstack+0x2000b002>
C:/Users/DELL/Desktop/01-Car_motion/Libraries/Device/CH32V10x_p/CH32V10x_Lib/ch32v10x_tim.c:74
    tmpcr1 &= (uint16_t)(~((uint16_t)(TIM_DIR | TIM_CMS)));
    128a:	f8f7f793          	andi	a5,a5,-113
C:/Users/DELL/Desktop/01-Car_motion/Libraries/Device/CH32V10x_p/CH32V10x_Lib/ch32v10x_tim.c:75
    tmpcr1 |= (uint32_t)TIM_TimeBaseInitStruct->TIM_CounterMode;
    128e:	8fd9                	or	a5,a5,a4
C:/Users/DELL/Desktop/01-Car_motion/Libraries/Device/CH32V10x_p/CH32V10x_Lib/ch32v10x_tim.c:79
  }

  tmpcr1 &= (uint16_t)(~((uint16_t)TIM_CTLR1_CKD));
  tmpcr1 |= (uint32_t)TIM_TimeBaseInitStruct->TIM_ClockDivision;
    1290:	0065d703          	lhu	a4,6(a1)
C:/Users/DELL/Desktop/01-Car_motion/Libraries/Device/CH32V10x_p/CH32V10x_Lib/ch32v10x_tim.c:78
  tmpcr1 &= (uint16_t)(~((uint16_t)TIM_CTLR1_CKD));
    1294:	cff7f793          	andi	a5,a5,-769
    1298:	07c2                	slli	a5,a5,0x10
    129a:	83c1                	srli	a5,a5,0x10
C:/Users/DELL/Desktop/01-Car_motion/Libraries/Device/CH32V10x_p/CH32V10x_Lib/ch32v10x_tim.c:79
  tmpcr1 |= (uint32_t)TIM_TimeBaseInitStruct->TIM_ClockDivision;
    129c:	8fd9                	or	a5,a5,a4
C:/Users/DELL/Desktop/01-Car_motion/Libraries/Device/CH32V10x_p/CH32V10x_Lib/ch32v10x_tim.c:81

  TIMx->CTLR1 = tmpcr1;
    129e:	00f51023          	sh	a5,0(a0)
C:/Users/DELL/Desktop/01-Car_motion/Libraries/Device/CH32V10x_p/CH32V10x_Lib/ch32v10x_tim.c:82
  TIMx->ATRLR = TIM_TimeBaseInitStruct->TIM_Period ;
    12a2:	0045d783          	lhu	a5,4(a1)
    12a6:	02f51623          	sh	a5,44(a0)
C:/Users/DELL/Desktop/01-Car_motion/Libraries/Device/CH32V10x_p/CH32V10x_Lib/ch32v10x_tim.c:83
  TIMx->PSC = TIM_TimeBaseInitStruct->TIM_Prescaler;
    12aa:	0005d783          	lhu	a5,0(a1)
    12ae:	02f51423          	sh	a5,40(a0)
C:/Users/DELL/Desktop/01-Car_motion/Libraries/Device/CH32V10x_p/CH32V10x_Lib/ch32v10x_tim.c:85
    
  if (TIMx == TIM1)  
    12b2:	400137b7          	lui	a5,0x40013
    12b6:	c0078793          	addi	a5,a5,-1024 # 40012c00 <_eusrstack+0x2000dc00>
    12ba:	00f51663          	bne	a0,a5,12c6 <TIM_TimeBaseInit+0x70>
C:/Users/DELL/Desktop/01-Car_motion/Libraries/Device/CH32V10x_p/CH32V10x_Lib/ch32v10x_tim.c:87
  {
    TIMx->RPTCR = TIM_TimeBaseInitStruct->TIM_RepetitionCounter;
    12be:	0085c783          	lbu	a5,8(a1)
    12c2:	02f51823          	sh	a5,48(a0)
C:/Users/DELL/Desktop/01-Car_motion/Libraries/Device/CH32V10x_p/CH32V10x_Lib/ch32v10x_tim.c:90
  }

  TIMx->SWEVGR = TIM_PSCReloadMode_Immediate;           
    12c6:	4785                	li	a5,1
    12c8:	00f51a23          	sh	a5,20(a0)
C:/Users/DELL/Desktop/01-Car_motion/Libraries/Device/CH32V10x_p/CH32V10x_Lib/ch32v10x_tim.c:91
}
    12cc:	8082                	ret

000012ce <TIM_OC1Init>:
TIM_OC1Init():
C:/Users/DELL/Desktop/01-Car_motion/Libraries/Device/CH32V10x_p/CH32V10x_Lib/ch32v10x_tim.c:105
*******************************************************************************/
void TIM_OC1Init(TIM_TypeDef* TIMx, TIM_OCInitTypeDef* TIM_OCInitStruct)
{
  uint16_t tmpccmrx = 0, tmpccer = 0, tmpcr2 = 0;
     
  TIMx->CCER &= (uint16_t)(~(uint16_t)TIM_CC1E);
    12ce:	02055783          	lhu	a5,32(a0)
C:/Users/DELL/Desktop/01-Car_motion/Libraries/Device/CH32V10x_p/CH32V10x_Lib/ch32v10x_tim.c:111
  tmpccer = TIMx->CCER;
  tmpcr2 =  TIMx->CTLR2;
  tmpccmrx = TIMx->CHCTLR1;
  tmpccmrx &= (uint16_t)(~((uint16_t)TIM_OC1M));
  tmpccmrx &= (uint16_t)(~((uint16_t)TIM_CC1S));
  tmpccmrx |= TIM_OCInitStruct->TIM_OCMode;
    12d2:	0005d603          	lhu	a2,0(a1)
C:/Users/DELL/Desktop/01-Car_motion/Libraries/Device/CH32V10x_p/CH32V10x_Lib/ch32v10x_tim.c:114
  tmpccer &= (uint16_t)(~((uint16_t)TIM_CC1P));
  tmpccer |= TIM_OCInitStruct->TIM_OCPolarity;
  tmpccer |= TIM_OCInitStruct->TIM_OutputState;
    12d6:	0025d803          	lhu	a6,2(a1)
C:/Users/DELL/Desktop/01-Car_motion/Libraries/Device/CH32V10x_p/CH32V10x_Lib/ch32v10x_tim.c:105
  TIMx->CCER &= (uint16_t)(~(uint16_t)TIM_CC1E);
    12da:	07c2                	slli	a5,a5,0x10
    12dc:	83c1                	srli	a5,a5,0x10
    12de:	9bf9                	andi	a5,a5,-2
    12e0:	07c2                	slli	a5,a5,0x10
    12e2:	83c1                	srli	a5,a5,0x10
    12e4:	02f51023          	sh	a5,32(a0)
C:/Users/DELL/Desktop/01-Car_motion/Libraries/Device/CH32V10x_p/CH32V10x_Lib/ch32v10x_tim.c:106
  tmpccer = TIMx->CCER;
    12e8:	02055783          	lhu	a5,32(a0)
C:/Users/DELL/Desktop/01-Car_motion/Libraries/Device/CH32V10x_p/CH32V10x_Lib/ch32v10x_tim.c:107
  tmpcr2 =  TIMx->CTLR2;
    12ec:	00455683          	lhu	a3,4(a0)
C:/Users/DELL/Desktop/01-Car_motion/Libraries/Device/CH32V10x_p/CH32V10x_Lib/ch32v10x_tim.c:108
  tmpccmrx = TIMx->CHCTLR1;
    12f0:	01855703          	lhu	a4,24(a0)
C:/Users/DELL/Desktop/01-Car_motion/Libraries/Device/CH32V10x_p/CH32V10x_Lib/ch32v10x_tim.c:106
  tmpccer = TIMx->CCER;
    12f4:	07c2                	slli	a5,a5,0x10
    12f6:	83c1                	srli	a5,a5,0x10
C:/Users/DELL/Desktop/01-Car_motion/Libraries/Device/CH32V10x_p/CH32V10x_Lib/ch32v10x_tim.c:108
  tmpccmrx = TIMx->CHCTLR1;
    12f8:	0742                	slli	a4,a4,0x10
    12fa:	8341                	srli	a4,a4,0x10
C:/Users/DELL/Desktop/01-Car_motion/Libraries/Device/CH32V10x_p/CH32V10x_Lib/ch32v10x_tim.c:110
  tmpccmrx &= (uint16_t)(~((uint16_t)TIM_CC1S));
    12fc:	f8c77713          	andi	a4,a4,-116
C:/Users/DELL/Desktop/01-Car_motion/Libraries/Device/CH32V10x_p/CH32V10x_Lib/ch32v10x_tim.c:111
  tmpccmrx |= TIM_OCInitStruct->TIM_OCMode;
    1300:	8f51                	or	a4,a4,a2
C:/Users/DELL/Desktop/01-Car_motion/Libraries/Device/CH32V10x_p/CH32V10x_Lib/ch32v10x_tim.c:114
  tmpccer |= TIM_OCInitStruct->TIM_OutputState;
    1302:	0085d603          	lhu	a2,8(a1)
C:/Users/DELL/Desktop/01-Car_motion/Libraries/Device/CH32V10x_p/CH32V10x_Lib/ch32v10x_tim.c:112
  tmpccer &= (uint16_t)(~((uint16_t)TIM_CC1P));
    1306:	9bf5                	andi	a5,a5,-3
C:/Users/DELL/Desktop/01-Car_motion/Libraries/Device/CH32V10x_p/CH32V10x_Lib/ch32v10x_tim.c:107
  tmpcr2 =  TIMx->CTLR2;
    1308:	06c2                	slli	a3,a3,0x10
C:/Users/DELL/Desktop/01-Car_motion/Libraries/Device/CH32V10x_p/CH32V10x_Lib/ch32v10x_tim.c:114
  tmpccer |= TIM_OCInitStruct->TIM_OutputState;
    130a:	01066633          	or	a2,a2,a6
    130e:	8fd1                	or	a5,a5,a2
C:/Users/DELL/Desktop/01-Car_motion/Libraries/Device/CH32V10x_p/CH32V10x_Lib/ch32v10x_tim.c:116
    
  if(TIMx == TIM1)
    1310:	40013637          	lui	a2,0x40013
    1314:	c0060613          	addi	a2,a2,-1024 # 40012c00 <_eusrstack+0x2000dc00>
C:/Users/DELL/Desktop/01-Car_motion/Libraries/Device/CH32V10x_p/CH32V10x_Lib/ch32v10x_tim.c:107
  tmpcr2 =  TIMx->CTLR2;
    1318:	82c1                	srli	a3,a3,0x10
C:/Users/DELL/Desktop/01-Car_motion/Libraries/Device/CH32V10x_p/CH32V10x_Lib/ch32v10x_tim.c:116
  if(TIMx == TIM1)
    131a:	02c51363          	bne	a0,a2,1340 <TIM_OC1Init+0x72>
C:/Users/DELL/Desktop/01-Car_motion/Libraries/Device/CH32V10x_p/CH32V10x_Lib/ch32v10x_tim.c:119
  {
    tmpccer &= (uint16_t)(~((uint16_t)TIM_CC1NP));
    tmpccer |= TIM_OCInitStruct->TIM_OCNPolarity;
    131e:	00a5d603          	lhu	a2,10(a1)
C:/Users/DELL/Desktop/01-Car_motion/Libraries/Device/CH32V10x_p/CH32V10x_Lib/ch32v10x_tim.c:118
    tmpccer &= (uint16_t)(~((uint16_t)TIM_CC1NP));
    1322:	9bdd                	andi	a5,a5,-9
C:/Users/DELL/Desktop/01-Car_motion/Libraries/Device/CH32V10x_p/CH32V10x_Lib/ch32v10x_tim.c:128
    
    tmpcr2 &= (uint16_t)(~((uint16_t)TIM_OIS1));
    tmpcr2 &= (uint16_t)(~((uint16_t)TIM_OIS1N));
    
    tmpcr2 |= TIM_OCInitStruct->TIM_OCIdleState;
    tmpcr2 |= TIM_OCInitStruct->TIM_OCNIdleState;
    1324:	00e5d803          	lhu	a6,14(a1)
C:/Users/DELL/Desktop/01-Car_motion/Libraries/Device/CH32V10x_p/CH32V10x_Lib/ch32v10x_tim.c:119
    tmpccer |= TIM_OCInitStruct->TIM_OCNPolarity;
    1328:	8fd1                	or	a5,a5,a2
C:/Users/DELL/Desktop/01-Car_motion/Libraries/Device/CH32V10x_p/CH32V10x_Lib/ch32v10x_tim.c:122
    tmpccer |= TIM_OCInitStruct->TIM_OutputNState;
    132a:	0045d603          	lhu	a2,4(a1)
C:/Users/DELL/Desktop/01-Car_motion/Libraries/Device/CH32V10x_p/CH32V10x_Lib/ch32v10x_tim.c:121
    tmpccer &= (uint16_t)(~((uint16_t)TIM_CC1NE));    
    132e:	9bed                	andi	a5,a5,-5
C:/Users/DELL/Desktop/01-Car_motion/Libraries/Device/CH32V10x_p/CH32V10x_Lib/ch32v10x_tim.c:125
    tmpcr2 &= (uint16_t)(~((uint16_t)TIM_OIS1N));
    1330:	cff6f693          	andi	a3,a3,-769
C:/Users/DELL/Desktop/01-Car_motion/Libraries/Device/CH32V10x_p/CH32V10x_Lib/ch32v10x_tim.c:122
    tmpccer |= TIM_OCInitStruct->TIM_OutputNState;
    1334:	8fd1                	or	a5,a5,a2
C:/Users/DELL/Desktop/01-Car_motion/Libraries/Device/CH32V10x_p/CH32V10x_Lib/ch32v10x_tim.c:128
    tmpcr2 |= TIM_OCInitStruct->TIM_OCNIdleState;
    1336:	00c5d603          	lhu	a2,12(a1)
    133a:	01066633          	or	a2,a2,a6
    133e:	8ed1                	or	a3,a3,a2
C:/Users/DELL/Desktop/01-Car_motion/Libraries/Device/CH32V10x_p/CH32V10x_Lib/ch32v10x_tim.c:131
  }

  TIMx->CTLR2 = tmpcr2;
    1340:	00d51223          	sh	a3,4(a0)
C:/Users/DELL/Desktop/01-Car_motion/Libraries/Device/CH32V10x_p/CH32V10x_Lib/ch32v10x_tim.c:132
  TIMx->CHCTLR1 = tmpccmrx;
    1344:	00e51c23          	sh	a4,24(a0)
C:/Users/DELL/Desktop/01-Car_motion/Libraries/Device/CH32V10x_p/CH32V10x_Lib/ch32v10x_tim.c:133
  TIMx->CH1CVR = TIM_OCInitStruct->TIM_Pulse; 
    1348:	0065d703          	lhu	a4,6(a1)
    134c:	02e51a23          	sh	a4,52(a0)
C:/Users/DELL/Desktop/01-Car_motion/Libraries/Device/CH32V10x_p/CH32V10x_Lib/ch32v10x_tim.c:134
  TIMx->CCER = tmpccer;
    1350:	02f51023          	sh	a5,32(a0)
C:/Users/DELL/Desktop/01-Car_motion/Libraries/Device/CH32V10x_p/CH32V10x_Lib/ch32v10x_tim.c:135
}
    1354:	8082                	ret

00001356 <TIM_OC2Init>:
TIM_OC2Init():
C:/Users/DELL/Desktop/01-Car_motion/Libraries/Device/CH32V10x_p/CH32V10x_Lib/ch32v10x_tim.c:149
*******************************************************************************/
void TIM_OC2Init(TIM_TypeDef* TIMx, TIM_OCInitTypeDef* TIM_OCInitStruct)
{
  uint16_t tmpccmrx = 0, tmpccer = 0, tmpcr2 = 0;
   
  TIMx->CCER &= (uint16_t)(~((uint16_t)TIM_CC2E)); 
    1356:	02055783          	lhu	a5,32(a0)
C:/Users/DELL/Desktop/01-Car_motion/Libraries/Device/CH32V10x_p/CH32V10x_Lib/ch32v10x_tim.c:154
  tmpccer = TIMx->CCER;
  tmpcr2 =  TIMx->CTLR2;
  tmpccmrx = TIMx->CHCTLR1;
  tmpccmrx &= (uint16_t)(~((uint16_t)TIM_OC2M));
  tmpccmrx &= (uint16_t)(~((uint16_t)TIM_CC2S));
    135a:	7765                	lui	a4,0xffff9
    135c:	cff70713          	addi	a4,a4,-769 # ffff8cff <_eusrstack+0xdfff3cff>
C:/Users/DELL/Desktop/01-Car_motion/Libraries/Device/CH32V10x_p/CH32V10x_Lib/ch32v10x_tim.c:149
  TIMx->CCER &= (uint16_t)(~((uint16_t)TIM_CC2E)); 
    1360:	07c2                	slli	a5,a5,0x10
    1362:	83c1                	srli	a5,a5,0x10
    1364:	9bbd                	andi	a5,a5,-17
    1366:	07c2                	slli	a5,a5,0x10
    1368:	83c1                	srli	a5,a5,0x10
    136a:	02f51023          	sh	a5,32(a0)
C:/Users/DELL/Desktop/01-Car_motion/Libraries/Device/CH32V10x_p/CH32V10x_Lib/ch32v10x_tim.c:150
  tmpccer = TIMx->CCER;
    136e:	02055783          	lhu	a5,32(a0)
C:/Users/DELL/Desktop/01-Car_motion/Libraries/Device/CH32V10x_p/CH32V10x_Lib/ch32v10x_tim.c:151
  tmpcr2 =  TIMx->CTLR2;
    1372:	00455683          	lhu	a3,4(a0)
C:/Users/DELL/Desktop/01-Car_motion/Libraries/Device/CH32V10x_p/CH32V10x_Lib/ch32v10x_tim.c:157
  tmpccmrx |= (uint16_t)(TIM_OCInitStruct->TIM_OCMode << 8);
  tmpccer &= (uint16_t)(~((uint16_t)TIM_CC2P));
  tmpccer |= (uint16_t)(TIM_OCInitStruct->TIM_OCPolarity << 4);
    1376:	0085d803          	lhu	a6,8(a1)
C:/Users/DELL/Desktop/01-Car_motion/Libraries/Device/CH32V10x_p/CH32V10x_Lib/ch32v10x_tim.c:150
  tmpccer = TIMx->CCER;
    137a:	07c2                	slli	a5,a5,0x10
C:/Users/DELL/Desktop/01-Car_motion/Libraries/Device/CH32V10x_p/CH32V10x_Lib/ch32v10x_tim.c:151
  tmpcr2 =  TIMx->CTLR2;
    137c:	01069613          	slli	a2,a3,0x10
C:/Users/DELL/Desktop/01-Car_motion/Libraries/Device/CH32V10x_p/CH32V10x_Lib/ch32v10x_tim.c:152
  tmpccmrx = TIMx->CHCTLR1;
    1380:	01855683          	lhu	a3,24(a0)
C:/Users/DELL/Desktop/01-Car_motion/Libraries/Device/CH32V10x_p/CH32V10x_Lib/ch32v10x_tim.c:150
  tmpccer = TIMx->CCER;
    1384:	83c1                	srli	a5,a5,0x10
C:/Users/DELL/Desktop/01-Car_motion/Libraries/Device/CH32V10x_p/CH32V10x_Lib/ch32v10x_tim.c:156
  tmpccer &= (uint16_t)(~((uint16_t)TIM_CC2P));
    1386:	fdf7f793          	andi	a5,a5,-33
C:/Users/DELL/Desktop/01-Car_motion/Libraries/Device/CH32V10x_p/CH32V10x_Lib/ch32v10x_tim.c:154
  tmpccmrx &= (uint16_t)(~((uint16_t)TIM_CC2S));
    138a:	8f75                	and	a4,a4,a3
C:/Users/DELL/Desktop/01-Car_motion/Libraries/Device/CH32V10x_p/CH32V10x_Lib/ch32v10x_tim.c:155
  tmpccmrx |= (uint16_t)(TIM_OCInitStruct->TIM_OCMode << 8);
    138c:	0005d683          	lhu	a3,0(a1)
C:/Users/DELL/Desktop/01-Car_motion/Libraries/Device/CH32V10x_p/CH32V10x_Lib/ch32v10x_tim.c:151
  tmpcr2 =  TIMx->CTLR2;
    1390:	8241                	srli	a2,a2,0x10
C:/Users/DELL/Desktop/01-Car_motion/Libraries/Device/CH32V10x_p/CH32V10x_Lib/ch32v10x_tim.c:155
  tmpccmrx |= (uint16_t)(TIM_OCInitStruct->TIM_OCMode << 8);
    1392:	06a2                	slli	a3,a3,0x8
    1394:	8f55                	or	a4,a4,a3
C:/Users/DELL/Desktop/01-Car_motion/Libraries/Device/CH32V10x_p/CH32V10x_Lib/ch32v10x_tim.c:158
  tmpccer |= (uint16_t)(TIM_OCInitStruct->TIM_OutputState << 4);
    1396:	0025d683          	lhu	a3,2(a1)
C:/Users/DELL/Desktop/01-Car_motion/Libraries/Device/CH32V10x_p/CH32V10x_Lib/ch32v10x_tim.c:155
  tmpccmrx |= (uint16_t)(TIM_OCInitStruct->TIM_OCMode << 8);
    139a:	0742                	slli	a4,a4,0x10
    139c:	8341                	srli	a4,a4,0x10
C:/Users/DELL/Desktop/01-Car_motion/Libraries/Device/CH32V10x_p/CH32V10x_Lib/ch32v10x_tim.c:158
  tmpccer |= (uint16_t)(TIM_OCInitStruct->TIM_OutputState << 4);
    139e:	0106e6b3          	or	a3,a3,a6
    13a2:	0692                	slli	a3,a3,0x4
    13a4:	8fd5                	or	a5,a5,a3
C:/Users/DELL/Desktop/01-Car_motion/Libraries/Device/CH32V10x_p/CH32V10x_Lib/ch32v10x_tim.c:160
    
  if(TIMx == TIM1)
    13a6:	400136b7          	lui	a3,0x40013
C:/Users/DELL/Desktop/01-Car_motion/Libraries/Device/CH32V10x_p/CH32V10x_Lib/ch32v10x_tim.c:158
  tmpccer |= (uint16_t)(TIM_OCInitStruct->TIM_OutputState << 4);
    13aa:	07c2                	slli	a5,a5,0x10
C:/Users/DELL/Desktop/01-Car_motion/Libraries/Device/CH32V10x_p/CH32V10x_Lib/ch32v10x_tim.c:160
  if(TIMx == TIM1)
    13ac:	c0068693          	addi	a3,a3,-1024 # 40012c00 <_eusrstack+0x2000dc00>
C:/Users/DELL/Desktop/01-Car_motion/Libraries/Device/CH32V10x_p/CH32V10x_Lib/ch32v10x_tim.c:158
  tmpccer |= (uint16_t)(TIM_OCInitStruct->TIM_OutputState << 4);
    13b0:	83c1                	srli	a5,a5,0x10
C:/Users/DELL/Desktop/01-Car_motion/Libraries/Device/CH32V10x_p/CH32V10x_Lib/ch32v10x_tim.c:160
  if(TIMx == TIM1)
    13b2:	04d51163          	bne	a0,a3,13f4 <TIM_OC2Init+0x9e>
C:/Users/DELL/Desktop/01-Car_motion/Libraries/Device/CH32V10x_p/CH32V10x_Lib/ch32v10x_tim.c:163
  {
    tmpccer &= (uint16_t)(~((uint16_t)TIM_CC2NP));
    tmpccer |= (uint16_t)(TIM_OCInitStruct->TIM_OCNPolarity << 4);
    13b6:	00a5d683          	lhu	a3,10(a1)
C:/Users/DELL/Desktop/01-Car_motion/Libraries/Device/CH32V10x_p/CH32V10x_Lib/ch32v10x_tim.c:162
    tmpccer &= (uint16_t)(~((uint16_t)TIM_CC2NP));
    13ba:	f7f7f793          	andi	a5,a5,-129
C:/Users/DELL/Desktop/01-Car_motion/Libraries/Device/CH32V10x_p/CH32V10x_Lib/ch32v10x_tim.c:169
    tmpccer &= (uint16_t)(~((uint16_t)TIM_CC2NE));    
    tmpccer |= (uint16_t)(TIM_OCInitStruct->TIM_OutputNState << 4);
    
    tmpcr2 &= (uint16_t)(~((uint16_t)TIM_OIS2));
    tmpcr2 &= (uint16_t)(~((uint16_t)TIM_OIS2N));
    tmpcr2 |= (uint16_t)(TIM_OCInitStruct->TIM_OCIdleState << 2);
    13be:	00c5d803          	lhu	a6,12(a1)
C:/Users/DELL/Desktop/01-Car_motion/Libraries/Device/CH32V10x_p/CH32V10x_Lib/ch32v10x_tim.c:163
    tmpccer |= (uint16_t)(TIM_OCInitStruct->TIM_OCNPolarity << 4);
    13c2:	0692                	slli	a3,a3,0x4
    13c4:	8fd5                	or	a5,a5,a3
C:/Users/DELL/Desktop/01-Car_motion/Libraries/Device/CH32V10x_p/CH32V10x_Lib/ch32v10x_tim.c:165
    tmpccer |= (uint16_t)(TIM_OCInitStruct->TIM_OutputNState << 4);
    13c6:	0045d683          	lhu	a3,4(a1)
C:/Users/DELL/Desktop/01-Car_motion/Libraries/Device/CH32V10x_p/CH32V10x_Lib/ch32v10x_tim.c:163
    tmpccer |= (uint16_t)(TIM_OCInitStruct->TIM_OCNPolarity << 4);
    13ca:	07c2                	slli	a5,a5,0x10
    13cc:	83c1                	srli	a5,a5,0x10
C:/Users/DELL/Desktop/01-Car_motion/Libraries/Device/CH32V10x_p/CH32V10x_Lib/ch32v10x_tim.c:165
    tmpccer |= (uint16_t)(TIM_OCInitStruct->TIM_OutputNState << 4);
    13ce:	0692                	slli	a3,a3,0x4
C:/Users/DELL/Desktop/01-Car_motion/Libraries/Device/CH32V10x_p/CH32V10x_Lib/ch32v10x_tim.c:164
    tmpccer &= (uint16_t)(~((uint16_t)TIM_CC2NE));    
    13d0:	fbf7f793          	andi	a5,a5,-65
C:/Users/DELL/Desktop/01-Car_motion/Libraries/Device/CH32V10x_p/CH32V10x_Lib/ch32v10x_tim.c:165
    tmpccer |= (uint16_t)(TIM_OCInitStruct->TIM_OutputNState << 4);
    13d4:	8fd5                	or	a5,a5,a3
C:/Users/DELL/Desktop/01-Car_motion/Libraries/Device/CH32V10x_p/CH32V10x_Lib/ch32v10x_tim.c:168
    tmpcr2 &= (uint16_t)(~((uint16_t)TIM_OIS2N));
    13d6:	76fd                	lui	a3,0xfffff
    13d8:	3ff68693          	addi	a3,a3,1023 # fffff3ff <_eusrstack+0xdfffa3ff>
    13dc:	8ef1                	and	a3,a3,a2
C:/Users/DELL/Desktop/01-Car_motion/Libraries/Device/CH32V10x_p/CH32V10x_Lib/ch32v10x_tim.c:170
    tmpcr2 |= (uint16_t)(TIM_OCInitStruct->TIM_OCNIdleState << 2);
    13de:	00e5d603          	lhu	a2,14(a1)
C:/Users/DELL/Desktop/01-Car_motion/Libraries/Device/CH32V10x_p/CH32V10x_Lib/ch32v10x_tim.c:165
    tmpccer |= (uint16_t)(TIM_OCInitStruct->TIM_OutputNState << 4);
    13e2:	07c2                	slli	a5,a5,0x10
    13e4:	83c1                	srli	a5,a5,0x10
C:/Users/DELL/Desktop/01-Car_motion/Libraries/Device/CH32V10x_p/CH32V10x_Lib/ch32v10x_tim.c:170
    tmpcr2 |= (uint16_t)(TIM_OCInitStruct->TIM_OCNIdleState << 2);
    13e6:	01066633          	or	a2,a2,a6
    13ea:	060a                	slli	a2,a2,0x2
    13ec:	8ed1                	or	a3,a3,a2
    13ee:	01069613          	slli	a2,a3,0x10
    13f2:	8241                	srli	a2,a2,0x10
C:/Users/DELL/Desktop/01-Car_motion/Libraries/Device/CH32V10x_p/CH32V10x_Lib/ch32v10x_tim.c:173
  }

  TIMx->CTLR2 = tmpcr2;
    13f4:	00c51223          	sh	a2,4(a0)
C:/Users/DELL/Desktop/01-Car_motion/Libraries/Device/CH32V10x_p/CH32V10x_Lib/ch32v10x_tim.c:174
  TIMx->CHCTLR1 = tmpccmrx;
    13f8:	00e51c23          	sh	a4,24(a0)
C:/Users/DELL/Desktop/01-Car_motion/Libraries/Device/CH32V10x_p/CH32V10x_Lib/ch32v10x_tim.c:175
  TIMx->CH2CVR = TIM_OCInitStruct->TIM_Pulse;
    13fc:	0065d703          	lhu	a4,6(a1)
    1400:	02e51c23          	sh	a4,56(a0)
C:/Users/DELL/Desktop/01-Car_motion/Libraries/Device/CH32V10x_p/CH32V10x_Lib/ch32v10x_tim.c:176
  TIMx->CCER = tmpccer;
    1404:	02f51023          	sh	a5,32(a0)
C:/Users/DELL/Desktop/01-Car_motion/Libraries/Device/CH32V10x_p/CH32V10x_Lib/ch32v10x_tim.c:177
}
    1408:	8082                	ret

0000140a <TIM_OC3Init>:
TIM_OC3Init():
C:/Users/DELL/Desktop/01-Car_motion/Libraries/Device/CH32V10x_p/CH32V10x_Lib/ch32v10x_tim.c:191
*******************************************************************************/
void TIM_OC3Init(TIM_TypeDef* TIMx, TIM_OCInitTypeDef* TIM_OCInitStruct)
{
  uint16_t tmpccmrx = 0, tmpccer = 0, tmpcr2 = 0;
   
  TIMx->CCER &= (uint16_t)(~((uint16_t)TIM_CC3E));
    140a:	02055783          	lhu	a5,32(a0)
C:/Users/DELL/Desktop/01-Car_motion/Libraries/Device/CH32V10x_p/CH32V10x_Lib/ch32v10x_tim.c:199
  tmpccmrx = TIMx->CHCTLR2;
  tmpccmrx &= (uint16_t)(~((uint16_t)TIM_OC3M));
  tmpccmrx &= (uint16_t)(~((uint16_t)TIM_CC3S));  
  tmpccmrx |= TIM_OCInitStruct->TIM_OCMode;
  tmpccer &= (uint16_t)(~((uint16_t)TIM_CC3P));
  tmpccer |= (uint16_t)(TIM_OCInitStruct->TIM_OCPolarity << 8);
    140e:	0085d803          	lhu	a6,8(a1)
C:/Users/DELL/Desktop/01-Car_motion/Libraries/Device/CH32V10x_p/CH32V10x_Lib/ch32v10x_tim.c:191
  TIMx->CCER &= (uint16_t)(~((uint16_t)TIM_CC3E));
    1412:	07c2                	slli	a5,a5,0x10
    1414:	83c1                	srli	a5,a5,0x10
    1416:	eff7f793          	andi	a5,a5,-257
    141a:	07c2                	slli	a5,a5,0x10
    141c:	83c1                	srli	a5,a5,0x10
    141e:	02f51023          	sh	a5,32(a0)
C:/Users/DELL/Desktop/01-Car_motion/Libraries/Device/CH32V10x_p/CH32V10x_Lib/ch32v10x_tim.c:192
  tmpccer = TIMx->CCER;
    1422:	02055783          	lhu	a5,32(a0)
C:/Users/DELL/Desktop/01-Car_motion/Libraries/Device/CH32V10x_p/CH32V10x_Lib/ch32v10x_tim.c:193
  tmpcr2 =  TIMx->CTLR2;
    1426:	00455683          	lhu	a3,4(a0)
C:/Users/DELL/Desktop/01-Car_motion/Libraries/Device/CH32V10x_p/CH32V10x_Lib/ch32v10x_tim.c:194
  tmpccmrx = TIMx->CHCTLR2;
    142a:	01c55703          	lhu	a4,28(a0)
C:/Users/DELL/Desktop/01-Car_motion/Libraries/Device/CH32V10x_p/CH32V10x_Lib/ch32v10x_tim.c:192
  tmpccer = TIMx->CCER;
    142e:	07c2                	slli	a5,a5,0x10
C:/Users/DELL/Desktop/01-Car_motion/Libraries/Device/CH32V10x_p/CH32V10x_Lib/ch32v10x_tim.c:193
  tmpcr2 =  TIMx->CTLR2;
    1430:	01069613          	slli	a2,a3,0x10
C:/Users/DELL/Desktop/01-Car_motion/Libraries/Device/CH32V10x_p/CH32V10x_Lib/ch32v10x_tim.c:194
  tmpccmrx = TIMx->CHCTLR2;
    1434:	0742                	slli	a4,a4,0x10
C:/Users/DELL/Desktop/01-Car_motion/Libraries/Device/CH32V10x_p/CH32V10x_Lib/ch32v10x_tim.c:197
  tmpccmrx |= TIM_OCInitStruct->TIM_OCMode;
    1436:	0005d683          	lhu	a3,0(a1)
C:/Users/DELL/Desktop/01-Car_motion/Libraries/Device/CH32V10x_p/CH32V10x_Lib/ch32v10x_tim.c:194
  tmpccmrx = TIMx->CHCTLR2;
    143a:	8341                	srli	a4,a4,0x10
C:/Users/DELL/Desktop/01-Car_motion/Libraries/Device/CH32V10x_p/CH32V10x_Lib/ch32v10x_tim.c:196
  tmpccmrx &= (uint16_t)(~((uint16_t)TIM_CC3S));  
    143c:	f8c77713          	andi	a4,a4,-116
C:/Users/DELL/Desktop/01-Car_motion/Libraries/Device/CH32V10x_p/CH32V10x_Lib/ch32v10x_tim.c:197
  tmpccmrx |= TIM_OCInitStruct->TIM_OCMode;
    1440:	8f55                	or	a4,a4,a3
C:/Users/DELL/Desktop/01-Car_motion/Libraries/Device/CH32V10x_p/CH32V10x_Lib/ch32v10x_tim.c:200
  tmpccer |= (uint16_t)(TIM_OCInitStruct->TIM_OutputState << 8);
    1442:	0025d683          	lhu	a3,2(a1)
C:/Users/DELL/Desktop/01-Car_motion/Libraries/Device/CH32V10x_p/CH32V10x_Lib/ch32v10x_tim.c:192
  tmpccer = TIMx->CCER;
    1446:	83c1                	srli	a5,a5,0x10
C:/Users/DELL/Desktop/01-Car_motion/Libraries/Device/CH32V10x_p/CH32V10x_Lib/ch32v10x_tim.c:198
  tmpccer &= (uint16_t)(~((uint16_t)TIM_CC3P));
    1448:	dff7f793          	andi	a5,a5,-513
C:/Users/DELL/Desktop/01-Car_motion/Libraries/Device/CH32V10x_p/CH32V10x_Lib/ch32v10x_tim.c:200
  tmpccer |= (uint16_t)(TIM_OCInitStruct->TIM_OutputState << 8);
    144c:	0106e6b3          	or	a3,a3,a6
    1450:	06a2                	slli	a3,a3,0x8
    1452:	8fd5                	or	a5,a5,a3
C:/Users/DELL/Desktop/01-Car_motion/Libraries/Device/CH32V10x_p/CH32V10x_Lib/ch32v10x_tim.c:202
    
  if(TIMx == TIM1)
    1454:	400136b7          	lui	a3,0x40013
C:/Users/DELL/Desktop/01-Car_motion/Libraries/Device/CH32V10x_p/CH32V10x_Lib/ch32v10x_tim.c:200
  tmpccer |= (uint16_t)(TIM_OCInitStruct->TIM_OutputState << 8);
    1458:	07c2                	slli	a5,a5,0x10
C:/Users/DELL/Desktop/01-Car_motion/Libraries/Device/CH32V10x_p/CH32V10x_Lib/ch32v10x_tim.c:202
  if(TIMx == TIM1)
    145a:	c0068693          	addi	a3,a3,-1024 # 40012c00 <_eusrstack+0x2000dc00>
C:/Users/DELL/Desktop/01-Car_motion/Libraries/Device/CH32V10x_p/CH32V10x_Lib/ch32v10x_tim.c:193
  tmpcr2 =  TIMx->CTLR2;
    145e:	8241                	srli	a2,a2,0x10
C:/Users/DELL/Desktop/01-Car_motion/Libraries/Device/CH32V10x_p/CH32V10x_Lib/ch32v10x_tim.c:200
  tmpccer |= (uint16_t)(TIM_OCInitStruct->TIM_OutputState << 8);
    1460:	83c1                	srli	a5,a5,0x10
C:/Users/DELL/Desktop/01-Car_motion/Libraries/Device/CH32V10x_p/CH32V10x_Lib/ch32v10x_tim.c:202
  if(TIMx == TIM1)
    1462:	04d51263          	bne	a0,a3,14a6 <TIM_OC3Init+0x9c>
C:/Users/DELL/Desktop/01-Car_motion/Libraries/Device/CH32V10x_p/CH32V10x_Lib/ch32v10x_tim.c:204
  {
    tmpccer &= (uint16_t)(~((uint16_t)TIM_CC3NP));
    1466:	76fd                	lui	a3,0xfffff
    1468:	7ff68693          	addi	a3,a3,2047 # fffff7ff <_eusrstack+0xdfffa7ff>
    146c:	8ff5                	and	a5,a5,a3
C:/Users/DELL/Desktop/01-Car_motion/Libraries/Device/CH32V10x_p/CH32V10x_Lib/ch32v10x_tim.c:205
    tmpccer |= (uint16_t)(TIM_OCInitStruct->TIM_OCNPolarity << 8);
    146e:	00a5d683          	lhu	a3,10(a1)
C:/Users/DELL/Desktop/01-Car_motion/Libraries/Device/CH32V10x_p/CH32V10x_Lib/ch32v10x_tim.c:210
    tmpccer &= (uint16_t)(~((uint16_t)TIM_CC3NE));
    tmpccer |= (uint16_t)(TIM_OCInitStruct->TIM_OutputNState << 8);
    tmpcr2 &= (uint16_t)(~((uint16_t)TIM_OIS3));
    tmpcr2 &= (uint16_t)(~((uint16_t)TIM_OIS3N));
    tmpcr2 |= (uint16_t)(TIM_OCInitStruct->TIM_OCIdleState << 4);
    1472:	00c5d803          	lhu	a6,12(a1)
C:/Users/DELL/Desktop/01-Car_motion/Libraries/Device/CH32V10x_p/CH32V10x_Lib/ch32v10x_tim.c:205
    tmpccer |= (uint16_t)(TIM_OCInitStruct->TIM_OCNPolarity << 8);
    1476:	06a2                	slli	a3,a3,0x8
    1478:	8fd5                	or	a5,a5,a3
C:/Users/DELL/Desktop/01-Car_motion/Libraries/Device/CH32V10x_p/CH32V10x_Lib/ch32v10x_tim.c:207
    tmpccer |= (uint16_t)(TIM_OCInitStruct->TIM_OutputNState << 8);
    147a:	0045d683          	lhu	a3,4(a1)
C:/Users/DELL/Desktop/01-Car_motion/Libraries/Device/CH32V10x_p/CH32V10x_Lib/ch32v10x_tim.c:205
    tmpccer |= (uint16_t)(TIM_OCInitStruct->TIM_OCNPolarity << 8);
    147e:	07c2                	slli	a5,a5,0x10
    1480:	83c1                	srli	a5,a5,0x10
C:/Users/DELL/Desktop/01-Car_motion/Libraries/Device/CH32V10x_p/CH32V10x_Lib/ch32v10x_tim.c:207
    tmpccer |= (uint16_t)(TIM_OCInitStruct->TIM_OutputNState << 8);
    1482:	06a2                	slli	a3,a3,0x8
C:/Users/DELL/Desktop/01-Car_motion/Libraries/Device/CH32V10x_p/CH32V10x_Lib/ch32v10x_tim.c:206
    tmpccer &= (uint16_t)(~((uint16_t)TIM_CC3NE));
    1484:	bff7f793          	andi	a5,a5,-1025
C:/Users/DELL/Desktop/01-Car_motion/Libraries/Device/CH32V10x_p/CH32V10x_Lib/ch32v10x_tim.c:207
    tmpccer |= (uint16_t)(TIM_OCInitStruct->TIM_OutputNState << 8);
    1488:	8fd5                	or	a5,a5,a3
C:/Users/DELL/Desktop/01-Car_motion/Libraries/Device/CH32V10x_p/CH32V10x_Lib/ch32v10x_tim.c:209
    tmpcr2 &= (uint16_t)(~((uint16_t)TIM_OIS3N));
    148a:	76f5                	lui	a3,0xffffd
    148c:	16fd                	addi	a3,a3,-1
    148e:	8ef1                	and	a3,a3,a2
C:/Users/DELL/Desktop/01-Car_motion/Libraries/Device/CH32V10x_p/CH32V10x_Lib/ch32v10x_tim.c:211
    tmpcr2 |= (uint16_t)(TIM_OCInitStruct->TIM_OCNIdleState << 4);
    1490:	00e5d603          	lhu	a2,14(a1)
C:/Users/DELL/Desktop/01-Car_motion/Libraries/Device/CH32V10x_p/CH32V10x_Lib/ch32v10x_tim.c:207
    tmpccer |= (uint16_t)(TIM_OCInitStruct->TIM_OutputNState << 8);
    1494:	07c2                	slli	a5,a5,0x10
    1496:	83c1                	srli	a5,a5,0x10
C:/Users/DELL/Desktop/01-Car_motion/Libraries/Device/CH32V10x_p/CH32V10x_Lib/ch32v10x_tim.c:211
    tmpcr2 |= (uint16_t)(TIM_OCInitStruct->TIM_OCNIdleState << 4);
    1498:	01066633          	or	a2,a2,a6
    149c:	0612                	slli	a2,a2,0x4
    149e:	8ed1                	or	a3,a3,a2
    14a0:	01069613          	slli	a2,a3,0x10
    14a4:	8241                	srli	a2,a2,0x10
C:/Users/DELL/Desktop/01-Car_motion/Libraries/Device/CH32V10x_p/CH32V10x_Lib/ch32v10x_tim.c:214
  }

  TIMx->CTLR2 = tmpcr2;
    14a6:	00c51223          	sh	a2,4(a0)
C:/Users/DELL/Desktop/01-Car_motion/Libraries/Device/CH32V10x_p/CH32V10x_Lib/ch32v10x_tim.c:215
  TIMx->CHCTLR2 = tmpccmrx;
    14aa:	00e51e23          	sh	a4,28(a0)
C:/Users/DELL/Desktop/01-Car_motion/Libraries/Device/CH32V10x_p/CH32V10x_Lib/ch32v10x_tim.c:216
  TIMx->CH3CVR = TIM_OCInitStruct->TIM_Pulse;
    14ae:	0065d703          	lhu	a4,6(a1)
    14b2:	02e51e23          	sh	a4,60(a0)
C:/Users/DELL/Desktop/01-Car_motion/Libraries/Device/CH32V10x_p/CH32V10x_Lib/ch32v10x_tim.c:217
  TIMx->CCER = tmpccer;
    14b6:	02f51023          	sh	a5,32(a0)
C:/Users/DELL/Desktop/01-Car_motion/Libraries/Device/CH32V10x_p/CH32V10x_Lib/ch32v10x_tim.c:218
}
    14ba:	8082                	ret

000014bc <TIM_OC4Init>:
TIM_OC4Init():
C:/Users/DELL/Desktop/01-Car_motion/Libraries/Device/CH32V10x_p/CH32V10x_Lib/ch32v10x_tim.c:232
*******************************************************************************/
void TIM_OC4Init(TIM_TypeDef* TIMx, TIM_OCInitTypeDef* TIM_OCInitStruct)
{
  uint16_t tmpccmrx = 0, tmpccer = 0, tmpcr2 = 0;

  TIMx->CCER &= (uint16_t)(~((uint16_t)TIM_CC4E));
    14bc:	02055703          	lhu	a4,32(a0)
    14c0:	77fd                	lui	a5,0xfffff
    14c2:	17fd                	addi	a5,a5,-1
    14c4:	8ff9                	and	a5,a5,a4
    14c6:	02f51023          	sh	a5,32(a0)
C:/Users/DELL/Desktop/01-Car_motion/Libraries/Device/CH32V10x_p/CH32V10x_Lib/ch32v10x_tim.c:233
  tmpccer = TIMx->CCER;
    14ca:	02055803          	lhu	a6,32(a0)
C:/Users/DELL/Desktop/01-Car_motion/Libraries/Device/CH32V10x_p/CH32V10x_Lib/ch32v10x_tim.c:234
  tmpcr2 =  TIMx->CTLR2;
    14ce:	00455683          	lhu	a3,4(a0)
C:/Users/DELL/Desktop/01-Car_motion/Libraries/Device/CH32V10x_p/CH32V10x_Lib/ch32v10x_tim.c:235
  tmpccmrx = TIMx->CHCTLR2;
    14d2:	01c55783          	lhu	a5,28(a0)
C:/Users/DELL/Desktop/01-Car_motion/Libraries/Device/CH32V10x_p/CH32V10x_Lib/ch32v10x_tim.c:237
  tmpccmrx &= (uint16_t)(~((uint16_t)TIM_OC4M));
  tmpccmrx &= (uint16_t)(~((uint16_t)TIM_CC4S));
    14d6:	7765                	lui	a4,0xffff9
C:/Users/DELL/Desktop/01-Car_motion/Libraries/Device/CH32V10x_p/CH32V10x_Lib/ch32v10x_tim.c:238
  tmpccmrx |= (uint16_t)(TIM_OCInitStruct->TIM_OCMode << 8);
    14d8:	0005d603          	lhu	a2,0(a1)
C:/Users/DELL/Desktop/01-Car_motion/Libraries/Device/CH32V10x_p/CH32V10x_Lib/ch32v10x_tim.c:237
  tmpccmrx &= (uint16_t)(~((uint16_t)TIM_CC4S));
    14dc:	cff70713          	addi	a4,a4,-769 # ffff8cff <_eusrstack+0xdfff3cff>
    14e0:	8f7d                	and	a4,a4,a5
C:/Users/DELL/Desktop/01-Car_motion/Libraries/Device/CH32V10x_p/CH32V10x_Lib/ch32v10x_tim.c:239
  tmpccer &= (uint16_t)(~((uint16_t)TIM_CC4P));
    14e2:	77f9                	lui	a5,0xffffe
C:/Users/DELL/Desktop/01-Car_motion/Libraries/Device/CH32V10x_p/CH32V10x_Lib/ch32v10x_tim.c:238
  tmpccmrx |= (uint16_t)(TIM_OCInitStruct->TIM_OCMode << 8);
    14e4:	0622                	slli	a2,a2,0x8
C:/Users/DELL/Desktop/01-Car_motion/Libraries/Device/CH32V10x_p/CH32V10x_Lib/ch32v10x_tim.c:239
  tmpccer &= (uint16_t)(~((uint16_t)TIM_CC4P));
    14e6:	17fd                	addi	a5,a5,-1
C:/Users/DELL/Desktop/01-Car_motion/Libraries/Device/CH32V10x_p/CH32V10x_Lib/ch32v10x_tim.c:238
  tmpccmrx |= (uint16_t)(TIM_OCInitStruct->TIM_OCMode << 8);
    14e8:	8f51                	or	a4,a4,a2
C:/Users/DELL/Desktop/01-Car_motion/Libraries/Device/CH32V10x_p/CH32V10x_Lib/ch32v10x_tim.c:239
  tmpccer &= (uint16_t)(~((uint16_t)TIM_CC4P));
    14ea:	0107f7b3          	and	a5,a5,a6
C:/Users/DELL/Desktop/01-Car_motion/Libraries/Device/CH32V10x_p/CH32V10x_Lib/ch32v10x_tim.c:241
  tmpccer |= (uint16_t)(TIM_OCInitStruct->TIM_OCPolarity << 12);
  tmpccer |= (uint16_t)(TIM_OCInitStruct->TIM_OutputState << 12);
    14ee:	0025d603          	lhu	a2,2(a1)
C:/Users/DELL/Desktop/01-Car_motion/Libraries/Device/CH32V10x_p/CH32V10x_Lib/ch32v10x_tim.c:240
  tmpccer |= (uint16_t)(TIM_OCInitStruct->TIM_OCPolarity << 12);
    14f2:	0085d803          	lhu	a6,8(a1)
C:/Users/DELL/Desktop/01-Car_motion/Libraries/Device/CH32V10x_p/CH32V10x_Lib/ch32v10x_tim.c:234
  tmpcr2 =  TIMx->CTLR2;
    14f6:	06c2                	slli	a3,a3,0x10
C:/Users/DELL/Desktop/01-Car_motion/Libraries/Device/CH32V10x_p/CH32V10x_Lib/ch32v10x_tim.c:238
  tmpccmrx |= (uint16_t)(TIM_OCInitStruct->TIM_OCMode << 8);
    14f8:	0742                	slli	a4,a4,0x10
C:/Users/DELL/Desktop/01-Car_motion/Libraries/Device/CH32V10x_p/CH32V10x_Lib/ch32v10x_tim.c:241
  tmpccer |= (uint16_t)(TIM_OCInitStruct->TIM_OutputState << 12);
    14fa:	01066633          	or	a2,a2,a6
    14fe:	0632                	slli	a2,a2,0xc
    1500:	8fd1                	or	a5,a5,a2
C:/Users/DELL/Desktop/01-Car_motion/Libraries/Device/CH32V10x_p/CH32V10x_Lib/ch32v10x_tim.c:243
    
  if(TIMx == TIM1)
    1502:	40013637          	lui	a2,0x40013
C:/Users/DELL/Desktop/01-Car_motion/Libraries/Device/CH32V10x_p/CH32V10x_Lib/ch32v10x_tim.c:241
  tmpccer |= (uint16_t)(TIM_OCInitStruct->TIM_OutputState << 12);
    1506:	07c2                	slli	a5,a5,0x10
C:/Users/DELL/Desktop/01-Car_motion/Libraries/Device/CH32V10x_p/CH32V10x_Lib/ch32v10x_tim.c:243
  if(TIMx == TIM1)
    1508:	c0060613          	addi	a2,a2,-1024 # 40012c00 <_eusrstack+0x2000dc00>
C:/Users/DELL/Desktop/01-Car_motion/Libraries/Device/CH32V10x_p/CH32V10x_Lib/ch32v10x_tim.c:234
  tmpcr2 =  TIMx->CTLR2;
    150c:	82c1                	srli	a3,a3,0x10
C:/Users/DELL/Desktop/01-Car_motion/Libraries/Device/CH32V10x_p/CH32V10x_Lib/ch32v10x_tim.c:238
  tmpccmrx |= (uint16_t)(TIM_OCInitStruct->TIM_OCMode << 8);
    150e:	8341                	srli	a4,a4,0x10
C:/Users/DELL/Desktop/01-Car_motion/Libraries/Device/CH32V10x_p/CH32V10x_Lib/ch32v10x_tim.c:241
  tmpccer |= (uint16_t)(TIM_OCInitStruct->TIM_OutputState << 12);
    1510:	83c1                	srli	a5,a5,0x10
C:/Users/DELL/Desktop/01-Car_motion/Libraries/Device/CH32V10x_p/CH32V10x_Lib/ch32v10x_tim.c:243
  if(TIMx == TIM1)
    1512:	00c51b63          	bne	a0,a2,1528 <TIM_OC4Init+0x6c>
C:/Users/DELL/Desktop/01-Car_motion/Libraries/Device/CH32V10x_p/CH32V10x_Lib/ch32v10x_tim.c:245
  {
    tmpcr2 &= (uint16_t)(~((uint16_t)TIM_OIS4));
    1516:	7671                	lui	a2,0xffffc
    1518:	167d                	addi	a2,a2,-1
    151a:	8ef1                	and	a3,a3,a2
C:/Users/DELL/Desktop/01-Car_motion/Libraries/Device/CH32V10x_p/CH32V10x_Lib/ch32v10x_tim.c:246
    tmpcr2 |= (uint16_t)(TIM_OCInitStruct->TIM_OCIdleState << 6);
    151c:	00c5d603          	lhu	a2,12(a1)
    1520:	061a                	slli	a2,a2,0x6
    1522:	8ed1                	or	a3,a3,a2
    1524:	06c2                	slli	a3,a3,0x10
    1526:	82c1                	srli	a3,a3,0x10
C:/Users/DELL/Desktop/01-Car_motion/Libraries/Device/CH32V10x_p/CH32V10x_Lib/ch32v10x_tim.c:249
  }

  TIMx->CTLR2 = tmpcr2; 
    1528:	00d51223          	sh	a3,4(a0)
C:/Users/DELL/Desktop/01-Car_motion/Libraries/Device/CH32V10x_p/CH32V10x_Lib/ch32v10x_tim.c:250
  TIMx->CHCTLR2 = tmpccmrx;
    152c:	00e51e23          	sh	a4,28(a0)
C:/Users/DELL/Desktop/01-Car_motion/Libraries/Device/CH32V10x_p/CH32V10x_Lib/ch32v10x_tim.c:251
  TIMx->CH4CVR = TIM_OCInitStruct->TIM_Pulse;
    1530:	0065d703          	lhu	a4,6(a1)
    1534:	04e51023          	sh	a4,64(a0)
C:/Users/DELL/Desktop/01-Car_motion/Libraries/Device/CH32V10x_p/CH32V10x_Lib/ch32v10x_tim.c:252
  TIMx->CCER = tmpccer;
    1538:	02f51023          	sh	a5,32(a0)
C:/Users/DELL/Desktop/01-Car_motion/Libraries/Device/CH32V10x_p/CH32V10x_Lib/ch32v10x_tim.c:253
}
    153c:	8082                	ret

0000153e <TIM_Cmd>:
TIM_Cmd():
C:/Users/DELL/Desktop/01-Car_motion/Libraries/Device/CH32V10x_p/CH32V10x_Lib/ch32v10x_tim.c:436
*******************************************************************************/
void TIM_Cmd(TIM_TypeDef* TIMx, FunctionalState NewState)
{ 
  if (NewState != DISABLE)
  {
    TIMx->CTLR1 |= TIM_CEN;
    153e:	00055783          	lhu	a5,0(a0)
C:/Users/DELL/Desktop/01-Car_motion/Libraries/Device/CH32V10x_p/CH32V10x_Lib/ch32v10x_tim.c:434
  if (NewState != DISABLE)
    1542:	c591                	beqz	a1,154e <TIM_Cmd+0x10>
C:/Users/DELL/Desktop/01-Car_motion/Libraries/Device/CH32V10x_p/CH32V10x_Lib/ch32v10x_tim.c:436
    TIMx->CTLR1 |= TIM_CEN;
    1544:	0017e793          	ori	a5,a5,1
C:/Users/DELL/Desktop/01-Car_motion/Libraries/Device/CH32V10x_p/CH32V10x_Lib/ch32v10x_tim.c:440
  }
  else
  {
    TIMx->CTLR1 &= (uint16_t)(~((uint16_t)TIM_CEN));
    1548:	00f51023          	sh	a5,0(a0)
C:/Users/DELL/Desktop/01-Car_motion/Libraries/Device/CH32V10x_p/CH32V10x_Lib/ch32v10x_tim.c:442
  }
}
    154c:	8082                	ret
C:/Users/DELL/Desktop/01-Car_motion/Libraries/Device/CH32V10x_p/CH32V10x_Lib/ch32v10x_tim.c:440
    TIMx->CTLR1 &= (uint16_t)(~((uint16_t)TIM_CEN));
    154e:	07c2                	slli	a5,a5,0x10
    1550:	83c1                	srli	a5,a5,0x10
    1552:	9bf9                	andi	a5,a5,-2
    1554:	07c2                	slli	a5,a5,0x10
    1556:	83c1                	srli	a5,a5,0x10
    1558:	bfc5                	j	1548 <TIM_Cmd+0xa>

0000155a <TIM_CtrlPWMOutputs>:
TIM_CtrlPWMOutputs():
C:/Users/DELL/Desktop/01-Car_motion/Libraries/Device/CH32V10x_p/CH32V10x_Lib/ch32v10x_tim.c:455
*******************************************************************************/
void TIM_CtrlPWMOutputs(TIM_TypeDef* TIMx, FunctionalState NewState)
{
  if (NewState != DISABLE)
  {
    TIMx->BDTR |= TIM_MOE;
    155a:	04455783          	lhu	a5,68(a0)
C:/Users/DELL/Desktop/01-Car_motion/Libraries/Device/CH32V10x_p/CH32V10x_Lib/ch32v10x_tim.c:453
  if (NewState != DISABLE)
    155e:	c591                	beqz	a1,156a <TIM_CtrlPWMOutputs+0x10>
C:/Users/DELL/Desktop/01-Car_motion/Libraries/Device/CH32V10x_p/CH32V10x_Lib/ch32v10x_tim.c:455
    TIMx->BDTR |= TIM_MOE;
    1560:	6721                	lui	a4,0x8
    1562:	8fd9                	or	a5,a5,a4
C:/Users/DELL/Desktop/01-Car_motion/Libraries/Device/CH32V10x_p/CH32V10x_Lib/ch32v10x_tim.c:459
  }
  else
  {
    TIMx->BDTR &= (uint16_t)(~((uint16_t)TIM_MOE));
    1564:	04f51223          	sh	a5,68(a0)
C:/Users/DELL/Desktop/01-Car_motion/Libraries/Device/CH32V10x_p/CH32V10x_Lib/ch32v10x_tim.c:461
  }  
}
    1568:	8082                	ret
C:/Users/DELL/Desktop/01-Car_motion/Libraries/Device/CH32V10x_p/CH32V10x_Lib/ch32v10x_tim.c:459
    TIMx->BDTR &= (uint16_t)(~((uint16_t)TIM_MOE));
    156a:	07c6                	slli	a5,a5,0x11
    156c:	83c5                	srli	a5,a5,0x11
    156e:	bfdd                	j	1564 <TIM_CtrlPWMOutputs+0xa>

00001570 <TIM_OC1PreloadConfig>:
TIM_OC1PreloadConfig():
C:/Users/DELL/Desktop/01-Car_motion/Libraries/Device/CH32V10x_p/CH32V10x_Lib/ch32v10x_tim.c:984
*******************************************************************************/
void TIM_OC1PreloadConfig(TIM_TypeDef* TIMx, uint16_t TIM_OCPreload)
{
  uint16_t tmpccmr1 = 0;

  tmpccmr1 = TIMx->CHCTLR1;
    1570:	01855783          	lhu	a5,24(a0)
    1574:	07c2                	slli	a5,a5,0x10
    1576:	83c1                	srli	a5,a5,0x10
C:/Users/DELL/Desktop/01-Car_motion/Libraries/Device/CH32V10x_p/CH32V10x_Lib/ch32v10x_tim.c:985
  tmpccmr1 &= (uint16_t)~((uint16_t)TIM_OC1PE);
    1578:	9bdd                	andi	a5,a5,-9
C:/Users/DELL/Desktop/01-Car_motion/Libraries/Device/CH32V10x_p/CH32V10x_Lib/ch32v10x_tim.c:986
  tmpccmr1 |= TIM_OCPreload;
    157a:	8ddd                	or	a1,a1,a5
C:/Users/DELL/Desktop/01-Car_motion/Libraries/Device/CH32V10x_p/CH32V10x_Lib/ch32v10x_tim.c:987
  TIMx->CHCTLR1 = tmpccmr1;
    157c:	00b51c23          	sh	a1,24(a0)
C:/Users/DELL/Desktop/01-Car_motion/Libraries/Device/CH32V10x_p/CH32V10x_Lib/ch32v10x_tim.c:988
}
    1580:	8082                	ret

00001582 <TIM_OC2PreloadConfig>:
TIM_OC2PreloadConfig():
C:/Users/DELL/Desktop/01-Car_motion/Libraries/Device/CH32V10x_p/CH32V10x_Lib/ch32v10x_tim.c:1003
*******************************************************************************/
void TIM_OC2PreloadConfig(TIM_TypeDef* TIMx, uint16_t TIM_OCPreload)
{
  uint16_t tmpccmr1 = 0;

  tmpccmr1 = TIMx->CHCTLR1;
    1582:	01855703          	lhu	a4,24(a0)
C:/Users/DELL/Desktop/01-Car_motion/Libraries/Device/CH32V10x_p/CH32V10x_Lib/ch32v10x_tim.c:1004
  tmpccmr1 &= (uint16_t)~((uint16_t)TIM_OC2PE);
    1586:	77fd                	lui	a5,0xfffff
    1588:	7ff78793          	addi	a5,a5,2047 # fffff7ff <_eusrstack+0xdfffa7ff>
    158c:	8ff9                	and	a5,a5,a4
C:/Users/DELL/Desktop/01-Car_motion/Libraries/Device/CH32V10x_p/CH32V10x_Lib/ch32v10x_tim.c:1005
  tmpccmr1 |= (uint16_t)(TIM_OCPreload << 8);	
    158e:	05a2                	slli	a1,a1,0x8
    1590:	8fcd                	or	a5,a5,a1
    1592:	07c2                	slli	a5,a5,0x10
    1594:	83c1                	srli	a5,a5,0x10
C:/Users/DELL/Desktop/01-Car_motion/Libraries/Device/CH32V10x_p/CH32V10x_Lib/ch32v10x_tim.c:1006
  TIMx->CHCTLR1 = tmpccmr1;
    1596:	00f51c23          	sh	a5,24(a0)
C:/Users/DELL/Desktop/01-Car_motion/Libraries/Device/CH32V10x_p/CH32V10x_Lib/ch32v10x_tim.c:1007
}
    159a:	8082                	ret

0000159c <TIM_OC3PreloadConfig>:
TIM_OC3PreloadConfig():
C:/Users/DELL/Desktop/01-Car_motion/Libraries/Device/CH32V10x_p/CH32V10x_Lib/ch32v10x_tim.c:1022
*******************************************************************************/
void TIM_OC3PreloadConfig(TIM_TypeDef* TIMx, uint16_t TIM_OCPreload)
{
  uint16_t tmpccmr2 = 0;

  tmpccmr2 = TIMx->CHCTLR2;
    159c:	01c55783          	lhu	a5,28(a0)
    15a0:	07c2                	slli	a5,a5,0x10
    15a2:	83c1                	srli	a5,a5,0x10
C:/Users/DELL/Desktop/01-Car_motion/Libraries/Device/CH32V10x_p/CH32V10x_Lib/ch32v10x_tim.c:1023
  tmpccmr2 &= (uint16_t)~((uint16_t)TIM_OC3PE);
    15a4:	9bdd                	andi	a5,a5,-9
C:/Users/DELL/Desktop/01-Car_motion/Libraries/Device/CH32V10x_p/CH32V10x_Lib/ch32v10x_tim.c:1024
  tmpccmr2 |= TIM_OCPreload;
    15a6:	8ddd                	or	a1,a1,a5
C:/Users/DELL/Desktop/01-Car_motion/Libraries/Device/CH32V10x_p/CH32V10x_Lib/ch32v10x_tim.c:1025
  TIMx->CHCTLR2 = tmpccmr2;
    15a8:	00b51e23          	sh	a1,28(a0)
C:/Users/DELL/Desktop/01-Car_motion/Libraries/Device/CH32V10x_p/CH32V10x_Lib/ch32v10x_tim.c:1026
}
    15ac:	8082                	ret

000015ae <TIM_OC4PreloadConfig>:
TIM_OC4PreloadConfig():
C:/Users/DELL/Desktop/01-Car_motion/Libraries/Device/CH32V10x_p/CH32V10x_Lib/ch32v10x_tim.c:1041
*******************************************************************************/
void TIM_OC4PreloadConfig(TIM_TypeDef* TIMx, uint16_t TIM_OCPreload)
{
  uint16_t tmpccmr2 = 0;

  tmpccmr2 = TIMx->CHCTLR2;
    15ae:	01c55703          	lhu	a4,28(a0)
C:/Users/DELL/Desktop/01-Car_motion/Libraries/Device/CH32V10x_p/CH32V10x_Lib/ch32v10x_tim.c:1042
  tmpccmr2 &= (uint16_t)~((uint16_t)TIM_OC4PE);
    15b2:	77fd                	lui	a5,0xfffff
    15b4:	7ff78793          	addi	a5,a5,2047 # fffff7ff <_eusrstack+0xdfffa7ff>
    15b8:	8ff9                	and	a5,a5,a4
C:/Users/DELL/Desktop/01-Car_motion/Libraries/Device/CH32V10x_p/CH32V10x_Lib/ch32v10x_tim.c:1043
  tmpccmr2 |= (uint16_t)(TIM_OCPreload << 8);
    15ba:	05a2                	slli	a1,a1,0x8
    15bc:	8fcd                	or	a5,a5,a1
    15be:	07c2                	slli	a5,a5,0x10
    15c0:	83c1                	srli	a5,a5,0x10
C:/Users/DELL/Desktop/01-Car_motion/Libraries/Device/CH32V10x_p/CH32V10x_Lib/ch32v10x_tim.c:1044
  TIMx->CHCTLR2 = tmpccmr2;
    15c2:	00f51e23          	sh	a5,28(a0)
C:/Users/DELL/Desktop/01-Car_motion/Libraries/Device/CH32V10x_p/CH32V10x_Lib/ch32v10x_tim.c:1045
}
    15c6:	8082                	ret

000015c8 <TIM_OC2PolarityConfig>:
TIM_OC2PolarityConfig():
C:/Users/DELL/Desktop/01-Car_motion/Libraries/Device/CH32V10x_p/CH32V10x_Lib/ch32v10x_tim.c:1250
*******************************************************************************/
void TIM_OC2PolarityConfig(TIM_TypeDef* TIMx, uint16_t TIM_OCPolarity)
{
  uint16_t tmpccer = 0;

  tmpccer = TIMx->CCER;
    15c8:	02055783          	lhu	a5,32(a0)
C:/Users/DELL/Desktop/01-Car_motion/Libraries/Device/CH32V10x_p/CH32V10x_Lib/ch32v10x_tim.c:1252
  tmpccer &= (uint16_t)~((uint16_t)TIM_CC2P);
  tmpccer |= (uint16_t)(TIM_OCPolarity << 4);
    15cc:	0592                	slli	a1,a1,0x4
C:/Users/DELL/Desktop/01-Car_motion/Libraries/Device/CH32V10x_p/CH32V10x_Lib/ch32v10x_tim.c:1250
  tmpccer = TIMx->CCER;
    15ce:	07c2                	slli	a5,a5,0x10
    15d0:	83c1                	srli	a5,a5,0x10
C:/Users/DELL/Desktop/01-Car_motion/Libraries/Device/CH32V10x_p/CH32V10x_Lib/ch32v10x_tim.c:1251
  tmpccer &= (uint16_t)~((uint16_t)TIM_CC2P);
    15d2:	fdf7f793          	andi	a5,a5,-33
C:/Users/DELL/Desktop/01-Car_motion/Libraries/Device/CH32V10x_p/CH32V10x_Lib/ch32v10x_tim.c:1252
  tmpccer |= (uint16_t)(TIM_OCPolarity << 4);
    15d6:	8fcd                	or	a5,a5,a1
    15d8:	07c2                	slli	a5,a5,0x10
    15da:	83c1                	srli	a5,a5,0x10
C:/Users/DELL/Desktop/01-Car_motion/Libraries/Device/CH32V10x_p/CH32V10x_Lib/ch32v10x_tim.c:1253
  TIMx->CCER = tmpccer;
    15dc:	02f51023          	sh	a5,32(a0)
C:/Users/DELL/Desktop/01-Car_motion/Libraries/Device/CH32V10x_p/CH32V10x_Lib/ch32v10x_tim.c:1254
}
    15e0:	8082                	ret

000015e2 <TIM_ClearFlag>:
TIM_ClearFlag():
C:/Users/DELL/Desktop/01-Car_motion/Libraries/Device/CH32V10x_p/CH32V10x_Lib/ch32v10x_tim.c:1834
*                    TIM_FLAG_CC4OF: TIM Capture Compare 4 overcapture Flag.
* Return         : None
*******************************************************************************/
void TIM_ClearFlag(TIM_TypeDef* TIMx, uint16_t TIM_FLAG)
{  
  TIMx->INTFR = (uint16_t)~TIM_FLAG;
    15e2:	fff5c593          	not	a1,a1
    15e6:	05c2                	slli	a1,a1,0x10
    15e8:	81c1                	srli	a1,a1,0x10
    15ea:	00b51823          	sh	a1,16(a0)
C:/Users/DELL/Desktop/01-Car_motion/Libraries/Device/CH32V10x_p/CH32V10x_Lib/ch32v10x_tim.c:1835
}
    15ee:	8082                	ret

000015f0 <TIM_GetITStatus>:
TIM_GetITStatus():
C:/Users/DELL/Desktop/01-Car_motion/Libraries/Device/CH32V10x_p/CH32V10x_Lib/ch32v10x_tim.c:1857
ITStatus TIM_GetITStatus(TIM_TypeDef* TIMx, uint16_t TIM_IT)
{
  ITStatus bitstatus = RESET;  
  uint16_t itstatus = 0x0, itenable = 0x0;
   
  itstatus = TIMx->INTFR & TIM_IT;
    15f0:	01055783          	lhu	a5,16(a0)
C:/Users/DELL/Desktop/01-Car_motion/Libraries/Device/CH32V10x_p/CH32V10x_Lib/ch32v10x_tim.c:1859
  
  itenable = TIMx->DMAINTENR & TIM_IT;
    15f4:	00c55503          	lhu	a0,12(a0)
C:/Users/DELL/Desktop/01-Car_motion/Libraries/Device/CH32V10x_p/CH32V10x_Lib/ch32v10x_tim.c:1860
  if ((itstatus != (uint16_t)RESET) && (itenable != (uint16_t)RESET))
    15f8:	8fed                	and	a5,a5,a1
C:/Users/DELL/Desktop/01-Car_motion/Libraries/Device/CH32V10x_p/CH32V10x_Lib/ch32v10x_tim.c:1859
  itenable = TIMx->DMAINTENR & TIM_IT;
    15fa:	0542                	slli	a0,a0,0x10
    15fc:	8141                	srli	a0,a0,0x10
C:/Users/DELL/Desktop/01-Car_motion/Libraries/Device/CH32V10x_p/CH32V10x_Lib/ch32v10x_tim.c:1860
  if ((itstatus != (uint16_t)RESET) && (itenable != (uint16_t)RESET))
    15fe:	c789                	beqz	a5,1608 <TIM_GetITStatus+0x18>
C:/Users/DELL/Desktop/01-Car_motion/Libraries/Device/CH32V10x_p/CH32V10x_Lib/ch32v10x_tim.c:1860 (discriminator 1)
    1600:	8d6d                	and	a0,a0,a1
    1602:	00a03533          	snez	a0,a0
    1606:	8082                	ret
C:/Users/DELL/Desktop/01-Car_motion/Libraries/Device/CH32V10x_p/CH32V10x_Lib/ch32v10x_tim.c:1866
  {
    bitstatus = SET;
  }
  else
  {
    bitstatus = RESET;
    1608:	4501                	li	a0,0
C:/Users/DELL/Desktop/01-Car_motion/Libraries/Device/CH32V10x_p/CH32V10x_Lib/ch32v10x_tim.c:1870
  }
	
  return bitstatus;
}
    160a:	8082                	ret

0000160c <TIM_ClearITPendingBit>:
TIM_ClearITPendingBit():
    160c:	fff5c593          	not	a1,a1
    1610:	05c2                	slli	a1,a1,0x10
    1612:	81c1                	srli	a1,a1,0x10
    1614:	00b51823          	sh	a1,16(a0)
    1618:	8082                	ret

0000161a <USART_Init>:
USART_Init():
C:/Users/DELL/Desktop/01-Car_motion/Libraries/Device/CH32V10x_p/CH32V10x_Lib/ch32v10x_usart.c:117
  if (USART_InitStruct->USART_HardwareFlowControl != USART_HardwareFlowControl_None)
  {
  }

  usartxbase = (uint32_t)USARTx;
  tmpreg = USARTx->CTLR2;
    161a:	01055683          	lhu	a3,16(a0)
    161e:	77f5                	lui	a5,0xffffd
    1620:	17fd                	addi	a5,a5,-1
    1622:	8ff5                	and	a5,a5,a3
    1624:	0065d683          	lhu	a3,6(a1)
C:/Users/DELL/Desktop/01-Car_motion/Libraries/Device/CH32V10x_p/CH32V10x_Lib/ch32v10x_usart.c:105
{
    1628:	7139                	addi	sp,sp,-64
    162a:	dc22                	sw	s0,56(sp)
    162c:	de06                	sw	ra,60(sp)
    162e:	8fd5                	or	a5,a5,a3
C:/Users/DELL/Desktop/01-Car_motion/Libraries/Device/CH32V10x_p/CH32V10x_Lib/ch32v10x_usart.c:112
  if (USART_InitStruct->USART_HardwareFlowControl != USART_HardwareFlowControl_None)
    1630:	00c5d703          	lhu	a4,12(a1)
C:/Users/DELL/Desktop/01-Car_motion/Libraries/Device/CH32V10x_p/CH32V10x_Lib/ch32v10x_usart.c:121
  tmpreg &= CTLR2_STOP_CLEAR_Mask;
  tmpreg |= (uint32_t)USART_InitStruct->USART_StopBits;  
	
  USARTx->CTLR2 = (uint16_t)tmpreg;
    1634:	00f51823          	sh	a5,16(a0)
C:/Users/DELL/Desktop/01-Car_motion/Libraries/Device/CH32V10x_p/CH32V10x_Lib/ch32v10x_usart.c:122
  tmpreg = USARTx->CTLR1;
    1638:	00c55683          	lhu	a3,12(a0)
C:/Users/DELL/Desktop/01-Car_motion/Libraries/Device/CH32V10x_p/CH32V10x_Lib/ch32v10x_usart.c:124
  tmpreg &= CTLR1_CLEAR_Mask;
  tmpreg |= (uint32_t)USART_InitStruct->USART_WordLength | USART_InitStruct->USART_Parity |
    163c:	77fd                	lui	a5,0xfffff
    163e:	9f378793          	addi	a5,a5,-1549 # ffffe9f3 <_eusrstack+0xdfff99f3>
    1642:	8ff5                	and	a5,a5,a3
    1644:	0045d683          	lhu	a3,4(a1)
C:/Users/DELL/Desktop/01-Car_motion/Libraries/Device/CH32V10x_p/CH32V10x_Lib/ch32v10x_usart.c:105
{
    1648:	842a                	mv	s0,a0
    164a:	c62e                	sw	a1,12(sp)
    164c:	8fd5                	or	a5,a5,a3
    164e:	0085d683          	lhu	a3,8(a1)
    1652:	8fd5                	or	a5,a5,a3
    1654:	00a5d683          	lhu	a3,10(a1)
    1658:	8fd5                	or	a5,a5,a3
C:/Users/DELL/Desktop/01-Car_motion/Libraries/Device/CH32V10x_p/CH32V10x_Lib/ch32v10x_usart.c:126
            USART_InitStruct->USART_Mode;
  USARTx->CTLR1 = (uint16_t)tmpreg;
    165a:	00f51623          	sh	a5,12(a0)
C:/Users/DELL/Desktop/01-Car_motion/Libraries/Device/CH32V10x_p/CH32V10x_Lib/ch32v10x_usart.c:128
 
  tmpreg = USARTx->CTLR3;
    165e:	01455783          	lhu	a5,20(a0)
    1662:	07c2                	slli	a5,a5,0x10
    1664:	83c1                	srli	a5,a5,0x10
C:/Users/DELL/Desktop/01-Car_motion/Libraries/Device/CH32V10x_p/CH32V10x_Lib/ch32v10x_usart.c:130
  tmpreg &= CTLR3_CLEAR_Mask;
  tmpreg |= USART_InitStruct->USART_HardwareFlowControl;
    1666:	cff7f793          	andi	a5,a5,-769
    166a:	8fd9                	or	a5,a5,a4
C:/Users/DELL/Desktop/01-Car_motion/Libraries/Device/CH32V10x_p/CH32V10x_Lib/ch32v10x_usart.c:131
  USARTx->CTLR3 = (uint16_t)tmpreg;
    166c:	00f51a23          	sh	a5,20(a0)
C:/Users/DELL/Desktop/01-Car_motion/Libraries/Device/CH32V10x_p/CH32V10x_Lib/ch32v10x_usart.c:133

  RCC_GetClocksFreq(&RCC_ClocksStatus);
    1670:	0868                	addi	a0,sp,28
    1672:	3cd5                	jal	1166 <RCC_GetClocksFreq>
C:/Users/DELL/Desktop/01-Car_motion/Libraries/Device/CH32V10x_p/CH32V10x_Lib/ch32v10x_usart.c:135
	
  if (usartxbase == USART1_BASE)
    1674:	400147b7          	lui	a5,0x40014
    1678:	80078793          	addi	a5,a5,-2048 # 40013800 <_eusrstack+0x2000e800>
    167c:	45b2                	lw	a1,12(sp)
    167e:	04f41e63          	bne	s0,a5,16da <USART_Init+0xc0>
C:/Users/DELL/Desktop/01-Car_motion/Libraries/Device/CH32V10x_p/CH32V10x_Lib/ch32v10x_usart.c:137
  {
    apbclock = RCC_ClocksStatus.PCLK2_Frequency;
    1682:	57a2                	lw	a5,40(sp)
C:/Users/DELL/Desktop/01-Car_motion/Libraries/Device/CH32V10x_p/CH32V10x_Lib/ch32v10x_usart.c:144
  else
  {
    apbclock = RCC_ClocksStatus.PCLK1_Frequency;
  }
  
  if ((USARTx->CTLR1 & CTLR1_OVER8_Set) != 0)
    1684:	00c45683          	lhu	a3,12(s0)
    1688:	4765                	li	a4,25
    168a:	02e787b3          	mul	a5,a5,a4
    168e:	06c2                	slli	a3,a3,0x10
    1690:	86c1                	srai	a3,a3,0x10
    1692:	4198                	lw	a4,0(a1)
    1694:	0406d563          	bgez	a3,16de <USART_Init+0xc4>
C:/Users/DELL/Desktop/01-Car_motion/Libraries/Device/CH32V10x_p/CH32V10x_Lib/ch32v10x_usart.c:146
  {
    integerdivider = ((25 * apbclock) / (2 * (USART_InitStruct->USART_BaudRate)));    
    1698:	0706                	slli	a4,a4,0x1
C:/Users/DELL/Desktop/01-Car_motion/Libraries/Device/CH32V10x_p/CH32V10x_Lib/ch32v10x_usart.c:156
  }
  tmpreg = (integerdivider / 100) << 4;

  fractionaldivider = integerdivider - (100 * (tmpreg >> 4));

  if ((USARTx->CTLR1 & CTLR1_OVER8_Set) != 0)
    169a:	00c45603          	lhu	a2,12(s0)
    169e:	0642                	slli	a2,a2,0x10
C:/Users/DELL/Desktop/01-Car_motion/Libraries/Device/CH32V10x_p/CH32V10x_Lib/ch32v10x_usart.c:150
    integerdivider = ((25 * apbclock) / (4 * (USART_InitStruct->USART_BaudRate)));    
    16a0:	02e7d7b3          	divu	a5,a5,a4
C:/Users/DELL/Desktop/01-Car_motion/Libraries/Device/CH32V10x_p/CH32V10x_Lib/ch32v10x_usart.c:152
  tmpreg = (integerdivider / 100) << 4;
    16a4:	06400713          	li	a4,100
C:/Users/DELL/Desktop/01-Car_motion/Libraries/Device/CH32V10x_p/CH32V10x_Lib/ch32v10x_usart.c:156
  if ((USARTx->CTLR1 & CTLR1_OVER8_Set) != 0)
    16a8:	8641                	srai	a2,a2,0x10
C:/Users/DELL/Desktop/01-Car_motion/Libraries/Device/CH32V10x_p/CH32V10x_Lib/ch32v10x_usart.c:152
  tmpreg = (integerdivider / 100) << 4;
    16aa:	02e7d6b3          	divu	a3,a5,a4
    16ae:	02e7f7b3          	remu	a5,a5,a4
    16b2:	0692                	slli	a3,a3,0x4
C:/Users/DELL/Desktop/01-Car_motion/Libraries/Device/CH32V10x_p/CH32V10x_Lib/ch32v10x_usart.c:156
  if ((USARTx->CTLR1 & CTLR1_OVER8_Set) != 0)
    16b4:	02065763          	bgez	a2,16e2 <USART_Init+0xc8>
C:/Users/DELL/Desktop/01-Car_motion/Libraries/Device/CH32V10x_p/CH32V10x_Lib/ch32v10x_usart.c:158
  {
    tmpreg |= ((((fractionaldivider * 8) + 50) / 100)) & ((uint8_t)0x07);
    16b8:	078e                	slli	a5,a5,0x3
    16ba:	03278793          	addi	a5,a5,50
    16be:	02e7d7b3          	divu	a5,a5,a4
    16c2:	0077f713          	andi	a4,a5,7
    16c6:	00d767b3          	or	a5,a4,a3
C:/Users/DELL/Desktop/01-Car_motion/Libraries/Device/CH32V10x_p/CH32V10x_Lib/ch32v10x_usart.c:165
  else 
  {
    tmpreg |= ((((fractionaldivider * 16) + 50) / 100)) & ((uint8_t)0x0F);
  }
  
  USARTx->BRR = (uint16_t)tmpreg;
    16ca:	07c2                	slli	a5,a5,0x10
    16cc:	83c1                	srli	a5,a5,0x10
    16ce:	00f41423          	sh	a5,8(s0)
C:/Users/DELL/Desktop/01-Car_motion/Libraries/Device/CH32V10x_p/CH32V10x_Lib/ch32v10x_usart.c:166
}
    16d2:	50f2                	lw	ra,60(sp)
    16d4:	5462                	lw	s0,56(sp)
    16d6:	6121                	addi	sp,sp,64
    16d8:	8082                	ret
C:/Users/DELL/Desktop/01-Car_motion/Libraries/Device/CH32V10x_p/CH32V10x_Lib/ch32v10x_usart.c:141
    apbclock = RCC_ClocksStatus.PCLK1_Frequency;
    16da:	5792                	lw	a5,36(sp)
    16dc:	b765                	j	1684 <USART_Init+0x6a>
C:/Users/DELL/Desktop/01-Car_motion/Libraries/Device/CH32V10x_p/CH32V10x_Lib/ch32v10x_usart.c:150
    integerdivider = ((25 * apbclock) / (4 * (USART_InitStruct->USART_BaudRate)));    
    16de:	070a                	slli	a4,a4,0x2
    16e0:	bf6d                	j	169a <USART_Init+0x80>
C:/Users/DELL/Desktop/01-Car_motion/Libraries/Device/CH32V10x_p/CH32V10x_Lib/ch32v10x_usart.c:162
    tmpreg |= ((((fractionaldivider * 16) + 50) / 100)) & ((uint8_t)0x0F);
    16e2:	0792                	slli	a5,a5,0x4
    16e4:	03278793          	addi	a5,a5,50
    16e8:	02e7d7b3          	divu	a5,a5,a4
    16ec:	8bbd                	andi	a5,a5,15
    16ee:	8fd5                	or	a5,a5,a3
    16f0:	bfe9                	j	16ca <USART_Init+0xb0>

000016f2 <USART_Cmd>:
USART_Cmd():
C:/Users/DELL/Desktop/01-Car_motion/Libraries/Device/CH32V10x_p/CH32V10x_Lib/ch32v10x_usart.c:230
*                  NewState: ENABLE or DISABLE.
* Return         : None
*******************************************************************************/
void USART_Cmd(USART_TypeDef* USARTx, FunctionalState NewState)
{
  if (NewState != DISABLE)
    16f2:	c981                	beqz	a1,1702 <USART_Cmd+0x10>
C:/Users/DELL/Desktop/01-Car_motion/Libraries/Device/CH32V10x_p/CH32V10x_Lib/ch32v10x_usart.c:232
  {
    USARTx->CTLR1 |= CTLR1_UE_Set;
    16f4:	00c55783          	lhu	a5,12(a0)
    16f8:	6709                	lui	a4,0x2
    16fa:	8fd9                	or	a5,a5,a4
C:/Users/DELL/Desktop/01-Car_motion/Libraries/Device/CH32V10x_p/CH32V10x_Lib/ch32v10x_usart.c:236
  }
  else
  {
    USARTx->CTLR1 &= CTLR1_UE_Reset;
    16fc:	00f51623          	sh	a5,12(a0)
C:/Users/DELL/Desktop/01-Car_motion/Libraries/Device/CH32V10x_p/CH32V10x_Lib/ch32v10x_usart.c:238
  }
}
    1700:	8082                	ret
C:/Users/DELL/Desktop/01-Car_motion/Libraries/Device/CH32V10x_p/CH32V10x_Lib/ch32v10x_usart.c:236
    USARTx->CTLR1 &= CTLR1_UE_Reset;
    1702:	00c55703          	lhu	a4,12(a0)
    1706:	77f9                	lui	a5,0xffffe
    1708:	17fd                	addi	a5,a5,-1
    170a:	8ff9                	and	a5,a5,a4
    170c:	bfc5                	j	16fc <USART_Cmd+0xa>

0000170e <USART_GetITStatus>:
USART_GetITStatus():
C:/Users/DELL/Desktop/01-Car_motion/Libraries/Device/CH32V10x_p/CH32V10x_Lib/ch32v10x_usart.c:668

  if (USART_IT == USART_IT_CTS)
  {
  }   
  
  usartreg = (((uint8_t)USART_IT) >> 0x05);
    170e:	0ff5f713          	andi	a4,a1,255
C:/Users/DELL/Desktop/01-Car_motion/Libraries/Device/CH32V10x_p/CH32V10x_Lib/ch32v10x_usart.c:670
  itmask = USART_IT & IT_Mask;
  itmask = (uint32_t)0x01 << itmask;
    1712:	4685                	li	a3,1
C:/Users/DELL/Desktop/01-Car_motion/Libraries/Device/CH32V10x_p/CH32V10x_Lib/ch32v10x_usart.c:668
  usartreg = (((uint8_t)USART_IT) >> 0x05);
    1714:	8315                	srli	a4,a4,0x5
C:/Users/DELL/Desktop/01-Car_motion/Libraries/Device/CH32V10x_p/CH32V10x_Lib/ch32v10x_usart.c:670
  itmask = (uint32_t)0x01 << itmask;
    1716:	00b697b3          	sll	a5,a3,a1
C:/Users/DELL/Desktop/01-Car_motion/Libraries/Device/CH32V10x_p/CH32V10x_Lib/ch32v10x_usart.c:672
  
  if (usartreg == 0x01) 
    171a:	02d71363          	bne	a4,a3,1740 <USART_GetITStatus+0x32>
C:/Users/DELL/Desktop/01-Car_motion/Libraries/Device/CH32V10x_p/CH32V10x_Lib/ch32v10x_usart.c:674
  {
    itmask &= USARTx->CTLR1;
    171e:	00c55703          	lhu	a4,12(a0)
C:/Users/DELL/Desktop/01-Car_motion/Libraries/Device/CH32V10x_p/CH32V10x_Lib/ch32v10x_usart.c:682
  {
    itmask &= USARTx->CTLR2;
  }
  else 
  {
    itmask &= USARTx->CTLR3;
    1722:	8ff9                	and	a5,a5,a4
C:/Users/DELL/Desktop/01-Car_motion/Libraries/Device/CH32V10x_p/CH32V10x_Lib/ch32v10x_usart.c:687
  }
  
  bitpos = USART_IT >> 0x08;
  bitpos = (uint32_t)0x01 << bitpos;
  bitpos &= USARTx->STATR;
    1724:	00055703          	lhu	a4,0(a0)
C:/Users/DELL/Desktop/01-Car_motion/Libraries/Device/CH32V10x_p/CH32V10x_Lib/ch32v10x_usart.c:695
  {
    bitstatus = SET;
  }
  else
  {
    bitstatus = RESET;
    1728:	4501                	li	a0,0
C:/Users/DELL/Desktop/01-Car_motion/Libraries/Device/CH32V10x_p/CH32V10x_Lib/ch32v10x_usart.c:687
  bitpos &= USARTx->STATR;
    172a:	0742                	slli	a4,a4,0x10
    172c:	8341                	srli	a4,a4,0x10
C:/Users/DELL/Desktop/01-Car_motion/Libraries/Device/CH32V10x_p/CH32V10x_Lib/ch32v10x_usart.c:689
  if ((itmask != (uint16_t)RESET)&&(bitpos != (uint16_t)RESET))
    172e:	cb81                	beqz	a5,173e <USART_GetITStatus+0x30>
C:/Users/DELL/Desktop/01-Car_motion/Libraries/Device/CH32V10x_p/CH32V10x_Lib/ch32v10x_usart.c:686 (discriminator 1)
  bitpos = (uint32_t)0x01 << bitpos;
    1730:	4505                	li	a0,1
C:/Users/DELL/Desktop/01-Car_motion/Libraries/Device/CH32V10x_p/CH32V10x_Lib/ch32v10x_usart.c:685 (discriminator 1)
  bitpos = USART_IT >> 0x08;
    1732:	81a1                	srli	a1,a1,0x8
C:/Users/DELL/Desktop/01-Car_motion/Libraries/Device/CH32V10x_p/CH32V10x_Lib/ch32v10x_usart.c:686 (discriminator 1)
  bitpos = (uint32_t)0x01 << bitpos;
    1734:	00b515b3          	sll	a1,a0,a1
C:/Users/DELL/Desktop/01-Car_motion/Libraries/Device/CH32V10x_p/CH32V10x_Lib/ch32v10x_usart.c:687 (discriminator 1)
  bitpos &= USARTx->STATR;
    1738:	8f6d                	and	a4,a4,a1
C:/Users/DELL/Desktop/01-Car_motion/Libraries/Device/CH32V10x_p/CH32V10x_Lib/ch32v10x_usart.c:689 (discriminator 1)
  if ((itmask != (uint16_t)RESET)&&(bitpos != (uint16_t)RESET))
    173a:	00e03533          	snez	a0,a4
C:/Users/DELL/Desktop/01-Car_motion/Libraries/Device/CH32V10x_p/CH32V10x_Lib/ch32v10x_usart.c:699
  }
  
  return bitstatus;  
}
    173e:	8082                	ret
C:/Users/DELL/Desktop/01-Car_motion/Libraries/Device/CH32V10x_p/CH32V10x_Lib/ch32v10x_usart.c:676
  else if (usartreg == 0x02) 
    1740:	4689                	li	a3,2
    1742:	00d71563          	bne	a4,a3,174c <USART_GetITStatus+0x3e>
C:/Users/DELL/Desktop/01-Car_motion/Libraries/Device/CH32V10x_p/CH32V10x_Lib/ch32v10x_usart.c:678
    itmask &= USARTx->CTLR2;
    1746:	01055703          	lhu	a4,16(a0)
    174a:	bfe1                	j	1722 <USART_GetITStatus+0x14>
C:/Users/DELL/Desktop/01-Car_motion/Libraries/Device/CH32V10x_p/CH32V10x_Lib/ch32v10x_usart.c:682
    itmask &= USARTx->CTLR3;
    174c:	01455703          	lhu	a4,20(a0)
    1750:	bfc9                	j	1722 <USART_GetITStatus+0x14>

00001752 <USART_ClearITPendingBit>:
USART_ClearITPendingBit():
C:/Users/DELL/Desktop/01-Car_motion/Libraries/Device/CH32V10x_p/CH32V10x_Lib/ch32v10x_usart.c:721
  if (USART_IT == USART_IT_CTS)
  {
  }   
  
  bitpos = USART_IT >> 0x08;
  itmask = ((uint16_t)0x01 << (uint16_t)bitpos);
    1752:	81a1                	srli	a1,a1,0x8
    1754:	4785                	li	a5,1
    1756:	00b797b3          	sll	a5,a5,a1
C:/Users/DELL/Desktop/01-Car_motion/Libraries/Device/CH32V10x_p/CH32V10x_Lib/ch32v10x_usart.c:722
  USARTx->STATR = (uint16_t)~itmask;
    175a:	fff7c793          	not	a5,a5
    175e:	07c2                	slli	a5,a5,0x10
    1760:	83c1                	srli	a5,a5,0x10
    1762:	00f51023          	sh	a5,0(a0)
C:/Users/DELL/Desktop/01-Car_motion/Libraries/Device/CH32V10x_p/CH32V10x_Lib/ch32v10x_usart.c:723
}
    1766:	8082                	ret

00001768 <GPION>:
    1768:	0800 4001 0c00 4001 1000 4001 1400 4001     ...@...@...@...@

00001778 <TIMERN>:
    1778:	2c00 4001 0000 4000 0400 4000 0800 4000     .,.@...@...@...@

00001788 <UARTN>:
    1788:	3800 4001 4400 4000 4800 4000 4c00 4000     .8.@.D.@.H.@.L.@
