
Template.elf:     file format elf32-littleriscv
Template.elf
architecture: riscv:rv32, flags 0x00000112:
EXEC_P, HAS_SYMS, D_PAGED
start address 0x00000000

Program Header:
    LOAD off    0x00001000 vaddr 0x00000000 paddr 0x00000000 align 2**12
         filesz 0x000021ec memsz 0x000021ec flags r-x
    LOAD off    0x00004000 vaddr 0x20000000 paddr 0x000021ec align 2**12
         filesz 0x00000080 memsz 0x000000a4 flags rw-
    LOAD off    0x00004800 vaddr 0x20004800 paddr 0x20004800 align 2**12
         filesz 0x00000000 memsz 0x00000800 flags rw-

Sections:
Idx Name           Size      VMA       LMA       File off  Algn  Flags
  0 .init          00000038  00000000  00000000  00001000  2**1  CONTENTS, ALLOC, LOAD, READONLY, CODE
  1 .vector        00000108  00000038  00000038  00001038  2**1  CONTENTS, ALLOC, LOAD, READONLY, CODE
  2 .text          000020ac  00000140  00000140  00001140  2**2  CONTENTS, ALLOC, LOAD, READONLY, CODE
  3 .fini          00000000  000021ec  000021ec  00004080  2**0  CONTENTS, ALLOC, LOAD, CODE
  4 .dalign        00000000  20000000  20000000  00004080  2**0  CONTENTS
  5 .dlalign       00000000  000021ec  000021ec  00004080  2**0  CONTENTS
  6 .data          00000080  20000000  000021ec  00004000  2**2  CONTENTS, ALLOC, LOAD, DATA
  7 .bss           00000024  20000080  0000226c  00004080  2**2  ALLOC
  8 .stack         00000800  20004800  20004800  00004800  2**0  ALLOC
  9 .debug_info    00010709  00000000  00000000  00004080  2**0  CONTENTS, READONLY, DEBUGGING
 10 .debug_abbrev  00002fab  00000000  00000000  00014789  2**0  CONTENTS, READONLY, DEBUGGING
 11 .debug_aranges 00000968  00000000  00000000  00017738  2**3  CONTENTS, READONLY, DEBUGGING
 12 .debug_ranges  00000880  00000000  00000000  000180a0  2**3  CONTENTS, READONLY, DEBUGGING
 13 .debug_line    0000b607  00000000  00000000  00018920  2**0  CONTENTS, READONLY, DEBUGGING
 14 .debug_str     0000340b  00000000  00000000  00023f27  2**0  CONTENTS, READONLY, DEBUGGING
 15 .comment       00000033  00000000  00000000  00027332  2**0  CONTENTS, READONLY
 16 .debug_frame   00001bec  00000000  00000000  00027368  2**2  CONTENTS, READONLY, DEBUGGING
 17 .debug_loc     000047b6  00000000  00000000  00028f54  2**0  CONTENTS, READONLY, DEBUGGING
 18 .stab          00000084  00000000  00000000  0002d70c  2**2  CONTENTS, READONLY, DEBUGGING
 19 .stabstr       00000183  00000000  00000000  0002d790  2**0  CONTENTS, READONLY, DEBUGGING
SYMBOL TABLE:
00000000 l    d  .init	00000000 .init
00000038 l    d  .vector	00000000 .vector
00000140 l    d  .text	00000000 .text
000021ec l    d  .fini	00000000 .fini
20000000 l    d  .dalign	00000000 .dalign
000021ec l    d  .dlalign	00000000 .dlalign
20000000 l    d  .data	00000000 .data
20000080 l    d  .bss	00000000 .bss
20004800 l    d  .stack	00000000 .stack
00000000 l    d  .debug_info	00000000 .debug_info
00000000 l    d  .debug_abbrev	00000000 .debug_abbrev
00000000 l    d  .debug_aranges	00000000 .debug_aranges
00000000 l    d  .debug_ranges	00000000 .debug_ranges
00000000 l    d  .debug_line	00000000 .debug_line
00000000 l    d  .debug_str	00000000 .debug_str
00000000 l    d  .comment	00000000 .comment
00000000 l    d  .debug_frame	00000000 .debug_frame
00000000 l    d  .debug_loc	00000000 .debug_loc
00000000 l    d  .stab	00000000 .stab
00000000 l    d  .stabstr	00000000 .stabstr
00000000 l    df *ABS*	00000000 ./CH32V10x/CH32V10x_p/Startup/startup_ch32v10x.o
00000038 l       .vector	00000000 _vector_base
00000000 l    df *ABS*	00000000 isr.c
00000000 l    df *ABS*	00000000 main.c
00000000 l    df *ABS*	00000000 hf_L9110S.c
00000000 l    df *ABS*	00000000 board.c
00000000 l    df *ABS*	00000000 clock_config.c
00000000 l    df *ABS*	00000000 delay.c
20000084 l     O .bss	00000002 p_ms
20000086 l     O .bss	00000001 p_us
00000000 l    df *ABS*	00000000 hf_gpio.c
00000000 l    df *ABS*	00000000 hf_nvic.c
00000000 l    df *ABS*	00000000 hf_pwm.c
00000000 l    df *ABS*	00000000 hf_tim.c
00000000 l    df *ABS*	00000000 hf_uart.c
00000000 l    df *ABS*	00000000 car_init.c
00000000 l    df *ABS*	00000000 car_motion.c
00000000 l    df *ABS*	00000000 ch32v10x_dma.c
00000000 l    df *ABS*	00000000 ch32v10x_exti.c
00000000 l    df *ABS*	00000000 ch32v10x_gpio.c
00000000 l    df *ABS*	00000000 ch32v10x_rcc.c
20000000 l     O .data	00000010 APBAHBPrescTable
20000070 l     O .data	00000004 ADCPrescTable
00000000 l    df *ABS*	00000000 ch32v10x_tim.c
00000000 l    df *ABS*	00000000 ch32v10x_usart.c
00000000 l    df *ABS*	00000000 puts.c
00000000 l    df *ABS*	00000000 wbuf.c
00000000 l    df *ABS*	00000000 wsetup.c
00000000 l    df *ABS*	00000000 fflush.c
00000000 l    df *ABS*	00000000 findfp.c
00001a6e l     F .text	0000006a std
00000000 l    df *ABS*	00000000 fwalk.c
00000000 l    df *ABS*	00000000 makebuf.c
00000000 l    df *ABS*	00000000 nano-mallocr.c
00000000 l    df *ABS*	00000000 nano-mallocr.c
00000000 l    df *ABS*	00000000 sbrkr.c
00000000 l    df *ABS*	00000000 stdio.c
00000000 l    df *ABS*	00000000 writer.c
00000000 l    df *ABS*	00000000 closer.c
00000000 l    df *ABS*	00000000 fstatr.c
00000000 l    df *ABS*	00000000 isattyr.c
00000000 l    df *ABS*	00000000 lseekr.c
00000000 l    df *ABS*	00000000 mlock.c
00000000 l    df *ABS*	00000000 readr.c
00000000 l    df *ABS*	00000000 close.c
00000000 l    df *ABS*	00000000 fstat.c
00000000 l    df *ABS*	00000000 isatty.c
00000000 l    df *ABS*	00000000 lseek.c
00000000 l    df *ABS*	00000000 read.c
00000000 l    df *ABS*	00000000 sbrk.c
20000090 l     O .bss	00000004 heap_end.1518
00000000 l    df *ABS*	00000000 impure.c
20000010 l     O .data	00000060 impure_data
00000000 l    df *ABS*	00000000 common.c
00000000 l    df *ABS*	00000000 reent.c
00000202 g     F .text	0000000a EXTI2_IRQHandler
0000205e g     F .text	00000028 _isatty_r
00001616 g     F .text	000000da _puts_r
00002086 g     F .text	0000002c _lseek_r
20000870 g       .data	00000000 __global_pointer$
000002b8 g     F .text	00000074 TIM1_CC_IRQHandler
00001fa2 g     F .text	00000036 __sseek
00001b28 g     F .text	00000066 __sinit
000016fe g     F .text	000000c0 __swbuf_r
000003f6 g     F .text	00000002 HardFault_Handler
00000e5e g     F .text	00000020 car_turnright
00001ae2 g     F .text	00000046 __sfmoreglue
000020b4 g     F .text	00000002 __malloc_unlock
00001430 g     F .text	00000012 TIM_OC1PreloadConfig
20000080 g     O .bss	00000004 sys_clk
00000e3e g     F .text	00000020 car_turnleft
000003f2 g     F .text	00000004 NMI_Handler
00000c44 g     F .text	0000006a timbase_init
000003f8 g     F .text	00000026 system_init
0000020c g     F .text	00000004 EXTI3_IRQHandler
000015b0 g     F .text	0000000c USART_GetFlagStatus
00002034 g     F .text	0000002a _fstat_r
0000216c g     O .text	00000010 TIMERN
200000a0 g     O .bss	00000004 errno
20000080 g       .bss	00000000 _sbss
00000800 g       *ABS*	00000000 __stack_size
0000141a g     F .text	00000016 TIM_CtrlPWMOutputs
00001ad8 g     F .text	0000000a _cleanup_r
000001e8 g     F .text	00000004 EXTI0_IRQHandler
000013fe g     F .text	0000001c TIM_Cmd
000016f0 g     F .text	0000000e puts
0000146e g     F .text	0000001a TIM_OC4PreloadConfig
000020ee g     F .text	0000000c _fstat
00000038 g       .init	00000000 _einit
0000086e g     F .text	00000018 sys_recover_irq
000014a4 g     F .text	0000000e TIM_ClearITPendingBit
000010da g     F .text	0000001e RCC_APB2PeriphClockCmd
0000021c g     F .text	00000004 ADC1_2_IRQHandler
00000f5a g     F .text	000000c2 GPIO_Init
00000510 g     F .text	00000032 l9110s_forward
0000158a g     F .text	0000001c USART_Cmd
00001efc g     F .text	00000028 _sbrk_r
000012ca g     F .text	000000b2 TIM_OC3Init
000020b6 g     F .text	0000002c _read_r
00000de2 g     F .text	00000022 car_forward
00001600 g     F .text	00000016 USART_ClearITPendingBit
000010f8 g     F .text	0000001e RCC_APB1PeriphClockCmd
000020fa g     F .text	0000000c _isatty
20000078 g     O .data	00000004 _global_impure_ptr
000003d0 g     F .text	00000016 DMA1_Channel4_IRQHandler
00000dce g     F .text	00000014 car_init
0000211e g     F .text	00000020 _sbrk
00000ef8 g     F .text	00000020 DMA_GetFlagStatus
000003c0 g     F .text	00000004 USART3_IRQHandler
00000f50 g     F .text	0000000a EXTI_ClearITPendingBit
200000a4 g       .bss	00000000 _ebss
000015bc g     F .text	00000044 USART_GetITStatus
000003ee g     F .text	00000004 DMA1_Channel7_IRQHandler
0000118e g     F .text	00000088 TIM_OC1Init
0000145c g     F .text	00000012 TIM_OC3PreloadConfig
00000704 g     F .text	00000026 Delay_Init
0000217c g     O .text	00000010 UARTN
00000b3a g     F .text	0000010a pwm_init
0000036c g     F .text	00000026 TIM4_IRQHandler
0000101c g     F .text	0000000a GPIO_WriteBit
0000218c g     O .text	00000020 __sf_fake_stderr
200000a4 g       .bss	00000000 end
00001488 g     F .text	0000001c TIM_GetITStatus
00001026 g     F .text	000000b4 RCC_GetClocksFreq
000003ea g     F .text	00000004 DMA1_Channel6_IRQHandler
00000d58 g     F .text	00000076 uart_init
000014b2 g     F .text	000000d8 USART_Init
00001d8a g     F .text	000000a4 _free_r
00000346 g     F .text	00000026 TIM3_IRQHandler
00000886 g     F .text	0000000a EnableGlobalIRQ
00000cae g     F .text	000000aa uart_gpio_init
00000270 g     F .text	00000048 TIM1_TRG_COM_IRQHandler
000003c4 g     F .text	00000004 DMA1_Channel1_IRQHandler
00000000 g       .init	00000000 _start
00002106 g     F .text	0000000c _lseek
00001442 g     F .text	0000001a TIM_OC2PreloadConfig
00000838 g     F .text	00000010 close_all_irq
00000218 g     F .text	00000004 EXTI15_10_IRQHandler
0000215c g     O .text	00000010 GPION
00001216 g     F .text	000000b4 TIM_OC2Init
0000200c g     F .text	00000028 _close_r
20000000 g       .dalign	00000000 _data_vma
0000137c g     F .text	00000082 TIM_OC4Init
000017be g     F .text	00000110 __swsetup_r
00000214 g     F .text	00000004 EXTI9_5_IRQHandler
00001b8e g     F .text	0000009c __sfp
00000580 g     F .text	00000034 board_init
00001f24 g     F .text	00000030 __sread
000020b2 g     F .text	00000002 __malloc_lock
00001a0a g     F .text	00000064 _fflush_r
00000e26 g     F .text	00000018 car_stop
00000f32 g     F .text	0000001e EXTI_GetITStatus
000021ac g     O .text	00000020 __sf_fake_stdin
00000140 g     F .text	000000a8 memset
0000041e g     F .text	000000a4 main
00000542 g     F .text	0000003e l9110s_back
00001fd8 g     F .text	00000006 __sclose
00001e2e g     F .text	000000ce _malloc_r
000003e6 g     F .text	00000004 DMA1_Channel5_IRQHandler
00000210 g     F .text	00000004 EXTI4_IRQHandler
0000072a g     F .text	00000030 Delay_Ms
00000848 g     F .text	00000026 DisableGlobalIRQ
00000602 g     F .text	00000102 SystemInit
00000000 g       .init	00000000 _sinit
00001fde g     F .text	0000002e _write_r
000003cc g     F .text	00000004 DMA1_Channel3_IRQHandler
20000094 g     O .bss	0000000c irq_status
20000074 g     O .data	00000004 _impure_ptr
0000024a g     F .text	00000026 TIM1_UP_IRQHandler
000018ce g     F .text	0000013c __sflush_r
0000032c g     F .text	0000001a TIM2_IRQHandler
20005000 g       .stack	00000000 _eusrstack
00000e04 g     F .text	00000022 car_back
00000890 g     F .text	00000070 pwm_duty
00000220 g     F .text	0000002a TIM1_BRK_IRQHandler
00001c96 g     F .text	00000058 __swhatbuf_r
000015a6 g     F .text	0000000a USART_SendData
000001ec g     F .text	00000016 EXTI1_IRQHandler
000005b4 g     F .text	0000004e _write
20000080 g       .data	00000000 _edata
00001116 g     F .text	00000078 TIM_TimeBaseInit
000021ec g       .dlalign	00000000 _data_lma
00000396 g     F .text	0000002a USART2_IRQHandler
00001f54 g     F .text	0000004e __swrite
00001c2a g     F .text	0000006c _fwalk_reent
000003c8 g     F .text	00000004 DMA1_Channel2_IRQHandler
000021cc g     O .text	00000020 __sf_fake_stdout
00000f18 g     F .text	0000001a DMA_ClearFlag
00002112 g     F .text	0000000c _read
00000e7e  w      .text	00000000 handle_reset
00000900 g     F .text	0000023a pwm_gpio_init
000004c2 g     F .text	0000004e l9110s_init
00000392 g     F .text	00000004 USART1_IRQHandler
00001cee g     F .text	0000009c __smakebuf_r
2000008c g     O .bss	00000004 __malloc_sbrk_start
0000075a g     F .text	000000de gpio_init
20000088 g     O .bss	00000004 __malloc_free_list
000020e2 g     F .text	0000000c _close



Disassembly of section .init:

00000000 <_sinit>:
_start():
C:/flushbonading/MounRiver/EXE/Libraries/Device/CH32V10x_p/Startup/startup_ch32v10x.S:13

	.section	.init,"ax",@progbits
	.global	_start
	.align	1
_start:
	j	handle_reset
   0:	67f0006f          	j	e7e <handle_reset>
   4:	00000013          	nop
   8:	00000013          	nop
   c:	00000013          	nop
  10:	00000013          	nop
  14:	00000013          	nop
  18:	00000013          	nop
  1c:	00000013          	nop
  20:	00000013          	nop
  24:	00000013          	nop
  28:	00000013          	nop
  2c:	00000013          	nop
  30:	00000013          	nop
  34:	00100073          	ebreak

Disassembly of section .vector:

00000038 <_vector_base>:
_vector_base():
C:/flushbonading/MounRiver/EXE/Libraries/Device/CH32V10x_p/Startup/startup_ch32v10x.S:31
	.word 0x00100073
    .section    .vector,"ax",@progbits
    .align  1
_vector_base:
    .option norvc;
        j   _start
  38:	fc9ff06f          	j	0 <_sinit>
  3c:	0000                	unimp
  3e:	0000                	unimp
C:/flushbonading/MounRiver/EXE/Libraries/Device/CH32V10x_p/Startup/startup_ch32v10x.S:33
    .word   0
        j   NMI_Handler                 /* NMI Handler */
  40:	3b20006f          	j	3f2 <NMI_Handler>
C:/flushbonading/MounRiver/EXE/Libraries/Device/CH32V10x_p/Startup/startup_ch32v10x.S:34
        j   HardFault_Handler           /* Hard Fault Handler */
  44:	3b20006f          	j	3f6 <HardFault_Handler>
	...
C:/flushbonading/MounRiver/EXE/Libraries/Device/CH32V10x_p/Startup/startup_ch32v10x.S:43
    .word   0
    .word   0
    .word   0
    .word   0
    .word   0
        j   SysTick_Handler            /* SysTick Handler */
  68:	f99ff06f          	j	0 <_sinit>
  6c:	0000                	unimp
  6e:	0000                	unimp
C:/flushbonading/MounRiver/EXE/Libraries/Device/CH32V10x_p/Startup/startup_ch32v10x.S:45
    .word   0
        j   SW_handler                 /* SW Handler */
  70:	f91ff06f          	j	0 <_sinit>
  74:	0000                	unimp
  76:	0000                	unimp
C:/flushbonading/MounRiver/EXE/Libraries/Device/CH32V10x_p/Startup/startup_ch32v10x.S:48
    .word   0
    /* External Interrupts */
        j   WWDG_IRQHandler            /* Window Watchdog */
  78:	f89ff06f          	j	0 <_sinit>
C:/flushbonading/MounRiver/EXE/Libraries/Device/CH32V10x_p/Startup/startup_ch32v10x.S:49
        j   PVD_IRQHandler             /* PVD through EXTI Line detect */
  7c:	f85ff06f          	j	0 <_sinit>
C:/flushbonading/MounRiver/EXE/Libraries/Device/CH32V10x_p/Startup/startup_ch32v10x.S:50
        j   TAMPER_IRQHandler          /* TAMPER */
  80:	f81ff06f          	j	0 <_sinit>
C:/flushbonading/MounRiver/EXE/Libraries/Device/CH32V10x_p/Startup/startup_ch32v10x.S:51
        j   RTC_IRQHandler             /* RTC */
  84:	f7dff06f          	j	0 <_sinit>
C:/flushbonading/MounRiver/EXE/Libraries/Device/CH32V10x_p/Startup/startup_ch32v10x.S:52
        j   FLASH_IRQHandler           /* Flash */
  88:	f79ff06f          	j	0 <_sinit>
C:/flushbonading/MounRiver/EXE/Libraries/Device/CH32V10x_p/Startup/startup_ch32v10x.S:53
        j   RCC_IRQHandler             /* RCC */
  8c:	f75ff06f          	j	0 <_sinit>
C:/flushbonading/MounRiver/EXE/Libraries/Device/CH32V10x_p/Startup/startup_ch32v10x.S:54
        j   EXTI0_IRQHandler           /* EXTI Line 0 */
  90:	1580006f          	j	1e8 <EXTI0_IRQHandler>
C:/flushbonading/MounRiver/EXE/Libraries/Device/CH32V10x_p/Startup/startup_ch32v10x.S:55
        j   EXTI1_IRQHandler           /* EXTI Line 1 */
  94:	1580006f          	j	1ec <EXTI1_IRQHandler>
C:/flushbonading/MounRiver/EXE/Libraries/Device/CH32V10x_p/Startup/startup_ch32v10x.S:56
        j   EXTI2_IRQHandler           /* EXTI Line 2 */
  98:	16a0006f          	j	202 <EXTI2_IRQHandler>
C:/flushbonading/MounRiver/EXE/Libraries/Device/CH32V10x_p/Startup/startup_ch32v10x.S:57
        j   EXTI3_IRQHandler           /* EXTI Line 3 */
  9c:	1700006f          	j	20c <EXTI3_IRQHandler>
C:/flushbonading/MounRiver/EXE/Libraries/Device/CH32V10x_p/Startup/startup_ch32v10x.S:58
        j   EXTI4_IRQHandler           /* EXTI Line 4 */
  a0:	1700006f          	j	210 <EXTI4_IRQHandler>
C:/flushbonading/MounRiver/EXE/Libraries/Device/CH32V10x_p/Startup/startup_ch32v10x.S:59
        j   DMA1_Channel1_IRQHandler   /* DMA1 Channel 1 */
  a4:	3200006f          	j	3c4 <DMA1_Channel1_IRQHandler>
C:/flushbonading/MounRiver/EXE/Libraries/Device/CH32V10x_p/Startup/startup_ch32v10x.S:60
        j   DMA1_Channel2_IRQHandler   /* DMA1 Channel 2 */
  a8:	3200006f          	j	3c8 <DMA1_Channel2_IRQHandler>
C:/flushbonading/MounRiver/EXE/Libraries/Device/CH32V10x_p/Startup/startup_ch32v10x.S:61
        j   DMA1_Channel3_IRQHandler   /* DMA1 Channel 3 */
  ac:	3200006f          	j	3cc <DMA1_Channel3_IRQHandler>
C:/flushbonading/MounRiver/EXE/Libraries/Device/CH32V10x_p/Startup/startup_ch32v10x.S:62
        j   DMA1_Channel4_IRQHandler   /* DMA1 Channel 4 */
  b0:	3200006f          	j	3d0 <DMA1_Channel4_IRQHandler>
C:/flushbonading/MounRiver/EXE/Libraries/Device/CH32V10x_p/Startup/startup_ch32v10x.S:63
        j   DMA1_Channel5_IRQHandler   /* DMA1 Channel 5 */
  b4:	3320006f          	j	3e6 <DMA1_Channel5_IRQHandler>
C:/flushbonading/MounRiver/EXE/Libraries/Device/CH32V10x_p/Startup/startup_ch32v10x.S:64
        j   DMA1_Channel6_IRQHandler   /* DMA1 Channel 6 */
  b8:	3320006f          	j	3ea <DMA1_Channel6_IRQHandler>
C:/flushbonading/MounRiver/EXE/Libraries/Device/CH32V10x_p/Startup/startup_ch32v10x.S:65
        j   DMA1_Channel7_IRQHandler   /* DMA1 Channel 7 */
  bc:	3320006f          	j	3ee <DMA1_Channel7_IRQHandler>
C:/flushbonading/MounRiver/EXE/Libraries/Device/CH32V10x_p/Startup/startup_ch32v10x.S:66
        j   ADC1_2_IRQHandler          /* ADC1_2 */
  c0:	15c0006f          	j	21c <ADC1_2_IRQHandler>
	...
C:/flushbonading/MounRiver/EXE/Libraries/Device/CH32V10x_p/Startup/startup_ch32v10x.S:71
        .word   0
        .word   0
        .word   0
        .word   0
        j   EXTI9_5_IRQHandler         /* EXTI Line 9..5 */
  d4:	1400006f          	j	214 <EXTI9_5_IRQHandler>
C:/flushbonading/MounRiver/EXE/Libraries/Device/CH32V10x_p/Startup/startup_ch32v10x.S:72
        j   TIM1_BRK_IRQHandler        /* TIM1 Break */
  d8:	1480006f          	j	220 <TIM1_BRK_IRQHandler>
C:/flushbonading/MounRiver/EXE/Libraries/Device/CH32V10x_p/Startup/startup_ch32v10x.S:73
        j   TIM1_UP_IRQHandler         /* TIM1 Update */
  dc:	16e0006f          	j	24a <TIM1_UP_IRQHandler>
C:/flushbonading/MounRiver/EXE/Libraries/Device/CH32V10x_p/Startup/startup_ch32v10x.S:74
        j   TIM1_TRG_COM_IRQHandler    /* TIM1 Trigger and Commutation */
  e0:	1900006f          	j	270 <TIM1_TRG_COM_IRQHandler>
C:/flushbonading/MounRiver/EXE/Libraries/Device/CH32V10x_p/Startup/startup_ch32v10x.S:75
        j   TIM1_CC_IRQHandler         /* TIM1 Capture Compare */
  e4:	1d40006f          	j	2b8 <TIM1_CC_IRQHandler>
C:/flushbonading/MounRiver/EXE/Libraries/Device/CH32V10x_p/Startup/startup_ch32v10x.S:76
        j   TIM2_IRQHandler            /* TIM2 */
  e8:	2440006f          	j	32c <TIM2_IRQHandler>
C:/flushbonading/MounRiver/EXE/Libraries/Device/CH32V10x_p/Startup/startup_ch32v10x.S:77
        j   TIM3_IRQHandler            /* TIM3 */
  ec:	25a0006f          	j	346 <TIM3_IRQHandler>
C:/flushbonading/MounRiver/EXE/Libraries/Device/CH32V10x_p/Startup/startup_ch32v10x.S:78
        j   TIM4_IRQHandler            /* TIM4 */
  f0:	27c0006f          	j	36c <TIM4_IRQHandler>
C:/flushbonading/MounRiver/EXE/Libraries/Device/CH32V10x_p/Startup/startup_ch32v10x.S:79
        j   I2C1_EV_IRQHandler         /* I2C1 Event */
  f4:	f0dff06f          	j	0 <_sinit>
C:/flushbonading/MounRiver/EXE/Libraries/Device/CH32V10x_p/Startup/startup_ch32v10x.S:80
        j   I2C1_ER_IRQHandler         /* I2C1 Error */
  f8:	f09ff06f          	j	0 <_sinit>
C:/flushbonading/MounRiver/EXE/Libraries/Device/CH32V10x_p/Startup/startup_ch32v10x.S:81
        j   I2C2_EV_IRQHandler         /* I2C2 Event */
  fc:	f05ff06f          	j	0 <_sinit>
C:/flushbonading/MounRiver/EXE/Libraries/Device/CH32V10x_p/Startup/startup_ch32v10x.S:82
        j   I2C2_ER_IRQHandler         /* I2C2 Error */
 100:	f01ff06f          	j	0 <_sinit>
C:/flushbonading/MounRiver/EXE/Libraries/Device/CH32V10x_p/Startup/startup_ch32v10x.S:83
        j   SPI1_IRQHandler            /* SPI1 */
 104:	efdff06f          	j	0 <_sinit>
C:/flushbonading/MounRiver/EXE/Libraries/Device/CH32V10x_p/Startup/startup_ch32v10x.S:84
        j   SPI2_IRQHandler            /* SPI2 */
 108:	ef9ff06f          	j	0 <_sinit>
C:/flushbonading/MounRiver/EXE/Libraries/Device/CH32V10x_p/Startup/startup_ch32v10x.S:85
        j   USART1_IRQHandler          /* USART1 */
 10c:	2860006f          	j	392 <USART1_IRQHandler>
C:/flushbonading/MounRiver/EXE/Libraries/Device/CH32V10x_p/Startup/startup_ch32v10x.S:86
        j   USART2_IRQHandler          /* USART2 */
 110:	2860006f          	j	396 <USART2_IRQHandler>
C:/flushbonading/MounRiver/EXE/Libraries/Device/CH32V10x_p/Startup/startup_ch32v10x.S:87
        j   USART3_IRQHandler          /* USART3 */
 114:	2ac0006f          	j	3c0 <USART3_IRQHandler>
C:/flushbonading/MounRiver/EXE/Libraries/Device/CH32V10x_p/Startup/startup_ch32v10x.S:88
        j   EXTI15_10_IRQHandler       /* EXTI Line 15..10 */
 118:	1000006f          	j	218 <EXTI15_10_IRQHandler>
C:/flushbonading/MounRiver/EXE/Libraries/Device/CH32V10x_p/Startup/startup_ch32v10x.S:89
        j   RTCAlarm_IRQHandler        /* RTC Alarm through EXTI Line */
 11c:	ee5ff06f          	j	0 <_sinit>
C:/flushbonading/MounRiver/EXE/Libraries/Device/CH32V10x_p/Startup/startup_ch32v10x.S:90
        j   USBWakeUp_IRQHandler       /* USB Wakeup from suspend */
 120:	ee1ff06f          	j	0 <_sinit>
C:/flushbonading/MounRiver/EXE/Libraries/Device/CH32V10x_p/Startup/startup_ch32v10x.S:91
        j   USBHD_IRQHandler           /* USBHD */
 124:	eddff06f          	j	0 <_sinit>
	...

Disassembly of section .text:

00000140 <memset>:
memset():
     140:	433d                	li	t1,15
     142:	872a                	mv	a4,a0
     144:	02c37363          	bgeu	t1,a2,16a <memset+0x2a>
     148:	00f77793          	andi	a5,a4,15
     14c:	efbd                	bnez	a5,1ca <memset+0x8a>
     14e:	e5ad                	bnez	a1,1b8 <memset+0x78>
     150:	ff067693          	andi	a3,a2,-16
     154:	8a3d                	andi	a2,a2,15
     156:	96ba                	add	a3,a3,a4
     158:	c30c                	sw	a1,0(a4)
     15a:	c34c                	sw	a1,4(a4)
     15c:	c70c                	sw	a1,8(a4)
     15e:	c74c                	sw	a1,12(a4)
     160:	0741                	addi	a4,a4,16
     162:	fed76be3          	bltu	a4,a3,158 <memset+0x18>
     166:	e211                	bnez	a2,16a <memset+0x2a>
     168:	8082                	ret
     16a:	40c306b3          	sub	a3,t1,a2
     16e:	068a                	slli	a3,a3,0x2
     170:	00000297          	auipc	t0,0x0
     174:	9696                	add	a3,a3,t0
     176:	00a68067          	jr	10(a3)
     17a:	00b70723          	sb	a1,14(a4)
     17e:	00b706a3          	sb	a1,13(a4)
     182:	00b70623          	sb	a1,12(a4)
     186:	00b705a3          	sb	a1,11(a4)
     18a:	00b70523          	sb	a1,10(a4)
     18e:	00b704a3          	sb	a1,9(a4)
     192:	00b70423          	sb	a1,8(a4)
     196:	00b703a3          	sb	a1,7(a4)
     19a:	00b70323          	sb	a1,6(a4)
     19e:	00b702a3          	sb	a1,5(a4)
     1a2:	00b70223          	sb	a1,4(a4)
     1a6:	00b701a3          	sb	a1,3(a4)
     1aa:	00b70123          	sb	a1,2(a4)
     1ae:	00b700a3          	sb	a1,1(a4)
     1b2:	00b70023          	sb	a1,0(a4)
     1b6:	8082                	ret
     1b8:	0ff5f593          	andi	a1,a1,255
     1bc:	00859693          	slli	a3,a1,0x8
     1c0:	8dd5                	or	a1,a1,a3
     1c2:	01059693          	slli	a3,a1,0x10
     1c6:	8dd5                	or	a1,a1,a3
     1c8:	b761                	j	150 <memset+0x10>
     1ca:	00279693          	slli	a3,a5,0x2
     1ce:	00000297          	auipc	t0,0x0
     1d2:	9696                	add	a3,a3,t0
     1d4:	8286                	mv	t0,ra
     1d6:	fa8680e7          	jalr	-88(a3)
     1da:	8096                	mv	ra,t0
     1dc:	17c1                	addi	a5,a5,-16
     1de:	8f1d                	sub	a4,a4,a5
     1e0:	963e                	add	a2,a2,a5
     1e2:	f8c374e3          	bgeu	t1,a2,16a <memset+0x2a>
     1e6:	b7a5                	j	14e <memset+0xe>

000001e8 <EXTI0_IRQHandler>:
EXTI0_IRQHandler():
     1e8:	30200073          	mret

000001ec <EXTI1_IRQHandler>:
EXTI1_IRQHandler():
C:/flushbonading/MounRiver/EXE/00-Template/USER/src/isr.c:59

}

void EXTI1_IRQHandler(void)
{
    if(SET == EXTI_GetITStatus(EXTI_Line1))
     1ec:	4509                	li	a0,2
     1ee:	545000ef          	jal	ra,f32 <EXTI_GetITStatus>
     1f2:	4785                	li	a5,1
     1f4:	00f51563          	bne	a0,a5,1fe <EXTI1_IRQHandler+0x12>
C:/flushbonading/MounRiver/EXE/00-Template/USER/src/isr.c:65
    {
//        if(camera_type == CAMERA_BIN_UART)
//            ov7725_uart_vsync();
//        else if(camera_type == CAMERA_GRAYSCALE)
//            mt9v03x_vsync();
        EXTI_ClearITPendingBit(EXTI_Line1);
     1f8:	4509                	li	a0,2
     1fa:	557000ef          	jal	ra,f50 <EXTI_ClearITPendingBit>
C:/flushbonading/MounRiver/EXE/00-Template/USER/src/isr.c:68
    }

}
     1fe:	30200073          	mret

00000202 <EXTI2_IRQHandler>:
EXTI2_IRQHandler():
C:/flushbonading/MounRiver/EXE/00-Template/USER/src/isr.c:72

void EXTI2_IRQHandler(void)
{
    EXTI_ClearITPendingBit(EXTI_Line2);
     202:	4511                	li	a0,4
     204:	54d000ef          	jal	ra,f50 <EXTI_ClearITPendingBit>
C:/flushbonading/MounRiver/EXE/00-Template/USER/src/isr.c:73
}
     208:	30200073          	mret

0000020c <EXTI3_IRQHandler>:
EXTI3_IRQHandler():
     20c:	30200073          	mret

00000210 <EXTI4_IRQHandler>:
EXTI4_IRQHandler():
     210:	30200073          	mret

00000214 <EXTI9_5_IRQHandler>:
EXTI9_5_IRQHandler():
     214:	30200073          	mret

00000218 <EXTI15_10_IRQHandler>:
EXTI15_10_IRQHandler():
     218:	30200073          	mret

0000021c <ADC1_2_IRQHandler>:
ADC1_2_IRQHandler():
     21c:	30200073          	mret

00000220 <TIM1_BRK_IRQHandler>:
TIM1_BRK_IRQHandler():
C:/flushbonading/MounRiver/EXE/00-Template/USER/src/isr.c:105


}

void TIM1_BRK_IRQHandler(void)
{
     220:	1141                	addi	sp,sp,-16
     222:	c622                	sw	s0,12(sp)
C:/flushbonading/MounRiver/EXE/00-Template/USER/src/isr.c:106
    if(TIM_GetITStatus(TIM1, TIM_IT_Break) != RESET)
     224:	40013437          	lui	s0,0x40013
     228:	08000593          	li	a1,128
     22c:	c0040513          	addi	a0,s0,-1024 # 40012c00 <_eusrstack+0x2000dc00>
     230:	258010ef          	jal	ra,1488 <TIM_GetITStatus>
     234:	c519                	beqz	a0,242 <TIM1_BRK_IRQHandler+0x22>
C:/flushbonading/MounRiver/EXE/00-Template/USER/src/isr.c:108
    {
        TIM_ClearITPendingBit(TIM1, TIM_IT_Break);
     236:	08000593          	li	a1,128
     23a:	c0040513          	addi	a0,s0,-1024
     23e:	266010ef          	jal	ra,14a4 <TIM_ClearITPendingBit>
C:/flushbonading/MounRiver/EXE/00-Template/USER/src/isr.c:111

    }
}
     242:	4432                	lw	s0,12(sp)
     244:	0141                	addi	sp,sp,16
     246:	30200073          	mret

0000024a <TIM1_UP_IRQHandler>:
TIM1_UP_IRQHandler():
C:/flushbonading/MounRiver/EXE/00-Template/USER/src/isr.c:114

void TIM1_UP_IRQHandler(void)
{
     24a:	1141                	addi	sp,sp,-16
     24c:	c622                	sw	s0,12(sp)
C:/flushbonading/MounRiver/EXE/00-Template/USER/src/isr.c:115
    if(TIM_GetITStatus(TIM1, TIM_IT_Update) != RESET)
     24e:	40013437          	lui	s0,0x40013
     252:	4585                	li	a1,1
     254:	c0040513          	addi	a0,s0,-1024 # 40012c00 <_eusrstack+0x2000dc00>
     258:	230010ef          	jal	ra,1488 <TIM_GetITStatus>
     25c:	c511                	beqz	a0,268 <TIM1_UP_IRQHandler+0x1e>
C:/flushbonading/MounRiver/EXE/00-Template/USER/src/isr.c:117
    {
        TIM_ClearITPendingBit(TIM1, TIM_IT_Update);
     25e:	4585                	li	a1,1
     260:	c0040513          	addi	a0,s0,-1024
     264:	240010ef          	jal	ra,14a4 <TIM_ClearITPendingBit>
C:/flushbonading/MounRiver/EXE/00-Template/USER/src/isr.c:120

    }
}
     268:	4432                	lw	s0,12(sp)
     26a:	0141                	addi	sp,sp,16
     26c:	30200073          	mret

00000270 <TIM1_TRG_COM_IRQHandler>:
TIM1_TRG_COM_IRQHandler():
C:/flushbonading/MounRiver/EXE/00-Template/USER/src/isr.c:123

void TIM1_TRG_COM_IRQHandler(void)
{
     270:	1141                	addi	sp,sp,-16
     272:	c622                	sw	s0,12(sp)
C:/flushbonading/MounRiver/EXE/00-Template/USER/src/isr.c:124
    if(TIM_GetITStatus(TIM1, TIM_IT_Trigger) != RESET)
     274:	40013437          	lui	s0,0x40013
     278:	04000593          	li	a1,64
     27c:	c0040513          	addi	a0,s0,-1024 # 40012c00 <_eusrstack+0x2000dc00>
     280:	208010ef          	jal	ra,1488 <TIM_GetITStatus>
     284:	c519                	beqz	a0,292 <TIM1_TRG_COM_IRQHandler+0x22>
C:/flushbonading/MounRiver/EXE/00-Template/USER/src/isr.c:126
    {
        TIM_ClearITPendingBit(TIM1, TIM_IT_Trigger);
     286:	04000593          	li	a1,64
     28a:	c0040513          	addi	a0,s0,-1024
     28e:	216010ef          	jal	ra,14a4 <TIM_ClearITPendingBit>
C:/flushbonading/MounRiver/EXE/00-Template/USER/src/isr.c:129

    }
    if(TIM_GetITStatus(TIM1, TIM_IT_COM) != RESET)
     292:	40013437          	lui	s0,0x40013
     296:	02000593          	li	a1,32
     29a:	c0040513          	addi	a0,s0,-1024 # 40012c00 <_eusrstack+0x2000dc00>
     29e:	1ea010ef          	jal	ra,1488 <TIM_GetITStatus>
     2a2:	c519                	beqz	a0,2b0 <TIM1_TRG_COM_IRQHandler+0x40>
C:/flushbonading/MounRiver/EXE/00-Template/USER/src/isr.c:131
    {
        TIM_ClearITPendingBit(TIM1, TIM_IT_COM);
     2a4:	02000593          	li	a1,32
     2a8:	c0040513          	addi	a0,s0,-1024
     2ac:	1f8010ef          	jal	ra,14a4 <TIM_ClearITPendingBit>
C:/flushbonading/MounRiver/EXE/00-Template/USER/src/isr.c:134

    }
}
     2b0:	4432                	lw	s0,12(sp)
     2b2:	0141                	addi	sp,sp,16
     2b4:	30200073          	mret

000002b8 <TIM1_CC_IRQHandler>:
TIM1_CC_IRQHandler():
C:/flushbonading/MounRiver/EXE/00-Template/USER/src/isr.c:137

void TIM1_CC_IRQHandler(void)
{
     2b8:	1141                	addi	sp,sp,-16
     2ba:	c622                	sw	s0,12(sp)
C:/flushbonading/MounRiver/EXE/00-Template/USER/src/isr.c:138
    if(TIM_GetITStatus(TIM1, TIM_IT_CC1) != RESET)
     2bc:	40013437          	lui	s0,0x40013
     2c0:	4589                	li	a1,2
     2c2:	c0040513          	addi	a0,s0,-1024 # 40012c00 <_eusrstack+0x2000dc00>
     2c6:	1c2010ef          	jal	ra,1488 <TIM_GetITStatus>
     2ca:	c511                	beqz	a0,2d6 <TIM1_CC_IRQHandler+0x1e>
C:/flushbonading/MounRiver/EXE/00-Template/USER/src/isr.c:140
    {
        TIM_ClearITPendingBit(TIM1, TIM_IT_CC1);
     2cc:	4589                	li	a1,2
     2ce:	c0040513          	addi	a0,s0,-1024
     2d2:	1d2010ef          	jal	ra,14a4 <TIM_ClearITPendingBit>
C:/flushbonading/MounRiver/EXE/00-Template/USER/src/isr.c:143

    }
    if(TIM_GetITStatus(TIM1, TIM_IT_CC2) != RESET)
     2d6:	40013437          	lui	s0,0x40013
     2da:	4591                	li	a1,4
     2dc:	c0040513          	addi	a0,s0,-1024 # 40012c00 <_eusrstack+0x2000dc00>
     2e0:	1a8010ef          	jal	ra,1488 <TIM_GetITStatus>
     2e4:	c511                	beqz	a0,2f0 <TIM1_CC_IRQHandler+0x38>
C:/flushbonading/MounRiver/EXE/00-Template/USER/src/isr.c:145
    {
        TIM_ClearITPendingBit(TIM1, TIM_IT_CC2);
     2e6:	4591                	li	a1,4
     2e8:	c0040513          	addi	a0,s0,-1024
     2ec:	1b8010ef          	jal	ra,14a4 <TIM_ClearITPendingBit>
C:/flushbonading/MounRiver/EXE/00-Template/USER/src/isr.c:148

    }
    if(TIM_GetITStatus(TIM1, TIM_IT_CC3) != RESET)
     2f0:	40013437          	lui	s0,0x40013
     2f4:	45a1                	li	a1,8
     2f6:	c0040513          	addi	a0,s0,-1024 # 40012c00 <_eusrstack+0x2000dc00>
     2fa:	18e010ef          	jal	ra,1488 <TIM_GetITStatus>
     2fe:	c511                	beqz	a0,30a <TIM1_CC_IRQHandler+0x52>
C:/flushbonading/MounRiver/EXE/00-Template/USER/src/isr.c:150
    {
        TIM_ClearITPendingBit(TIM1, TIM_IT_CC3);
     300:	45a1                	li	a1,8
     302:	c0040513          	addi	a0,s0,-1024
     306:	19e010ef          	jal	ra,14a4 <TIM_ClearITPendingBit>
C:/flushbonading/MounRiver/EXE/00-Template/USER/src/isr.c:153

    }
    if(TIM_GetITStatus(TIM1, TIM_IT_CC4) != RESET)
     30a:	40013437          	lui	s0,0x40013
     30e:	45c1                	li	a1,16
     310:	c0040513          	addi	a0,s0,-1024 # 40012c00 <_eusrstack+0x2000dc00>
     314:	174010ef          	jal	ra,1488 <TIM_GetITStatus>
     318:	c511                	beqz	a0,324 <TIM1_CC_IRQHandler+0x6c>
C:/flushbonading/MounRiver/EXE/00-Template/USER/src/isr.c:155
    {
        TIM_ClearITPendingBit(TIM1, TIM_IT_CC4);
     31a:	45c1                	li	a1,16
     31c:	c0040513          	addi	a0,s0,-1024
     320:	184010ef          	jal	ra,14a4 <TIM_ClearITPendingBit>
C:/flushbonading/MounRiver/EXE/00-Template/USER/src/isr.c:158

    }
}
     324:	4432                	lw	s0,12(sp)
     326:	0141                	addi	sp,sp,16
     328:	30200073          	mret

0000032c <TIM2_IRQHandler>:
TIM2_IRQHandler():
C:/flushbonading/MounRiver/EXE/00-Template/USER/src/isr.c:163

void TIM2_IRQHandler(void)
{

    if(TIM_GetITStatus(TIM2, TIM_IT_Update) != RESET)
     32c:	4585                	li	a1,1
     32e:	40000537          	lui	a0,0x40000
     332:	156010ef          	jal	ra,1488 <TIM_GetITStatus>
     336:	c511                	beqz	a0,342 <TIM2_IRQHandler+0x16>
C:/flushbonading/MounRiver/EXE/00-Template/USER/src/isr.c:165
    {
        TIM_ClearITPendingBit(TIM2, TIM_IT_Update );
     338:	4585                	li	a1,1
     33a:	40000537          	lui	a0,0x40000
     33e:	166010ef          	jal	ra,14a4 <TIM_ClearITPendingBit>
C:/flushbonading/MounRiver/EXE/00-Template/USER/src/isr.c:171
        //ccd_collect();//CCD数据采集
        //gpio_toggle(B5);
        //GPIO_PIN_RESET(B5);
        //GPIO_PIN_SET(B5);
    }
}
     342:	30200073          	mret

00000346 <TIM3_IRQHandler>:
TIM3_IRQHandler():
C:/flushbonading/MounRiver/EXE/00-Template/USER/src/isr.c:174

void TIM3_IRQHandler(void)
{
     346:	1141                	addi	sp,sp,-16
     348:	c622                	sw	s0,12(sp)
C:/flushbonading/MounRiver/EXE/00-Template/USER/src/isr.c:175
    if(TIM_GetITStatus(TIM3, TIM_IT_Update) != RESET)
     34a:	40000437          	lui	s0,0x40000
     34e:	4585                	li	a1,1
     350:	40040513          	addi	a0,s0,1024 # 40000400 <_eusrstack+0x1fffb400>
     354:	134010ef          	jal	ra,1488 <TIM_GetITStatus>
     358:	c511                	beqz	a0,364 <TIM3_IRQHandler+0x1e>
C:/flushbonading/MounRiver/EXE/00-Template/USER/src/isr.c:177
    {
        TIM_ClearITPendingBit(TIM3, TIM_IT_Update );
     35a:	4585                	li	a1,1
     35c:	40040513          	addi	a0,s0,1024
     360:	144010ef          	jal	ra,14a4 <TIM_ClearITPendingBit>
C:/flushbonading/MounRiver/EXE/00-Template/USER/src/isr.c:180

    }
}
     364:	4432                	lw	s0,12(sp)
     366:	0141                	addi	sp,sp,16
     368:	30200073          	mret

0000036c <TIM4_IRQHandler>:
TIM4_IRQHandler():
C:/flushbonading/MounRiver/EXE/00-Template/USER/src/isr.c:183

void TIM4_IRQHandler(void)
{
     36c:	1141                	addi	sp,sp,-16
     36e:	c622                	sw	s0,12(sp)
C:/flushbonading/MounRiver/EXE/00-Template/USER/src/isr.c:184
    if(TIM_GetITStatus(TIM4, TIM_IT_Update) != RESET)
     370:	40001437          	lui	s0,0x40001
     374:	4585                	li	a1,1
     376:	80040513          	addi	a0,s0,-2048 # 40000800 <_eusrstack+0x1fffb800>
     37a:	10e010ef          	jal	ra,1488 <TIM_GetITStatus>
     37e:	c511                	beqz	a0,38a <TIM4_IRQHandler+0x1e>
C:/flushbonading/MounRiver/EXE/00-Template/USER/src/isr.c:186
    {
        TIM_ClearITPendingBit(TIM4, TIM_IT_Update );
     380:	4585                	li	a1,1
     382:	80040513          	addi	a0,s0,-2048
     386:	11e010ef          	jal	ra,14a4 <TIM_ClearITPendingBit>
C:/flushbonading/MounRiver/EXE/00-Template/USER/src/isr.c:189

    }
}
     38a:	4432                	lw	s0,12(sp)
     38c:	0141                	addi	sp,sp,16
     38e:	30200073          	mret

00000392 <USART1_IRQHandler>:
USART1_IRQHandler():
     392:	30200073          	mret

00000396 <USART2_IRQHandler>:
USART2_IRQHandler():
C:/flushbonading/MounRiver/EXE/00-Template/USER/src/isr.c:197
{

}

void USART2_IRQHandler(void)
{
     396:	1141                	addi	sp,sp,-16
     398:	c622                	sw	s0,12(sp)
C:/flushbonading/MounRiver/EXE/00-Template/USER/src/isr.c:198
    if(USART_GetITStatus(USART2, USART_IT_RXNE) != RESET)
     39a:	40004437          	lui	s0,0x40004
     39e:	52500593          	li	a1,1317
     3a2:	40040513          	addi	a0,s0,1024 # 40004400 <_eusrstack+0x1ffff400>
     3a6:	216010ef          	jal	ra,15bc <USART_GetITStatus>
     3aa:	c519                	beqz	a0,3b8 <USART2_IRQHandler+0x22>
C:/flushbonading/MounRiver/EXE/00-Template/USER/src/isr.c:200
    {
        USART_ClearITPendingBit(USART2, USART_IT_RXNE);
     3ac:	52500593          	li	a1,1317
     3b0:	40040513          	addi	a0,s0,1024
     3b4:	24c010ef          	jal	ra,1600 <USART_ClearITPendingBit>
C:/flushbonading/MounRiver/EXE/00-Template/USER/src/isr.c:206
//        if(camera_type == CAMERA_BIN_UART)
//            ov7725_cof_uart_interrupt();
//        else if(camera_type == CAMERA_GRAYSCALE)
//            mt9v03x_uart_callback();
    }
}
     3b8:	4432                	lw	s0,12(sp)
     3ba:	0141                	addi	sp,sp,16
     3bc:	30200073          	mret

000003c0 <USART3_IRQHandler>:
USART3_IRQHandler():
     3c0:	30200073          	mret

000003c4 <DMA1_Channel1_IRQHandler>:
DMA1_Channel1_IRQHandler():
     3c4:	30200073          	mret

000003c8 <DMA1_Channel2_IRQHandler>:
DMA1_Channel2_IRQHandler():
     3c8:	30200073          	mret

000003cc <DMA1_Channel3_IRQHandler>:
DMA1_Channel3_IRQHandler():
     3cc:	30200073          	mret

000003d0 <DMA1_Channel4_IRQHandler>:
DMA1_Channel4_IRQHandler():
C:/flushbonading/MounRiver/EXE/00-Template/USER/src/isr.c:230

}

void DMA1_Channel4_IRQHandler(void)
{
    if(SET == DMA_GetFlagStatus(DMA1_FLAG_TC4))
     3d0:	6509                	lui	a0,0x2
     3d2:	327000ef          	jal	ra,ef8 <DMA_GetFlagStatus>
     3d6:	4785                	li	a5,1
     3d8:	00f51563          	bne	a0,a5,3e2 <DMA1_Channel4_IRQHandler+0x12>
C:/flushbonading/MounRiver/EXE/00-Template/USER/src/isr.c:232
    {
        DMA_ClearFlag(DMA1_FLAG_TC4);
     3dc:	6509                	lui	a0,0x2
     3de:	33b000ef          	jal	ra,f18 <DMA_ClearFlag>
C:/flushbonading/MounRiver/EXE/00-Template/USER/src/isr.c:234
    }
}
     3e2:	30200073          	mret

000003e6 <DMA1_Channel5_IRQHandler>:
DMA1_Channel5_IRQHandler():
     3e6:	30200073          	mret

000003ea <DMA1_Channel6_IRQHandler>:
DMA1_Channel6_IRQHandler():
     3ea:	30200073          	mret

000003ee <DMA1_Channel7_IRQHandler>:
DMA1_Channel7_IRQHandler():
     3ee:	30200073          	mret

000003f2 <NMI_Handler>:
NMI_Handler():
C:/flushbonading/MounRiver/EXE/00-Template/USER/src/isr.c:260
* Return         : None
*******************************************************************************/
void NMI_Handler(void)
{

}
     3f2:	30200073          	mret

000003f6 <HardFault_Handler>:
HardFault_Handler():
C:/flushbonading/MounRiver/EXE/00-Template/USER/src/isr.c:273 (discriminator 1)
void HardFault_Handler(void)
{

  while (1)
  {
  }
     3f6:	a001                	j	3f6 <HardFault_Handler>

000003f8 <system_init>:
system_init():
C:/flushbonading/MounRiver/EXE/00-Template/USER/src/main.c:71

}

/* 系统初始化函数，用于编写系统各外设的初始化程序 */
void system_init()
{
     3f8:	1141                	addi	sp,sp,-16
     3fa:	c606                	sw	ra,12(sp)
C:/flushbonading/MounRiver/EXE/00-Template/USER/src/main.c:72
    DisableGlobalIRQ();                                         //默认关所有中断
     3fc:	21b1                	jal	848 <DisableGlobalIRQ>
C:/flushbonading/MounRiver/EXE/00-Template/USER/src/main.c:73
    uart_init(UART_1, 115200U, UART1_TX_A9, UART1_RX_A10);      //配置TYPE-C串行通信接口，用于printf打印数据
     3fe:	65f1                	lui	a1,0x1c
     400:	4501                	li	a0,0
     402:	4685                	li	a3,1
     404:	4601                	li	a2,0
     406:	20058593          	addi	a1,a1,512 # 1c200 <_data_lma+0x1a014>
     40a:	14f000ef          	jal	ra,d58 <uart_init>
C:/flushbonading/MounRiver/EXE/00-Template/USER/src/main.c:74
    board_init();                                               //务必保留，本函数用于初始化MPU,时钟/调试串口
     40e:	2a8d                	jal	580 <board_init>
C:/flushbonading/MounRiver/EXE/00-Template/USER/src/main.c:75
    Delay_Init();                                               //延时函数初始化
     410:	2cd5                	jal	704 <Delay_Init>
C:/flushbonading/MounRiver/EXE/00-Template/USER/src/main.c:78

    /* 此处编写用户代码(例如：外设初始化代码等) */
    car_init();
     412:	1bd000ef          	jal	ra,dce <car_init>
C:/flushbonading/MounRiver/EXE/00-Template/USER/src/main.c:82

    /* 总中断最后开启 */
    EnableGlobalIRQ(0);
}
     416:	40b2                	lw	ra,12(sp)
C:/flushbonading/MounRiver/EXE/00-Template/USER/src/main.c:81
    EnableGlobalIRQ(0);
     418:	4501                	li	a0,0
C:/flushbonading/MounRiver/EXE/00-Template/USER/src/main.c:82
}
     41a:	0141                	addi	sp,sp,16
C:/flushbonading/MounRiver/EXE/00-Template/USER/src/main.c:81
    EnableGlobalIRQ(0);
     41c:	a1ad                	j	886 <EnableGlobalIRQ>

0000041e <main>:
main():
C:/flushbonading/MounRiver/EXE/00-Template/USER/src/main.c:26
{
     41e:	1101                	addi	sp,sp,-32
     420:	cc22                	sw	s0,24(sp)
C:/flushbonading/MounRiver/EXE/00-Template/USER/src/main.c:35
        Delay_Ms(5000);
     422:	6405                	lui	s0,0x1
C:/flushbonading/MounRiver/EXE/00-Template/USER/src/main.c:26
{
     424:	ca26                	sw	s1,20(sp)
     426:	c84a                	sw	s2,16(sp)
     428:	c64e                	sw	s3,12(sp)
     42a:	c452                	sw	s4,8(sp)
     42c:	c256                	sw	s5,4(sp)
     42e:	c05a                	sw	s6,0(sp)
     430:	ce06                	sw	ra,28(sp)
C:/flushbonading/MounRiver/EXE/00-Template/USER/src/main.c:34
        printf("1\n");
     432:	00002b37          	lui	s6,0x2
C:/flushbonading/MounRiver/EXE/00-Template/USER/src/main.c:28
    system_init();
     436:	37c9                	jal	3f8 <system_init>
C:/flushbonading/MounRiver/EXE/00-Template/USER/src/main.c:35
        Delay_Ms(5000);
     438:	38840413          	addi	s0,s0,904 # 1388 <TIM_OC4Init+0xc>
C:/flushbonading/MounRiver/EXE/00-Template/USER/src/main.c:39
        printf("2\n");
     43c:	00002ab7          	lui	s5,0x2
C:/flushbonading/MounRiver/EXE/00-Template/USER/src/main.c:44
        printf("3\n");
     440:	00002a37          	lui	s4,0x2
C:/flushbonading/MounRiver/EXE/00-Template/USER/src/main.c:49
        printf("4\n");
     444:	000029b7          	lui	s3,0x2
C:/flushbonading/MounRiver/EXE/00-Template/USER/src/main.c:54
        printf("5\n");
     448:	00002937          	lui	s2,0x2
C:/flushbonading/MounRiver/EXE/00-Template/USER/src/main.c:59
        printf("6\n");
     44c:	000024b7          	lui	s1,0x2
C:/flushbonading/MounRiver/EXE/00-Template/USER/src/main.c:33 (discriminator 1)
        car_forward();
     450:	193000ef          	jal	ra,de2 <car_forward>
C:/flushbonading/MounRiver/EXE/00-Template/USER/src/main.c:34 (discriminator 1)
        printf("1\n");
     454:	140b0513          	addi	a0,s6,320 # 2140 <_sbrk+0x22>
     458:	298010ef          	jal	ra,16f0 <puts>
C:/flushbonading/MounRiver/EXE/00-Template/USER/src/main.c:35 (discriminator 1)
        Delay_Ms(5000);
     45c:	8522                	mv	a0,s0
     45e:	24f1                	jal	72a <Delay_Ms>
C:/flushbonading/MounRiver/EXE/00-Template/USER/src/main.c:38 (discriminator 1)
        car_turnleft();
     460:	1df000ef          	jal	ra,e3e <car_turnleft>
C:/flushbonading/MounRiver/EXE/00-Template/USER/src/main.c:39 (discriminator 1)
        printf("2\n");
     464:	144a8513          	addi	a0,s5,324 # 2144 <_sbrk+0x26>
     468:	288010ef          	jal	ra,16f0 <puts>
C:/flushbonading/MounRiver/EXE/00-Template/USER/src/main.c:40 (discriminator 1)
        Delay_Ms(5000);
     46c:	8522                	mv	a0,s0
     46e:	2c75                	jal	72a <Delay_Ms>
C:/flushbonading/MounRiver/EXE/00-Template/USER/src/main.c:43 (discriminator 1)
        car_forward();
     470:	173000ef          	jal	ra,de2 <car_forward>
C:/flushbonading/MounRiver/EXE/00-Template/USER/src/main.c:44 (discriminator 1)
        printf("3\n");
     474:	148a0513          	addi	a0,s4,328 # 2148 <_sbrk+0x2a>
     478:	278010ef          	jal	ra,16f0 <puts>
C:/flushbonading/MounRiver/EXE/00-Template/USER/src/main.c:45 (discriminator 1)
        Delay_Ms(5000);
     47c:	8522                	mv	a0,s0
     47e:	2475                	jal	72a <Delay_Ms>
C:/flushbonading/MounRiver/EXE/00-Template/USER/src/main.c:48 (discriminator 1)
        car_turnright();
     480:	1df000ef          	jal	ra,e5e <car_turnright>
C:/flushbonading/MounRiver/EXE/00-Template/USER/src/main.c:49 (discriminator 1)
        printf("4\n");
     484:	14c98513          	addi	a0,s3,332 # 214c <_sbrk+0x2e>
     488:	268010ef          	jal	ra,16f0 <puts>
C:/flushbonading/MounRiver/EXE/00-Template/USER/src/main.c:50 (discriminator 1)
        Delay_Ms(5000);
     48c:	8522                	mv	a0,s0
     48e:	2c71                	jal	72a <Delay_Ms>
C:/flushbonading/MounRiver/EXE/00-Template/USER/src/main.c:53 (discriminator 1)
        car_stop();
     490:	197000ef          	jal	ra,e26 <car_stop>
C:/flushbonading/MounRiver/EXE/00-Template/USER/src/main.c:54 (discriminator 1)
        printf("5\n");
     494:	15090513          	addi	a0,s2,336 # 2150 <_sbrk+0x32>
     498:	258010ef          	jal	ra,16f0 <puts>
C:/flushbonading/MounRiver/EXE/00-Template/USER/src/main.c:55 (discriminator 1)
        Delay_Ms(5000);
     49c:	8522                	mv	a0,s0
     49e:	2471                	jal	72a <Delay_Ms>
C:/flushbonading/MounRiver/EXE/00-Template/USER/src/main.c:58 (discriminator 1)
        car_back();
     4a0:	165000ef          	jal	ra,e04 <car_back>
C:/flushbonading/MounRiver/EXE/00-Template/USER/src/main.c:59 (discriminator 1)
        printf("6\n");
     4a4:	15448513          	addi	a0,s1,340 # 2154 <_sbrk+0x36>
     4a8:	248010ef          	jal	ra,16f0 <puts>
C:/flushbonading/MounRiver/EXE/00-Template/USER/src/main.c:60 (discriminator 1)
        Delay_Ms(5000);
     4ac:	8522                	mv	a0,s0
     4ae:	2cb5                	jal	72a <Delay_Ms>
C:/flushbonading/MounRiver/EXE/00-Template/USER/src/main.c:63 (discriminator 1)
        printf("7\n");
     4b0:	00002537          	lui	a0,0x2
     4b4:	15850513          	addi	a0,a0,344 # 2158 <_sbrk+0x3a>
     4b8:	238010ef          	jal	ra,16f0 <puts>
C:/flushbonading/MounRiver/EXE/00-Template/USER/src/main.c:64 (discriminator 1)
        car_turnright();
     4bc:	1a3000ef          	jal	ra,e5e <car_turnright>
     4c0:	bf41                	j	450 <main+0x32>

000004c2 <l9110s_init>:
l9110s_init():
C:/flushbonading/MounRiver/EXE/Libraries/hefei_peripheral/hf_L9110S.c:19
// @return       void
// Sample usage:        PWM_9110_init(left); 
                        //初始化左电机PWM
//-------------------------------------------------------------------------------------------------------------------
void l9110s_init(left_or_right object)
{
     4c2:	1141                	addi	sp,sp,-16
     4c4:	c606                	sw	ra,12(sp)
C:/flushbonading/MounRiver/EXE/Libraries/hefei_peripheral/hf_L9110S.c:20
    if(object == left)
     4c6:	e10d                	bnez	a0,4e8 <l9110s_init+0x26>
C:/flushbonading/MounRiver/EXE/Libraries/hefei_peripheral/hf_L9110S.c:22
    {
        pwm_init(L_PWM_F, 72, 0, TIM_OCPreload_Enable);
     4c8:	46a1                	li	a3,8
     4ca:	4601                	li	a2,0
     4cc:	04800593          	li	a1,72
     4d0:	30200513          	li	a0,770
     4d4:	259d                	jal	b3a <pwm_init>
C:/flushbonading/MounRiver/EXE/Libraries/hefei_peripheral/hf_L9110S.c:23
        pwm_init(L_PWM_B, 72, 0, TIM_OCPreload_Enable);
     4d6:	46a1                	li	a3,8
     4d8:	4601                	li	a2,0
     4da:	04800593          	li	a1,72
     4de:	30300513          	li	a0,771
C:/flushbonading/MounRiver/EXE/Libraries/hefei_peripheral/hf_L9110S.c:31
    else if(object == right)
    {
        pwm_init(R_PWM_F, 72, 0, TIM_OCPreload_Disable);
        pwm_init(R_PWM_B, 72, 0, TIM_OCPreload_Disable);
    }
}
     4e2:	40b2                	lw	ra,12(sp)
     4e4:	0141                	addi	sp,sp,16
C:/flushbonading/MounRiver/EXE/Libraries/hefei_peripheral/hf_L9110S.c:29
        pwm_init(R_PWM_B, 72, 0, TIM_OCPreload_Disable);
     4e6:	ad91                	j	b3a <pwm_init>
C:/flushbonading/MounRiver/EXE/Libraries/hefei_peripheral/hf_L9110S.c:26
    else if(object == right)
     4e8:	4785                	li	a5,1
     4ea:	02f51063          	bne	a0,a5,50a <l9110s_init+0x48>
C:/flushbonading/MounRiver/EXE/Libraries/hefei_peripheral/hf_L9110S.c:28
        pwm_init(R_PWM_F, 72, 0, TIM_OCPreload_Disable);
     4ee:	4681                	li	a3,0
     4f0:	4601                	li	a2,0
     4f2:	04800593          	li	a1,72
     4f6:	20200513          	li	a0,514
     4fa:	2581                	jal	b3a <pwm_init>
C:/flushbonading/MounRiver/EXE/Libraries/hefei_peripheral/hf_L9110S.c:29
        pwm_init(R_PWM_B, 72, 0, TIM_OCPreload_Disable);
     4fc:	4681                	li	a3,0
     4fe:	4601                	li	a2,0
     500:	04800593          	li	a1,72
     504:	20300513          	li	a0,515
     508:	bfe9                	j	4e2 <l9110s_init+0x20>
C:/flushbonading/MounRiver/EXE/Libraries/hefei_peripheral/hf_L9110S.c:31
}
     50a:	40b2                	lw	ra,12(sp)
     50c:	0141                	addi	sp,sp,16
     50e:	8082                	ret

00000510 <l9110s_forward>:
l9110s_forward():
C:/flushbonading/MounRiver/EXE/Libraries/hefei_peripheral/hf_L9110S.c:42
// @return       void 
// Sample usage:        PWM_9110_forward(right, 10000);
                        //右电机满速正转(10000/10000)
//-------------------------------------------------------------------------------------------------------------------
void l9110s_forward(left_or_right object, uint16 value)
{
     510:	1141                	addi	sp,sp,-16
     512:	c606                	sw	ra,12(sp)
C:/flushbonading/MounRiver/EXE/Libraries/hefei_peripheral/hf_L9110S.c:43
    if(object == left)
     514:	e911                	bnez	a0,528 <l9110s_forward+0x18>
C:/flushbonading/MounRiver/EXE/Libraries/hefei_peripheral/hf_L9110S.c:45
    {
        pwm_duty(L_PWM_F, value);
     516:	30200513          	li	a0,770
     51a:	2e9d                	jal	890 <pwm_duty>
C:/flushbonading/MounRiver/EXE/Libraries/hefei_peripheral/hf_L9110S.c:46
        pwm_duty(L_PWM_B, 0);
     51c:	4581                	li	a1,0
     51e:	30300513          	li	a0,771
C:/flushbonading/MounRiver/EXE/Libraries/hefei_peripheral/hf_L9110S.c:54
    else if(object == right)
    {
        pwm_duty(R_PWM_F, value);
        pwm_duty(R_PWM_B, 0);
    }
}
     522:	40b2                	lw	ra,12(sp)
     524:	0141                	addi	sp,sp,16
C:/flushbonading/MounRiver/EXE/Libraries/hefei_peripheral/hf_L9110S.c:52
        pwm_duty(R_PWM_B, 0);
     526:	a6ad                	j	890 <pwm_duty>
C:/flushbonading/MounRiver/EXE/Libraries/hefei_peripheral/hf_L9110S.c:49
    else if(object == right)
     528:	4785                	li	a5,1
     52a:	00f51963          	bne	a0,a5,53c <l9110s_forward+0x2c>
C:/flushbonading/MounRiver/EXE/Libraries/hefei_peripheral/hf_L9110S.c:51
        pwm_duty(R_PWM_F, value);
     52e:	20200513          	li	a0,514
     532:	2eb9                	jal	890 <pwm_duty>
C:/flushbonading/MounRiver/EXE/Libraries/hefei_peripheral/hf_L9110S.c:52
        pwm_duty(R_PWM_B, 0);
     534:	4581                	li	a1,0
     536:	20300513          	li	a0,515
     53a:	b7e5                	j	522 <l9110s_forward+0x12>
C:/flushbonading/MounRiver/EXE/Libraries/hefei_peripheral/hf_L9110S.c:54
}
     53c:	40b2                	lw	ra,12(sp)
     53e:	0141                	addi	sp,sp,16
     540:	8082                	ret

00000542 <l9110s_back>:
l9110s_back():
C:/flushbonading/MounRiver/EXE/Libraries/hefei_peripheral/hf_L9110S.c:65
// @return       void 
// Sample usage:        PWM_9110_back(left, 10000)；
                        //左电机满速反转(10000/10000)
//-------------------------------------------------------------------------------------------------------------------
void l9110s_back(left_or_right object, uint16 value)
{
     542:	1141                	addi	sp,sp,-16
     544:	c422                	sw	s0,8(sp)
     546:	c606                	sw	ra,12(sp)
     548:	842e                	mv	s0,a1
C:/flushbonading/MounRiver/EXE/Libraries/hefei_peripheral/hf_L9110S.c:66
    if(object == left)
     54a:	ed01                	bnez	a0,562 <l9110s_back+0x20>
C:/flushbonading/MounRiver/EXE/Libraries/hefei_peripheral/hf_L9110S.c:68
    {
        pwm_duty(L_PWM_F, 0);
     54c:	4581                	li	a1,0
     54e:	30200513          	li	a0,770
     552:	2e3d                	jal	890 <pwm_duty>
C:/flushbonading/MounRiver/EXE/Libraries/hefei_peripheral/hf_L9110S.c:69
        pwm_duty(L_PWM_B, value);
     554:	85a2                	mv	a1,s0
     556:	30300513          	li	a0,771
C:/flushbonading/MounRiver/EXE/Libraries/hefei_peripheral/hf_L9110S.c:77
    else if(object == right)
    {
        pwm_duty(R_PWM_F, 0);
        pwm_duty(R_PWM_B, value);
    }
}
     55a:	4422                	lw	s0,8(sp)
     55c:	40b2                	lw	ra,12(sp)
     55e:	0141                	addi	sp,sp,16
C:/flushbonading/MounRiver/EXE/Libraries/hefei_peripheral/hf_L9110S.c:75
        pwm_duty(R_PWM_B, value);
     560:	ae05                	j	890 <pwm_duty>
C:/flushbonading/MounRiver/EXE/Libraries/hefei_peripheral/hf_L9110S.c:72
    else if(object == right)
     562:	4785                	li	a5,1
     564:	00f51a63          	bne	a0,a5,578 <l9110s_back+0x36>
C:/flushbonading/MounRiver/EXE/Libraries/hefei_peripheral/hf_L9110S.c:74
        pwm_duty(R_PWM_F, 0);
     568:	4581                	li	a1,0
     56a:	20200513          	li	a0,514
     56e:	260d                	jal	890 <pwm_duty>
C:/flushbonading/MounRiver/EXE/Libraries/hefei_peripheral/hf_L9110S.c:75
        pwm_duty(R_PWM_B, value);
     570:	85a2                	mv	a1,s0
     572:	20300513          	li	a0,515
     576:	b7d5                	j	55a <l9110s_back+0x18>
C:/flushbonading/MounRiver/EXE/Libraries/hefei_peripheral/hf_L9110S.c:77
}
     578:	40b2                	lw	ra,12(sp)
     57a:	4422                	lw	s0,8(sp)
     57c:	0141                	addi	sp,sp,16
     57e:	8082                	ret

00000580 <board_init>:
board_init():
C:/flushbonading/MounRiver/EXE/Libraries/hefei_libraries/board/board.c:22
//  Sample usage:              board_init();
//-------------------------------------------------------------------------------------------------------------------
void board_init(void)
{
    //获取系统主频
    sys_clk = 8000000 * (((RCC->CFGR0 >> 18)&0x0F) + 2);
     580:	400217b7          	lui	a5,0x40021
     584:	43dc                	lw	a5,4(a5)
     586:	007a1737          	lui	a4,0x7a1
     58a:	20070713          	addi	a4,a4,512 # 7a1200 <_data_lma+0x79f014>
     58e:	83c9                	srli	a5,a5,0x12
     590:	8bbd                	andi	a5,a5,15
     592:	02e787b3          	mul	a5,a5,a4
     596:	00f42737          	lui	a4,0xf42
     59a:	40070713          	addi	a4,a4,1024 # f42400 <_data_lma+0xf40214>
C:/flushbonading/MounRiver/EXE/Libraries/hefei_libraries/board/board.c:24
    //初始化DEBUG串口
    uart_init(DEBUG_UART, DEBUG_UART_BAUD, DEBUG_UART_TX_PIN, DEBUG_UART_RX_PIN);
     59e:	65f1                	lui	a1,0x1c
     5a0:	4685                	li	a3,1
     5a2:	4601                	li	a2,0
     5a4:	20058593          	addi	a1,a1,512 # 1c200 <_data_lma+0x1a014>
     5a8:	4501                	li	a0,0
C:/flushbonading/MounRiver/EXE/Libraries/hefei_libraries/board/board.c:22
    sys_clk = 8000000 * (((RCC->CFGR0 >> 18)&0x0F) + 2);
     5aa:	97ba                	add	a5,a5,a4
     5ac:	80f1a823          	sw	a5,-2032(gp) # 20000080 <_edata>
C:/flushbonading/MounRiver/EXE/Libraries/hefei_libraries/board/board.c:24
    uart_init(DEBUG_UART, DEBUG_UART_BAUD, DEBUG_UART_TX_PIN, DEBUG_UART_RX_PIN);
     5b0:	7a80006f          	j	d58 <uart_init>

000005b4 <_write>:
_write():
C:/flushbonading/MounRiver/EXE/Libraries/hefei_libraries/board/board.c:36
//  @since      v1.0
//  Sample usage:              重定向printf到DEBUG串口上
//-------------------------------------------------------------------------------------------------------------------
#if (1 == PRINTF_ENABLE)
int _write(int fd, char *buf, int size)
{
     5b4:	1101                	addi	sp,sp,-32
C:/flushbonading/MounRiver/EXE/Libraries/hefei_libraries/board/board.c:41
    extern const uint32 UARTN[];
    int i;
    for(i=0; i<size; i++)
    {
        while (USART_GetFlagStatus((USART_TypeDef*)UARTN[DEBUG_UART], USART_FLAG_TC) == RESET);
     5b6:	6789                	lui	a5,0x2
C:/flushbonading/MounRiver/EXE/Libraries/hefei_libraries/board/board.c:36
{
     5b8:	c84a                	sw	s2,16(sp)
C:/flushbonading/MounRiver/EXE/Libraries/hefei_libraries/board/board.c:41
        while (USART_GetFlagStatus((USART_TypeDef*)UARTN[DEBUG_UART], USART_FLAG_TC) == RESET);
     5ba:	17c7a903          	lw	s2,380(a5) # 217c <UARTN>
C:/flushbonading/MounRiver/EXE/Libraries/hefei_libraries/board/board.c:36
{
     5be:	cc22                	sw	s0,24(sp)
     5c0:	ca26                	sw	s1,20(sp)
     5c2:	c64e                	sw	s3,12(sp)
     5c4:	ce06                	sw	ra,28(sp)
     5c6:	89ae                	mv	s3,a1
     5c8:	84b2                	mv	s1,a2
C:/flushbonading/MounRiver/EXE/Libraries/hefei_libraries/board/board.c:39
    for(i=0; i<size; i++)
     5ca:	4401                	li	s0,0
C:/flushbonading/MounRiver/EXE/Libraries/hefei_libraries/board/board.c:39 (discriminator 1)
     5cc:	00944a63          	blt	s0,s1,5e0 <_write+0x2c>
C:/flushbonading/MounRiver/EXE/Libraries/hefei_libraries/board/board.c:45
        USART_SendData((USART_TypeDef*)UARTN[DEBUG_UART], *buf++);
    }
    return size;
}
     5d0:	40f2                	lw	ra,28(sp)
     5d2:	4462                	lw	s0,24(sp)
     5d4:	8526                	mv	a0,s1
     5d6:	4942                	lw	s2,16(sp)
     5d8:	44d2                	lw	s1,20(sp)
     5da:	49b2                	lw	s3,12(sp)
     5dc:	6105                	addi	sp,sp,32
     5de:	8082                	ret
C:/flushbonading/MounRiver/EXE/Libraries/hefei_libraries/board/board.c:41 (discriminator 1)
        while (USART_GetFlagStatus((USART_TypeDef*)UARTN[DEBUG_UART], USART_FLAG_TC) == RESET);
     5e0:	04000593          	li	a1,64
     5e4:	854a                	mv	a0,s2
     5e6:	7cb000ef          	jal	ra,15b0 <USART_GetFlagStatus>
     5ea:	d97d                	beqz	a0,5e0 <_write+0x2c>
C:/flushbonading/MounRiver/EXE/Libraries/hefei_libraries/board/board.c:42 (discriminator 2)
        USART_SendData((USART_TypeDef*)UARTN[DEBUG_UART], *buf++);
     5ec:	008987b3          	add	a5,s3,s0
     5f0:	00078583          	lb	a1,0(a5)
     5f4:	854a                	mv	a0,s2
C:/flushbonading/MounRiver/EXE/Libraries/hefei_libraries/board/board.c:39 (discriminator 2)
    for(i=0; i<size; i++)
     5f6:	0405                	addi	s0,s0,1
C:/flushbonading/MounRiver/EXE/Libraries/hefei_libraries/board/board.c:42 (discriminator 2)
        USART_SendData((USART_TypeDef*)UARTN[DEBUG_UART], *buf++);
     5f8:	05c2                	slli	a1,a1,0x10
     5fa:	81c1                	srli	a1,a1,0x10
     5fc:	7ab000ef          	jal	ra,15a6 <USART_SendData>
     600:	b7f1                	j	5cc <_write+0x18>

00000602 <SystemInit>:
SystemInit():
C:/flushbonading/MounRiver/EXE/Libraries/hefei_libraries/board/clock_config.c:94
* Input          : None
* Return         : None
*******************************************************************************************/
void SystemInit (void)
{
    RCC->CTLR |= (uint32_t)0x00000001;
     602:	400217b7          	lui	a5,0x40021
     606:	4398                	lw	a4,0(a5)
C:/flushbonading/MounRiver/EXE/Libraries/hefei_libraries/board/clock_config.c:95
    RCC->CFGR0 &= (uint32_t)0xF8FF0000;
     608:	f8ff06b7          	lui	a3,0xf8ff0
C:/flushbonading/MounRiver/EXE/Libraries/hefei_libraries/board/clock_config.c:93
{
     60c:	1141                	addi	sp,sp,-16
C:/flushbonading/MounRiver/EXE/Libraries/hefei_libraries/board/clock_config.c:94
    RCC->CTLR |= (uint32_t)0x00000001;
     60e:	00176713          	ori	a4,a4,1
     612:	c398                	sw	a4,0(a5)
C:/flushbonading/MounRiver/EXE/Libraries/hefei_libraries/board/clock_config.c:95
    RCC->CFGR0 &= (uint32_t)0xF8FF0000;
     614:	43d8                	lw	a4,4(a5)
SetSysClock():
C:/flushbonading/MounRiver/EXE/Libraries/hefei_libraries/board/clock_config.c:28
        HSEStatus = RCC->CTLR & RCC_HSERDY;
     616:	00020637          	lui	a2,0x20
SystemInit():
C:/flushbonading/MounRiver/EXE/Libraries/hefei_libraries/board/clock_config.c:95
    RCC->CFGR0 &= (uint32_t)0xF8FF0000;
     61a:	8f75                	and	a4,a4,a3
     61c:	c3d8                	sw	a4,4(a5)
C:/flushbonading/MounRiver/EXE/Libraries/hefei_libraries/board/clock_config.c:96
    RCC->CTLR &= (uint32_t)0xFEF6FFFF;
     61e:	4398                	lw	a4,0(a5)
     620:	fef706b7          	lui	a3,0xfef70
     624:	16fd                	addi	a3,a3,-1
     626:	8f75                	and	a4,a4,a3
     628:	c398                	sw	a4,0(a5)
C:/flushbonading/MounRiver/EXE/Libraries/hefei_libraries/board/clock_config.c:97
    RCC->CTLR &= (uint32_t)0xFFFBFFFF;
     62a:	4398                	lw	a4,0(a5)
     62c:	fffc06b7          	lui	a3,0xfffc0
     630:	16fd                	addi	a3,a3,-1
     632:	8f75                	and	a4,a4,a3
     634:	c398                	sw	a4,0(a5)
C:/flushbonading/MounRiver/EXE/Libraries/hefei_libraries/board/clock_config.c:98
    RCC->CFGR0 &= (uint32_t)0xFF80FFFF;
     636:	43d8                	lw	a4,4(a5)
     638:	ff8106b7          	lui	a3,0xff810
     63c:	16fd                	addi	a3,a3,-1
     63e:	8f75                	and	a4,a4,a3
     640:	c3d8                	sw	a4,4(a5)
C:/flushbonading/MounRiver/EXE/Libraries/hefei_libraries/board/clock_config.c:99
    RCC->INTR = 0x009F0000;
     642:	009f0737          	lui	a4,0x9f0
     646:	c798                	sw	a4,8(a5)
SetSysClock():
C:/flushbonading/MounRiver/EXE/Libraries/hefei_libraries/board/clock_config.c:21
    __IO uint32_t StartUpCounter = 0, HSEStatus = 0;
     648:	c402                	sw	zero,8(sp)
     64a:	c602                	sw	zero,12(sp)
C:/flushbonading/MounRiver/EXE/Libraries/hefei_libraries/board/clock_config.c:23
    RCC->CTLR |= ((uint32_t)RCC_HSEON);
     64c:	4398                	lw	a4,0(a5)
     64e:	66c1                	lui	a3,0x10
     650:	8f55                	or	a4,a4,a3
     652:	c398                	sw	a4,0(a5)
C:/flushbonading/MounRiver/EXE/Libraries/hefei_libraries/board/clock_config.c:28
        HSEStatus = RCC->CTLR & RCC_HSERDY;
     654:	400216b7          	lui	a3,0x40021
C:/flushbonading/MounRiver/EXE/Libraries/hefei_libraries/board/clock_config.c:30
    } while((HSEStatus == 0) && (StartUpCounter != HSE_STARTUP_TIMEOUT));
     658:	50000713          	li	a4,1280
C:/flushbonading/MounRiver/EXE/Libraries/hefei_libraries/board/clock_config.c:28
        HSEStatus = RCC->CTLR & RCC_HSERDY;
     65c:	429c                	lw	a5,0(a3)
     65e:	8ff1                	and	a5,a5,a2
     660:	c63e                	sw	a5,12(sp)
C:/flushbonading/MounRiver/EXE/Libraries/hefei_libraries/board/clock_config.c:29
        StartUpCounter++;
     662:	47a2                	lw	a5,8(sp)
     664:	0785                	addi	a5,a5,1
     666:	c43e                	sw	a5,8(sp)
C:/flushbonading/MounRiver/EXE/Libraries/hefei_libraries/board/clock_config.c:30
    } while((HSEStatus == 0) && (StartUpCounter != HSE_STARTUP_TIMEOUT));
     668:	47b2                	lw	a5,12(sp)
     66a:	e781                	bnez	a5,672 <SystemInit+0x70>
     66c:	47a2                	lw	a5,8(sp)
     66e:	fee797e3          	bne	a5,a4,65c <SystemInit+0x5a>
C:/flushbonading/MounRiver/EXE/Libraries/hefei_libraries/board/clock_config.c:32
    if ((RCC->CTLR & RCC_HSERDY) != RESET)
     672:	400217b7          	lui	a5,0x40021
     676:	439c                	lw	a5,0(a5)
     678:	00e79713          	slli	a4,a5,0xe
     67c:	08075263          	bgez	a4,700 <SystemInit+0xfe>
C:/flushbonading/MounRiver/EXE/Libraries/hefei_libraries/board/clock_config.c:34
        HSEStatus = (uint32_t)0x01;
     680:	4785                	li	a5,1
     682:	c63e                	sw	a5,12(sp)
C:/flushbonading/MounRiver/EXE/Libraries/hefei_libraries/board/clock_config.c:41
    if (HSEStatus == (uint32_t)0x01)
     684:	4732                	lw	a4,12(sp)
     686:	4785                	li	a5,1
     688:	06f71a63          	bne	a4,a5,6fc <SystemInit+0xfa>
C:/flushbonading/MounRiver/EXE/Libraries/hefei_libraries/board/clock_config.c:44
        FLASH->ACTLR |= FLASH_ACTLR_PRFTBE;
     68c:	400227b7          	lui	a5,0x40022
     690:	4398                	lw	a4,0(a5)
C:/flushbonading/MounRiver/EXE/Libraries/hefei_libraries/board/clock_config.c:58
        RCC->CFGR0 &= (uint32_t)((uint32_t)~(RCC_PLLSRC | RCC_PLLXTPRE |
     692:	ffc106b7          	lui	a3,0xffc10
     696:	16fd                	addi	a3,a3,-1
C:/flushbonading/MounRiver/EXE/Libraries/hefei_libraries/board/clock_config.c:44
        FLASH->ACTLR |= FLASH_ACTLR_PRFTBE;
     698:	01076713          	ori	a4,a4,16
     69c:	c398                	sw	a4,0(a5)
C:/flushbonading/MounRiver/EXE/Libraries/hefei_libraries/board/clock_config.c:47
        FLASH->ACTLR &= (uint32_t)((uint32_t)~FLASH_ACTLR_LATENCY);
     69e:	4398                	lw	a4,0(a5)
     6a0:	9b71                	andi	a4,a4,-4
     6a2:	c398                	sw	a4,0(a5)
C:/flushbonading/MounRiver/EXE/Libraries/hefei_libraries/board/clock_config.c:48
        FLASH->ACTLR |= (uint32_t)FLASH_ACTLR_LATENCY_2;
     6a4:	4398                	lw	a4,0(a5)
     6a6:	00276713          	ori	a4,a4,2
     6aa:	c398                	sw	a4,0(a5)
C:/flushbonading/MounRiver/EXE/Libraries/hefei_libraries/board/clock_config.c:51
        RCC->CFGR0 |= (uint32_t)RCC_HPRE_DIV1;
     6ac:	400217b7          	lui	a5,0x40021
     6b0:	43d8                	lw	a4,4(a5)
     6b2:	c3d8                	sw	a4,4(a5)
C:/flushbonading/MounRiver/EXE/Libraries/hefei_libraries/board/clock_config.c:53
        RCC->CFGR0 |= (uint32_t)RCC_PPRE2_DIV1;
     6b4:	43d8                	lw	a4,4(a5)
     6b6:	c3d8                	sw	a4,4(a5)
C:/flushbonading/MounRiver/EXE/Libraries/hefei_libraries/board/clock_config.c:55
        RCC->CFGR0 |= (uint32_t)RCC_PPRE1_DIV1;
     6b8:	43d8                	lw	a4,4(a5)
     6ba:	c3d8                	sw	a4,4(a5)
C:/flushbonading/MounRiver/EXE/Libraries/hefei_libraries/board/clock_config.c:58
        RCC->CFGR0 &= (uint32_t)((uint32_t)~(RCC_PLLSRC | RCC_PLLXTPRE |
     6bc:	43d8                	lw	a4,4(a5)
     6be:	8f75                	and	a4,a4,a3
     6c0:	c3d8                	sw	a4,4(a5)
C:/flushbonading/MounRiver/EXE/Libraries/hefei_libraries/board/clock_config.c:61
        RCC->CFGR0 |= (uint32_t)(RCC_PLLSRC_HSE | RCC_PLLMULL11);
     6c2:	43d8                	lw	a4,4(a5)
     6c4:	002506b7          	lui	a3,0x250
     6c8:	8f55                	or	a4,a4,a3
     6ca:	c3d8                	sw	a4,4(a5)
C:/flushbonading/MounRiver/EXE/Libraries/hefei_libraries/board/clock_config.c:63
        RCC->CTLR |= RCC_PLLON;
     6cc:	4398                	lw	a4,0(a5)
     6ce:	010006b7          	lui	a3,0x1000
     6d2:	8f55                	or	a4,a4,a3
     6d4:	c398                	sw	a4,0(a5)
C:/flushbonading/MounRiver/EXE/Libraries/hefei_libraries/board/clock_config.c:65
        while((RCC->CTLR & RCC_PLLRDY) == 0)
     6d6:	4398                	lw	a4,0(a5)
     6d8:	00671693          	slli	a3,a4,0x6
     6dc:	fe06dde3          	bgez	a3,6d6 <SystemInit+0xd4>
C:/flushbonading/MounRiver/EXE/Libraries/hefei_libraries/board/clock_config.c:69
        RCC->CFGR0 &= (uint32_t)((uint32_t)~(RCC_SW));
     6e0:	43d8                	lw	a4,4(a5)
C:/flushbonading/MounRiver/EXE/Libraries/hefei_libraries/board/clock_config.c:72
        while ((RCC->CFGR0 & (uint32_t)RCC_SWS) != (uint32_t)0x08)
     6e2:	400216b7          	lui	a3,0x40021
C:/flushbonading/MounRiver/EXE/Libraries/hefei_libraries/board/clock_config.c:69
        RCC->CFGR0 &= (uint32_t)((uint32_t)~(RCC_SW));
     6e6:	9b71                	andi	a4,a4,-4
     6e8:	c3d8                	sw	a4,4(a5)
C:/flushbonading/MounRiver/EXE/Libraries/hefei_libraries/board/clock_config.c:70
        RCC->CFGR0 |= (uint32_t)RCC_SW_PLL;
     6ea:	43d8                	lw	a4,4(a5)
     6ec:	00276713          	ori	a4,a4,2
     6f0:	c3d8                	sw	a4,4(a5)
C:/flushbonading/MounRiver/EXE/Libraries/hefei_libraries/board/clock_config.c:72
        while ((RCC->CFGR0 & (uint32_t)RCC_SWS) != (uint32_t)0x08)
     6f2:	4721                	li	a4,8
     6f4:	42dc                	lw	a5,4(a3)
     6f6:	8bb1                	andi	a5,a5,12
     6f8:	fee79ee3          	bne	a5,a4,6f4 <SystemInit+0xf2>
SystemInit():
C:/flushbonading/MounRiver/EXE/Libraries/hefei_libraries/board/clock_config.c:101
    SetSysClock();
}
     6fc:	0141                	addi	sp,sp,16
     6fe:	8082                	ret
SetSysClock():
C:/flushbonading/MounRiver/EXE/Libraries/hefei_libraries/board/clock_config.c:38
        HSEStatus = (uint32_t)0x00;
     700:	c602                	sw	zero,12(sp)
     702:	b749                	j	684 <SystemInit+0x82>

00000704 <Delay_Init>:
Delay_Init():
C:/flushbonading/MounRiver/EXE/Libraries/hefei_libraries/delay.c:24
//  @return     void
//  Sample usage:           Delay_Init();
//-------------------------------------------------------------------------------------------------------------------
void Delay_Init(void)
{
    p_us=sys_clk/8000000;
     704:	8101a783          	lw	a5,-2032(gp) # 20000080 <_edata>
     708:	007a1737          	lui	a4,0x7a1
     70c:	20070713          	addi	a4,a4,512 # 7a1200 <_data_lma+0x79f014>
     710:	02e7d7b3          	divu	a5,a5,a4
     714:	0ff7f793          	andi	a5,a5,255
     718:	80f18b23          	sb	a5,-2026(gp) # 20000086 <p_us>
C:/flushbonading/MounRiver/EXE/Libraries/hefei_libraries/delay.c:25
    p_ms=(uint16_t)p_us*1000;
     71c:	3e800713          	li	a4,1000
     720:	02e787b3          	mul	a5,a5,a4
     724:	80f19a23          	sh	a5,-2028(gp) # 20000084 <p_ms>
C:/flushbonading/MounRiver/EXE/Libraries/hefei_libraries/delay.c:26
}
     728:	8082                	ret

0000072a <Delay_Ms>:
Delay_Ms():
C:/flushbonading/MounRiver/EXE/Libraries/hefei_libraries/delay.c:61
//-------------------------------------------------------------------------------------------------------------------
void Delay_Ms (uint32_t n)
{
    uint32_t i;

    SysTick->CTLR = 0;
     72a:	e000f7b7          	lui	a5,0xe000f
     72e:	0007a023          	sw	zero,0(a5) # e000f000 <_eusrstack+0xc000a000>
C:/flushbonading/MounRiver/EXE/Libraries/hefei_libraries/delay.c:62
    i = (uint32_t)n*p_ms;
     732:	8141d703          	lhu	a4,-2028(gp) # 20000084 <p_ms>
C:/flushbonading/MounRiver/EXE/Libraries/hefei_libraries/delay.c:64

    SysTick->CNTL0 = 0;
     736:	00078223          	sb	zero,4(a5)
C:/flushbonading/MounRiver/EXE/Libraries/hefei_libraries/delay.c:65
    SysTick->CNTL1 = 0;
     73a:	000782a3          	sb	zero,5(a5)
C:/flushbonading/MounRiver/EXE/Libraries/hefei_libraries/delay.c:66
    SysTick->CNTL2 = 0;
     73e:	00078323          	sb	zero,6(a5)
C:/flushbonading/MounRiver/EXE/Libraries/hefei_libraries/delay.c:62
    i = (uint32_t)n*p_ms;
     742:	02a70533          	mul	a0,a4,a0
C:/flushbonading/MounRiver/EXE/Libraries/hefei_libraries/delay.c:67
    SysTick->CNTL3 = 0;
     746:	000783a3          	sb	zero,7(a5)
C:/flushbonading/MounRiver/EXE/Libraries/hefei_libraries/delay.c:68
    SysTick->CTLR = 1;
     74a:	4705                	li	a4,1
     74c:	c398                	sw	a4,0(a5)
C:/flushbonading/MounRiver/EXE/Libraries/hefei_libraries/delay.c:70

  while((*(__IO uint32_t*)0xE000F004) <= i);
     74e:	e000f737          	lui	a4,0xe000f
C:/flushbonading/MounRiver/EXE/Libraries/hefei_libraries/delay.c:70 (discriminator 1)
     752:	435c                	lw	a5,4(a4)
     754:	fef57fe3          	bgeu	a0,a5,752 <Delay_Ms+0x28>
C:/flushbonading/MounRiver/EXE/Libraries/hefei_libraries/delay.c:71
}
     758:	8082                	ret

0000075a <gpio_init>:
gpio_init():
C:/flushbonading/MounRiver/EXE/Libraries/hefei_libraries/hf_gpio.c:31
    GPIO_InitTypeDef GPIO_InitStructure;
    uint8 io_group = (pin & 0xE0) >> 5;
    uint8 io_pin = pin & 0x1F;


    if(PIN_NULL == pin) return;
     75a:	08000713          	li	a4,128
     75e:	0ce50c63          	beq	a0,a4,836 <__stack_size+0x36>
C:/flushbonading/MounRiver/EXE/Libraries/hefei_libraries/hf_gpio.c:25
{
     762:	7179                	addi	sp,sp,-48
     764:	d422                	sw	s0,40(sp)
     766:	d226                	sw	s1,36(sp)
     768:	d04a                	sw	s2,32(sp)
     76a:	ce4e                	sw	s3,28(sp)
     76c:	cc52                	sw	s4,24(sp)
     76e:	00555793          	srli	a5,a0,0x5
     772:	d606                	sw	ra,44(sp)
     774:	0077fa13          	andi	s4,a5,7
     778:	01f57413          	andi	s0,a0,31
     77c:	84b6                	mv	s1,a3
     77e:	89b2                	mv	s3,a2
     780:	892e                	mv	s2,a1
C:/flushbonading/MounRiver/EXE/Libraries/hefei_libraries/hf_gpio.c:33
    //GPIO总线使能
    if(0 == (pin >> 5))      RCC_APB2PeriphClockCmd(RCC_APB2Periph_GPIOA, ENABLE);
     782:	e3b5                	bnez	a5,7e6 <gpio_init+0x8c>
C:/flushbonading/MounRiver/EXE/Libraries/hefei_libraries/hf_gpio.c:33 (discriminator 1)
     784:	4585                	li	a1,1
     786:	4511                	li	a0,4
C:/flushbonading/MounRiver/EXE/Libraries/hefei_libraries/hf_gpio.c:39 (discriminator 1)
    else if(1 == (pin >> 5)) RCC_APB2PeriphClockCmd(RCC_APB2Periph_GPIOB, ENABLE);
    else if(2 == (pin >> 5)) RCC_APB2PeriphClockCmd(RCC_APB2Periph_GPIOC, ENABLE);
    else if(3 == (pin >> 5)) RCC_APB2PeriphClockCmd(RCC_APB2Periph_GPIOD, ENABLE);
    else if(4 == (pin >> 5)) RCC_APB2PeriphClockCmd(RCC_APB2Periph_GPIOE, ENABLE);
    else if(5 == (pin >> 5)) RCC_APB2PeriphClockCmd(RCC_APB2Periph_GPIOF, ENABLE);
    else if(6 == (pin >> 5)) RCC_APB2PeriphClockCmd(RCC_APB2Periph_GPIOG, ENABLE);
     788:	153000ef          	jal	ra,10da <RCC_APB2PeriphClockCmd>
C:/flushbonading/MounRiver/EXE/Libraries/hefei_libraries/hf_gpio.c:43


    //设置引脚号
    GPIO_InitStructure.GPIO_Pin = (uint16)(1 << io_pin);
     78c:	4785                	li	a5,1
     78e:	00879433          	sll	s0,a5,s0
     792:	0442                	slli	s0,s0,0x10
     794:	8041                	srli	s0,s0,0x10
     796:	00811223          	sh	s0,4(sp)
C:/flushbonading/MounRiver/EXE/Libraries/hefei_libraries/hf_gpio.c:45

    if(GPO == dir)
     79a:	00f91963          	bne	s2,a5,7ac <gpio_init+0x52>
C:/flushbonading/MounRiver/EXE/Libraries/hefei_libraries/hf_gpio.c:48
    {
        //只有输出需要设置速度
        if((uint16)pinconf >> 8 == 0) GPIO_InitStructure.GPIO_Speed = (GPIOSpeed_TypeDef)(GPIO_Speed_50MHz);  //防止没有填写这个参数,默认设置50Mhz
     79e:	01049793          	slli	a5,s1,0x10
     7a2:	83c1                	srli	a5,a5,0x10
     7a4:	83a1                	srli	a5,a5,0x8
     7a6:	e391                	bnez	a5,7aa <gpio_init+0x50>
C:/flushbonading/MounRiver/EXE/Libraries/hefei_libraries/hf_gpio.c:48 (discriminator 1)
     7a8:	478d                	li	a5,3
C:/flushbonading/MounRiver/EXE/Libraries/hefei_libraries/hf_gpio.c:49
        else GPIO_InitStructure.GPIO_Speed = (GPIOSpeed_TypeDef)((uint16)pinconf >> 8);                       //已经填写了该参数。根据值来设置
     7aa:	c43e                	sw	a5,8(sp)
C:/flushbonading/MounRiver/EXE/Libraries/hefei_libraries/hf_gpio.c:54
    }

    //设置模式
    GPIO_InitStructure.GPIO_Mode = (GPIOMode_TypeDef)((uint16)pinconf & 0xff);
    GPIO_Init((GPIO_TypeDef *)(GPION[io_group]), &GPIO_InitStructure);
     7ac:	6789                	lui	a5,0x2
     7ae:	0a0a                	slli	s4,s4,0x2
     7b0:	15c78793          	addi	a5,a5,348 # 215c <GPION>
     7b4:	97d2                	add	a5,a5,s4
C:/flushbonading/MounRiver/EXE/Libraries/hefei_libraries/hf_gpio.c:53
    GPIO_InitStructure.GPIO_Mode = (GPIOMode_TypeDef)((uint16)pinconf & 0xff);
     7b6:	0ff4f493          	andi	s1,s1,255
     7ba:	c626                	sw	s1,12(sp)
C:/flushbonading/MounRiver/EXE/Libraries/hefei_libraries/hf_gpio.c:54
    GPIO_Init((GPIO_TypeDef *)(GPION[io_group]), &GPIO_InitStructure);
     7bc:	4384                	lw	s1,0(a5)
     7be:	004c                	addi	a1,sp,4
     7c0:	8526                	mv	a0,s1
     7c2:	798000ef          	jal	ra,f5a <GPIO_Init>
C:/flushbonading/MounRiver/EXE/Libraries/hefei_libraries/hf_gpio.c:56

    if(GPO == dir)
     7c6:	4785                	li	a5,1
     7c8:	00f91763          	bne	s2,a5,7d6 <gpio_init+0x7c>
C:/flushbonading/MounRiver/EXE/Libraries/hefei_libraries/hf_gpio.c:59
    {
        //只有输出需要设置引脚状态
        GPIO_WriteBit((GPIO_TypeDef *)(GPION[io_group]), (uint16)(1 << io_pin), dat);
     7cc:	864e                	mv	a2,s3
     7ce:	85a2                	mv	a1,s0
     7d0:	8526                	mv	a0,s1
     7d2:	04b000ef          	jal	ra,101c <GPIO_WriteBit>
C:/flushbonading/MounRiver/EXE/Libraries/hefei_libraries/hf_gpio.c:61
    }
}
     7d6:	50b2                	lw	ra,44(sp)
     7d8:	5422                	lw	s0,40(sp)
     7da:	5492                	lw	s1,36(sp)
     7dc:	5902                	lw	s2,32(sp)
     7de:	49f2                	lw	s3,28(sp)
     7e0:	4a62                	lw	s4,24(sp)
     7e2:	6145                	addi	sp,sp,48
     7e4:	8082                	ret
C:/flushbonading/MounRiver/EXE/Libraries/hefei_libraries/hf_gpio.c:34
    else if(1 == (pin >> 5)) RCC_APB2PeriphClockCmd(RCC_APB2Periph_GPIOB, ENABLE);
     7e6:	4705                	li	a4,1
     7e8:	00e79563          	bne	a5,a4,7f2 <gpio_init+0x98>
C:/flushbonading/MounRiver/EXE/Libraries/hefei_libraries/hf_gpio.c:34 (discriminator 1)
     7ec:	4585                	li	a1,1
     7ee:	4521                	li	a0,8
     7f0:	bf61                	j	788 <gpio_init+0x2e>
C:/flushbonading/MounRiver/EXE/Libraries/hefei_libraries/hf_gpio.c:35
    else if(2 == (pin >> 5)) RCC_APB2PeriphClockCmd(RCC_APB2Periph_GPIOC, ENABLE);
     7f2:	4709                	li	a4,2
     7f4:	00e79563          	bne	a5,a4,7fe <gpio_init+0xa4>
C:/flushbonading/MounRiver/EXE/Libraries/hefei_libraries/hf_gpio.c:35 (discriminator 1)
     7f8:	4585                	li	a1,1
     7fa:	4541                	li	a0,16
     7fc:	b771                	j	788 <gpio_init+0x2e>
C:/flushbonading/MounRiver/EXE/Libraries/hefei_libraries/hf_gpio.c:36
    else if(3 == (pin >> 5)) RCC_APB2PeriphClockCmd(RCC_APB2Periph_GPIOD, ENABLE);
     7fe:	470d                	li	a4,3
     800:	00e79663          	bne	a5,a4,80c <__stack_size+0xc>
C:/flushbonading/MounRiver/EXE/Libraries/hefei_libraries/hf_gpio.c:36 (discriminator 1)
     804:	4585                	li	a1,1
     806:	02000513          	li	a0,32
     80a:	bfbd                	j	788 <gpio_init+0x2e>
C:/flushbonading/MounRiver/EXE/Libraries/hefei_libraries/hf_gpio.c:37
    else if(4 == (pin >> 5)) RCC_APB2PeriphClockCmd(RCC_APB2Periph_GPIOE, ENABLE);
     80c:	4711                	li	a4,4
     80e:	00e79663          	bne	a5,a4,81a <__stack_size+0x1a>
C:/flushbonading/MounRiver/EXE/Libraries/hefei_libraries/hf_gpio.c:37 (discriminator 1)
     812:	4585                	li	a1,1
     814:	04000513          	li	a0,64
     818:	bf85                	j	788 <gpio_init+0x2e>
C:/flushbonading/MounRiver/EXE/Libraries/hefei_libraries/hf_gpio.c:38
    else if(5 == (pin >> 5)) RCC_APB2PeriphClockCmd(RCC_APB2Periph_GPIOF, ENABLE);
     81a:	4715                	li	a4,5
     81c:	00e79663          	bne	a5,a4,828 <__stack_size+0x28>
C:/flushbonading/MounRiver/EXE/Libraries/hefei_libraries/hf_gpio.c:38 (discriminator 1)
     820:	4585                	li	a1,1
     822:	08000513          	li	a0,128
     826:	b78d                	j	788 <gpio_init+0x2e>
C:/flushbonading/MounRiver/EXE/Libraries/hefei_libraries/hf_gpio.c:39
    else if(6 == (pin >> 5)) RCC_APB2PeriphClockCmd(RCC_APB2Periph_GPIOG, ENABLE);
     828:	4719                	li	a4,6
     82a:	f6e791e3          	bne	a5,a4,78c <gpio_init+0x32>
C:/flushbonading/MounRiver/EXE/Libraries/hefei_libraries/hf_gpio.c:39 (discriminator 1)
     82e:	4585                	li	a1,1
     830:	10000513          	li	a0,256
     834:	bf91                	j	788 <gpio_init+0x2e>
     836:	8082                	ret

00000838 <close_all_irq>:
close_all_irq():
C:/flushbonading/MounRiver/EXE/Libraries/hefei_libraries/hf_nvic.c:82
//  Sample usage:       内部使用  用户无需关心
//-------------------------------------------------------------------------------------------------------------------
void close_all_irq(void)
{
    /* 写1，清空状态 */
    PFIC->IRER[0] = 0xffffffff;
     838:	e000e7b7          	lui	a5,0xe000e
     83c:	577d                	li	a4,-1
     83e:	18e7a023          	sw	a4,384(a5) # e000e180 <_eusrstack+0xc0009180>
C:/flushbonading/MounRiver/EXE/Libraries/hefei_libraries/hf_nvic.c:83
    PFIC->IRER[1] = 0xffffffff;
     842:	18e7a223          	sw	a4,388(a5)
C:/flushbonading/MounRiver/EXE/Libraries/hefei_libraries/hf_nvic.c:84
}
     846:	8082                	ret

00000848 <DisableGlobalIRQ>:
DisableGlobalIRQ():
C:/flushbonading/MounRiver/EXE/Libraries/hefei_libraries/hf_nvic.c:48
{
     848:	1101                	addi	sp,sp,-32
     84a:	ce06                	sw	ra,28(sp)
C:/flushbonading/MounRiver/EXE/Libraries/hefei_libraries/hf_nvic.c:50
    irq_status.flag = 1;
     84c:	82418793          	addi	a5,gp,-2012 # 20000094 <irq_status>
     850:	4685                	li	a3,1
     852:	00d78423          	sb	a3,8(a5)
C:/flushbonading/MounRiver/EXE/Libraries/hefei_libraries/hf_nvic.c:51
    if((irq_status.ienr0 == 0) && (irq_status.ienr1 == 0))   state = 0;  //没有就返回0
     856:	8241a503          	lw	a0,-2012(gp) # 20000094 <irq_status>
     85a:	43dc                	lw	a5,4(a5)
     85c:	8d5d                	or	a0,a0,a5
     85e:	00a03533          	snez	a0,a0
     862:	c62a                	sw	a0,12(sp)
C:/flushbonading/MounRiver/EXE/Libraries/hefei_libraries/hf_nvic.c:53
    close_all_irq();
     864:	3fd1                	jal	838 <close_all_irq>
C:/flushbonading/MounRiver/EXE/Libraries/hefei_libraries/hf_nvic.c:55
}
     866:	40f2                	lw	ra,28(sp)
     868:	4532                	lw	a0,12(sp)
     86a:	6105                	addi	sp,sp,32
     86c:	8082                	ret

0000086e <sys_recover_irq>:
sys_recover_irq():
C:/flushbonading/MounRiver/EXE/Libraries/hefei_libraries/hf_nvic.c:95
//  @since      v1.0
//  Sample usage:       内部使用  用户无需关心
//-------------------------------------------------------------------------------------------------------------------
void sys_recover_irq(void)
{
    PFIC->IENR[0] = irq_status.ienr0;
     86e:	8241a683          	lw	a3,-2012(gp) # 20000094 <irq_status>
     872:	e000e737          	lui	a4,0xe000e
C:/flushbonading/MounRiver/EXE/Libraries/hefei_libraries/hf_nvic.c:96
    PFIC->IENR[1] = irq_status.ienr1;
     876:	82418793          	addi	a5,gp,-2012 # 20000094 <irq_status>
C:/flushbonading/MounRiver/EXE/Libraries/hefei_libraries/hf_nvic.c:95
    PFIC->IENR[0] = irq_status.ienr0;
     87a:	10d72023          	sw	a3,256(a4) # e000e100 <_eusrstack+0xc0009100>
C:/flushbonading/MounRiver/EXE/Libraries/hefei_libraries/hf_nvic.c:96
    PFIC->IENR[1] = irq_status.ienr1;
     87e:	43dc                	lw	a5,4(a5)
     880:	10f72223          	sw	a5,260(a4)
C:/flushbonading/MounRiver/EXE/Libraries/hefei_libraries/hf_nvic.c:97
}
     884:	8082                	ret

00000886 <EnableGlobalIRQ>:
EnableGlobalIRQ():
C:/flushbonading/MounRiver/EXE/Libraries/hefei_libraries/hf_nvic.c:66
    if(state == 0)
     886:	e501                	bnez	a0,88e <EnableGlobalIRQ+0x8>
C:/flushbonading/MounRiver/EXE/Libraries/hefei_libraries/hf_nvic.c:68
        irq_status.flag = 0;
     888:	82018623          	sb	zero,-2004(gp) # 2000009c <irq_status+0x8>
C:/flushbonading/MounRiver/EXE/Libraries/hefei_libraries/hf_nvic.c:69
        sys_recover_irq();
     88c:	b7cd                	j	86e <sys_recover_irq>
C:/flushbonading/MounRiver/EXE/Libraries/hefei_libraries/hf_nvic.c:71
}
     88e:	8082                	ret

00000890 <pwm_duty>:
pwm_duty():
C:/flushbonading/MounRiver/EXE/Libraries/hefei_libraries/hf_pwm.c:103
void pwm_duty(PWMCH_enum pwmch, uint32 duty)
{
    uint16 match_temp;
    uint16 period_temp;

    period_temp = ((TIM_TypeDef *) TIMERN[pwmch>>8])->ATRLR;    //获取定时器的周期值
     890:	00855713          	srli	a4,a0,0x8
     894:	6689                	lui	a3,0x2
     896:	00271793          	slli	a5,a4,0x2
     89a:	16c68693          	addi	a3,a3,364 # 216c <TIMERN>
     89e:	97b6                	add	a5,a5,a3
     8a0:	439c                	lw	a5,0(a5)
     8a2:	02c7d783          	lhu	a5,44(a5)
C:/flushbonading/MounRiver/EXE/Libraries/hefei_libraries/hf_pwm.c:104
    match_temp = period_temp * duty / PWM_DUTY_MAX;             //占空比
     8a6:	02f585b3          	mul	a1,a1,a5
     8aa:	6789                	lui	a5,0x2
     8ac:	71078793          	addi	a5,a5,1808 # 2710 <_data_lma+0x524>
     8b0:	02f5d5b3          	divu	a1,a1,a5
C:/flushbonading/MounRiver/EXE/Libraries/hefei_libraries/hf_pwm.c:106

    if((pwmch >> 8) == 0x00)
     8b4:	ef01                	bnez	a4,8cc <pwm_duty+0x3c>
C:/flushbonading/MounRiver/EXE/Libraries/hefei_libraries/hf_pwm.c:108
    {
        (*(volatile uint32*)(0x40012C34 + (pwmch&0x03) * 0x04)) = match_temp;
     8b6:	100057b7          	lui	a5,0x10005
     8ba:	890d                	andi	a0,a0,3
     8bc:	b0d78793          	addi	a5,a5,-1267 # 10004b0d <_data_lma+0x10002921>
C:/flushbonading/MounRiver/EXE/Libraries/hefei_libraries/hf_pwm.c:132
        //0x4000043C TIM3->CH3CVR
        //0x40000440 TIM3->CH4CVR
    }
    else if((pwmch >> 8) == 0x03)
    {
        (*(volatile uint32*)(0x40000834 + (pwmch&0x03) * 0x04)) = match_temp;
     8c0:	953e                	add	a0,a0,a5
     8c2:	05c2                	slli	a1,a1,0x10
     8c4:	050a                	slli	a0,a0,0x2
     8c6:	81c1                	srli	a1,a1,0x10
     8c8:	c10c                	sw	a1,0(a0)
C:/flushbonading/MounRiver/EXE/Libraries/hefei_libraries/hf_pwm.c:138
        //0x40000834 TIM4->CH1CVR
        //0x40000838 TIM4->CH2CVR
        //0x4000083C TIM4->CH3CVR
        //0x40000840 TIM4->CH4CVR
    }
}
     8ca:	8082                	ret
C:/flushbonading/MounRiver/EXE/Libraries/hefei_libraries/hf_pwm.c:114
    else if((pwmch >> 8) == 0x01)
     8cc:	4785                	li	a5,1
     8ce:	00f71763          	bne	a4,a5,8dc <pwm_duty+0x4c>
C:/flushbonading/MounRiver/EXE/Libraries/hefei_libraries/hf_pwm.c:116
        (*(volatile uint32*)(0x40000034 + (pwmch&0x03) * 0x04)) = match_temp;
     8d2:	100007b7          	lui	a5,0x10000
     8d6:	890d                	andi	a0,a0,3
     8d8:	07b5                	addi	a5,a5,13
     8da:	b7dd                	j	8c0 <pwm_duty+0x30>
C:/flushbonading/MounRiver/EXE/Libraries/hefei_libraries/hf_pwm.c:122
    else if((pwmch >> 8) == 0x02)
     8dc:	4789                	li	a5,2
     8de:	00f71863          	bne	a4,a5,8ee <pwm_duty+0x5e>
C:/flushbonading/MounRiver/EXE/Libraries/hefei_libraries/hf_pwm.c:124
        (*(volatile uint32*)(0x40000434 + (pwmch&0x03) * 0x04)) = match_temp;
     8e2:	100007b7          	lui	a5,0x10000
     8e6:	890d                	andi	a0,a0,3
     8e8:	10d78793          	addi	a5,a5,269 # 1000010d <_data_lma+0xfffdf21>
     8ec:	bfd1                	j	8c0 <pwm_duty+0x30>
C:/flushbonading/MounRiver/EXE/Libraries/hefei_libraries/hf_pwm.c:130
    else if((pwmch >> 8) == 0x03)
     8ee:	478d                	li	a5,3
     8f0:	fcf71de3          	bne	a4,a5,8ca <pwm_duty+0x3a>
C:/flushbonading/MounRiver/EXE/Libraries/hefei_libraries/hf_pwm.c:132
        (*(volatile uint32*)(0x40000834 + (pwmch&0x03) * 0x04)) = match_temp;
     8f4:	100007b7          	lui	a5,0x10000
     8f8:	890d                	andi	a0,a0,3
     8fa:	20d78793          	addi	a5,a5,525 # 1000020d <_data_lma+0xfffe021>
     8fe:	b7c9                	j	8c0 <pwm_duty+0x30>

00000900 <pwm_gpio_init>:
pwm_gpio_init():
C:/flushbonading/MounRiver/EXE/Libraries/hefei_libraries/hf_pwm.c:200
//  @return     void
//  Sample usage:           内部使用  用户无需关心
//-------------------------------------------------------------------------------------------------------------------
void pwm_gpio_init(PWMCH_enum pwmch)
{
    switch(pwmch)
     900:	20000793          	li	a5,512
     904:	16f50b63          	beq	a0,a5,a7a <pwm_gpio_init+0x17a>
     908:	06a7e463          	bltu	a5,a0,970 <pwm_gpio_init+0x70>
     90c:	10100793          	li	a5,257
     910:	10f50863          	beq	a0,a5,a20 <pwm_gpio_init+0x120>
     914:	02a7e463          	bltu	a5,a0,93c <pwm_gpio_init+0x3c>
     918:	4789                	li	a5,2
     91a:	0ef50163          	beq	a0,a5,9fc <pwm_gpio_init+0xfc>
     91e:	00a7e763          	bltu	a5,a0,92c <pwm_gpio_init+0x2c>
     922:	c169                	beqz	a0,9e4 <pwm_gpio_init+0xe4>
     924:	4785                	li	a5,1
     926:	0cf50563          	beq	a0,a5,9f0 <pwm_gpio_init+0xf0>
     92a:	8082                	ret
     92c:	478d                	li	a5,3
     92e:	0cf50d63          	beq	a0,a5,a08 <pwm_gpio_init+0x108>
     932:	10000793          	li	a5,256
     936:	0cf50f63          	beq	a0,a5,a14 <pwm_gpio_init+0x114>
     93a:	8082                	ret
     93c:	11000793          	li	a5,272
     940:	10f50263          	beq	a0,a5,a44 <pwm_gpio_init+0x144>
     944:	00a7eb63          	bltu	a5,a0,95a <pwm_gpio_init+0x5a>
     948:	10200793          	li	a5,258
     94c:	0ef50063          	beq	a0,a5,a2c <pwm_gpio_init+0x12c>
     950:	10300793          	li	a5,259
     954:	0ef50263          	beq	a0,a5,a38 <pwm_gpio_init+0x138>
     958:	8082                	ret
     95a:	11200793          	li	a5,274
     95e:	10f50063          	beq	a0,a5,a5e <pwm_gpio_init+0x15e>
     962:	0ef56763          	bltu	a0,a5,a50 <pwm_gpio_init+0x150>
     966:	11300793          	li	a5,275
     96a:	10f50163          	beq	a0,a5,a6c <pwm_gpio_init+0x16c>
     96e:	8082                	ret
     970:	21300793          	li	a5,531
     974:	16f50263          	beq	a0,a5,ad8 <pwm_gpio_init+0x1d8>
     978:	02a7ec63          	bltu	a5,a0,9b0 <pwm_gpio_init+0xb0>
     97c:	20300793          	li	a5,515
     980:	12f50063          	beq	a0,a5,aa0 <pwm_gpio_init+0x1a0>
     984:	00a7eb63          	bltu	a5,a0,99a <pwm_gpio_init+0x9a>
     988:	20100793          	li	a5,513
     98c:	0ef50d63          	beq	a0,a5,a86 <pwm_gpio_init+0x186>
     990:	20200793          	li	a5,514
     994:	0ef50f63          	beq	a0,a5,a92 <pwm_gpio_init+0x192>
     998:	8082                	ret
     99a:	21100793          	li	a5,529
     99e:	10f50f63          	beq	a0,a5,abc <pwm_gpio_init+0x1bc>
     9a2:	12a7e463          	bltu	a5,a0,aca <pwm_gpio_init+0x1ca>
     9a6:	21000793          	li	a5,528
     9aa:	10f50263          	beq	a0,a5,aae <pwm_gpio_init+0x1ae>
     9ae:	8082                	ret
     9b0:	30000793          	li	a5,768
     9b4:	14f50763          	beq	a0,a5,b02 <pwm_gpio_init+0x202>
     9b8:	00a7eb63          	bltu	a5,a0,9ce <pwm_gpio_init+0xce>
     9bc:	22000793          	li	a5,544
     9c0:	12f50363          	beq	a0,a5,ae6 <pwm_gpio_init+0x1e6>
     9c4:	22100793          	li	a5,545
     9c8:	12f50663          	beq	a0,a5,af4 <pwm_gpio_init+0x1f4>
     9cc:	8082                	ret
     9ce:	30200793          	li	a5,770
     9d2:	14f50663          	beq	a0,a5,b1e <pwm_gpio_init+0x21e>
     9d6:	12f56d63          	bltu	a0,a5,b10 <pwm_gpio_init+0x210>
     9da:	30300793          	li	a5,771
     9de:	14f50763          	beq	a0,a5,b2c <pwm_gpio_init+0x22c>
     9e2:	8082                	ret
C:/flushbonading/MounRiver/EXE/Libraries/hefei_libraries/hf_pwm.c:204
    {

        case PWM1_CH1_A8:
            gpio_init(A8, GPO, 0, SPEED_50MHZ|OUT_AF_PP);
     9e4:	31800693          	li	a3,792
     9e8:	4601                	li	a2,0
     9ea:	4585                	li	a1,1
     9ec:	4521                	li	a0,8
C:/flushbonading/MounRiver/EXE/Libraries/hefei_libraries/hf_pwm.c:285
            break;
        case PWM4_CH3_B8:
            gpio_init(B8, GPO, 0, SPEED_50MHZ|OUT_AF_PP);
            break;
        case PWM4_CH4_B9:
            gpio_init(B9, GPO, 0, SPEED_50MHZ|OUT_AF_PP);
     9ee:	b3b5                	j	75a <gpio_init>
C:/flushbonading/MounRiver/EXE/Libraries/hefei_libraries/hf_pwm.c:207
            gpio_init(A9, GPO, 0, SPEED_50MHZ|OUT_AF_PP);
     9f0:	31800693          	li	a3,792
     9f4:	4601                	li	a2,0
     9f6:	4585                	li	a1,1
     9f8:	4525                	li	a0,9
     9fa:	bfd5                	j	9ee <pwm_gpio_init+0xee>
C:/flushbonading/MounRiver/EXE/Libraries/hefei_libraries/hf_pwm.c:210
            gpio_init(A10, GPO, 0, SPEED_50MHZ|OUT_AF_PP);
     9fc:	31800693          	li	a3,792
     a00:	4601                	li	a2,0
     a02:	4585                	li	a1,1
     a04:	4529                	li	a0,10
     a06:	b7e5                	j	9ee <pwm_gpio_init+0xee>
C:/flushbonading/MounRiver/EXE/Libraries/hefei_libraries/hf_pwm.c:213
            gpio_init(A11, GPO, 0, SPEED_50MHZ|OUT_AF_PP);
     a08:	31800693          	li	a3,792
     a0c:	4601                	li	a2,0
     a0e:	4585                	li	a1,1
     a10:	452d                	li	a0,11
     a12:	bff1                	j	9ee <pwm_gpio_init+0xee>
C:/flushbonading/MounRiver/EXE/Libraries/hefei_libraries/hf_pwm.c:217
            gpio_init(A0, GPO, 0, SPEED_50MHZ|OUT_AF_PP);
     a14:	31800693          	li	a3,792
     a18:	4601                	li	a2,0
     a1a:	4585                	li	a1,1
     a1c:	4501                	li	a0,0
     a1e:	bfc1                	j	9ee <pwm_gpio_init+0xee>
C:/flushbonading/MounRiver/EXE/Libraries/hefei_libraries/hf_pwm.c:220
            gpio_init(A1, GPO, 0, SPEED_50MHZ|OUT_AF_PP);
     a20:	31800693          	li	a3,792
     a24:	4601                	li	a2,0
     a26:	4585                	li	a1,1
     a28:	4505                	li	a0,1
     a2a:	b7d1                	j	9ee <pwm_gpio_init+0xee>
C:/flushbonading/MounRiver/EXE/Libraries/hefei_libraries/hf_pwm.c:223
            gpio_init(A2, GPO, 0, SPEED_50MHZ|OUT_AF_PP);
     a2c:	31800693          	li	a3,792
     a30:	4601                	li	a2,0
     a32:	4585                	li	a1,1
     a34:	4509                	li	a0,2
     a36:	bf65                	j	9ee <pwm_gpio_init+0xee>
C:/flushbonading/MounRiver/EXE/Libraries/hefei_libraries/hf_pwm.c:226
            gpio_init(A3, GPO, 0, SPEED_50MHZ|OUT_AF_PP);
     a38:	31800693          	li	a3,792
     a3c:	4601                	li	a2,0
     a3e:	4585                	li	a1,1
     a40:	450d                	li	a0,3
     a42:	b775                	j	9ee <pwm_gpio_init+0xee>
C:/flushbonading/MounRiver/EXE/Libraries/hefei_libraries/hf_pwm.c:230
            gpio_init(A15, GPO, 0, SPEED_50MHZ|OUT_AF_PP);
     a44:	31800693          	li	a3,792
     a48:	4601                	li	a2,0
     a4a:	4585                	li	a1,1
     a4c:	453d                	li	a0,15
     a4e:	b745                	j	9ee <pwm_gpio_init+0xee>
C:/flushbonading/MounRiver/EXE/Libraries/hefei_libraries/hf_pwm.c:233
            gpio_init(B3, GPO, 0, SPEED_50MHZ|OUT_AF_PP);
     a50:	31800693          	li	a3,792
     a54:	4601                	li	a2,0
     a56:	4585                	li	a1,1
     a58:	02300513          	li	a0,35
     a5c:	bf49                	j	9ee <pwm_gpio_init+0xee>
C:/flushbonading/MounRiver/EXE/Libraries/hefei_libraries/hf_pwm.c:236
            gpio_init(B10, GPO, 0, SPEED_50MHZ|OUT_AF_PP);
     a5e:	31800693          	li	a3,792
     a62:	4601                	li	a2,0
     a64:	4585                	li	a1,1
     a66:	02a00513          	li	a0,42
     a6a:	b751                	j	9ee <pwm_gpio_init+0xee>
C:/flushbonading/MounRiver/EXE/Libraries/hefei_libraries/hf_pwm.c:239
            gpio_init(B11, GPO, 0, SPEED_50MHZ|OUT_AF_PP);
     a6c:	31800693          	li	a3,792
     a70:	4601                	li	a2,0
     a72:	4585                	li	a1,1
     a74:	02b00513          	li	a0,43
     a78:	bf9d                	j	9ee <pwm_gpio_init+0xee>
C:/flushbonading/MounRiver/EXE/Libraries/hefei_libraries/hf_pwm.c:243
            gpio_init(A6, GPO, 0, SPEED_50MHZ|OUT_AF_PP);
     a7a:	31800693          	li	a3,792
     a7e:	4601                	li	a2,0
     a80:	4585                	li	a1,1
     a82:	4519                	li	a0,6
     a84:	b7ad                	j	9ee <pwm_gpio_init+0xee>
C:/flushbonading/MounRiver/EXE/Libraries/hefei_libraries/hf_pwm.c:246
            gpio_init(A7, GPO, 0, SPEED_50MHZ|OUT_AF_PP);
     a86:	31800693          	li	a3,792
     a8a:	4601                	li	a2,0
     a8c:	4585                	li	a1,1
     a8e:	451d                	li	a0,7
     a90:	bfb9                	j	9ee <pwm_gpio_init+0xee>
C:/flushbonading/MounRiver/EXE/Libraries/hefei_libraries/hf_pwm.c:249
            gpio_init(B0, GPO, 0, SPEED_50MHZ|OUT_AF_PP);
     a92:	31800693          	li	a3,792
     a96:	4601                	li	a2,0
     a98:	4585                	li	a1,1
     a9a:	02000513          	li	a0,32
     a9e:	bf81                	j	9ee <pwm_gpio_init+0xee>
C:/flushbonading/MounRiver/EXE/Libraries/hefei_libraries/hf_pwm.c:252
            gpio_init(B1, GPO, 0, SPEED_50MHZ|OUT_AF_PP);
     aa0:	31800693          	li	a3,792
     aa4:	4601                	li	a2,0
     aa6:	4585                	li	a1,1
     aa8:	02100513          	li	a0,33
     aac:	b789                	j	9ee <pwm_gpio_init+0xee>
C:/flushbonading/MounRiver/EXE/Libraries/hefei_libraries/hf_pwm.c:256
            gpio_init(C6, GPO, 0, SPEED_50MHZ|OUT_AF_PP);
     aae:	31800693          	li	a3,792
     ab2:	4601                	li	a2,0
     ab4:	4585                	li	a1,1
     ab6:	04600513          	li	a0,70
     aba:	bf15                	j	9ee <pwm_gpio_init+0xee>
C:/flushbonading/MounRiver/EXE/Libraries/hefei_libraries/hf_pwm.c:259
            gpio_init(C7, GPO, 0, SPEED_50MHZ|OUT_AF_PP);
     abc:	31800693          	li	a3,792
     ac0:	4601                	li	a2,0
     ac2:	4585                	li	a1,1
     ac4:	04700513          	li	a0,71
     ac8:	b71d                	j	9ee <pwm_gpio_init+0xee>
C:/flushbonading/MounRiver/EXE/Libraries/hefei_libraries/hf_pwm.c:262
            gpio_init(C8, GPO, 0, SPEED_50MHZ|OUT_AF_PP);
     aca:	31800693          	li	a3,792
     ace:	4601                	li	a2,0
     ad0:	4585                	li	a1,1
     ad2:	04800513          	li	a0,72
     ad6:	bf21                	j	9ee <pwm_gpio_init+0xee>
C:/flushbonading/MounRiver/EXE/Libraries/hefei_libraries/hf_pwm.c:265
            gpio_init(C9, GPO, 0, SPEED_50MHZ|OUT_AF_PP);
     ad8:	31800693          	li	a3,792
     adc:	4601                	li	a2,0
     ade:	4585                	li	a1,1
     ae0:	04900513          	li	a0,73
     ae4:	b729                	j	9ee <pwm_gpio_init+0xee>
C:/flushbonading/MounRiver/EXE/Libraries/hefei_libraries/hf_pwm.c:269
            gpio_init(B4, GPO, 0, SPEED_50MHZ|OUT_AF_PP);
     ae6:	31800693          	li	a3,792
     aea:	4601                	li	a2,0
     aec:	4585                	li	a1,1
     aee:	02400513          	li	a0,36
     af2:	bdf5                	j	9ee <pwm_gpio_init+0xee>
C:/flushbonading/MounRiver/EXE/Libraries/hefei_libraries/hf_pwm.c:272
            gpio_init(B5, GPO, 0, SPEED_50MHZ|OUT_AF_PP);
     af4:	31800693          	li	a3,792
     af8:	4601                	li	a2,0
     afa:	4585                	li	a1,1
     afc:	02500513          	li	a0,37
     b00:	b5fd                	j	9ee <pwm_gpio_init+0xee>
C:/flushbonading/MounRiver/EXE/Libraries/hefei_libraries/hf_pwm.c:276
            gpio_init(B6, GPO, 0, SPEED_50MHZ|OUT_AF_PP);
     b02:	31800693          	li	a3,792
     b06:	4601                	li	a2,0
     b08:	4585                	li	a1,1
     b0a:	02600513          	li	a0,38
     b0e:	b5c5                	j	9ee <pwm_gpio_init+0xee>
C:/flushbonading/MounRiver/EXE/Libraries/hefei_libraries/hf_pwm.c:279
            gpio_init(B7, GPO, 0, SPEED_50MHZ|OUT_AF_PP);
     b10:	31800693          	li	a3,792
     b14:	4601                	li	a2,0
     b16:	4585                	li	a1,1
     b18:	02700513          	li	a0,39
     b1c:	bdc9                	j	9ee <pwm_gpio_init+0xee>
C:/flushbonading/MounRiver/EXE/Libraries/hefei_libraries/hf_pwm.c:282
            gpio_init(B8, GPO, 0, SPEED_50MHZ|OUT_AF_PP);
     b1e:	31800693          	li	a3,792
     b22:	4601                	li	a2,0
     b24:	4585                	li	a1,1
     b26:	02800513          	li	a0,40
     b2a:	b5d1                	j	9ee <pwm_gpio_init+0xee>
C:/flushbonading/MounRiver/EXE/Libraries/hefei_libraries/hf_pwm.c:285
            gpio_init(B9, GPO, 0, SPEED_50MHZ|OUT_AF_PP);
     b2c:	31800693          	li	a3,792
     b30:	4601                	li	a2,0
     b32:	4585                	li	a1,1
     b34:	02900513          	li	a0,41
     b38:	bd5d                	j	9ee <pwm_gpio_init+0xee>

00000b3a <pwm_init>:
pwm_init():
C:/flushbonading/MounRiver/EXE/Libraries/hefei_libraries/hf_pwm.c:25
{
     b3a:	7139                	addi	sp,sp,-64
     b3c:	de06                	sw	ra,60(sp)
     b3e:	dc22                	sw	s0,56(sp)
     b40:	da26                	sw	s1,52(sp)
     b42:	d84a                	sw	s2,48(sp)
     b44:	84aa                	mv	s1,a0
     b46:	d64e                	sw	s3,44(sp)
     b48:	d452                	sw	s4,40(sp)
     b4a:	89b6                	mv	s3,a3
     b4c:	8a32                	mv	s4,a2
     b4e:	c62e                	sw	a1,12(sp)
C:/flushbonading/MounRiver/EXE/Libraries/hefei_libraries/hf_pwm.c:32
    pwm_gpio_init(pwmch);                                       //PWM引脚初始化
     b50:	3b45                	jal	900 <pwm_gpio_init>
C:/flushbonading/MounRiver/EXE/Libraries/hefei_libraries/hf_pwm.c:36
    freq_div = (uint16)((sys_clk / freq) >> 16);                            //多少分频
     b52:	45b2                	lw	a1,12(sp)
C:/flushbonading/MounRiver/EXE/Libraries/hefei_libraries/hf_pwm.c:35
    sys_clk = (uint32)72000000;
     b54:	044aa7b7          	lui	a5,0x44aa
     b58:	20078793          	addi	a5,a5,512 # 44aa200 <_data_lma+0x44a8014>
C:/flushbonading/MounRiver/EXE/Libraries/hefei_libraries/hf_pwm.c:36
    freq_div = (uint16)((sys_clk / freq) >> 16);                            //多少分频
     b5c:	02b7d633          	divu	a2,a5,a1
C:/flushbonading/MounRiver/EXE/Libraries/hefei_libraries/hf_pwm.c:41
    timbase_init((pwmch >> 8), period_temp - 1, freq_div);
     b60:	0084d913          	srli	s2,s1,0x8
     b64:	854a                	mv	a0,s2
C:/flushbonading/MounRiver/EXE/Libraries/hefei_libraries/hf_pwm.c:35
    sys_clk = (uint32)72000000;
     b66:	80f1a823          	sw	a5,-2032(gp) # 20000080 <_edata>
C:/flushbonading/MounRiver/EXE/Libraries/hefei_libraries/hf_pwm.c:36
    freq_div = (uint16)((sys_clk / freq) >> 16);                            //多少分频
     b6a:	090a                	slli	s2,s2,0x2
     b6c:	8241                	srli	a2,a2,0x10
C:/flushbonading/MounRiver/EXE/Libraries/hefei_libraries/hf_pwm.c:37
    period_temp = (uint16)(sys_clk/(freq*(freq_div + 1)));                  //周期
     b6e:	00160413          	addi	s0,a2,1 # 20001 <_data_lma+0x1de15>
     b72:	02b40433          	mul	s0,s0,a1
     b76:	0287d433          	divu	s0,a5,s0
C:/flushbonading/MounRiver/EXE/Libraries/hefei_libraries/hf_pwm.c:41
    timbase_init((pwmch >> 8), period_temp - 1, freq_div);
     b7a:	fff40593          	addi	a1,s0,-1
     b7e:	05c2                	slli	a1,a1,0x10
     b80:	81c1                	srli	a1,a1,0x10
     b82:	20c9                	jal	c44 <timbase_init>
C:/flushbonading/MounRiver/EXE/Libraries/hefei_libraries/hf_pwm.c:43
    RCC_APB2PeriphClockCmd(RCC_APB2Periph_AFIO, ENABLE);        //使能AFIO复用功能模块时钟
     b84:	4585                	li	a1,1
     b86:	4505                	li	a0,1
     b88:	2b89                	jal	10da <RCC_APB2PeriphClockCmd>
C:/flushbonading/MounRiver/EXE/Libraries/hefei_libraries/hf_pwm.c:38
    match_temp = period_temp * duty / PWM_DUTY_MAX;                         //占空比
     b8a:	01041793          	slli	a5,s0,0x10
     b8e:	83c1                	srli	a5,a5,0x10
     b90:	034787b3          	mul	a5,a5,s4
     b94:	6409                	lui	s0,0x2
     b96:	71040413          	addi	s0,s0,1808 # 2710 <_data_lma+0x524>
C:/flushbonading/MounRiver/EXE/Libraries/hefei_libraries/hf_pwm.c:56
    TIM_OCInitStructure.TIM_OCMode = TIM_OCMode_PWM1;                       //选择定时器模式:TIM脉冲宽度调制模式2
     b9a:	6741                	lui	a4,0x10
     b9c:	06070713          	addi	a4,a4,96 # 10060 <_data_lma+0xde74>
     ba0:	c83a                	sw	a4,16(sp)
C:/flushbonading/MounRiver/EXE/Libraries/hefei_libraries/hf_pwm.c:58
    TIM_OCInitStructure.TIM_Pulse = match_temp;
     ba2:	6709                	lui	a4,0x2
     ba4:	16c70713          	addi	a4,a4,364 # 216c <TIMERN>
     ba8:	993a                	add	s2,s2,a4
C:/flushbonading/MounRiver/EXE/Libraries/hefei_libraries/hf_pwm.c:59
    TIM_OCInitStructure.TIM_OCPolarity = TIM_OCPolarity_High;               //输出极性:TIM输出比较极性高
     baa:	00011c23          	sh	zero,24(sp)
C:/flushbonading/MounRiver/EXE/Libraries/hefei_libraries/hf_pwm.c:38
    match_temp = period_temp * duty / PWM_DUTY_MAX;                         //占空比
     bae:	0287d7b3          	divu	a5,a5,s0
C:/flushbonading/MounRiver/EXE/Libraries/hefei_libraries/hf_pwm.c:60
    TIM_OCInitStructure.TIM_OCIdleState = TIM_OCIdleState_Reset;
     bb2:	00011e23          	sh	zero,28(sp)
     bb6:	00092403          	lw	s0,0(s2)
C:/flushbonading/MounRiver/EXE/Libraries/hefei_libraries/hf_pwm.c:38
    match_temp = period_temp * duty / PWM_DUTY_MAX;                         //占空比
     bba:	00f11b23          	sh	a5,22(sp)
C:/flushbonading/MounRiver/EXE/Libraries/hefei_libraries/hf_pwm.c:62
    if((pwmch & 0x03) == 0x00)                                              //通道选择
     bbe:	0034f793          	andi	a5,s1,3
     bc2:	eb85                	bnez	a5,bf2 <pwm_init+0xb8>
C:/flushbonading/MounRiver/EXE/Libraries/hefei_libraries/hf_pwm.c:64
        TIM_OC1Init(((TIM_TypeDef *) TIMERN[pwmch>>8]), &TIM_OCInitStructure );                         //定时器通道1初始化
     bc4:	080c                	addi	a1,sp,16
     bc6:	8522                	mv	a0,s0
     bc8:	23d9                	jal	118e <TIM_OC1Init>
C:/flushbonading/MounRiver/EXE/Libraries/hefei_libraries/hf_pwm.c:65
        TIM_CtrlPWMOutputs(((TIM_TypeDef *) TIMERN[pwmch>>8]), ENABLE );
     bca:	4585                	li	a1,1
     bcc:	8522                	mv	a0,s0
     bce:	04d000ef          	jal	ra,141a <TIM_CtrlPWMOutputs>
C:/flushbonading/MounRiver/EXE/Libraries/hefei_libraries/hf_pwm.c:66
        TIM_OC1PreloadConfig(((TIM_TypeDef *) TIMERN[pwmch>>8]), TIM_OCPreload_Enable_Disable);         //定时器预装载配置
     bd2:	85ce                	mv	a1,s3
     bd4:	8522                	mv	a0,s0
     bd6:	05b000ef          	jal	ra,1430 <TIM_OC1PreloadConfig>
C:/flushbonading/MounRiver/EXE/Libraries/hefei_libraries/hf_pwm.c:87
    TIM_Cmd(((TIM_TypeDef *) TIMERN[pwmch>>8]), ENABLE);                                              //定时器使能
     bda:	8522                	mv	a0,s0
     bdc:	4585                	li	a1,1
     bde:	021000ef          	jal	ra,13fe <TIM_Cmd>
C:/flushbonading/MounRiver/EXE/Libraries/hefei_libraries/hf_pwm.c:88
}
     be2:	50f2                	lw	ra,60(sp)
     be4:	5462                	lw	s0,56(sp)
     be6:	54d2                	lw	s1,52(sp)
     be8:	5942                	lw	s2,48(sp)
     bea:	59b2                	lw	s3,44(sp)
     bec:	5a22                	lw	s4,40(sp)
     bee:	6121                	addi	sp,sp,64
     bf0:	8082                	ret
C:/flushbonading/MounRiver/EXE/Libraries/hefei_libraries/hf_pwm.c:68
    else if((pwmch & 0x03) == 0x01)
     bf2:	4705                	li	a4,1
     bf4:	00e79e63          	bne	a5,a4,c10 <pwm_init+0xd6>
C:/flushbonading/MounRiver/EXE/Libraries/hefei_libraries/hf_pwm.c:70
        TIM_OC2Init(((TIM_TypeDef *) TIMERN[pwmch>>8]), &TIM_OCInitStructure );
     bf8:	080c                	addi	a1,sp,16
     bfa:	8522                	mv	a0,s0
     bfc:	2d29                	jal	1216 <TIM_OC2Init>
C:/flushbonading/MounRiver/EXE/Libraries/hefei_libraries/hf_pwm.c:71
        TIM_CtrlPWMOutputs(((TIM_TypeDef *) TIMERN[pwmch>>8]), ENABLE );
     bfe:	8522                	mv	a0,s0
     c00:	4585                	li	a1,1
     c02:	019000ef          	jal	ra,141a <TIM_CtrlPWMOutputs>
C:/flushbonading/MounRiver/EXE/Libraries/hefei_libraries/hf_pwm.c:72
        TIM_OC2PreloadConfig(((TIM_TypeDef *) TIMERN[pwmch>>8]), TIM_OCPreload_Enable_Disable);
     c06:	85ce                	mv	a1,s3
     c08:	8522                	mv	a0,s0
     c0a:	039000ef          	jal	ra,1442 <TIM_OC2PreloadConfig>
     c0e:	b7f1                	j	bda <pwm_init+0xa0>
C:/flushbonading/MounRiver/EXE/Libraries/hefei_libraries/hf_pwm.c:74
    else if((pwmch & 0x03) == 0x02)
     c10:	4709                	li	a4,2
C:/flushbonading/MounRiver/EXE/Libraries/hefei_libraries/hf_pwm.c:76
        TIM_OC3Init(((TIM_TypeDef *) TIMERN[pwmch>>8]), &TIM_OCInitStructure );
     c12:	080c                	addi	a1,sp,16
     c14:	8522                	mv	a0,s0
C:/flushbonading/MounRiver/EXE/Libraries/hefei_libraries/hf_pwm.c:74
    else if((pwmch & 0x03) == 0x02)
     c16:	00e79c63          	bne	a5,a4,c2e <pwm_init+0xf4>
C:/flushbonading/MounRiver/EXE/Libraries/hefei_libraries/hf_pwm.c:76
        TIM_OC3Init(((TIM_TypeDef *) TIMERN[pwmch>>8]), &TIM_OCInitStructure );
     c1a:	2d45                	jal	12ca <TIM_OC3Init>
C:/flushbonading/MounRiver/EXE/Libraries/hefei_libraries/hf_pwm.c:77
        TIM_CtrlPWMOutputs(((TIM_TypeDef *) TIMERN[pwmch>>8]), ENABLE );
     c1c:	8522                	mv	a0,s0
     c1e:	4585                	li	a1,1
     c20:	7fa000ef          	jal	ra,141a <TIM_CtrlPWMOutputs>
C:/flushbonading/MounRiver/EXE/Libraries/hefei_libraries/hf_pwm.c:78
        TIM_OC3PreloadConfig(((TIM_TypeDef *) TIMERN[pwmch>>8]), TIM_OCPreload_Enable_Disable);
     c24:	85ce                	mv	a1,s3
     c26:	8522                	mv	a0,s0
     c28:	035000ef          	jal	ra,145c <TIM_OC3PreloadConfig>
     c2c:	b77d                	j	bda <pwm_init+0xa0>
C:/flushbonading/MounRiver/EXE/Libraries/hefei_libraries/hf_pwm.c:82
        TIM_OC4Init(((TIM_TypeDef *) TIMERN[pwmch>>8]), &TIM_OCInitStructure );
     c2e:	74e000ef          	jal	ra,137c <TIM_OC4Init>
C:/flushbonading/MounRiver/EXE/Libraries/hefei_libraries/hf_pwm.c:83
        TIM_CtrlPWMOutputs(((TIM_TypeDef *) TIMERN[pwmch>>8]), ENABLE );
     c32:	8522                	mv	a0,s0
     c34:	4585                	li	a1,1
     c36:	7e4000ef          	jal	ra,141a <TIM_CtrlPWMOutputs>
C:/flushbonading/MounRiver/EXE/Libraries/hefei_libraries/hf_pwm.c:84
        TIM_OC4PreloadConfig(((TIM_TypeDef *) TIMERN[pwmch>>8]), TIM_OCPreload_Enable_Disable);
     c3a:	85ce                	mv	a1,s3
     c3c:	8522                	mv	a0,s0
     c3e:	031000ef          	jal	ra,146e <TIM_OC4PreloadConfig>
     c42:	bf61                	j	bda <pwm_init+0xa0>

00000c44 <timbase_init>:
timbase_init():
C:/flushbonading/MounRiver/EXE/Libraries/hefei_libraries/hf_tim.c:24
//  @return     void
//  Sample usage:           timbase_init(TIMER_2, 71, 0);
//                          //时基初始化为定时器2,频率为1MHz
//-------------------------------------------------------------------------------------------------------------------
void timbase_init(TIMERN_enum TIMER_x, uint16 arr, uint16 pre)
{
     c44:	1101                	addi	sp,sp,-32
     c46:	cc22                	sw	s0,24(sp)
     c48:	ca26                	sw	s1,20(sp)
     c4a:	c84a                	sw	s2,16(sp)
     c4c:	ce06                	sw	ra,28(sp)
     c4e:	842a                	mv	s0,a0
     c50:	892e                	mv	s2,a1
     c52:	84b2                	mv	s1,a2
C:/flushbonading/MounRiver/EXE/Libraries/hefei_libraries/hf_tim.c:27
    TIM_TimeBaseInitTypeDef  TIM_TimeBaseStructure;

    if(TIMER_1 == TIMER_x)
     c54:	ed15                	bnez	a0,c90 <timbase_init+0x4c>
C:/flushbonading/MounRiver/EXE/Libraries/hefei_libraries/hf_tim.c:28
        RCC_APB2PeriphClockCmd(RCC_APB2Periph_TIM1, ENABLE);                //时钟使能
     c56:	6505                	lui	a0,0x1
     c58:	4585                	li	a1,1
     c5a:	80050513          	addi	a0,a0,-2048 # 800 <__stack_size>
     c5e:	29b5                	jal	10da <RCC_APB2PeriphClockCmd>
C:/flushbonading/MounRiver/EXE/Libraries/hefei_libraries/hf_tim.c:42
    TIM_TimeBaseStructure.TIM_Period = arr;                    //计数44000
    TIM_TimeBaseStructure.TIM_Prescaler = pre;                      //设置为1MHZ计数一次,也就是1us计数一次
    TIM_TimeBaseStructure.TIM_ClockDivision = TIM_CKD_DIV1;                 //设置时钟分割:TDTS = Tck_tim
    TIM_TimeBaseStructure.TIM_CounterMode = TIM_CounterMode_Up;             //TIM向上计数模式
    TIM_TimeBaseStructure.TIM_RepetitionCounter = 0;                        //重复计数器设置为0
    TIM_TimeBaseInit((TIM_TypeDef *)TIMERN[TIMER_x], &TIM_TimeBaseStructure);//根据指定的参数初始化TIMx的时间基数单位
     c60:	6789                	lui	a5,0x2
     c62:	16c78793          	addi	a5,a5,364 # 216c <TIMERN>
     c66:	040a                	slli	s0,s0,0x2
     c68:	943e                	add	s0,s0,a5
     c6a:	4008                	lw	a0,0(s0)
     c6c:	004c                	addi	a1,sp,4
C:/flushbonading/MounRiver/EXE/Libraries/hefei_libraries/hf_tim.c:37
    TIM_TimeBaseStructure.TIM_Period = arr;                    //计数44000
     c6e:	01211423          	sh	s2,8(sp)
C:/flushbonading/MounRiver/EXE/Libraries/hefei_libraries/hf_tim.c:38
    TIM_TimeBaseStructure.TIM_Prescaler = pre;                      //设置为1MHZ计数一次,也就是1us计数一次
     c72:	00911223          	sh	s1,4(sp)
C:/flushbonading/MounRiver/EXE/Libraries/hefei_libraries/hf_tim.c:39
    TIM_TimeBaseStructure.TIM_ClockDivision = TIM_CKD_DIV1;                 //设置时钟分割:TDTS = Tck_tim
     c76:	00011523          	sh	zero,10(sp)
C:/flushbonading/MounRiver/EXE/Libraries/hefei_libraries/hf_tim.c:40
    TIM_TimeBaseStructure.TIM_CounterMode = TIM_CounterMode_Up;             //TIM向上计数模式
     c7a:	00011323          	sh	zero,6(sp)
C:/flushbonading/MounRiver/EXE/Libraries/hefei_libraries/hf_tim.c:41
    TIM_TimeBaseStructure.TIM_RepetitionCounter = 0;                        //重复计数器设置为0
     c7e:	00010623          	sb	zero,12(sp)
C:/flushbonading/MounRiver/EXE/Libraries/hefei_libraries/hf_tim.c:42
    TIM_TimeBaseInit((TIM_TypeDef *)TIMERN[TIMER_x], &TIM_TimeBaseStructure);//根据指定的参数初始化TIMx的时间基数单位
     c82:	2951                	jal	1116 <TIM_TimeBaseInit>
C:/flushbonading/MounRiver/EXE/Libraries/hefei_libraries/hf_tim.c:43
}
     c84:	40f2                	lw	ra,28(sp)
     c86:	4462                	lw	s0,24(sp)
     c88:	44d2                	lw	s1,20(sp)
     c8a:	4942                	lw	s2,16(sp)
     c8c:	6105                	addi	sp,sp,32
     c8e:	8082                	ret
C:/flushbonading/MounRiver/EXE/Libraries/hefei_libraries/hf_tim.c:29
    else if(TIMER_2 == TIMER_x)
     c90:	4785                	li	a5,1
     c92:	00f51563          	bne	a0,a5,c9c <timbase_init+0x58>
C:/flushbonading/MounRiver/EXE/Libraries/hefei_libraries/hf_tim.c:32
        RCC_APB1PeriphClockCmd(RCC_APB1Periph_TIM3, ENABLE);                //时钟使能
     c96:	4585                	li	a1,1
C:/flushbonading/MounRiver/EXE/Libraries/hefei_libraries/hf_tim.c:34
        RCC_APB1PeriphClockCmd(RCC_APB1Periph_TIM4, ENABLE);                //时钟使能
     c98:	2185                	jal	10f8 <RCC_APB1PeriphClockCmd>
     c9a:	b7d9                	j	c60 <timbase_init+0x1c>
C:/flushbonading/MounRiver/EXE/Libraries/hefei_libraries/hf_tim.c:31
    else if(TIMER_3 == TIMER_x)
     c9c:	4789                	li	a5,2
     c9e:	fef50ce3          	beq	a0,a5,c96 <timbase_init+0x52>
C:/flushbonading/MounRiver/EXE/Libraries/hefei_libraries/hf_tim.c:33
    else if(TIMER_4 == TIMER_x)
     ca2:	478d                	li	a5,3
     ca4:	faf51ee3          	bne	a0,a5,c60 <timbase_init+0x1c>
C:/flushbonading/MounRiver/EXE/Libraries/hefei_libraries/hf_tim.c:34
        RCC_APB1PeriphClockCmd(RCC_APB1Periph_TIM4, ENABLE);                //时钟使能
     ca8:	4585                	li	a1,1
     caa:	4511                	li	a0,4
     cac:	b7f5                	j	c98 <timbase_init+0x54>

00000cae <uart_gpio_init>:
uart_gpio_init():
C:/flushbonading/MounRiver/EXE/Libraries/hefei_libraries/hf_uart.c:164
//  @param      rx_pin      串口接收引脚号
//  @return     void
//  Sample usage:           内部使用，用户无需关心
//-------------------------------------------------------------------------------------------------------------------
void uart_gpio_init(UARTPIN_enum tx_pin, UARTPIN_enum rx_pin)
{
     cae:	1141                	addi	sp,sp,-16
     cb0:	c606                	sw	ra,12(sp)
C:/flushbonading/MounRiver/EXE/Libraries/hefei_libraries/hf_uart.c:165
    if(tx_pin == UART1_TX_A9 && rx_pin == UART1_RX_A10)
     cb2:	e105                	bnez	a0,cd2 <uart_gpio_init+0x24>
C:/flushbonading/MounRiver/EXE/Libraries/hefei_libraries/hf_uart.c:165 (discriminator 1)
     cb4:	4785                	li	a5,1
     cb6:	08f59e63          	bne	a1,a5,d52 <uart_gpio_init+0xa4>
C:/flushbonading/MounRiver/EXE/Libraries/hefei_libraries/hf_uart.c:167
    {
        gpio_init(A9, GPO, 0, SPEED_50MHZ|OUT_AF_PP);
     cba:	31800693          	li	a3,792
     cbe:	4601                	li	a2,0
     cc0:	4525                	li	a0,9
     cc2:	3c61                	jal	75a <gpio_init>
C:/flushbonading/MounRiver/EXE/Libraries/hefei_libraries/hf_uart.c:168
        gpio_init(A10, GPI, 0, IN_FLOAT);
     cc4:	4691                	li	a3,4
     cc6:	4601                	li	a2,0
     cc8:	4581                	li	a1,0
     cca:	4529                	li	a0,10
C:/flushbonading/MounRiver/EXE/Libraries/hefei_libraries/hf_uart.c:193
    else if(tx_pin == UART3_TX_C10)
    {
        gpio_init(C10, GPO, 0, SPEED_50MHZ|OUT_PP);
        gpio_init(C11, GPI, 0, IN_FLOAT);
    }
}
     ccc:	40b2                	lw	ra,12(sp)
     cce:	0141                	addi	sp,sp,16
C:/flushbonading/MounRiver/EXE/Libraries/hefei_libraries/hf_uart.c:191
        gpio_init(C11, GPI, 0, IN_FLOAT);
     cd0:	b469                	j	75a <gpio_init>
C:/flushbonading/MounRiver/EXE/Libraries/hefei_libraries/hf_uart.c:170
    else if(tx_pin == UART1_TX_B6)
     cd2:	4789                	li	a5,2
     cd4:	00f51f63          	bne	a0,a5,cf2 <uart_gpio_init+0x44>
C:/flushbonading/MounRiver/EXE/Libraries/hefei_libraries/hf_uart.c:172
        gpio_init(B6, GPO, 0, SPEED_50MHZ|OUT_AF_PP);
     cd8:	31800693          	li	a3,792
     cdc:	4601                	li	a2,0
     cde:	4585                	li	a1,1
     ce0:	02600513          	li	a0,38
     ce4:	3c9d                	jal	75a <gpio_init>
C:/flushbonading/MounRiver/EXE/Libraries/hefei_libraries/hf_uart.c:173
        gpio_init(B7, GPI, 0, IN_FLOAT);
     ce6:	4691                	li	a3,4
     ce8:	4601                	li	a2,0
     cea:	4581                	li	a1,0
     cec:	02700513          	li	a0,39
     cf0:	bff1                	j	ccc <uart_gpio_init+0x1e>
C:/flushbonading/MounRiver/EXE/Libraries/hefei_libraries/hf_uart.c:176
    else if(tx_pin == UART2_TX_A2)
     cf2:	47c1                	li	a5,16
     cf4:	00f51d63          	bne	a0,a5,d0e <uart_gpio_init+0x60>
C:/flushbonading/MounRiver/EXE/Libraries/hefei_libraries/hf_uart.c:178
        gpio_init(A2, GPO, 0, SPEED_50MHZ|OUT_AF_PP);
     cf8:	31800693          	li	a3,792
     cfc:	4601                	li	a2,0
     cfe:	4585                	li	a1,1
     d00:	4509                	li	a0,2
     d02:	3ca1                	jal	75a <gpio_init>
C:/flushbonading/MounRiver/EXE/Libraries/hefei_libraries/hf_uart.c:179
        gpio_init(A3, GPI, 0, IN_FLOAT);
     d04:	4691                	li	a3,4
     d06:	4601                	li	a2,0
     d08:	4581                	li	a1,0
     d0a:	450d                	li	a0,3
     d0c:	b7c1                	j	ccc <uart_gpio_init+0x1e>
C:/flushbonading/MounRiver/EXE/Libraries/hefei_libraries/hf_uart.c:182
    else if(tx_pin == UART3_TX_B10)
     d0e:	02000793          	li	a5,32
     d12:	00f51f63          	bne	a0,a5,d30 <uart_gpio_init+0x82>
C:/flushbonading/MounRiver/EXE/Libraries/hefei_libraries/hf_uart.c:184
        gpio_init(B10, GPO, 0, SPEED_50MHZ|OUT_AF_PP);
     d16:	31800693          	li	a3,792
     d1a:	4601                	li	a2,0
     d1c:	4585                	li	a1,1
     d1e:	02a00513          	li	a0,42
     d22:	3c25                	jal	75a <gpio_init>
C:/flushbonading/MounRiver/EXE/Libraries/hefei_libraries/hf_uart.c:185
        gpio_init(B11, GPI, 0, IN_FLOAT);
     d24:	4691                	li	a3,4
     d26:	4601                	li	a2,0
     d28:	4581                	li	a1,0
     d2a:	02b00513          	li	a0,43
     d2e:	bf79                	j	ccc <uart_gpio_init+0x1e>
C:/flushbonading/MounRiver/EXE/Libraries/hefei_libraries/hf_uart.c:188
    else if(tx_pin == UART3_TX_C10)
     d30:	02200793          	li	a5,34
     d34:	00f51f63          	bne	a0,a5,d52 <uart_gpio_init+0xa4>
C:/flushbonading/MounRiver/EXE/Libraries/hefei_libraries/hf_uart.c:190
        gpio_init(C10, GPO, 0, SPEED_50MHZ|OUT_PP);
     d38:	31000693          	li	a3,784
     d3c:	4601                	li	a2,0
     d3e:	4585                	li	a1,1
     d40:	04a00513          	li	a0,74
     d44:	3c19                	jal	75a <gpio_init>
C:/flushbonading/MounRiver/EXE/Libraries/hefei_libraries/hf_uart.c:191
        gpio_init(C11, GPI, 0, IN_FLOAT);
     d46:	4691                	li	a3,4
     d48:	4601                	li	a2,0
     d4a:	4581                	li	a1,0
     d4c:	04b00513          	li	a0,75
     d50:	bfb5                	j	ccc <uart_gpio_init+0x1e>
C:/flushbonading/MounRiver/EXE/Libraries/hefei_libraries/hf_uart.c:193
}
     d52:	40b2                	lw	ra,12(sp)
     d54:	0141                	addi	sp,sp,16
     d56:	8082                	ret

00000d58 <uart_init>:
uart_init():
C:/flushbonading/MounRiver/EXE/Libraries/hefei_libraries/hf_uart.c:25
{
     d58:	7179                	addi	sp,sp,-48
     d5a:	d422                	sw	s0,40(sp)
     d5c:	d226                	sw	s1,36(sp)
     d5e:	d04a                	sw	s2,32(sp)
     d60:	ce4e                	sw	s3,28(sp)
     d62:	d606                	sw	ra,44(sp)
     d64:	842a                	mv	s0,a0
     d66:	84ae                	mv	s1,a1
     d68:	8932                	mv	s2,a2
     d6a:	89b6                	mv	s3,a3
C:/flushbonading/MounRiver/EXE/Libraries/hefei_libraries/hf_uart.c:29
    if(UART_1 == UART_x) RCC_APB2PeriphClockCmd(RCC_APB2Periph_USART1, ENABLE);
     d6c:	e131                	bnez	a0,db0 <uart_init+0x58>
C:/flushbonading/MounRiver/EXE/Libraries/hefei_libraries/hf_uart.c:29 (discriminator 1)
     d6e:	4585                	li	a1,1
     d70:	6511                	lui	a0,0x4
     d72:	26a5                	jal	10da <RCC_APB2PeriphClockCmd>
C:/flushbonading/MounRiver/EXE/Libraries/hefei_libraries/hf_uart.c:34
    uart_gpio_init(tx_pin, rx_pin);
     d74:	85ce                	mv	a1,s3
     d76:	854a                	mv	a0,s2
     d78:	3f1d                	jal	cae <uart_gpio_init>
C:/flushbonading/MounRiver/EXE/Libraries/hefei_libraries/hf_uart.c:40
    USART_InitStructure.USART_Parity = USART_Parity_No;
     d7a:	000c07b7          	lui	a5,0xc0
     d7e:	c43e                	sw	a5,8(sp)
C:/flushbonading/MounRiver/EXE/Libraries/hefei_libraries/hf_uart.c:45
    USART_Init((USART_TypeDef*)UARTN[UART_x], &USART_InitStructure);
     d80:	6789                	lui	a5,0x2
     d82:	17c78793          	addi	a5,a5,380 # 217c <UARTN>
     d86:	040a                	slli	s0,s0,0x2
     d88:	943e                	add	s0,s0,a5
     d8a:	4000                	lw	s0,0(s0)
     d8c:	858a                	mv	a1,sp
C:/flushbonading/MounRiver/EXE/Libraries/hefei_libraries/hf_uart.c:37
    USART_InitStructure.USART_BaudRate = baud;
     d8e:	c026                	sw	s1,0(sp)
C:/flushbonading/MounRiver/EXE/Libraries/hefei_libraries/hf_uart.c:45
    USART_Init((USART_TypeDef*)UARTN[UART_x], &USART_InitStructure);
     d90:	8522                	mv	a0,s0
C:/flushbonading/MounRiver/EXE/Libraries/hefei_libraries/hf_uart.c:38
    USART_InitStructure.USART_WordLength = USART_WordLength_8b;
     d92:	c202                	sw	zero,4(sp)
C:/flushbonading/MounRiver/EXE/Libraries/hefei_libraries/hf_uart.c:41
    USART_InitStructure.USART_HardwareFlowControl = USART_HardwareFlowControl_None;
     d94:	00011623          	sh	zero,12(sp)
C:/flushbonading/MounRiver/EXE/Libraries/hefei_libraries/hf_uart.c:45
    USART_Init((USART_TypeDef*)UARTN[UART_x], &USART_InitStructure);
     d98:	2f29                	jal	14b2 <USART_Init>
C:/flushbonading/MounRiver/EXE/Libraries/hefei_libraries/hf_uart.c:46
    USART_Cmd((USART_TypeDef*)UARTN[UART_x], ENABLE);
     d9a:	8522                	mv	a0,s0
     d9c:	4585                	li	a1,1
     d9e:	7ec000ef          	jal	ra,158a <USART_Cmd>
C:/flushbonading/MounRiver/EXE/Libraries/hefei_libraries/hf_uart.c:48
}
     da2:	50b2                	lw	ra,44(sp)
     da4:	5422                	lw	s0,40(sp)
     da6:	5492                	lw	s1,36(sp)
     da8:	5902                	lw	s2,32(sp)
     daa:	49f2                	lw	s3,28(sp)
     dac:	6145                	addi	sp,sp,48
     dae:	8082                	ret
C:/flushbonading/MounRiver/EXE/Libraries/hefei_libraries/hf_uart.c:30
    else if(UART_2 == UART_x) RCC_APB1PeriphClockCmd(RCC_APB1Periph_USART2, ENABLE);
     db0:	4785                	li	a5,1
     db2:	00f51763          	bne	a0,a5,dc0 <uart_init+0x68>
C:/flushbonading/MounRiver/EXE/Libraries/hefei_libraries/hf_uart.c:30 (discriminator 1)
     db6:	4585                	li	a1,1
     db8:	00020537          	lui	a0,0x20
C:/flushbonading/MounRiver/EXE/Libraries/hefei_libraries/hf_uart.c:31 (discriminator 1)
    else if(UART_3 == UART_x) RCC_APB1PeriphClockCmd(RCC_APB1Periph_USART3, ENABLE);
     dbc:	2e35                	jal	10f8 <RCC_APB1PeriphClockCmd>
     dbe:	bf5d                	j	d74 <uart_init+0x1c>
C:/flushbonading/MounRiver/EXE/Libraries/hefei_libraries/hf_uart.c:31
     dc0:	4789                	li	a5,2
     dc2:	faf519e3          	bne	a0,a5,d74 <uart_init+0x1c>
C:/flushbonading/MounRiver/EXE/Libraries/hefei_libraries/hf_uart.c:31 (discriminator 1)
     dc6:	4585                	li	a1,1
     dc8:	00040537          	lui	a0,0x40
     dcc:	bfc5                	j	dbc <uart_init+0x64>

00000dce <car_init>:
car_init():
C:/flushbonading/MounRiver/EXE/00-Template/CODE/car_init.c:20
// Sample usage:        car_init(); 
                        //初始化左右轮pwm
//-------------------------------------------------------------------------------------------------------------------

void car_init()
{
     dce:	1141                	addi	sp,sp,-16
C:/flushbonading/MounRiver/EXE/00-Template/CODE/car_init.c:21
	l9110s_init(left);
     dd0:	4501                	li	a0,0
C:/flushbonading/MounRiver/EXE/00-Template/CODE/car_init.c:20
{
     dd2:	c606                	sw	ra,12(sp)
C:/flushbonading/MounRiver/EXE/00-Template/CODE/car_init.c:21
	l9110s_init(left);
     dd4:	eeeff0ef          	jal	ra,4c2 <l9110s_init>
C:/flushbonading/MounRiver/EXE/00-Template/CODE/car_init.c:23
	l9110s_init(right);
}	
     dd8:	40b2                	lw	ra,12(sp)
C:/flushbonading/MounRiver/EXE/00-Template/CODE/car_init.c:22
	l9110s_init(right);
     dda:	4505                	li	a0,1
C:/flushbonading/MounRiver/EXE/00-Template/CODE/car_init.c:23
}	
     ddc:	0141                	addi	sp,sp,16
C:/flushbonading/MounRiver/EXE/00-Template/CODE/car_init.c:22
	l9110s_init(right);
     dde:	ee4ff06f          	j	4c2 <l9110s_init>

00000de2 <car_forward>:
car_forward():
C:/flushbonading/MounRiver/EXE/00-Template/CODE/car_motion.c:19
// @return       void
// Sample usage:        car_forward(); 
                        //小车前进
//-----------------------------------------------------------------------------------------------------------------
void car_forward()
{
     de2:	1141                	addi	sp,sp,-16
     de4:	c422                	sw	s0,8(sp)
C:/flushbonading/MounRiver/EXE/00-Template/CODE/car_motion.c:20
    l9110s_forward(left,10000);
     de6:	6409                	lui	s0,0x2
     de8:	71040593          	addi	a1,s0,1808 # 2710 <_data_lma+0x524>
     dec:	4501                	li	a0,0
C:/flushbonading/MounRiver/EXE/00-Template/CODE/car_motion.c:19
{
     dee:	c606                	sw	ra,12(sp)
C:/flushbonading/MounRiver/EXE/00-Template/CODE/car_motion.c:20
    l9110s_forward(left,10000);
     df0:	f20ff0ef          	jal	ra,510 <l9110s_forward>
C:/flushbonading/MounRiver/EXE/00-Template/CODE/car_motion.c:21
    l9110s_forward(right,10000);
     df4:	71040593          	addi	a1,s0,1808
C:/flushbonading/MounRiver/EXE/00-Template/CODE/car_motion.c:22
}
     df8:	4422                	lw	s0,8(sp)
     dfa:	40b2                	lw	ra,12(sp)
C:/flushbonading/MounRiver/EXE/00-Template/CODE/car_motion.c:21
    l9110s_forward(right,10000);
     dfc:	4505                	li	a0,1
C:/flushbonading/MounRiver/EXE/00-Template/CODE/car_motion.c:22
}
     dfe:	0141                	addi	sp,sp,16
C:/flushbonading/MounRiver/EXE/00-Template/CODE/car_motion.c:21
    l9110s_forward(right,10000);
     e00:	f10ff06f          	j	510 <l9110s_forward>

00000e04 <car_back>:
car_back():
C:/flushbonading/MounRiver/EXE/00-Template/CODE/car_motion.c:32
// @return       void
// Sample usage:        car_back(); 
                        //小车后退
//-----------------------------------------------------------------------------------------------------------------
void car_back()
{
     e04:	1141                	addi	sp,sp,-16
     e06:	c422                	sw	s0,8(sp)
C:/flushbonading/MounRiver/EXE/00-Template/CODE/car_motion.c:33
    l9110s_back(left,10000);
     e08:	6409                	lui	s0,0x2
     e0a:	71040593          	addi	a1,s0,1808 # 2710 <_data_lma+0x524>
     e0e:	4501                	li	a0,0
C:/flushbonading/MounRiver/EXE/00-Template/CODE/car_motion.c:32
{
     e10:	c606                	sw	ra,12(sp)
C:/flushbonading/MounRiver/EXE/00-Template/CODE/car_motion.c:33
    l9110s_back(left,10000);
     e12:	f30ff0ef          	jal	ra,542 <l9110s_back>
C:/flushbonading/MounRiver/EXE/00-Template/CODE/car_motion.c:34
    l9110s_back(right,10000);
     e16:	71040593          	addi	a1,s0,1808
C:/flushbonading/MounRiver/EXE/00-Template/CODE/car_motion.c:35
}
     e1a:	4422                	lw	s0,8(sp)
     e1c:	40b2                	lw	ra,12(sp)
C:/flushbonading/MounRiver/EXE/00-Template/CODE/car_motion.c:34
    l9110s_back(right,10000);
     e1e:	4505                	li	a0,1
C:/flushbonading/MounRiver/EXE/00-Template/CODE/car_motion.c:35
}
     e20:	0141                	addi	sp,sp,16
C:/flushbonading/MounRiver/EXE/00-Template/CODE/car_motion.c:34
    l9110s_back(right,10000);
     e22:	f20ff06f          	j	542 <l9110s_back>

00000e26 <car_stop>:
car_stop():
C:/flushbonading/MounRiver/EXE/00-Template/CODE/car_motion.c:45
// @return       void
// Sample usage:        car_stop(); 
                        //小车停止
//-----------------------------------------------------------------------------------------------------------------
void car_stop()
{
     e26:	1141                	addi	sp,sp,-16
C:/flushbonading/MounRiver/EXE/00-Template/CODE/car_motion.c:46
    l9110s_forward(left,0);
     e28:	4581                	li	a1,0
     e2a:	4501                	li	a0,0
C:/flushbonading/MounRiver/EXE/00-Template/CODE/car_motion.c:45
{
     e2c:	c606                	sw	ra,12(sp)
C:/flushbonading/MounRiver/EXE/00-Template/CODE/car_motion.c:46
    l9110s_forward(left,0);
     e2e:	ee2ff0ef          	jal	ra,510 <l9110s_forward>
C:/flushbonading/MounRiver/EXE/00-Template/CODE/car_motion.c:48
    l9110s_forward(right,0);
}
     e32:	40b2                	lw	ra,12(sp)
C:/flushbonading/MounRiver/EXE/00-Template/CODE/car_motion.c:47
    l9110s_forward(right,0);
     e34:	4581                	li	a1,0
     e36:	4505                	li	a0,1
C:/flushbonading/MounRiver/EXE/00-Template/CODE/car_motion.c:48
}
     e38:	0141                	addi	sp,sp,16
C:/flushbonading/MounRiver/EXE/00-Template/CODE/car_motion.c:47
    l9110s_forward(right,0);
     e3a:	ed6ff06f          	j	510 <l9110s_forward>

00000e3e <car_turnleft>:
car_turnleft():
C:/flushbonading/MounRiver/EXE/00-Template/CODE/car_motion.c:59
// Sample usage:        car_turnleft(); 
                        //小车左转
//-----------------------------------------------------------------------------------------------------------------
void car_turnleft()
{
    l9110s_forward(left,5000);
     e3e:	6585                	lui	a1,0x1
C:/flushbonading/MounRiver/EXE/00-Template/CODE/car_motion.c:58
{
     e40:	1141                	addi	sp,sp,-16
C:/flushbonading/MounRiver/EXE/00-Template/CODE/car_motion.c:59
    l9110s_forward(left,5000);
     e42:	38858593          	addi	a1,a1,904 # 1388 <TIM_OC4Init+0xc>
     e46:	4501                	li	a0,0
C:/flushbonading/MounRiver/EXE/00-Template/CODE/car_motion.c:58
{
     e48:	c606                	sw	ra,12(sp)
C:/flushbonading/MounRiver/EXE/00-Template/CODE/car_motion.c:59
    l9110s_forward(left,5000);
     e4a:	ec6ff0ef          	jal	ra,510 <l9110s_forward>
C:/flushbonading/MounRiver/EXE/00-Template/CODE/car_motion.c:61
    l9110s_forward(right,10000);
}
     e4e:	40b2                	lw	ra,12(sp)
C:/flushbonading/MounRiver/EXE/00-Template/CODE/car_motion.c:60
    l9110s_forward(right,10000);
     e50:	6589                	lui	a1,0x2
     e52:	71058593          	addi	a1,a1,1808 # 2710 <_data_lma+0x524>
     e56:	4505                	li	a0,1
C:/flushbonading/MounRiver/EXE/00-Template/CODE/car_motion.c:61
}
     e58:	0141                	addi	sp,sp,16
C:/flushbonading/MounRiver/EXE/00-Template/CODE/car_motion.c:60
    l9110s_forward(right,10000);
     e5a:	eb6ff06f          	j	510 <l9110s_forward>

00000e5e <car_turnright>:
car_turnright():
C:/flushbonading/MounRiver/EXE/00-Template/CODE/car_motion.c:72
// Sample usage:        car_turnright(); 
                        //小车右转
//-----------------------------------------------------------------------------------------------------------------
void car_turnright()
{
    l9110s_forward(left,10000);
     e5e:	6589                	lui	a1,0x2
C:/flushbonading/MounRiver/EXE/00-Template/CODE/car_motion.c:71
{
     e60:	1141                	addi	sp,sp,-16
C:/flushbonading/MounRiver/EXE/00-Template/CODE/car_motion.c:72
    l9110s_forward(left,10000);
     e62:	71058593          	addi	a1,a1,1808 # 2710 <_data_lma+0x524>
     e66:	4501                	li	a0,0
C:/flushbonading/MounRiver/EXE/00-Template/CODE/car_motion.c:71
{
     e68:	c606                	sw	ra,12(sp)
C:/flushbonading/MounRiver/EXE/00-Template/CODE/car_motion.c:72
    l9110s_forward(left,10000);
     e6a:	ea6ff0ef          	jal	ra,510 <l9110s_forward>
C:/flushbonading/MounRiver/EXE/00-Template/CODE/car_motion.c:74
    l9110s_forward(right,5000);
}
     e6e:	40b2                	lw	ra,12(sp)
C:/flushbonading/MounRiver/EXE/00-Template/CODE/car_motion.c:73
    l9110s_forward(right,5000);
     e70:	6585                	lui	a1,0x1
     e72:	38858593          	addi	a1,a1,904 # 1388 <TIM_OC4Init+0xc>
     e76:	4505                	li	a0,1
C:/flushbonading/MounRiver/EXE/00-Template/CODE/car_motion.c:74
}
     e78:	0141                	addi	sp,sp,16
C:/flushbonading/MounRiver/EXE/00-Template/CODE/car_motion.c:73
    l9110s_forward(right,5000);
     e7a:	e96ff06f          	j	510 <l9110s_forward>

00000e7e <handle_reset>:
handle_reset():
C:/flushbonading/MounRiver/EXE/Libraries/Device/CH32V10x_p/Startup/startup_ch32v10x.S:147
	.weak	handle_reset
	.align	1
handle_reset:
.option push 
.option	norelax 
	la gp, __global_pointer$
     e7e:	20000197          	auipc	gp,0x20000
     e82:	9f218193          	addi	gp,gp,-1550 # 20000870 <__global_pointer$>
C:/flushbonading/MounRiver/EXE/Libraries/Device/CH32V10x_p/Startup/startup_ch32v10x.S:150
.option	pop 
1:
	la sp, _eusrstack 
     e86:	20004117          	auipc	sp,0x20004
     e8a:	17a10113          	addi	sp,sp,378 # 20005000 <_eusrstack>
C:/flushbonading/MounRiver/EXE/Libraries/Device/CH32V10x_p/Startup/startup_ch32v10x.S:153
2:
	/* Load data section from flash to RAM */
	la a0, _data_lma
     e8e:	00001517          	auipc	a0,0x1
     e92:	35e50513          	addi	a0,a0,862 # 21ec <_data_lma>
C:/flushbonading/MounRiver/EXE/Libraries/Device/CH32V10x_p/Startup/startup_ch32v10x.S:154
	la a1, _data_vma
     e96:	1ffff597          	auipc	a1,0x1ffff
     e9a:	16a58593          	addi	a1,a1,362 # 20000000 <_data_vma>
C:/flushbonading/MounRiver/EXE/Libraries/Device/CH32V10x_p/Startup/startup_ch32v10x.S:155
	la a2, _edata
     e9e:	81018613          	addi	a2,gp,-2032 # 20000080 <_edata>
C:/flushbonading/MounRiver/EXE/Libraries/Device/CH32V10x_p/Startup/startup_ch32v10x.S:156
	bgeu a1, a2, 2f
     ea2:	00c5fa63          	bgeu	a1,a2,eb6 <handle_reset+0x38>
C:/flushbonading/MounRiver/EXE/Libraries/Device/CH32V10x_p/Startup/startup_ch32v10x.S:158
1:
	lw t0, (a0)
     ea6:	00052283          	lw	t0,0(a0)
C:/flushbonading/MounRiver/EXE/Libraries/Device/CH32V10x_p/Startup/startup_ch32v10x.S:159
	sw t0, (a1)
     eaa:	0055a023          	sw	t0,0(a1)
C:/flushbonading/MounRiver/EXE/Libraries/Device/CH32V10x_p/Startup/startup_ch32v10x.S:160
	addi a0, a0, 4
     eae:	0511                	addi	a0,a0,4
C:/flushbonading/MounRiver/EXE/Libraries/Device/CH32V10x_p/Startup/startup_ch32v10x.S:161
	addi a1, a1, 4
     eb0:	0591                	addi	a1,a1,4
C:/flushbonading/MounRiver/EXE/Libraries/Device/CH32V10x_p/Startup/startup_ch32v10x.S:162
	bltu a1, a2, 1b
     eb2:	fec5eae3          	bltu	a1,a2,ea6 <handle_reset+0x28>
C:/flushbonading/MounRiver/EXE/Libraries/Device/CH32V10x_p/Startup/startup_ch32v10x.S:165
2:
	/* clear bss section */
	la a0, _sbss
     eb6:	81018513          	addi	a0,gp,-2032 # 20000080 <_edata>
C:/flushbonading/MounRiver/EXE/Libraries/Device/CH32V10x_p/Startup/startup_ch32v10x.S:166
	la a1, _ebss
     eba:	83418593          	addi	a1,gp,-1996 # 200000a4 <_ebss>
C:/flushbonading/MounRiver/EXE/Libraries/Device/CH32V10x_p/Startup/startup_ch32v10x.S:167
	bgeu a0, a1, 2f
     ebe:	00b57763          	bgeu	a0,a1,ecc <handle_reset+0x4e>
C:/flushbonading/MounRiver/EXE/Libraries/Device/CH32V10x_p/Startup/startup_ch32v10x.S:169
1:
	sw zero, (a0)
     ec2:	00052023          	sw	zero,0(a0)
C:/flushbonading/MounRiver/EXE/Libraries/Device/CH32V10x_p/Startup/startup_ch32v10x.S:170
	addi a0, a0, 4
     ec6:	0511                	addi	a0,a0,4
C:/flushbonading/MounRiver/EXE/Libraries/Device/CH32V10x_p/Startup/startup_ch32v10x.S:171
	bltu a0, a1, 1b
     ec8:	feb56de3          	bltu	a0,a1,ec2 <handle_reset+0x44>
C:/flushbonading/MounRiver/EXE/Libraries/Device/CH32V10x_p/Startup/startup_ch32v10x.S:174
2:
	/* enable all interrupt */
  li t0, 0x88
     ecc:	08800293          	li	t0,136
C:/flushbonading/MounRiver/EXE/Libraries/Device/CH32V10x_p/Startup/startup_ch32v10x.S:175
  csrs mstatus, t0
     ed0:	3002a073          	csrs	mstatus,t0
C:/flushbonading/MounRiver/EXE/Libraries/Device/CH32V10x_p/Startup/startup_ch32v10x.S:176
	la t0, _vector_base
     ed4:	fffff297          	auipc	t0,0xfffff
     ed8:	16428293          	addi	t0,t0,356 # 38 <_einit>
C:/flushbonading/MounRiver/EXE/Libraries/Device/CH32V10x_p/Startup/startup_ch32v10x.S:177
  ori t0, t0, 1
     edc:	0012e293          	ori	t0,t0,1
C:/flushbonading/MounRiver/EXE/Libraries/Device/CH32V10x_p/Startup/startup_ch32v10x.S:178
	csrw mtvec, t0
     ee0:	30529073          	csrw	mtvec,t0
C:/flushbonading/MounRiver/EXE/Libraries/Device/CH32V10x_p/Startup/startup_ch32v10x.S:180

  jal  SystemInit
     ee4:	f1eff0ef          	jal	ra,602 <SystemInit>
C:/flushbonading/MounRiver/EXE/Libraries/Device/CH32V10x_p/Startup/startup_ch32v10x.S:181
	la t0, main
     ee8:	fffff297          	auipc	t0,0xfffff
     eec:	53628293          	addi	t0,t0,1334 # 41e <main>
C:/flushbonading/MounRiver/EXE/Libraries/Device/CH32V10x_p/Startup/startup_ch32v10x.S:182
	csrw mepc, t0
     ef0:	34129073          	csrw	mepc,t0
C:/flushbonading/MounRiver/EXE/Libraries/Device/CH32V10x_p/Startup/startup_ch32v10x.S:183
	mret
     ef4:	30200073          	mret

00000ef8 <DMA_GetFlagStatus>:
DMA_GetFlagStatus():
C:/flushbonading/MounRiver/EXE/Libraries/Device/CH32V10x_p/CH32V10x_Lib/ch32v10x_dma.c:294
FlagStatus DMA_GetFlagStatus(uint32_t DMAy_FLAG)
{
  FlagStatus bitstatus = RESET;
  uint32_t tmpreg = 0;
  
  if ((DMAy_FLAG & FLAG_Mask) != (uint32_t)RESET)
     ef8:	00351793          	slli	a5,a0,0x3
     efc:	0007da63          	bgez	a5,f10 <DMA_GetFlagStatus+0x18>
C:/flushbonading/MounRiver/EXE/Libraries/Device/CH32V10x_p/CH32V10x_Lib/ch32v10x_dma.c:296
  {
    tmpreg = DMA2->INTFR ;
     f00:	400207b7          	lui	a5,0x40020
     f04:	4007a783          	lw	a5,1024(a5) # 40020400 <_eusrstack+0x2001b400>
C:/flushbonading/MounRiver/EXE/Libraries/Device/CH32V10x_p/CH32V10x_Lib/ch32v10x_dma.c:303
  else
  {
    tmpreg = DMA1->INTFR ;
  }

  if ((tmpreg & DMAy_FLAG) != (uint32_t)RESET)
     f08:	8d7d                	and	a0,a0,a5
C:/flushbonading/MounRiver/EXE/Libraries/Device/CH32V10x_p/CH32V10x_Lib/ch32v10x_dma.c:313
  {
    bitstatus = RESET;
  }
  
  return  bitstatus;
}
     f0a:	00a03533          	snez	a0,a0
     f0e:	8082                	ret
C:/flushbonading/MounRiver/EXE/Libraries/Device/CH32V10x_p/CH32V10x_Lib/ch32v10x_dma.c:300
    tmpreg = DMA1->INTFR ;
     f10:	400207b7          	lui	a5,0x40020
     f14:	439c                	lw	a5,0(a5)
     f16:	bfcd                	j	f08 <DMA_GetFlagStatus+0x10>

00000f18 <DMA_ClearFlag>:
DMA_ClearFlag():
C:/flushbonading/MounRiver/EXE/Libraries/Device/CH32V10x_p/CH32V10x_Lib/ch32v10x_dma.c:372
*                      DMA2_FLAG_TE5: DMA2 Channel5 transfer error flag.
* Return         : None 
*********************************************************************************/
void DMA_ClearFlag(uint32_t DMAy_FLAG)
{
  if ((DMAy_FLAG & FLAG_Mask) != (uint32_t)RESET)
     f18:	00351793          	slli	a5,a0,0x3
     f1c:	0007d763          	bgez	a5,f2a <DMA_ClearFlag+0x12>
C:/flushbonading/MounRiver/EXE/Libraries/Device/CH32V10x_p/CH32V10x_Lib/ch32v10x_dma.c:374
  {
    DMA2->INTFCR = DMAy_FLAG;
     f20:	400207b7          	lui	a5,0x40020
     f24:	40a7a223          	sw	a0,1028(a5) # 40020404 <_eusrstack+0x2001b404>
     f28:	8082                	ret
C:/flushbonading/MounRiver/EXE/Libraries/Device/CH32V10x_p/CH32V10x_Lib/ch32v10x_dma.c:378
  }
  else
  {
    DMA1->INTFCR = DMAy_FLAG;
     f2a:	400207b7          	lui	a5,0x40020
     f2e:	c3c8                	sw	a0,4(a5)
C:/flushbonading/MounRiver/EXE/Libraries/Device/CH32V10x_p/CH32V10x_Lib/ch32v10x_dma.c:380
  }
}
     f30:	8082                	ret

00000f32 <EXTI_GetITStatus>:
EXTI_GetITStatus():
C:/flushbonading/MounRiver/EXE/Libraries/Device/CH32V10x_p/CH32V10x_Lib/ch32v10x_exti.c:135
ITStatus EXTI_GetITStatus(uint32_t EXTI_Line)
{
  ITStatus bitstatus = RESET;
  uint32_t enablestatus = 0;
  
  enablestatus =  EXTI->INTENR & EXTI_Line;
     f32:	400107b7          	lui	a5,0x40010
     f36:	40078713          	addi	a4,a5,1024 # 40010400 <_eusrstack+0x2000b400>
     f3a:	4007a783          	lw	a5,1024(a5)
C:/flushbonading/MounRiver/EXE/Libraries/Device/CH32V10x_p/CH32V10x_Lib/ch32v10x_exti.c:136
  if (((EXTI->INTFR & EXTI_Line) != (uint32_t)RESET) && (enablestatus != (uint32_t)RESET))
     f3e:	4b58                	lw	a4,20(a4)
     f40:	8f69                	and	a4,a4,a0
     f42:	c709                	beqz	a4,f4c <EXTI_GetITStatus+0x1a>
C:/flushbonading/MounRiver/EXE/Libraries/Device/CH32V10x_p/CH32V10x_Lib/ch32v10x_exti.c:135 (discriminator 1)
  enablestatus =  EXTI->INTENR & EXTI_Line;
     f44:	8d7d                	and	a0,a0,a5
C:/flushbonading/MounRiver/EXE/Libraries/Device/CH32V10x_p/CH32V10x_Lib/ch32v10x_exti.c:136 (discriminator 1)
  if (((EXTI->INTFR & EXTI_Line) != (uint32_t)RESET) && (enablestatus != (uint32_t)RESET))
     f46:	00a03533          	snez	a0,a0
     f4a:	8082                	ret
C:/flushbonading/MounRiver/EXE/Libraries/Device/CH32V10x_p/CH32V10x_Lib/ch32v10x_exti.c:142
  {
    bitstatus = SET;
  }
  else
  {
    bitstatus = RESET;
     f4c:	4501                	li	a0,0
C:/flushbonading/MounRiver/EXE/Libraries/Device/CH32V10x_p/CH32V10x_Lib/ch32v10x_exti.c:145
  }
  return bitstatus;
}
     f4e:	8082                	ret

00000f50 <EXTI_ClearITPendingBit>:
EXTI_ClearITPendingBit():
     f50:	400107b7          	lui	a5,0x40010
     f54:	40a7aa23          	sw	a0,1044(a5) # 40010414 <_eusrstack+0x2000b414>
     f58:	8082                	ret

00000f5a <GPIO_Init>:
GPIO_Init():
C:/flushbonading/MounRiver/EXE/Libraries/Device/CH32V10x_p/CH32V10x_Lib/ch32v10x_gpio.c:92
void GPIO_Init(GPIO_TypeDef* GPIOx, GPIO_InitTypeDef* GPIO_InitStruct)
{
  uint32_t currentmode = 0x00, currentpin = 0x00, pinpos = 0x00, pos = 0x00;
  uint32_t tmpreg = 0x00, pinmask = 0x00;

  currentmode = ((uint32_t)GPIO_InitStruct->GPIO_Mode) & ((uint32_t)0x0F);
     f5a:	459c                	lw	a5,8(a1)
C:/flushbonading/MounRiver/EXE/Libraries/Device/CH32V10x_p/CH32V10x_Lib/ch32v10x_gpio.c:94
	
  if ((((uint32_t)GPIO_InitStruct->GPIO_Mode) & ((uint32_t)0x10)) != 0x00)
     f5c:	0107f713          	andi	a4,a5,16
C:/flushbonading/MounRiver/EXE/Libraries/Device/CH32V10x_p/CH32V10x_Lib/ch32v10x_gpio.c:92
  currentmode = ((uint32_t)GPIO_InitStruct->GPIO_Mode) & ((uint32_t)0x0F);
     f60:	00f7f813          	andi	a6,a5,15
C:/flushbonading/MounRiver/EXE/Libraries/Device/CH32V10x_p/CH32V10x_Lib/ch32v10x_gpio.c:94
  if ((((uint32_t)GPIO_InitStruct->GPIO_Mode) & ((uint32_t)0x10)) != 0x00)
     f64:	c701                	beqz	a4,f6c <GPIO_Init+0x12>
C:/flushbonading/MounRiver/EXE/Libraries/Device/CH32V10x_p/CH32V10x_Lib/ch32v10x_gpio.c:96
  { 
    currentmode |= (uint32_t)GPIO_InitStruct->GPIO_Speed;
     f66:	41d8                	lw	a4,4(a1)
     f68:	00e86833          	or	a6,a6,a4
C:/flushbonading/MounRiver/EXE/Libraries/Device/CH32V10x_p/CH32V10x_Lib/ch32v10x_gpio.c:99
  }

  if (((uint32_t)GPIO_InitStruct->GPIO_Pin & ((uint32_t)0x00FF)) != 0x00)
     f6c:	0005d583          	lhu	a1,0(a1)
     f70:	0ff5f713          	andi	a4,a1,255
     f74:	c339                	beqz	a4,fba <GPIO_Init+0x60>
C:/flushbonading/MounRiver/EXE/Libraries/Device/CH32V10x_p/CH32V10x_Lib/ch32v10x_gpio.c:101
  {
    tmpreg = GPIOx->CFGLR;
     f76:	4118                	lw	a4,0(a0)
C:/flushbonading/MounRiver/EXE/Libraries/Device/CH32V10x_p/CH32V10x_Lib/ch32v10x_gpio.c:103
		
    for (pinpos = 0x00; pinpos < 0x08; pinpos++)
     f78:	4681                	li	a3,0
C:/flushbonading/MounRiver/EXE/Libraries/Device/CH32V10x_p/CH32V10x_Lib/ch32v10x_gpio.c:105
    {
      pos = ((uint32_t)0x01) << pinpos;
     f7a:	4e85                	li	t4,1
C:/flushbonading/MounRiver/EXE/Libraries/Device/CH32V10x_p/CH32V10x_Lib/ch32v10x_gpio.c:111
      currentpin = (GPIO_InitStruct->GPIO_Pin) & pos;
			
      if (currentpin == pos)
      {
        pos = pinpos << 2;
        pinmask = ((uint32_t)0x0F) << pos;
     f7c:	4f3d                	li	t5,15
C:/flushbonading/MounRiver/EXE/Libraries/Device/CH32V10x_p/CH32V10x_Lib/ch32v10x_gpio.c:115
        tmpreg &= ~pinmask;
        tmpreg |= (currentmode << pos);

        if (GPIO_InitStruct->GPIO_Mode == GPIO_Mode_IPD)
     f7e:	02800f93          	li	t6,40
C:/flushbonading/MounRiver/EXE/Libraries/Device/CH32V10x_p/CH32V10x_Lib/ch32v10x_gpio.c:121
        {
          GPIOx->BCR = (((uint32_t)0x01) << pinpos);
        }
        else
        {
          if (GPIO_InitStruct->GPIO_Mode == GPIO_Mode_IPU)
     f82:	04800293          	li	t0,72
C:/flushbonading/MounRiver/EXE/Libraries/Device/CH32V10x_p/CH32V10x_Lib/ch32v10x_gpio.c:103
    for (pinpos = 0x00; pinpos < 0x08; pinpos++)
     f86:	4e21                	li	t3,8
C:/flushbonading/MounRiver/EXE/Libraries/Device/CH32V10x_p/CH32V10x_Lib/ch32v10x_gpio.c:105
      pos = ((uint32_t)0x01) << pinpos;
     f88:	00de9633          	sll	a2,t4,a3
C:/flushbonading/MounRiver/EXE/Libraries/Device/CH32V10x_p/CH32V10x_Lib/ch32v10x_gpio.c:106
      currentpin = (GPIO_InitStruct->GPIO_Pin) & pos;
     f8c:	00c5f8b3          	and	a7,a1,a2
C:/flushbonading/MounRiver/EXE/Libraries/Device/CH32V10x_p/CH32V10x_Lib/ch32v10x_gpio.c:108
      if (currentpin == pos)
     f90:	03161163          	bne	a2,a7,fb2 <GPIO_Init+0x58>
C:/flushbonading/MounRiver/EXE/Libraries/Device/CH32V10x_p/CH32V10x_Lib/ch32v10x_gpio.c:110
        pos = pinpos << 2;
     f94:	00269893          	slli	a7,a3,0x2
C:/flushbonading/MounRiver/EXE/Libraries/Device/CH32V10x_p/CH32V10x_Lib/ch32v10x_gpio.c:111
        pinmask = ((uint32_t)0x0F) << pos;
     f98:	011f1333          	sll	t1,t5,a7
C:/flushbonading/MounRiver/EXE/Libraries/Device/CH32V10x_p/CH32V10x_Lib/ch32v10x_gpio.c:112
        tmpreg &= ~pinmask;
     f9c:	fff34313          	not	t1,t1
     fa0:	00e37733          	and	a4,t1,a4
C:/flushbonading/MounRiver/EXE/Libraries/Device/CH32V10x_p/CH32V10x_Lib/ch32v10x_gpio.c:113
        tmpreg |= (currentmode << pos);
     fa4:	011818b3          	sll	a7,a6,a7
     fa8:	00e8e733          	or	a4,a7,a4
C:/flushbonading/MounRiver/EXE/Libraries/Device/CH32V10x_p/CH32V10x_Lib/ch32v10x_gpio.c:115
        if (GPIO_InitStruct->GPIO_Mode == GPIO_Mode_IPD)
     fac:	05f79f63          	bne	a5,t6,100a <GPIO_Init+0xb0>
C:/flushbonading/MounRiver/EXE/Libraries/Device/CH32V10x_p/CH32V10x_Lib/ch32v10x_gpio.c:117
          GPIOx->BCR = (((uint32_t)0x01) << pinpos);
     fb0:	c950                	sw	a2,20(a0)
C:/flushbonading/MounRiver/EXE/Libraries/Device/CH32V10x_p/CH32V10x_Lib/ch32v10x_gpio.c:103 (discriminator 2)
    for (pinpos = 0x00; pinpos < 0x08; pinpos++)
     fb2:	0685                	addi	a3,a3,1
     fb4:	fdc69ae3          	bne	a3,t3,f88 <GPIO_Init+0x2e>
C:/flushbonading/MounRiver/EXE/Libraries/Device/CH32V10x_p/CH32V10x_Lib/ch32v10x_gpio.c:128
            GPIOx->BSHR = (((uint32_t)0x01) << pinpos);
          }
        }
      }
    }
    GPIOx->CFGLR = tmpreg;
     fb8:	c118                	sw	a4,0(a0)
C:/flushbonading/MounRiver/EXE/Libraries/Device/CH32V10x_p/CH32V10x_Lib/ch32v10x_gpio.c:131
  }

  if (GPIO_InitStruct->GPIO_Pin > 0x00FF)
     fba:	0ff00713          	li	a4,255
     fbe:	04b77563          	bgeu	a4,a1,1008 <GPIO_Init+0xae>
C:/flushbonading/MounRiver/EXE/Libraries/Device/CH32V10x_p/CH32V10x_Lib/ch32v10x_gpio.c:133
  {
    tmpreg = GPIOx->CFGHR;
     fc2:	4154                	lw	a3,4(a0)
     fc4:	4621                	li	a2,8
C:/flushbonading/MounRiver/EXE/Libraries/Device/CH32V10x_p/CH32V10x_Lib/ch32v10x_gpio.c:137
		
    for (pinpos = 0x00; pinpos < 0x08; pinpos++)
    {
      pos = (((uint32_t)0x01) << (pinpos + 0x08));
     fc6:	4e85                	li	t4,1
C:/flushbonading/MounRiver/EXE/Libraries/Device/CH32V10x_p/CH32V10x_Lib/ch32v10x_gpio.c:143
      currentpin = ((GPIO_InitStruct->GPIO_Pin) & pos);
			
      if (currentpin == pos)
      {
        pos = pinpos << 2;
        pinmask = ((uint32_t)0x0F) << pos;
     fc8:	4f3d                	li	t5,15
C:/flushbonading/MounRiver/EXE/Libraries/Device/CH32V10x_p/CH32V10x_Lib/ch32v10x_gpio.c:147
        tmpreg &= ~pinmask;
        tmpreg |= (currentmode << pos);

        if (GPIO_InitStruct->GPIO_Mode == GPIO_Mode_IPD)
     fca:	02800f93          	li	t6,40
C:/flushbonading/MounRiver/EXE/Libraries/Device/CH32V10x_p/CH32V10x_Lib/ch32v10x_gpio.c:152
        {
          GPIOx->BCR = (((uint32_t)0x01) << (pinpos + 0x08));
        }

        if (GPIO_InitStruct->GPIO_Mode == GPIO_Mode_IPU)
     fce:	04800293          	li	t0,72
C:/flushbonading/MounRiver/EXE/Libraries/Device/CH32V10x_p/CH32V10x_Lib/ch32v10x_gpio.c:135
    for (pinpos = 0x00; pinpos < 0x08; pinpos++)
     fd2:	4e41                	li	t3,16
C:/flushbonading/MounRiver/EXE/Libraries/Device/CH32V10x_p/CH32V10x_Lib/ch32v10x_gpio.c:137
      pos = (((uint32_t)0x01) << (pinpos + 0x08));
     fd4:	00ce98b3          	sll	a7,t4,a2
C:/flushbonading/MounRiver/EXE/Libraries/Device/CH32V10x_p/CH32V10x_Lib/ch32v10x_gpio.c:138
      currentpin = ((GPIO_InitStruct->GPIO_Pin) & pos);
     fd8:	0115f733          	and	a4,a1,a7
C:/flushbonading/MounRiver/EXE/Libraries/Device/CH32V10x_p/CH32V10x_Lib/ch32v10x_gpio.c:140
      if (currentpin == pos)
     fdc:	02e89263          	bne	a7,a4,1000 <GPIO_Init+0xa6>
C:/flushbonading/MounRiver/EXE/Libraries/Device/CH32V10x_p/CH32V10x_Lib/ch32v10x_gpio.c:142
        pos = pinpos << 2;
     fe0:	00261713          	slli	a4,a2,0x2
     fe4:	1701                	addi	a4,a4,-32
C:/flushbonading/MounRiver/EXE/Libraries/Device/CH32V10x_p/CH32V10x_Lib/ch32v10x_gpio.c:143
        pinmask = ((uint32_t)0x0F) << pos;
     fe6:	00ef1333          	sll	t1,t5,a4
C:/flushbonading/MounRiver/EXE/Libraries/Device/CH32V10x_p/CH32V10x_Lib/ch32v10x_gpio.c:144
        tmpreg &= ~pinmask;
     fea:	fff34313          	not	t1,t1
     fee:	00d376b3          	and	a3,t1,a3
C:/flushbonading/MounRiver/EXE/Libraries/Device/CH32V10x_p/CH32V10x_Lib/ch32v10x_gpio.c:145
        tmpreg |= (currentmode << pos);
     ff2:	00e81733          	sll	a4,a6,a4
     ff6:	8ed9                	or	a3,a3,a4
C:/flushbonading/MounRiver/EXE/Libraries/Device/CH32V10x_p/CH32V10x_Lib/ch32v10x_gpio.c:147
        if (GPIO_InitStruct->GPIO_Mode == GPIO_Mode_IPD)
     ff8:	01f79d63          	bne	a5,t6,1012 <GPIO_Init+0xb8>
C:/flushbonading/MounRiver/EXE/Libraries/Device/CH32V10x_p/CH32V10x_Lib/ch32v10x_gpio.c:149
          GPIOx->BCR = (((uint32_t)0x01) << (pinpos + 0x08));
     ffc:	01152a23          	sw	a7,20(a0)
C:/flushbonading/MounRiver/EXE/Libraries/Device/CH32V10x_p/CH32V10x_Lib/ch32v10x_gpio.c:152
        if (GPIO_InitStruct->GPIO_Mode == GPIO_Mode_IPU)
    1000:	0605                	addi	a2,a2,1
C:/flushbonading/MounRiver/EXE/Libraries/Device/CH32V10x_p/CH32V10x_Lib/ch32v10x_gpio.c:135 (discriminator 2)
    for (pinpos = 0x00; pinpos < 0x08; pinpos++)
    1002:	fdc619e3          	bne	a2,t3,fd4 <GPIO_Init+0x7a>
C:/flushbonading/MounRiver/EXE/Libraries/Device/CH32V10x_p/CH32V10x_Lib/ch32v10x_gpio.c:158
        {
          GPIOx->BSHR = (((uint32_t)0x01) << (pinpos + 0x08));
        }
      }
    }
    GPIOx->CFGHR = tmpreg;
    1006:	c154                	sw	a3,4(a0)
C:/flushbonading/MounRiver/EXE/Libraries/Device/CH32V10x_p/CH32V10x_Lib/ch32v10x_gpio.c:160
  }
}
    1008:	8082                	ret
C:/flushbonading/MounRiver/EXE/Libraries/Device/CH32V10x_p/CH32V10x_Lib/ch32v10x_gpio.c:121
          if (GPIO_InitStruct->GPIO_Mode == GPIO_Mode_IPU)
    100a:	fa5794e3          	bne	a5,t0,fb2 <GPIO_Init+0x58>
C:/flushbonading/MounRiver/EXE/Libraries/Device/CH32V10x_p/CH32V10x_Lib/ch32v10x_gpio.c:123
            GPIOx->BSHR = (((uint32_t)0x01) << pinpos);
    100e:	c910                	sw	a2,16(a0)
    1010:	b74d                	j	fb2 <GPIO_Init+0x58>
C:/flushbonading/MounRiver/EXE/Libraries/Device/CH32V10x_p/CH32V10x_Lib/ch32v10x_gpio.c:152
        if (GPIO_InitStruct->GPIO_Mode == GPIO_Mode_IPU)
    1012:	fe5797e3          	bne	a5,t0,1000 <GPIO_Init+0xa6>
C:/flushbonading/MounRiver/EXE/Libraries/Device/CH32V10x_p/CH32V10x_Lib/ch32v10x_gpio.c:154
          GPIOx->BSHR = (((uint32_t)0x01) << (pinpos + 0x08));
    1016:	01152823          	sw	a7,16(a0)
    101a:	b7dd                	j	1000 <GPIO_Init+0xa6>

0000101c <GPIO_WriteBit>:
GPIO_WriteBit():
C:/flushbonading/MounRiver/EXE/Libraries/Device/CH32V10x_p/CH32V10x_Lib/ch32v10x_gpio.c:283
*                    Bit_SetH: to set the port pin.                  
* Return         : None
*******************************************************************************/
void GPIO_WriteBit(GPIO_TypeDef* GPIOx, uint16_t GPIO_Pin, BitAction BitVal)
{
  if (BitVal != Bit_RESET)
    101c:	c219                	beqz	a2,1022 <GPIO_WriteBit+0x6>
C:/flushbonading/MounRiver/EXE/Libraries/Device/CH32V10x_p/CH32V10x_Lib/ch32v10x_gpio.c:285
  {
    GPIOx->BSHR = GPIO_Pin;
    101e:	c90c                	sw	a1,16(a0)
    1020:	8082                	ret
C:/flushbonading/MounRiver/EXE/Libraries/Device/CH32V10x_p/CH32V10x_Lib/ch32v10x_gpio.c:289
  }
  else
  {
    GPIOx->BCR = GPIO_Pin;
    1022:	c94c                	sw	a1,20(a0)
C:/flushbonading/MounRiver/EXE/Libraries/Device/CH32V10x_p/CH32V10x_Lib/ch32v10x_gpio.c:291
  }
}
    1024:	8082                	ret

00001026 <RCC_GetClocksFreq>:
RCC_GetClocksFreq():
C:/flushbonading/MounRiver/EXE/Libraries/Device/CH32V10x_p/CH32V10x_Lib/ch32v10x_rcc.c:472
********************************************************************************/
void RCC_GetClocksFreq(RCC_ClocksTypeDef* RCC_Clocks)
{
  uint32_t tmp = 0, pllmull = 0, pllsource = 0, presc = 0;
  
  tmp = RCC->CFGR0 & CFGR0_SWS_Mask;
    1026:	40021737          	lui	a4,0x40021
    102a:	435c                	lw	a5,4(a4)
    102c:	4691                	li	a3,4
    102e:	8bb1                	andi	a5,a5,12
C:/flushbonading/MounRiver/EXE/Libraries/Device/CH32V10x_p/CH32V10x_Lib/ch32v10x_rcc.c:474
  
  switch (tmp)
    1030:	00d78563          	beq	a5,a3,103a <RCC_GetClocksFreq+0x14>
    1034:	46a1                	li	a3,8
    1036:	06d78863          	beq	a5,a3,10a6 <RCC_GetClocksFreq+0x80>
C:/flushbonading/MounRiver/EXE/Libraries/Device/CH32V10x_p/CH32V10x_Lib/ch32v10x_rcc.c:477
  {
    case 0x00: 
      RCC_Clocks->SYSCLK_Frequency = HSI_VALUE;
    103a:	007a17b7          	lui	a5,0x7a1
    103e:	20078793          	addi	a5,a5,512 # 7a1200 <_data_lma+0x79f014>
C:/flushbonading/MounRiver/EXE/Libraries/Device/CH32V10x_p/CH32V10x_Lib/ch32v10x_rcc.c:501
        {
          RCC_Clocks->SYSCLK_Frequency = (HSE_VALUE >> 1) * pllmull;
        }
        else
        {
          RCC_Clocks->SYSCLK_Frequency = HSE_VALUE * pllmull;
    1042:	c11c                	sw	a5,0(a0)
C:/flushbonading/MounRiver/EXE/Libraries/Device/CH32V10x_p/CH32V10x_Lib/ch32v10x_rcc.c:511
    default:
      RCC_Clocks->SYSCLK_Frequency = HSI_VALUE;
      break;
  }

  tmp = RCC->CFGR0 & CFGR0_HPRE_Set_Mask;
    1044:	40021637          	lui	a2,0x40021
    1048:	425c                	lw	a5,4(a2)
C:/flushbonading/MounRiver/EXE/Libraries/Device/CH32V10x_p/CH32V10x_Lib/ch32v10x_rcc.c:513
  tmp = tmp >> 4;
  presc = APBAHBPrescTable[tmp];
    104a:	20000737          	lui	a4,0x20000
    104e:	00070713          	mv	a4,a4
C:/flushbonading/MounRiver/EXE/Libraries/Device/CH32V10x_p/CH32V10x_Lib/ch32v10x_rcc.c:512
  tmp = tmp >> 4;
    1052:	8391                	srli	a5,a5,0x4
    1054:	8bbd                	andi	a5,a5,15
C:/flushbonading/MounRiver/EXE/Libraries/Device/CH32V10x_p/CH32V10x_Lib/ch32v10x_rcc.c:513
  presc = APBAHBPrescTable[tmp];
    1056:	97ba                	add	a5,a5,a4
    1058:	0007c683          	lbu	a3,0(a5)
C:/flushbonading/MounRiver/EXE/Libraries/Device/CH32V10x_p/CH32V10x_Lib/ch32v10x_rcc.c:514
  RCC_Clocks->HCLK_Frequency = RCC_Clocks->SYSCLK_Frequency >> presc;
    105c:	411c                	lw	a5,0(a0)
    105e:	00d7d7b3          	srl	a5,a5,a3
    1062:	c15c                	sw	a5,4(a0)
C:/flushbonading/MounRiver/EXE/Libraries/Device/CH32V10x_p/CH32V10x_Lib/ch32v10x_rcc.c:515
  tmp = RCC->CFGR0 & CFGR0_PPRE1_Set_Mask;
    1064:	4254                	lw	a3,4(a2)
C:/flushbonading/MounRiver/EXE/Libraries/Device/CH32V10x_p/CH32V10x_Lib/ch32v10x_rcc.c:516
  tmp = tmp >> 8;
    1066:	82a1                	srli	a3,a3,0x8
    1068:	8a9d                	andi	a3,a3,7
C:/flushbonading/MounRiver/EXE/Libraries/Device/CH32V10x_p/CH32V10x_Lib/ch32v10x_rcc.c:517
  presc = APBAHBPrescTable[tmp];
    106a:	96ba                	add	a3,a3,a4
    106c:	0006c683          	lbu	a3,0(a3)
C:/flushbonading/MounRiver/EXE/Libraries/Device/CH32V10x_p/CH32V10x_Lib/ch32v10x_rcc.c:518
  RCC_Clocks->PCLK1_Frequency = RCC_Clocks->HCLK_Frequency >> presc;
    1070:	00d7d6b3          	srl	a3,a5,a3
    1074:	c514                	sw	a3,8(a0)
C:/flushbonading/MounRiver/EXE/Libraries/Device/CH32V10x_p/CH32V10x_Lib/ch32v10x_rcc.c:519
  tmp = RCC->CFGR0 & CFGR0_PPRE2_Set_Mask;
    1076:	4254                	lw	a3,4(a2)
C:/flushbonading/MounRiver/EXE/Libraries/Device/CH32V10x_p/CH32V10x_Lib/ch32v10x_rcc.c:520
  tmp = tmp >> 11;
    1078:	82ad                	srli	a3,a3,0xb
    107a:	8a9d                	andi	a3,a3,7
C:/flushbonading/MounRiver/EXE/Libraries/Device/CH32V10x_p/CH32V10x_Lib/ch32v10x_rcc.c:521
  presc = APBAHBPrescTable[tmp];
    107c:	9736                	add	a4,a4,a3
    107e:	00074703          	lbu	a4,0(a4) # 20000000 <_data_vma>
C:/flushbonading/MounRiver/EXE/Libraries/Device/CH32V10x_p/CH32V10x_Lib/ch32v10x_rcc.c:522
  RCC_Clocks->PCLK2_Frequency = RCC_Clocks->HCLK_Frequency >> presc;
    1082:	00e7d7b3          	srl	a5,a5,a4
    1086:	c55c                	sw	a5,12(a0)
C:/flushbonading/MounRiver/EXE/Libraries/Device/CH32V10x_p/CH32V10x_Lib/ch32v10x_rcc.c:523
  tmp = RCC->CFGR0 & CFGR0_ADCPRE_Set_Mask;
    1088:	4258                	lw	a4,4(a2)
C:/flushbonading/MounRiver/EXE/Libraries/Device/CH32V10x_p/CH32V10x_Lib/ch32v10x_rcc.c:524
  tmp = tmp >> 14;
    108a:	8339                	srli	a4,a4,0xe
    108c:	00377693          	andi	a3,a4,3
C:/flushbonading/MounRiver/EXE/Libraries/Device/CH32V10x_p/CH32V10x_Lib/ch32v10x_rcc.c:525
  presc = ADCPrescTable[tmp];
    1090:	20000737          	lui	a4,0x20000
    1094:	07070713          	addi	a4,a4,112 # 20000070 <ADCPrescTable>
    1098:	9736                	add	a4,a4,a3
    109a:	00074703          	lbu	a4,0(a4)
C:/flushbonading/MounRiver/EXE/Libraries/Device/CH32V10x_p/CH32V10x_Lib/ch32v10x_rcc.c:526
  RCC_Clocks->ADCCLK_Frequency = RCC_Clocks->PCLK2_Frequency / presc;
    109e:	02e7d7b3          	divu	a5,a5,a4
    10a2:	c91c                	sw	a5,16(a0)
C:/flushbonading/MounRiver/EXE/Libraries/Device/CH32V10x_p/CH32V10x_Lib/ch32v10x_rcc.c:527
}
    10a4:	8082                	ret
C:/flushbonading/MounRiver/EXE/Libraries/Device/CH32V10x_p/CH32V10x_Lib/ch32v10x_rcc.c:485
      pllmull = RCC->CFGR0 & CFGR0_PLLMull_Mask;
    10a6:	435c                	lw	a5,4(a4)
C:/flushbonading/MounRiver/EXE/Libraries/Device/CH32V10x_p/CH32V10x_Lib/ch32v10x_rcc.c:486
      pllsource = RCC->CFGR0 & CFGR0_PLLSRC_Mask;    
    10a8:	4354                	lw	a3,4(a4)
C:/flushbonading/MounRiver/EXE/Libraries/Device/CH32V10x_p/CH32V10x_Lib/ch32v10x_rcc.c:487
      pllmull = ( pllmull >> 18) + 2;
    10aa:	83c9                	srli	a5,a5,0x12
    10ac:	8bbd                	andi	a5,a5,15
C:/flushbonading/MounRiver/EXE/Libraries/Device/CH32V10x_p/CH32V10x_Lib/ch32v10x_rcc.c:489
      if (pllsource == 0x00)
    10ae:	00f69613          	slli	a2,a3,0xf
C:/flushbonading/MounRiver/EXE/Libraries/Device/CH32V10x_p/CH32V10x_Lib/ch32v10x_rcc.c:487
      pllmull = ( pllmull >> 18) + 2;
    10b2:	0789                	addi	a5,a5,2
C:/flushbonading/MounRiver/EXE/Libraries/Device/CH32V10x_p/CH32V10x_Lib/ch32v10x_rcc.c:489
      if (pllsource == 0x00)
    10b4:	00064963          	bltz	a2,10c6 <RCC_GetClocksFreq+0xa0>
C:/flushbonading/MounRiver/EXE/Libraries/Device/CH32V10x_p/CH32V10x_Lib/ch32v10x_rcc.c:497
          RCC_Clocks->SYSCLK_Frequency = (HSE_VALUE >> 1) * pllmull;
    10b8:	003d1737          	lui	a4,0x3d1
    10bc:	90070713          	addi	a4,a4,-1792 # 3d0900 <_data_lma+0x3ce714>
C:/flushbonading/MounRiver/EXE/Libraries/Device/CH32V10x_p/CH32V10x_Lib/ch32v10x_rcc.c:501
          RCC_Clocks->SYSCLK_Frequency = HSE_VALUE * pllmull;
    10c0:	02e787b3          	mul	a5,a5,a4
    10c4:	bfbd                	j	1042 <RCC_GetClocksFreq+0x1c>
C:/flushbonading/MounRiver/EXE/Libraries/Device/CH32V10x_p/CH32V10x_Lib/ch32v10x_rcc.c:495
        if ((RCC->CFGR0 & CFGR0_PLLXTPRE_Mask) != (uint32_t)RESET)
    10c6:	4358                	lw	a4,4(a4)
    10c8:	00e71693          	slli	a3,a4,0xe
    10cc:	fe06c6e3          	bltz	a3,10b8 <RCC_GetClocksFreq+0x92>
C:/flushbonading/MounRiver/EXE/Libraries/Device/CH32V10x_p/CH32V10x_Lib/ch32v10x_rcc.c:501
          RCC_Clocks->SYSCLK_Frequency = HSE_VALUE * pllmull;
    10d0:	007a1737          	lui	a4,0x7a1
    10d4:	20070713          	addi	a4,a4,512 # 7a1200 <_data_lma+0x79f014>
    10d8:	b7e5                	j	10c0 <RCC_GetClocksFreq+0x9a>

000010da <RCC_APB2PeriphClockCmd>:
RCC_APB2PeriphClockCmd():
C:/flushbonading/MounRiver/EXE/Libraries/Device/CH32V10x_p/CH32V10x_Lib/ch32v10x_rcc.c:571
*                  NewState: ENABLE or DISABLE
* Return         : None
*******************************************************************************/	
void RCC_APB2PeriphClockCmd(uint32_t RCC_APB2Periph, FunctionalState NewState)
{
  if (NewState != DISABLE)
    10da:	c599                	beqz	a1,10e8 <RCC_APB2PeriphClockCmd+0xe>
C:/flushbonading/MounRiver/EXE/Libraries/Device/CH32V10x_p/CH32V10x_Lib/ch32v10x_rcc.c:573
  {
    RCC->APB2PCENR |= RCC_APB2Periph;
    10dc:	40021737          	lui	a4,0x40021
    10e0:	4f1c                	lw	a5,24(a4)
    10e2:	8d5d                	or	a0,a0,a5
    10e4:	cf08                	sw	a0,24(a4)
    10e6:	8082                	ret
C:/flushbonading/MounRiver/EXE/Libraries/Device/CH32V10x_p/CH32V10x_Lib/ch32v10x_rcc.c:577
  }
  else
  {
    RCC->APB2PCENR &= ~RCC_APB2Periph;
    10e8:	400217b7          	lui	a5,0x40021
    10ec:	4f98                	lw	a4,24(a5)
    10ee:	fff54513          	not	a0,a0
    10f2:	8d79                	and	a0,a0,a4
    10f4:	cf88                	sw	a0,24(a5)
C:/flushbonading/MounRiver/EXE/Libraries/Device/CH32V10x_p/CH32V10x_Lib/ch32v10x_rcc.c:579
  }
}
    10f6:	8082                	ret

000010f8 <RCC_APB1PeriphClockCmd>:
RCC_APB1PeriphClockCmd():
C:/flushbonading/MounRiver/EXE/Libraries/Device/CH32V10x_p/CH32V10x_Lib/ch32v10x_rcc.c:604
*                  NewState: ENABLE or DISABLE.
* Return         : None
*******************************************************************************/	
void RCC_APB1PeriphClockCmd(uint32_t RCC_APB1Periph, FunctionalState NewState)
{
  if (NewState != DISABLE)
    10f8:	c599                	beqz	a1,1106 <RCC_APB1PeriphClockCmd+0xe>
C:/flushbonading/MounRiver/EXE/Libraries/Device/CH32V10x_p/CH32V10x_Lib/ch32v10x_rcc.c:606
  {
    RCC->APB1PCENR |= RCC_APB1Periph;
    10fa:	40021737          	lui	a4,0x40021
    10fe:	4f5c                	lw	a5,28(a4)
    1100:	8d5d                	or	a0,a0,a5
    1102:	cf48                	sw	a0,28(a4)
    1104:	8082                	ret
C:/flushbonading/MounRiver/EXE/Libraries/Device/CH32V10x_p/CH32V10x_Lib/ch32v10x_rcc.c:610
  }
  else
  {
    RCC->APB1PCENR &= ~RCC_APB1Periph;
    1106:	400217b7          	lui	a5,0x40021
    110a:	4fd8                	lw	a4,28(a5)
    110c:	fff54513          	not	a0,a0
    1110:	8d79                	and	a0,a0,a4
    1112:	cfc8                	sw	a0,28(a5)
C:/flushbonading/MounRiver/EXE/Libraries/Device/CH32V10x_p/CH32V10x_Lib/ch32v10x_rcc.c:612
  }
}
    1114:	8082                	ret

00001116 <TIM_TimeBaseInit>:
TIM_TimeBaseInit():
C:/flushbonading/MounRiver/EXE/Libraries/Device/CH32V10x_p/CH32V10x_Lib/ch32v10x_tim.c:70
*******************************************************************************/
void TIM_TimeBaseInit(TIM_TypeDef* TIMx, TIM_TimeBaseInitTypeDef* TIM_TimeBaseInitStruct)
{
  uint16_t tmpcr1 = 0;

  tmpcr1 = TIMx->CTLR1;  
    1116:	00055783          	lhu	a5,0(a0)
C:/flushbonading/MounRiver/EXE/Libraries/Device/CH32V10x_p/CH32V10x_Lib/ch32v10x_tim.c:72

  if((TIMx == TIM1) || (TIMx == TIM2) || (TIMx == TIM3)|| (TIMx == TIM4)) 
    111a:	40013737          	lui	a4,0x40013
    111e:	c0070713          	addi	a4,a4,-1024 # 40012c00 <_eusrstack+0x2000dc00>
C:/flushbonading/MounRiver/EXE/Libraries/Device/CH32V10x_p/CH32V10x_Lib/ch32v10x_tim.c:70
  tmpcr1 = TIMx->CTLR1;  
    1122:	07c2                	slli	a5,a5,0x10
    1124:	83c1                	srli	a5,a5,0x10
C:/flushbonading/MounRiver/EXE/Libraries/Device/CH32V10x_p/CH32V10x_Lib/ch32v10x_tim.c:72
  if((TIMx == TIM1) || (TIMx == TIM2) || (TIMx == TIM3)|| (TIMx == TIM4)) 
    1126:	02e50063          	beq	a0,a4,1146 <TIM_TimeBaseInit+0x30>
C:/flushbonading/MounRiver/EXE/Libraries/Device/CH32V10x_p/CH32V10x_Lib/ch32v10x_tim.c:72 (discriminator 1)
    112a:	40000737          	lui	a4,0x40000
    112e:	00e50c63          	beq	a0,a4,1146 <TIM_TimeBaseInit+0x30>
C:/flushbonading/MounRiver/EXE/Libraries/Device/CH32V10x_p/CH32V10x_Lib/ch32v10x_tim.c:72 (discriminator 2)
    1132:	40070713          	addi	a4,a4,1024 # 40000400 <_eusrstack+0x1fffb400>
    1136:	00e50863          	beq	a0,a4,1146 <TIM_TimeBaseInit+0x30>
C:/flushbonading/MounRiver/EXE/Libraries/Device/CH32V10x_p/CH32V10x_Lib/ch32v10x_tim.c:72 (discriminator 3)
    113a:	40001737          	lui	a4,0x40001
    113e:	80070713          	addi	a4,a4,-2048 # 40000800 <_eusrstack+0x1fffb800>
    1142:	00e51763          	bne	a0,a4,1150 <TIM_TimeBaseInit+0x3a>
C:/flushbonading/MounRiver/EXE/Libraries/Device/CH32V10x_p/CH32V10x_Lib/ch32v10x_tim.c:75
  {
    tmpcr1 &= (uint16_t)(~((uint16_t)(TIM_DIR | TIM_CMS)));
    tmpcr1 |= (uint32_t)TIM_TimeBaseInitStruct->TIM_CounterMode;
    1146:	0025d703          	lhu	a4,2(a1)
C:/flushbonading/MounRiver/EXE/Libraries/Device/CH32V10x_p/CH32V10x_Lib/ch32v10x_tim.c:74
    tmpcr1 &= (uint16_t)(~((uint16_t)(TIM_DIR | TIM_CMS)));
    114a:	f8f7f793          	andi	a5,a5,-113
C:/flushbonading/MounRiver/EXE/Libraries/Device/CH32V10x_p/CH32V10x_Lib/ch32v10x_tim.c:75
    tmpcr1 |= (uint32_t)TIM_TimeBaseInitStruct->TIM_CounterMode;
    114e:	8fd9                	or	a5,a5,a4
C:/flushbonading/MounRiver/EXE/Libraries/Device/CH32V10x_p/CH32V10x_Lib/ch32v10x_tim.c:79
  }

  tmpcr1 &= (uint16_t)(~((uint16_t)TIM_CTLR1_CKD));
  tmpcr1 |= (uint32_t)TIM_TimeBaseInitStruct->TIM_ClockDivision;
    1150:	0065d703          	lhu	a4,6(a1)
C:/flushbonading/MounRiver/EXE/Libraries/Device/CH32V10x_p/CH32V10x_Lib/ch32v10x_tim.c:78
  tmpcr1 &= (uint16_t)(~((uint16_t)TIM_CTLR1_CKD));
    1154:	cff7f793          	andi	a5,a5,-769
    1158:	07c2                	slli	a5,a5,0x10
    115a:	83c1                	srli	a5,a5,0x10
C:/flushbonading/MounRiver/EXE/Libraries/Device/CH32V10x_p/CH32V10x_Lib/ch32v10x_tim.c:79
  tmpcr1 |= (uint32_t)TIM_TimeBaseInitStruct->TIM_ClockDivision;
    115c:	8fd9                	or	a5,a5,a4
C:/flushbonading/MounRiver/EXE/Libraries/Device/CH32V10x_p/CH32V10x_Lib/ch32v10x_tim.c:81

  TIMx->CTLR1 = tmpcr1;
    115e:	00f51023          	sh	a5,0(a0)
C:/flushbonading/MounRiver/EXE/Libraries/Device/CH32V10x_p/CH32V10x_Lib/ch32v10x_tim.c:82
  TIMx->ATRLR = TIM_TimeBaseInitStruct->TIM_Period ;
    1162:	0045d783          	lhu	a5,4(a1)
    1166:	02f51623          	sh	a5,44(a0)
C:/flushbonading/MounRiver/EXE/Libraries/Device/CH32V10x_p/CH32V10x_Lib/ch32v10x_tim.c:83
  TIMx->PSC = TIM_TimeBaseInitStruct->TIM_Prescaler;
    116a:	0005d783          	lhu	a5,0(a1)
    116e:	02f51423          	sh	a5,40(a0)
C:/flushbonading/MounRiver/EXE/Libraries/Device/CH32V10x_p/CH32V10x_Lib/ch32v10x_tim.c:85
    
  if (TIMx == TIM1)  
    1172:	400137b7          	lui	a5,0x40013
    1176:	c0078793          	addi	a5,a5,-1024 # 40012c00 <_eusrstack+0x2000dc00>
    117a:	00f51663          	bne	a0,a5,1186 <TIM_TimeBaseInit+0x70>
C:/flushbonading/MounRiver/EXE/Libraries/Device/CH32V10x_p/CH32V10x_Lib/ch32v10x_tim.c:87
  {
    TIMx->RPTCR = TIM_TimeBaseInitStruct->TIM_RepetitionCounter;
    117e:	0085c783          	lbu	a5,8(a1)
    1182:	02f51823          	sh	a5,48(a0)
C:/flushbonading/MounRiver/EXE/Libraries/Device/CH32V10x_p/CH32V10x_Lib/ch32v10x_tim.c:90
  }

  TIMx->SWEVGR = TIM_PSCReloadMode_Immediate;           
    1186:	4785                	li	a5,1
    1188:	00f51a23          	sh	a5,20(a0)
C:/flushbonading/MounRiver/EXE/Libraries/Device/CH32V10x_p/CH32V10x_Lib/ch32v10x_tim.c:91
}
    118c:	8082                	ret

0000118e <TIM_OC1Init>:
TIM_OC1Init():
C:/flushbonading/MounRiver/EXE/Libraries/Device/CH32V10x_p/CH32V10x_Lib/ch32v10x_tim.c:105
*******************************************************************************/
void TIM_OC1Init(TIM_TypeDef* TIMx, TIM_OCInitTypeDef* TIM_OCInitStruct)
{
  uint16_t tmpccmrx = 0, tmpccer = 0, tmpcr2 = 0;
     
  TIMx->CCER &= (uint16_t)(~(uint16_t)TIM_CC1E);
    118e:	02055783          	lhu	a5,32(a0)
C:/flushbonading/MounRiver/EXE/Libraries/Device/CH32V10x_p/CH32V10x_Lib/ch32v10x_tim.c:111
  tmpccer = TIMx->CCER;
  tmpcr2 =  TIMx->CTLR2;
  tmpccmrx = TIMx->CHCTLR1;
  tmpccmrx &= (uint16_t)(~((uint16_t)TIM_OC1M));
  tmpccmrx &= (uint16_t)(~((uint16_t)TIM_CC1S));
  tmpccmrx |= TIM_OCInitStruct->TIM_OCMode;
    1192:	0005d603          	lhu	a2,0(a1)
C:/flushbonading/MounRiver/EXE/Libraries/Device/CH32V10x_p/CH32V10x_Lib/ch32v10x_tim.c:114
  tmpccer &= (uint16_t)(~((uint16_t)TIM_CC1P));
  tmpccer |= TIM_OCInitStruct->TIM_OCPolarity;
  tmpccer |= TIM_OCInitStruct->TIM_OutputState;
    1196:	0025d803          	lhu	a6,2(a1)
C:/flushbonading/MounRiver/EXE/Libraries/Device/CH32V10x_p/CH32V10x_Lib/ch32v10x_tim.c:105
  TIMx->CCER &= (uint16_t)(~(uint16_t)TIM_CC1E);
    119a:	07c2                	slli	a5,a5,0x10
    119c:	83c1                	srli	a5,a5,0x10
    119e:	9bf9                	andi	a5,a5,-2
    11a0:	07c2                	slli	a5,a5,0x10
    11a2:	83c1                	srli	a5,a5,0x10
    11a4:	02f51023          	sh	a5,32(a0)
C:/flushbonading/MounRiver/EXE/Libraries/Device/CH32V10x_p/CH32V10x_Lib/ch32v10x_tim.c:106
  tmpccer = TIMx->CCER;
    11a8:	02055783          	lhu	a5,32(a0)
C:/flushbonading/MounRiver/EXE/Libraries/Device/CH32V10x_p/CH32V10x_Lib/ch32v10x_tim.c:107
  tmpcr2 =  TIMx->CTLR2;
    11ac:	00455683          	lhu	a3,4(a0)
C:/flushbonading/MounRiver/EXE/Libraries/Device/CH32V10x_p/CH32V10x_Lib/ch32v10x_tim.c:108
  tmpccmrx = TIMx->CHCTLR1;
    11b0:	01855703          	lhu	a4,24(a0)
C:/flushbonading/MounRiver/EXE/Libraries/Device/CH32V10x_p/CH32V10x_Lib/ch32v10x_tim.c:106
  tmpccer = TIMx->CCER;
    11b4:	07c2                	slli	a5,a5,0x10
    11b6:	83c1                	srli	a5,a5,0x10
C:/flushbonading/MounRiver/EXE/Libraries/Device/CH32V10x_p/CH32V10x_Lib/ch32v10x_tim.c:108
  tmpccmrx = TIMx->CHCTLR1;
    11b8:	0742                	slli	a4,a4,0x10
    11ba:	8341                	srli	a4,a4,0x10
C:/flushbonading/MounRiver/EXE/Libraries/Device/CH32V10x_p/CH32V10x_Lib/ch32v10x_tim.c:110
  tmpccmrx &= (uint16_t)(~((uint16_t)TIM_CC1S));
    11bc:	f8c77713          	andi	a4,a4,-116
C:/flushbonading/MounRiver/EXE/Libraries/Device/CH32V10x_p/CH32V10x_Lib/ch32v10x_tim.c:111
  tmpccmrx |= TIM_OCInitStruct->TIM_OCMode;
    11c0:	8f51                	or	a4,a4,a2
C:/flushbonading/MounRiver/EXE/Libraries/Device/CH32V10x_p/CH32V10x_Lib/ch32v10x_tim.c:114
  tmpccer |= TIM_OCInitStruct->TIM_OutputState;
    11c2:	0085d603          	lhu	a2,8(a1)
C:/flushbonading/MounRiver/EXE/Libraries/Device/CH32V10x_p/CH32V10x_Lib/ch32v10x_tim.c:112
  tmpccer &= (uint16_t)(~((uint16_t)TIM_CC1P));
    11c6:	9bf5                	andi	a5,a5,-3
C:/flushbonading/MounRiver/EXE/Libraries/Device/CH32V10x_p/CH32V10x_Lib/ch32v10x_tim.c:107
  tmpcr2 =  TIMx->CTLR2;
    11c8:	06c2                	slli	a3,a3,0x10
C:/flushbonading/MounRiver/EXE/Libraries/Device/CH32V10x_p/CH32V10x_Lib/ch32v10x_tim.c:114
  tmpccer |= TIM_OCInitStruct->TIM_OutputState;
    11ca:	01066633          	or	a2,a2,a6
    11ce:	8fd1                	or	a5,a5,a2
C:/flushbonading/MounRiver/EXE/Libraries/Device/CH32V10x_p/CH32V10x_Lib/ch32v10x_tim.c:116
    
  if(TIMx == TIM1)
    11d0:	40013637          	lui	a2,0x40013
    11d4:	c0060613          	addi	a2,a2,-1024 # 40012c00 <_eusrstack+0x2000dc00>
C:/flushbonading/MounRiver/EXE/Libraries/Device/CH32V10x_p/CH32V10x_Lib/ch32v10x_tim.c:107
  tmpcr2 =  TIMx->CTLR2;
    11d8:	82c1                	srli	a3,a3,0x10
C:/flushbonading/MounRiver/EXE/Libraries/Device/CH32V10x_p/CH32V10x_Lib/ch32v10x_tim.c:116
  if(TIMx == TIM1)
    11da:	02c51363          	bne	a0,a2,1200 <TIM_OC1Init+0x72>
C:/flushbonading/MounRiver/EXE/Libraries/Device/CH32V10x_p/CH32V10x_Lib/ch32v10x_tim.c:119
  {
    tmpccer &= (uint16_t)(~((uint16_t)TIM_CC1NP));
    tmpccer |= TIM_OCInitStruct->TIM_OCNPolarity;
    11de:	00a5d603          	lhu	a2,10(a1)
C:/flushbonading/MounRiver/EXE/Libraries/Device/CH32V10x_p/CH32V10x_Lib/ch32v10x_tim.c:118
    tmpccer &= (uint16_t)(~((uint16_t)TIM_CC1NP));
    11e2:	9bdd                	andi	a5,a5,-9
C:/flushbonading/MounRiver/EXE/Libraries/Device/CH32V10x_p/CH32V10x_Lib/ch32v10x_tim.c:128
    
    tmpcr2 &= (uint16_t)(~((uint16_t)TIM_OIS1));
    tmpcr2 &= (uint16_t)(~((uint16_t)TIM_OIS1N));
    
    tmpcr2 |= TIM_OCInitStruct->TIM_OCIdleState;
    tmpcr2 |= TIM_OCInitStruct->TIM_OCNIdleState;
    11e4:	00e5d803          	lhu	a6,14(a1)
C:/flushbonading/MounRiver/EXE/Libraries/Device/CH32V10x_p/CH32V10x_Lib/ch32v10x_tim.c:119
    tmpccer |= TIM_OCInitStruct->TIM_OCNPolarity;
    11e8:	8fd1                	or	a5,a5,a2
C:/flushbonading/MounRiver/EXE/Libraries/Device/CH32V10x_p/CH32V10x_Lib/ch32v10x_tim.c:122
    tmpccer |= TIM_OCInitStruct->TIM_OutputNState;
    11ea:	0045d603          	lhu	a2,4(a1)
C:/flushbonading/MounRiver/EXE/Libraries/Device/CH32V10x_p/CH32V10x_Lib/ch32v10x_tim.c:121
    tmpccer &= (uint16_t)(~((uint16_t)TIM_CC1NE));    
    11ee:	9bed                	andi	a5,a5,-5
C:/flushbonading/MounRiver/EXE/Libraries/Device/CH32V10x_p/CH32V10x_Lib/ch32v10x_tim.c:125
    tmpcr2 &= (uint16_t)(~((uint16_t)TIM_OIS1N));
    11f0:	cff6f693          	andi	a3,a3,-769
C:/flushbonading/MounRiver/EXE/Libraries/Device/CH32V10x_p/CH32V10x_Lib/ch32v10x_tim.c:122
    tmpccer |= TIM_OCInitStruct->TIM_OutputNState;
    11f4:	8fd1                	or	a5,a5,a2
C:/flushbonading/MounRiver/EXE/Libraries/Device/CH32V10x_p/CH32V10x_Lib/ch32v10x_tim.c:128
    tmpcr2 |= TIM_OCInitStruct->TIM_OCNIdleState;
    11f6:	00c5d603          	lhu	a2,12(a1)
    11fa:	01066633          	or	a2,a2,a6
    11fe:	8ed1                	or	a3,a3,a2
C:/flushbonading/MounRiver/EXE/Libraries/Device/CH32V10x_p/CH32V10x_Lib/ch32v10x_tim.c:131
  }

  TIMx->CTLR2 = tmpcr2;
    1200:	00d51223          	sh	a3,4(a0)
C:/flushbonading/MounRiver/EXE/Libraries/Device/CH32V10x_p/CH32V10x_Lib/ch32v10x_tim.c:132
  TIMx->CHCTLR1 = tmpccmrx;
    1204:	00e51c23          	sh	a4,24(a0)
C:/flushbonading/MounRiver/EXE/Libraries/Device/CH32V10x_p/CH32V10x_Lib/ch32v10x_tim.c:133
  TIMx->CH1CVR = TIM_OCInitStruct->TIM_Pulse; 
    1208:	0065d703          	lhu	a4,6(a1)
    120c:	02e51a23          	sh	a4,52(a0)
C:/flushbonading/MounRiver/EXE/Libraries/Device/CH32V10x_p/CH32V10x_Lib/ch32v10x_tim.c:134
  TIMx->CCER = tmpccer;
    1210:	02f51023          	sh	a5,32(a0)
C:/flushbonading/MounRiver/EXE/Libraries/Device/CH32V10x_p/CH32V10x_Lib/ch32v10x_tim.c:135
}
    1214:	8082                	ret

00001216 <TIM_OC2Init>:
TIM_OC2Init():
C:/flushbonading/MounRiver/EXE/Libraries/Device/CH32V10x_p/CH32V10x_Lib/ch32v10x_tim.c:149
*******************************************************************************/
void TIM_OC2Init(TIM_TypeDef* TIMx, TIM_OCInitTypeDef* TIM_OCInitStruct)
{
  uint16_t tmpccmrx = 0, tmpccer = 0, tmpcr2 = 0;
   
  TIMx->CCER &= (uint16_t)(~((uint16_t)TIM_CC2E)); 
    1216:	02055783          	lhu	a5,32(a0)
C:/flushbonading/MounRiver/EXE/Libraries/Device/CH32V10x_p/CH32V10x_Lib/ch32v10x_tim.c:154
  tmpccer = TIMx->CCER;
  tmpcr2 =  TIMx->CTLR2;
  tmpccmrx = TIMx->CHCTLR1;
  tmpccmrx &= (uint16_t)(~((uint16_t)TIM_OC2M));
  tmpccmrx &= (uint16_t)(~((uint16_t)TIM_CC2S));
    121a:	7765                	lui	a4,0xffff9
    121c:	cff70713          	addi	a4,a4,-769 # ffff8cff <_eusrstack+0xdfff3cff>
C:/flushbonading/MounRiver/EXE/Libraries/Device/CH32V10x_p/CH32V10x_Lib/ch32v10x_tim.c:149
  TIMx->CCER &= (uint16_t)(~((uint16_t)TIM_CC2E)); 
    1220:	07c2                	slli	a5,a5,0x10
    1222:	83c1                	srli	a5,a5,0x10
    1224:	9bbd                	andi	a5,a5,-17
    1226:	07c2                	slli	a5,a5,0x10
    1228:	83c1                	srli	a5,a5,0x10
    122a:	02f51023          	sh	a5,32(a0)
C:/flushbonading/MounRiver/EXE/Libraries/Device/CH32V10x_p/CH32V10x_Lib/ch32v10x_tim.c:150
  tmpccer = TIMx->CCER;
    122e:	02055783          	lhu	a5,32(a0)
C:/flushbonading/MounRiver/EXE/Libraries/Device/CH32V10x_p/CH32V10x_Lib/ch32v10x_tim.c:151
  tmpcr2 =  TIMx->CTLR2;
    1232:	00455683          	lhu	a3,4(a0)
C:/flushbonading/MounRiver/EXE/Libraries/Device/CH32V10x_p/CH32V10x_Lib/ch32v10x_tim.c:157
  tmpccmrx |= (uint16_t)(TIM_OCInitStruct->TIM_OCMode << 8);
  tmpccer &= (uint16_t)(~((uint16_t)TIM_CC2P));
  tmpccer |= (uint16_t)(TIM_OCInitStruct->TIM_OCPolarity << 4);
    1236:	0085d803          	lhu	a6,8(a1)
C:/flushbonading/MounRiver/EXE/Libraries/Device/CH32V10x_p/CH32V10x_Lib/ch32v10x_tim.c:150
  tmpccer = TIMx->CCER;
    123a:	07c2                	slli	a5,a5,0x10
C:/flushbonading/MounRiver/EXE/Libraries/Device/CH32V10x_p/CH32V10x_Lib/ch32v10x_tim.c:151
  tmpcr2 =  TIMx->CTLR2;
    123c:	01069613          	slli	a2,a3,0x10
C:/flushbonading/MounRiver/EXE/Libraries/Device/CH32V10x_p/CH32V10x_Lib/ch32v10x_tim.c:152
  tmpccmrx = TIMx->CHCTLR1;
    1240:	01855683          	lhu	a3,24(a0)
C:/flushbonading/MounRiver/EXE/Libraries/Device/CH32V10x_p/CH32V10x_Lib/ch32v10x_tim.c:150
  tmpccer = TIMx->CCER;
    1244:	83c1                	srli	a5,a5,0x10
C:/flushbonading/MounRiver/EXE/Libraries/Device/CH32V10x_p/CH32V10x_Lib/ch32v10x_tim.c:156
  tmpccer &= (uint16_t)(~((uint16_t)TIM_CC2P));
    1246:	fdf7f793          	andi	a5,a5,-33
C:/flushbonading/MounRiver/EXE/Libraries/Device/CH32V10x_p/CH32V10x_Lib/ch32v10x_tim.c:154
  tmpccmrx &= (uint16_t)(~((uint16_t)TIM_CC2S));
    124a:	8f75                	and	a4,a4,a3
C:/flushbonading/MounRiver/EXE/Libraries/Device/CH32V10x_p/CH32V10x_Lib/ch32v10x_tim.c:155
  tmpccmrx |= (uint16_t)(TIM_OCInitStruct->TIM_OCMode << 8);
    124c:	0005d683          	lhu	a3,0(a1)
C:/flushbonading/MounRiver/EXE/Libraries/Device/CH32V10x_p/CH32V10x_Lib/ch32v10x_tim.c:151
  tmpcr2 =  TIMx->CTLR2;
    1250:	8241                	srli	a2,a2,0x10
C:/flushbonading/MounRiver/EXE/Libraries/Device/CH32V10x_p/CH32V10x_Lib/ch32v10x_tim.c:155
  tmpccmrx |= (uint16_t)(TIM_OCInitStruct->TIM_OCMode << 8);
    1252:	06a2                	slli	a3,a3,0x8
    1254:	8f55                	or	a4,a4,a3
C:/flushbonading/MounRiver/EXE/Libraries/Device/CH32V10x_p/CH32V10x_Lib/ch32v10x_tim.c:158
  tmpccer |= (uint16_t)(TIM_OCInitStruct->TIM_OutputState << 4);
    1256:	0025d683          	lhu	a3,2(a1)
C:/flushbonading/MounRiver/EXE/Libraries/Device/CH32V10x_p/CH32V10x_Lib/ch32v10x_tim.c:155
  tmpccmrx |= (uint16_t)(TIM_OCInitStruct->TIM_OCMode << 8);
    125a:	0742                	slli	a4,a4,0x10
    125c:	8341                	srli	a4,a4,0x10
C:/flushbonading/MounRiver/EXE/Libraries/Device/CH32V10x_p/CH32V10x_Lib/ch32v10x_tim.c:158
  tmpccer |= (uint16_t)(TIM_OCInitStruct->TIM_OutputState << 4);
    125e:	0106e6b3          	or	a3,a3,a6
    1262:	0692                	slli	a3,a3,0x4
    1264:	8fd5                	or	a5,a5,a3
C:/flushbonading/MounRiver/EXE/Libraries/Device/CH32V10x_p/CH32V10x_Lib/ch32v10x_tim.c:160
    
  if(TIMx == TIM1)
    1266:	400136b7          	lui	a3,0x40013
C:/flushbonading/MounRiver/EXE/Libraries/Device/CH32V10x_p/CH32V10x_Lib/ch32v10x_tim.c:158
  tmpccer |= (uint16_t)(TIM_OCInitStruct->TIM_OutputState << 4);
    126a:	07c2                	slli	a5,a5,0x10
C:/flushbonading/MounRiver/EXE/Libraries/Device/CH32V10x_p/CH32V10x_Lib/ch32v10x_tim.c:160
  if(TIMx == TIM1)
    126c:	c0068693          	addi	a3,a3,-1024 # 40012c00 <_eusrstack+0x2000dc00>
C:/flushbonading/MounRiver/EXE/Libraries/Device/CH32V10x_p/CH32V10x_Lib/ch32v10x_tim.c:158
  tmpccer |= (uint16_t)(TIM_OCInitStruct->TIM_OutputState << 4);
    1270:	83c1                	srli	a5,a5,0x10
C:/flushbonading/MounRiver/EXE/Libraries/Device/CH32V10x_p/CH32V10x_Lib/ch32v10x_tim.c:160
  if(TIMx == TIM1)
    1272:	04d51163          	bne	a0,a3,12b4 <TIM_OC2Init+0x9e>
C:/flushbonading/MounRiver/EXE/Libraries/Device/CH32V10x_p/CH32V10x_Lib/ch32v10x_tim.c:163
  {
    tmpccer &= (uint16_t)(~((uint16_t)TIM_CC2NP));
    tmpccer |= (uint16_t)(TIM_OCInitStruct->TIM_OCNPolarity << 4);
    1276:	00a5d683          	lhu	a3,10(a1)
C:/flushbonading/MounRiver/EXE/Libraries/Device/CH32V10x_p/CH32V10x_Lib/ch32v10x_tim.c:162
    tmpccer &= (uint16_t)(~((uint16_t)TIM_CC2NP));
    127a:	f7f7f793          	andi	a5,a5,-129
C:/flushbonading/MounRiver/EXE/Libraries/Device/CH32V10x_p/CH32V10x_Lib/ch32v10x_tim.c:169
    tmpccer &= (uint16_t)(~((uint16_t)TIM_CC2NE));    
    tmpccer |= (uint16_t)(TIM_OCInitStruct->TIM_OutputNState << 4);
    
    tmpcr2 &= (uint16_t)(~((uint16_t)TIM_OIS2));
    tmpcr2 &= (uint16_t)(~((uint16_t)TIM_OIS2N));
    tmpcr2 |= (uint16_t)(TIM_OCInitStruct->TIM_OCIdleState << 2);
    127e:	00c5d803          	lhu	a6,12(a1)
C:/flushbonading/MounRiver/EXE/Libraries/Device/CH32V10x_p/CH32V10x_Lib/ch32v10x_tim.c:163
    tmpccer |= (uint16_t)(TIM_OCInitStruct->TIM_OCNPolarity << 4);
    1282:	0692                	slli	a3,a3,0x4
    1284:	8fd5                	or	a5,a5,a3
C:/flushbonading/MounRiver/EXE/Libraries/Device/CH32V10x_p/CH32V10x_Lib/ch32v10x_tim.c:165
    tmpccer |= (uint16_t)(TIM_OCInitStruct->TIM_OutputNState << 4);
    1286:	0045d683          	lhu	a3,4(a1)
C:/flushbonading/MounRiver/EXE/Libraries/Device/CH32V10x_p/CH32V10x_Lib/ch32v10x_tim.c:163
    tmpccer |= (uint16_t)(TIM_OCInitStruct->TIM_OCNPolarity << 4);
    128a:	07c2                	slli	a5,a5,0x10
    128c:	83c1                	srli	a5,a5,0x10
C:/flushbonading/MounRiver/EXE/Libraries/Device/CH32V10x_p/CH32V10x_Lib/ch32v10x_tim.c:165
    tmpccer |= (uint16_t)(TIM_OCInitStruct->TIM_OutputNState << 4);
    128e:	0692                	slli	a3,a3,0x4
C:/flushbonading/MounRiver/EXE/Libraries/Device/CH32V10x_p/CH32V10x_Lib/ch32v10x_tim.c:164
    tmpccer &= (uint16_t)(~((uint16_t)TIM_CC2NE));    
    1290:	fbf7f793          	andi	a5,a5,-65
C:/flushbonading/MounRiver/EXE/Libraries/Device/CH32V10x_p/CH32V10x_Lib/ch32v10x_tim.c:165
    tmpccer |= (uint16_t)(TIM_OCInitStruct->TIM_OutputNState << 4);
    1294:	8fd5                	or	a5,a5,a3
C:/flushbonading/MounRiver/EXE/Libraries/Device/CH32V10x_p/CH32V10x_Lib/ch32v10x_tim.c:168
    tmpcr2 &= (uint16_t)(~((uint16_t)TIM_OIS2N));
    1296:	76fd                	lui	a3,0xfffff
    1298:	3ff68693          	addi	a3,a3,1023 # fffff3ff <_eusrstack+0xdfffa3ff>
    129c:	8ef1                	and	a3,a3,a2
C:/flushbonading/MounRiver/EXE/Libraries/Device/CH32V10x_p/CH32V10x_Lib/ch32v10x_tim.c:170
    tmpcr2 |= (uint16_t)(TIM_OCInitStruct->TIM_OCNIdleState << 2);
    129e:	00e5d603          	lhu	a2,14(a1)
C:/flushbonading/MounRiver/EXE/Libraries/Device/CH32V10x_p/CH32V10x_Lib/ch32v10x_tim.c:165
    tmpccer |= (uint16_t)(TIM_OCInitStruct->TIM_OutputNState << 4);
    12a2:	07c2                	slli	a5,a5,0x10
    12a4:	83c1                	srli	a5,a5,0x10
C:/flushbonading/MounRiver/EXE/Libraries/Device/CH32V10x_p/CH32V10x_Lib/ch32v10x_tim.c:170
    tmpcr2 |= (uint16_t)(TIM_OCInitStruct->TIM_OCNIdleState << 2);
    12a6:	01066633          	or	a2,a2,a6
    12aa:	060a                	slli	a2,a2,0x2
    12ac:	8ed1                	or	a3,a3,a2
    12ae:	01069613          	slli	a2,a3,0x10
    12b2:	8241                	srli	a2,a2,0x10
C:/flushbonading/MounRiver/EXE/Libraries/Device/CH32V10x_p/CH32V10x_Lib/ch32v10x_tim.c:173
  }

  TIMx->CTLR2 = tmpcr2;
    12b4:	00c51223          	sh	a2,4(a0)
C:/flushbonading/MounRiver/EXE/Libraries/Device/CH32V10x_p/CH32V10x_Lib/ch32v10x_tim.c:174
  TIMx->CHCTLR1 = tmpccmrx;
    12b8:	00e51c23          	sh	a4,24(a0)
C:/flushbonading/MounRiver/EXE/Libraries/Device/CH32V10x_p/CH32V10x_Lib/ch32v10x_tim.c:175
  TIMx->CH2CVR = TIM_OCInitStruct->TIM_Pulse;
    12bc:	0065d703          	lhu	a4,6(a1)
    12c0:	02e51c23          	sh	a4,56(a0)
C:/flushbonading/MounRiver/EXE/Libraries/Device/CH32V10x_p/CH32V10x_Lib/ch32v10x_tim.c:176
  TIMx->CCER = tmpccer;
    12c4:	02f51023          	sh	a5,32(a0)
C:/flushbonading/MounRiver/EXE/Libraries/Device/CH32V10x_p/CH32V10x_Lib/ch32v10x_tim.c:177
}
    12c8:	8082                	ret

000012ca <TIM_OC3Init>:
TIM_OC3Init():
C:/flushbonading/MounRiver/EXE/Libraries/Device/CH32V10x_p/CH32V10x_Lib/ch32v10x_tim.c:191
*******************************************************************************/
void TIM_OC3Init(TIM_TypeDef* TIMx, TIM_OCInitTypeDef* TIM_OCInitStruct)
{
  uint16_t tmpccmrx = 0, tmpccer = 0, tmpcr2 = 0;
   
  TIMx->CCER &= (uint16_t)(~((uint16_t)TIM_CC3E));
    12ca:	02055783          	lhu	a5,32(a0)
C:/flushbonading/MounRiver/EXE/Libraries/Device/CH32V10x_p/CH32V10x_Lib/ch32v10x_tim.c:199
  tmpccmrx = TIMx->CHCTLR2;
  tmpccmrx &= (uint16_t)(~((uint16_t)TIM_OC3M));
  tmpccmrx &= (uint16_t)(~((uint16_t)TIM_CC3S));  
  tmpccmrx |= TIM_OCInitStruct->TIM_OCMode;
  tmpccer &= (uint16_t)(~((uint16_t)TIM_CC3P));
  tmpccer |= (uint16_t)(TIM_OCInitStruct->TIM_OCPolarity << 8);
    12ce:	0085d803          	lhu	a6,8(a1)
C:/flushbonading/MounRiver/EXE/Libraries/Device/CH32V10x_p/CH32V10x_Lib/ch32v10x_tim.c:191
  TIMx->CCER &= (uint16_t)(~((uint16_t)TIM_CC3E));
    12d2:	07c2                	slli	a5,a5,0x10
    12d4:	83c1                	srli	a5,a5,0x10
    12d6:	eff7f793          	andi	a5,a5,-257
    12da:	07c2                	slli	a5,a5,0x10
    12dc:	83c1                	srli	a5,a5,0x10
    12de:	02f51023          	sh	a5,32(a0)
C:/flushbonading/MounRiver/EXE/Libraries/Device/CH32V10x_p/CH32V10x_Lib/ch32v10x_tim.c:192
  tmpccer = TIMx->CCER;
    12e2:	02055783          	lhu	a5,32(a0)
C:/flushbonading/MounRiver/EXE/Libraries/Device/CH32V10x_p/CH32V10x_Lib/ch32v10x_tim.c:193
  tmpcr2 =  TIMx->CTLR2;
    12e6:	00455683          	lhu	a3,4(a0)
C:/flushbonading/MounRiver/EXE/Libraries/Device/CH32V10x_p/CH32V10x_Lib/ch32v10x_tim.c:194
  tmpccmrx = TIMx->CHCTLR2;
    12ea:	01c55703          	lhu	a4,28(a0)
C:/flushbonading/MounRiver/EXE/Libraries/Device/CH32V10x_p/CH32V10x_Lib/ch32v10x_tim.c:192
  tmpccer = TIMx->CCER;
    12ee:	07c2                	slli	a5,a5,0x10
C:/flushbonading/MounRiver/EXE/Libraries/Device/CH32V10x_p/CH32V10x_Lib/ch32v10x_tim.c:193
  tmpcr2 =  TIMx->CTLR2;
    12f0:	01069613          	slli	a2,a3,0x10
C:/flushbonading/MounRiver/EXE/Libraries/Device/CH32V10x_p/CH32V10x_Lib/ch32v10x_tim.c:194
  tmpccmrx = TIMx->CHCTLR2;
    12f4:	0742                	slli	a4,a4,0x10
C:/flushbonading/MounRiver/EXE/Libraries/Device/CH32V10x_p/CH32V10x_Lib/ch32v10x_tim.c:197
  tmpccmrx |= TIM_OCInitStruct->TIM_OCMode;
    12f6:	0005d683          	lhu	a3,0(a1)
C:/flushbonading/MounRiver/EXE/Libraries/Device/CH32V10x_p/CH32V10x_Lib/ch32v10x_tim.c:194
  tmpccmrx = TIMx->CHCTLR2;
    12fa:	8341                	srli	a4,a4,0x10
C:/flushbonading/MounRiver/EXE/Libraries/Device/CH32V10x_p/CH32V10x_Lib/ch32v10x_tim.c:196
  tmpccmrx &= (uint16_t)(~((uint16_t)TIM_CC3S));  
    12fc:	f8c77713          	andi	a4,a4,-116
C:/flushbonading/MounRiver/EXE/Libraries/Device/CH32V10x_p/CH32V10x_Lib/ch32v10x_tim.c:197
  tmpccmrx |= TIM_OCInitStruct->TIM_OCMode;
    1300:	8f55                	or	a4,a4,a3
C:/flushbonading/MounRiver/EXE/Libraries/Device/CH32V10x_p/CH32V10x_Lib/ch32v10x_tim.c:200
  tmpccer |= (uint16_t)(TIM_OCInitStruct->TIM_OutputState << 8);
    1302:	0025d683          	lhu	a3,2(a1)
C:/flushbonading/MounRiver/EXE/Libraries/Device/CH32V10x_p/CH32V10x_Lib/ch32v10x_tim.c:192
  tmpccer = TIMx->CCER;
    1306:	83c1                	srli	a5,a5,0x10
C:/flushbonading/MounRiver/EXE/Libraries/Device/CH32V10x_p/CH32V10x_Lib/ch32v10x_tim.c:198
  tmpccer &= (uint16_t)(~((uint16_t)TIM_CC3P));
    1308:	dff7f793          	andi	a5,a5,-513
C:/flushbonading/MounRiver/EXE/Libraries/Device/CH32V10x_p/CH32V10x_Lib/ch32v10x_tim.c:200
  tmpccer |= (uint16_t)(TIM_OCInitStruct->TIM_OutputState << 8);
    130c:	0106e6b3          	or	a3,a3,a6
    1310:	06a2                	slli	a3,a3,0x8
    1312:	8fd5                	or	a5,a5,a3
C:/flushbonading/MounRiver/EXE/Libraries/Device/CH32V10x_p/CH32V10x_Lib/ch32v10x_tim.c:202
    
  if(TIMx == TIM1)
    1314:	400136b7          	lui	a3,0x40013
C:/flushbonading/MounRiver/EXE/Libraries/Device/CH32V10x_p/CH32V10x_Lib/ch32v10x_tim.c:200
  tmpccer |= (uint16_t)(TIM_OCInitStruct->TIM_OutputState << 8);
    1318:	07c2                	slli	a5,a5,0x10
C:/flushbonading/MounRiver/EXE/Libraries/Device/CH32V10x_p/CH32V10x_Lib/ch32v10x_tim.c:202
  if(TIMx == TIM1)
    131a:	c0068693          	addi	a3,a3,-1024 # 40012c00 <_eusrstack+0x2000dc00>
C:/flushbonading/MounRiver/EXE/Libraries/Device/CH32V10x_p/CH32V10x_Lib/ch32v10x_tim.c:193
  tmpcr2 =  TIMx->CTLR2;
    131e:	8241                	srli	a2,a2,0x10
C:/flushbonading/MounRiver/EXE/Libraries/Device/CH32V10x_p/CH32V10x_Lib/ch32v10x_tim.c:200
  tmpccer |= (uint16_t)(TIM_OCInitStruct->TIM_OutputState << 8);
    1320:	83c1                	srli	a5,a5,0x10
C:/flushbonading/MounRiver/EXE/Libraries/Device/CH32V10x_p/CH32V10x_Lib/ch32v10x_tim.c:202
  if(TIMx == TIM1)
    1322:	04d51263          	bne	a0,a3,1366 <TIM_OC3Init+0x9c>
C:/flushbonading/MounRiver/EXE/Libraries/Device/CH32V10x_p/CH32V10x_Lib/ch32v10x_tim.c:204
  {
    tmpccer &= (uint16_t)(~((uint16_t)TIM_CC3NP));
    1326:	76fd                	lui	a3,0xfffff
    1328:	7ff68693          	addi	a3,a3,2047 # fffff7ff <_eusrstack+0xdfffa7ff>
    132c:	8ff5                	and	a5,a5,a3
C:/flushbonading/MounRiver/EXE/Libraries/Device/CH32V10x_p/CH32V10x_Lib/ch32v10x_tim.c:205
    tmpccer |= (uint16_t)(TIM_OCInitStruct->TIM_OCNPolarity << 8);
    132e:	00a5d683          	lhu	a3,10(a1)
C:/flushbonading/MounRiver/EXE/Libraries/Device/CH32V10x_p/CH32V10x_Lib/ch32v10x_tim.c:210
    tmpccer &= (uint16_t)(~((uint16_t)TIM_CC3NE));
    tmpccer |= (uint16_t)(TIM_OCInitStruct->TIM_OutputNState << 8);
    tmpcr2 &= (uint16_t)(~((uint16_t)TIM_OIS3));
    tmpcr2 &= (uint16_t)(~((uint16_t)TIM_OIS3N));
    tmpcr2 |= (uint16_t)(TIM_OCInitStruct->TIM_OCIdleState << 4);
    1332:	00c5d803          	lhu	a6,12(a1)
C:/flushbonading/MounRiver/EXE/Libraries/Device/CH32V10x_p/CH32V10x_Lib/ch32v10x_tim.c:205
    tmpccer |= (uint16_t)(TIM_OCInitStruct->TIM_OCNPolarity << 8);
    1336:	06a2                	slli	a3,a3,0x8
    1338:	8fd5                	or	a5,a5,a3
C:/flushbonading/MounRiver/EXE/Libraries/Device/CH32V10x_p/CH32V10x_Lib/ch32v10x_tim.c:207
    tmpccer |= (uint16_t)(TIM_OCInitStruct->TIM_OutputNState << 8);
    133a:	0045d683          	lhu	a3,4(a1)
C:/flushbonading/MounRiver/EXE/Libraries/Device/CH32V10x_p/CH32V10x_Lib/ch32v10x_tim.c:205
    tmpccer |= (uint16_t)(TIM_OCInitStruct->TIM_OCNPolarity << 8);
    133e:	07c2                	slli	a5,a5,0x10
    1340:	83c1                	srli	a5,a5,0x10
C:/flushbonading/MounRiver/EXE/Libraries/Device/CH32V10x_p/CH32V10x_Lib/ch32v10x_tim.c:207
    tmpccer |= (uint16_t)(TIM_OCInitStruct->TIM_OutputNState << 8);
    1342:	06a2                	slli	a3,a3,0x8
C:/flushbonading/MounRiver/EXE/Libraries/Device/CH32V10x_p/CH32V10x_Lib/ch32v10x_tim.c:206
    tmpccer &= (uint16_t)(~((uint16_t)TIM_CC3NE));
    1344:	bff7f793          	andi	a5,a5,-1025
C:/flushbonading/MounRiver/EXE/Libraries/Device/CH32V10x_p/CH32V10x_Lib/ch32v10x_tim.c:207
    tmpccer |= (uint16_t)(TIM_OCInitStruct->TIM_OutputNState << 8);
    1348:	8fd5                	or	a5,a5,a3
C:/flushbonading/MounRiver/EXE/Libraries/Device/CH32V10x_p/CH32V10x_Lib/ch32v10x_tim.c:209
    tmpcr2 &= (uint16_t)(~((uint16_t)TIM_OIS3N));
    134a:	76f5                	lui	a3,0xffffd
    134c:	16fd                	addi	a3,a3,-1
    134e:	8ef1                	and	a3,a3,a2
C:/flushbonading/MounRiver/EXE/Libraries/Device/CH32V10x_p/CH32V10x_Lib/ch32v10x_tim.c:211
    tmpcr2 |= (uint16_t)(TIM_OCInitStruct->TIM_OCNIdleState << 4);
    1350:	00e5d603          	lhu	a2,14(a1)
C:/flushbonading/MounRiver/EXE/Libraries/Device/CH32V10x_p/CH32V10x_Lib/ch32v10x_tim.c:207
    tmpccer |= (uint16_t)(TIM_OCInitStruct->TIM_OutputNState << 8);
    1354:	07c2                	slli	a5,a5,0x10
    1356:	83c1                	srli	a5,a5,0x10
C:/flushbonading/MounRiver/EXE/Libraries/Device/CH32V10x_p/CH32V10x_Lib/ch32v10x_tim.c:211
    tmpcr2 |= (uint16_t)(TIM_OCInitStruct->TIM_OCNIdleState << 4);
    1358:	01066633          	or	a2,a2,a6
    135c:	0612                	slli	a2,a2,0x4
    135e:	8ed1                	or	a3,a3,a2
    1360:	01069613          	slli	a2,a3,0x10
    1364:	8241                	srli	a2,a2,0x10
C:/flushbonading/MounRiver/EXE/Libraries/Device/CH32V10x_p/CH32V10x_Lib/ch32v10x_tim.c:214
  }

  TIMx->CTLR2 = tmpcr2;
    1366:	00c51223          	sh	a2,4(a0)
C:/flushbonading/MounRiver/EXE/Libraries/Device/CH32V10x_p/CH32V10x_Lib/ch32v10x_tim.c:215
  TIMx->CHCTLR2 = tmpccmrx;
    136a:	00e51e23          	sh	a4,28(a0)
C:/flushbonading/MounRiver/EXE/Libraries/Device/CH32V10x_p/CH32V10x_Lib/ch32v10x_tim.c:216
  TIMx->CH3CVR = TIM_OCInitStruct->TIM_Pulse;
    136e:	0065d703          	lhu	a4,6(a1)
    1372:	02e51e23          	sh	a4,60(a0)
C:/flushbonading/MounRiver/EXE/Libraries/Device/CH32V10x_p/CH32V10x_Lib/ch32v10x_tim.c:217
  TIMx->CCER = tmpccer;
    1376:	02f51023          	sh	a5,32(a0)
C:/flushbonading/MounRiver/EXE/Libraries/Device/CH32V10x_p/CH32V10x_Lib/ch32v10x_tim.c:218
}
    137a:	8082                	ret

0000137c <TIM_OC4Init>:
TIM_OC4Init():
C:/flushbonading/MounRiver/EXE/Libraries/Device/CH32V10x_p/CH32V10x_Lib/ch32v10x_tim.c:232
*******************************************************************************/
void TIM_OC4Init(TIM_TypeDef* TIMx, TIM_OCInitTypeDef* TIM_OCInitStruct)
{
  uint16_t tmpccmrx = 0, tmpccer = 0, tmpcr2 = 0;

  TIMx->CCER &= (uint16_t)(~((uint16_t)TIM_CC4E));
    137c:	02055703          	lhu	a4,32(a0)
    1380:	77fd                	lui	a5,0xfffff
    1382:	17fd                	addi	a5,a5,-1
    1384:	8ff9                	and	a5,a5,a4
    1386:	02f51023          	sh	a5,32(a0)
C:/flushbonading/MounRiver/EXE/Libraries/Device/CH32V10x_p/CH32V10x_Lib/ch32v10x_tim.c:233
  tmpccer = TIMx->CCER;
    138a:	02055803          	lhu	a6,32(a0)
C:/flushbonading/MounRiver/EXE/Libraries/Device/CH32V10x_p/CH32V10x_Lib/ch32v10x_tim.c:234
  tmpcr2 =  TIMx->CTLR2;
    138e:	00455683          	lhu	a3,4(a0)
C:/flushbonading/MounRiver/EXE/Libraries/Device/CH32V10x_p/CH32V10x_Lib/ch32v10x_tim.c:235
  tmpccmrx = TIMx->CHCTLR2;
    1392:	01c55783          	lhu	a5,28(a0)
C:/flushbonading/MounRiver/EXE/Libraries/Device/CH32V10x_p/CH32V10x_Lib/ch32v10x_tim.c:237
  tmpccmrx &= (uint16_t)(~((uint16_t)TIM_OC4M));
  tmpccmrx &= (uint16_t)(~((uint16_t)TIM_CC4S));
    1396:	7765                	lui	a4,0xffff9
C:/flushbonading/MounRiver/EXE/Libraries/Device/CH32V10x_p/CH32V10x_Lib/ch32v10x_tim.c:238
  tmpccmrx |= (uint16_t)(TIM_OCInitStruct->TIM_OCMode << 8);
    1398:	0005d603          	lhu	a2,0(a1)
C:/flushbonading/MounRiver/EXE/Libraries/Device/CH32V10x_p/CH32V10x_Lib/ch32v10x_tim.c:237
  tmpccmrx &= (uint16_t)(~((uint16_t)TIM_CC4S));
    139c:	cff70713          	addi	a4,a4,-769 # ffff8cff <_eusrstack+0xdfff3cff>
    13a0:	8f7d                	and	a4,a4,a5
C:/flushbonading/MounRiver/EXE/Libraries/Device/CH32V10x_p/CH32V10x_Lib/ch32v10x_tim.c:239
  tmpccer &= (uint16_t)(~((uint16_t)TIM_CC4P));
    13a2:	77f9                	lui	a5,0xffffe
C:/flushbonading/MounRiver/EXE/Libraries/Device/CH32V10x_p/CH32V10x_Lib/ch32v10x_tim.c:238
  tmpccmrx |= (uint16_t)(TIM_OCInitStruct->TIM_OCMode << 8);
    13a4:	0622                	slli	a2,a2,0x8
C:/flushbonading/MounRiver/EXE/Libraries/Device/CH32V10x_p/CH32V10x_Lib/ch32v10x_tim.c:239
  tmpccer &= (uint16_t)(~((uint16_t)TIM_CC4P));
    13a6:	17fd                	addi	a5,a5,-1
C:/flushbonading/MounRiver/EXE/Libraries/Device/CH32V10x_p/CH32V10x_Lib/ch32v10x_tim.c:238
  tmpccmrx |= (uint16_t)(TIM_OCInitStruct->TIM_OCMode << 8);
    13a8:	8f51                	or	a4,a4,a2
C:/flushbonading/MounRiver/EXE/Libraries/Device/CH32V10x_p/CH32V10x_Lib/ch32v10x_tim.c:239
  tmpccer &= (uint16_t)(~((uint16_t)TIM_CC4P));
    13aa:	0107f7b3          	and	a5,a5,a6
C:/flushbonading/MounRiver/EXE/Libraries/Device/CH32V10x_p/CH32V10x_Lib/ch32v10x_tim.c:241
  tmpccer |= (uint16_t)(TIM_OCInitStruct->TIM_OCPolarity << 12);
  tmpccer |= (uint16_t)(TIM_OCInitStruct->TIM_OutputState << 12);
    13ae:	0025d603          	lhu	a2,2(a1)
C:/flushbonading/MounRiver/EXE/Libraries/Device/CH32V10x_p/CH32V10x_Lib/ch32v10x_tim.c:240
  tmpccer |= (uint16_t)(TIM_OCInitStruct->TIM_OCPolarity << 12);
    13b2:	0085d803          	lhu	a6,8(a1)
C:/flushbonading/MounRiver/EXE/Libraries/Device/CH32V10x_p/CH32V10x_Lib/ch32v10x_tim.c:234
  tmpcr2 =  TIMx->CTLR2;
    13b6:	06c2                	slli	a3,a3,0x10
C:/flushbonading/MounRiver/EXE/Libraries/Device/CH32V10x_p/CH32V10x_Lib/ch32v10x_tim.c:238
  tmpccmrx |= (uint16_t)(TIM_OCInitStruct->TIM_OCMode << 8);
    13b8:	0742                	slli	a4,a4,0x10
C:/flushbonading/MounRiver/EXE/Libraries/Device/CH32V10x_p/CH32V10x_Lib/ch32v10x_tim.c:241
  tmpccer |= (uint16_t)(TIM_OCInitStruct->TIM_OutputState << 12);
    13ba:	01066633          	or	a2,a2,a6
    13be:	0632                	slli	a2,a2,0xc
    13c0:	8fd1                	or	a5,a5,a2
C:/flushbonading/MounRiver/EXE/Libraries/Device/CH32V10x_p/CH32V10x_Lib/ch32v10x_tim.c:243
    
  if(TIMx == TIM1)
    13c2:	40013637          	lui	a2,0x40013
C:/flushbonading/MounRiver/EXE/Libraries/Device/CH32V10x_p/CH32V10x_Lib/ch32v10x_tim.c:241
  tmpccer |= (uint16_t)(TIM_OCInitStruct->TIM_OutputState << 12);
    13c6:	07c2                	slli	a5,a5,0x10
C:/flushbonading/MounRiver/EXE/Libraries/Device/CH32V10x_p/CH32V10x_Lib/ch32v10x_tim.c:243
  if(TIMx == TIM1)
    13c8:	c0060613          	addi	a2,a2,-1024 # 40012c00 <_eusrstack+0x2000dc00>
C:/flushbonading/MounRiver/EXE/Libraries/Device/CH32V10x_p/CH32V10x_Lib/ch32v10x_tim.c:234
  tmpcr2 =  TIMx->CTLR2;
    13cc:	82c1                	srli	a3,a3,0x10
C:/flushbonading/MounRiver/EXE/Libraries/Device/CH32V10x_p/CH32V10x_Lib/ch32v10x_tim.c:238
  tmpccmrx |= (uint16_t)(TIM_OCInitStruct->TIM_OCMode << 8);
    13ce:	8341                	srli	a4,a4,0x10
C:/flushbonading/MounRiver/EXE/Libraries/Device/CH32V10x_p/CH32V10x_Lib/ch32v10x_tim.c:241
  tmpccer |= (uint16_t)(TIM_OCInitStruct->TIM_OutputState << 12);
    13d0:	83c1                	srli	a5,a5,0x10
C:/flushbonading/MounRiver/EXE/Libraries/Device/CH32V10x_p/CH32V10x_Lib/ch32v10x_tim.c:243
  if(TIMx == TIM1)
    13d2:	00c51b63          	bne	a0,a2,13e8 <TIM_OC4Init+0x6c>
C:/flushbonading/MounRiver/EXE/Libraries/Device/CH32V10x_p/CH32V10x_Lib/ch32v10x_tim.c:245
  {
    tmpcr2 &= (uint16_t)(~((uint16_t)TIM_OIS4));
    13d6:	7671                	lui	a2,0xffffc
    13d8:	167d                	addi	a2,a2,-1
    13da:	8ef1                	and	a3,a3,a2
C:/flushbonading/MounRiver/EXE/Libraries/Device/CH32V10x_p/CH32V10x_Lib/ch32v10x_tim.c:246
    tmpcr2 |= (uint16_t)(TIM_OCInitStruct->TIM_OCIdleState << 6);
    13dc:	00c5d603          	lhu	a2,12(a1)
    13e0:	061a                	slli	a2,a2,0x6
    13e2:	8ed1                	or	a3,a3,a2
    13e4:	06c2                	slli	a3,a3,0x10
    13e6:	82c1                	srli	a3,a3,0x10
C:/flushbonading/MounRiver/EXE/Libraries/Device/CH32V10x_p/CH32V10x_Lib/ch32v10x_tim.c:249
  }

  TIMx->CTLR2 = tmpcr2; 
    13e8:	00d51223          	sh	a3,4(a0)
C:/flushbonading/MounRiver/EXE/Libraries/Device/CH32V10x_p/CH32V10x_Lib/ch32v10x_tim.c:250
  TIMx->CHCTLR2 = tmpccmrx;
    13ec:	00e51e23          	sh	a4,28(a0)
C:/flushbonading/MounRiver/EXE/Libraries/Device/CH32V10x_p/CH32V10x_Lib/ch32v10x_tim.c:251
  TIMx->CH4CVR = TIM_OCInitStruct->TIM_Pulse;
    13f0:	0065d703          	lhu	a4,6(a1)
    13f4:	04e51023          	sh	a4,64(a0)
C:/flushbonading/MounRiver/EXE/Libraries/Device/CH32V10x_p/CH32V10x_Lib/ch32v10x_tim.c:252
  TIMx->CCER = tmpccer;
    13f8:	02f51023          	sh	a5,32(a0)
C:/flushbonading/MounRiver/EXE/Libraries/Device/CH32V10x_p/CH32V10x_Lib/ch32v10x_tim.c:253
}
    13fc:	8082                	ret

000013fe <TIM_Cmd>:
TIM_Cmd():
C:/flushbonading/MounRiver/EXE/Libraries/Device/CH32V10x_p/CH32V10x_Lib/ch32v10x_tim.c:436
*******************************************************************************/
void TIM_Cmd(TIM_TypeDef* TIMx, FunctionalState NewState)
{ 
  if (NewState != DISABLE)
  {
    TIMx->CTLR1 |= TIM_CEN;
    13fe:	00055783          	lhu	a5,0(a0)
C:/flushbonading/MounRiver/EXE/Libraries/Device/CH32V10x_p/CH32V10x_Lib/ch32v10x_tim.c:434
  if (NewState != DISABLE)
    1402:	c591                	beqz	a1,140e <TIM_Cmd+0x10>
C:/flushbonading/MounRiver/EXE/Libraries/Device/CH32V10x_p/CH32V10x_Lib/ch32v10x_tim.c:436
    TIMx->CTLR1 |= TIM_CEN;
    1404:	0017e793          	ori	a5,a5,1
C:/flushbonading/MounRiver/EXE/Libraries/Device/CH32V10x_p/CH32V10x_Lib/ch32v10x_tim.c:440
  }
  else
  {
    TIMx->CTLR1 &= (uint16_t)(~((uint16_t)TIM_CEN));
    1408:	00f51023          	sh	a5,0(a0)
C:/flushbonading/MounRiver/EXE/Libraries/Device/CH32V10x_p/CH32V10x_Lib/ch32v10x_tim.c:442
  }
}
    140c:	8082                	ret
C:/flushbonading/MounRiver/EXE/Libraries/Device/CH32V10x_p/CH32V10x_Lib/ch32v10x_tim.c:440
    TIMx->CTLR1 &= (uint16_t)(~((uint16_t)TIM_CEN));
    140e:	07c2                	slli	a5,a5,0x10
    1410:	83c1                	srli	a5,a5,0x10
    1412:	9bf9                	andi	a5,a5,-2
    1414:	07c2                	slli	a5,a5,0x10
    1416:	83c1                	srli	a5,a5,0x10
    1418:	bfc5                	j	1408 <TIM_Cmd+0xa>

0000141a <TIM_CtrlPWMOutputs>:
TIM_CtrlPWMOutputs():
C:/flushbonading/MounRiver/EXE/Libraries/Device/CH32V10x_p/CH32V10x_Lib/ch32v10x_tim.c:455
*******************************************************************************/
void TIM_CtrlPWMOutputs(TIM_TypeDef* TIMx, FunctionalState NewState)
{
  if (NewState != DISABLE)
  {
    TIMx->BDTR |= TIM_MOE;
    141a:	04455783          	lhu	a5,68(a0)
C:/flushbonading/MounRiver/EXE/Libraries/Device/CH32V10x_p/CH32V10x_Lib/ch32v10x_tim.c:453
  if (NewState != DISABLE)
    141e:	c591                	beqz	a1,142a <TIM_CtrlPWMOutputs+0x10>
C:/flushbonading/MounRiver/EXE/Libraries/Device/CH32V10x_p/CH32V10x_Lib/ch32v10x_tim.c:455
    TIMx->BDTR |= TIM_MOE;
    1420:	6721                	lui	a4,0x8
    1422:	8fd9                	or	a5,a5,a4
C:/flushbonading/MounRiver/EXE/Libraries/Device/CH32V10x_p/CH32V10x_Lib/ch32v10x_tim.c:459
  }
  else
  {
    TIMx->BDTR &= (uint16_t)(~((uint16_t)TIM_MOE));
    1424:	04f51223          	sh	a5,68(a0)
C:/flushbonading/MounRiver/EXE/Libraries/Device/CH32V10x_p/CH32V10x_Lib/ch32v10x_tim.c:461
  }  
}
    1428:	8082                	ret
C:/flushbonading/MounRiver/EXE/Libraries/Device/CH32V10x_p/CH32V10x_Lib/ch32v10x_tim.c:459
    TIMx->BDTR &= (uint16_t)(~((uint16_t)TIM_MOE));
    142a:	07c6                	slli	a5,a5,0x11
    142c:	83c5                	srli	a5,a5,0x11
    142e:	bfdd                	j	1424 <TIM_CtrlPWMOutputs+0xa>

00001430 <TIM_OC1PreloadConfig>:
TIM_OC1PreloadConfig():
C:/flushbonading/MounRiver/EXE/Libraries/Device/CH32V10x_p/CH32V10x_Lib/ch32v10x_tim.c:984
*******************************************************************************/
void TIM_OC1PreloadConfig(TIM_TypeDef* TIMx, uint16_t TIM_OCPreload)
{
  uint16_t tmpccmr1 = 0;

  tmpccmr1 = TIMx->CHCTLR1;
    1430:	01855783          	lhu	a5,24(a0)
    1434:	07c2                	slli	a5,a5,0x10
    1436:	83c1                	srli	a5,a5,0x10
C:/flushbonading/MounRiver/EXE/Libraries/Device/CH32V10x_p/CH32V10x_Lib/ch32v10x_tim.c:985
  tmpccmr1 &= (uint16_t)~((uint16_t)TIM_OC1PE);
    1438:	9bdd                	andi	a5,a5,-9
C:/flushbonading/MounRiver/EXE/Libraries/Device/CH32V10x_p/CH32V10x_Lib/ch32v10x_tim.c:986
  tmpccmr1 |= TIM_OCPreload;
    143a:	8ddd                	or	a1,a1,a5
C:/flushbonading/MounRiver/EXE/Libraries/Device/CH32V10x_p/CH32V10x_Lib/ch32v10x_tim.c:987
  TIMx->CHCTLR1 = tmpccmr1;
    143c:	00b51c23          	sh	a1,24(a0)
C:/flushbonading/MounRiver/EXE/Libraries/Device/CH32V10x_p/CH32V10x_Lib/ch32v10x_tim.c:988
}
    1440:	8082                	ret

00001442 <TIM_OC2PreloadConfig>:
TIM_OC2PreloadConfig():
C:/flushbonading/MounRiver/EXE/Libraries/Device/CH32V10x_p/CH32V10x_Lib/ch32v10x_tim.c:1003
*******************************************************************************/
void TIM_OC2PreloadConfig(TIM_TypeDef* TIMx, uint16_t TIM_OCPreload)
{
  uint16_t tmpccmr1 = 0;

  tmpccmr1 = TIMx->CHCTLR1;
    1442:	01855703          	lhu	a4,24(a0)
C:/flushbonading/MounRiver/EXE/Libraries/Device/CH32V10x_p/CH32V10x_Lib/ch32v10x_tim.c:1004
  tmpccmr1 &= (uint16_t)~((uint16_t)TIM_OC2PE);
    1446:	77fd                	lui	a5,0xfffff
    1448:	7ff78793          	addi	a5,a5,2047 # fffff7ff <_eusrstack+0xdfffa7ff>
    144c:	8ff9                	and	a5,a5,a4
C:/flushbonading/MounRiver/EXE/Libraries/Device/CH32V10x_p/CH32V10x_Lib/ch32v10x_tim.c:1005
  tmpccmr1 |= (uint16_t)(TIM_OCPreload << 8);	
    144e:	05a2                	slli	a1,a1,0x8
    1450:	8fcd                	or	a5,a5,a1
    1452:	07c2                	slli	a5,a5,0x10
    1454:	83c1                	srli	a5,a5,0x10
C:/flushbonading/MounRiver/EXE/Libraries/Device/CH32V10x_p/CH32V10x_Lib/ch32v10x_tim.c:1006
  TIMx->CHCTLR1 = tmpccmr1;
    1456:	00f51c23          	sh	a5,24(a0)
C:/flushbonading/MounRiver/EXE/Libraries/Device/CH32V10x_p/CH32V10x_Lib/ch32v10x_tim.c:1007
}
    145a:	8082                	ret

0000145c <TIM_OC3PreloadConfig>:
TIM_OC3PreloadConfig():
C:/flushbonading/MounRiver/EXE/Libraries/Device/CH32V10x_p/CH32V10x_Lib/ch32v10x_tim.c:1022
*******************************************************************************/
void TIM_OC3PreloadConfig(TIM_TypeDef* TIMx, uint16_t TIM_OCPreload)
{
  uint16_t tmpccmr2 = 0;

  tmpccmr2 = TIMx->CHCTLR2;
    145c:	01c55783          	lhu	a5,28(a0)
    1460:	07c2                	slli	a5,a5,0x10
    1462:	83c1                	srli	a5,a5,0x10
C:/flushbonading/MounRiver/EXE/Libraries/Device/CH32V10x_p/CH32V10x_Lib/ch32v10x_tim.c:1023
  tmpccmr2 &= (uint16_t)~((uint16_t)TIM_OC3PE);
    1464:	9bdd                	andi	a5,a5,-9
C:/flushbonading/MounRiver/EXE/Libraries/Device/CH32V10x_p/CH32V10x_Lib/ch32v10x_tim.c:1024
  tmpccmr2 |= TIM_OCPreload;
    1466:	8ddd                	or	a1,a1,a5
C:/flushbonading/MounRiver/EXE/Libraries/Device/CH32V10x_p/CH32V10x_Lib/ch32v10x_tim.c:1025
  TIMx->CHCTLR2 = tmpccmr2;
    1468:	00b51e23          	sh	a1,28(a0)
C:/flushbonading/MounRiver/EXE/Libraries/Device/CH32V10x_p/CH32V10x_Lib/ch32v10x_tim.c:1026
}
    146c:	8082                	ret

0000146e <TIM_OC4PreloadConfig>:
TIM_OC4PreloadConfig():
C:/flushbonading/MounRiver/EXE/Libraries/Device/CH32V10x_p/CH32V10x_Lib/ch32v10x_tim.c:1041
*******************************************************************************/
void TIM_OC4PreloadConfig(TIM_TypeDef* TIMx, uint16_t TIM_OCPreload)
{
  uint16_t tmpccmr2 = 0;

  tmpccmr2 = TIMx->CHCTLR2;
    146e:	01c55703          	lhu	a4,28(a0)
C:/flushbonading/MounRiver/EXE/Libraries/Device/CH32V10x_p/CH32V10x_Lib/ch32v10x_tim.c:1042
  tmpccmr2 &= (uint16_t)~((uint16_t)TIM_OC4PE);
    1472:	77fd                	lui	a5,0xfffff
    1474:	7ff78793          	addi	a5,a5,2047 # fffff7ff <_eusrstack+0xdfffa7ff>
    1478:	8ff9                	and	a5,a5,a4
C:/flushbonading/MounRiver/EXE/Libraries/Device/CH32V10x_p/CH32V10x_Lib/ch32v10x_tim.c:1043
  tmpccmr2 |= (uint16_t)(TIM_OCPreload << 8);
    147a:	05a2                	slli	a1,a1,0x8
    147c:	8fcd                	or	a5,a5,a1
    147e:	07c2                	slli	a5,a5,0x10
    1480:	83c1                	srli	a5,a5,0x10
C:/flushbonading/MounRiver/EXE/Libraries/Device/CH32V10x_p/CH32V10x_Lib/ch32v10x_tim.c:1044
  TIMx->CHCTLR2 = tmpccmr2;
    1482:	00f51e23          	sh	a5,28(a0)
C:/flushbonading/MounRiver/EXE/Libraries/Device/CH32V10x_p/CH32V10x_Lib/ch32v10x_tim.c:1045
}
    1486:	8082                	ret

00001488 <TIM_GetITStatus>:
TIM_GetITStatus():
C:/flushbonading/MounRiver/EXE/Libraries/Device/CH32V10x_p/CH32V10x_Lib/ch32v10x_tim.c:1857
ITStatus TIM_GetITStatus(TIM_TypeDef* TIMx, uint16_t TIM_IT)
{
  ITStatus bitstatus = RESET;  
  uint16_t itstatus = 0x0, itenable = 0x0;
   
  itstatus = TIMx->INTFR & TIM_IT;
    1488:	01055783          	lhu	a5,16(a0)
C:/flushbonading/MounRiver/EXE/Libraries/Device/CH32V10x_p/CH32V10x_Lib/ch32v10x_tim.c:1859
  
  itenable = TIMx->DMAINTENR & TIM_IT;
    148c:	00c55503          	lhu	a0,12(a0)
C:/flushbonading/MounRiver/EXE/Libraries/Device/CH32V10x_p/CH32V10x_Lib/ch32v10x_tim.c:1860
  if ((itstatus != (uint16_t)RESET) && (itenable != (uint16_t)RESET))
    1490:	8fed                	and	a5,a5,a1
C:/flushbonading/MounRiver/EXE/Libraries/Device/CH32V10x_p/CH32V10x_Lib/ch32v10x_tim.c:1859
  itenable = TIMx->DMAINTENR & TIM_IT;
    1492:	0542                	slli	a0,a0,0x10
    1494:	8141                	srli	a0,a0,0x10
C:/flushbonading/MounRiver/EXE/Libraries/Device/CH32V10x_p/CH32V10x_Lib/ch32v10x_tim.c:1860
  if ((itstatus != (uint16_t)RESET) && (itenable != (uint16_t)RESET))
    1496:	c789                	beqz	a5,14a0 <TIM_GetITStatus+0x18>
C:/flushbonading/MounRiver/EXE/Libraries/Device/CH32V10x_p/CH32V10x_Lib/ch32v10x_tim.c:1860 (discriminator 1)
    1498:	8d6d                	and	a0,a0,a1
    149a:	00a03533          	snez	a0,a0
    149e:	8082                	ret
C:/flushbonading/MounRiver/EXE/Libraries/Device/CH32V10x_p/CH32V10x_Lib/ch32v10x_tim.c:1866
  {
    bitstatus = SET;
  }
  else
  {
    bitstatus = RESET;
    14a0:	4501                	li	a0,0
C:/flushbonading/MounRiver/EXE/Libraries/Device/CH32V10x_p/CH32V10x_Lib/ch32v10x_tim.c:1870
  }
	
  return bitstatus;
}
    14a2:	8082                	ret

000014a4 <TIM_ClearITPendingBit>:
TIM_ClearITPendingBit():
    14a4:	fff5c593          	not	a1,a1
    14a8:	05c2                	slli	a1,a1,0x10
    14aa:	81c1                	srli	a1,a1,0x10
    14ac:	00b51823          	sh	a1,16(a0)
    14b0:	8082                	ret

000014b2 <USART_Init>:
USART_Init():
C:/flushbonading/MounRiver/EXE/Libraries/Device/CH32V10x_p/CH32V10x_Lib/ch32v10x_usart.c:117
  if (USART_InitStruct->USART_HardwareFlowControl != USART_HardwareFlowControl_None)
  {
  }

  usartxbase = (uint32_t)USARTx;
  tmpreg = USARTx->CTLR2;
    14b2:	01055683          	lhu	a3,16(a0)
    14b6:	77f5                	lui	a5,0xffffd
    14b8:	17fd                	addi	a5,a5,-1
    14ba:	8ff5                	and	a5,a5,a3
    14bc:	0065d683          	lhu	a3,6(a1)
C:/flushbonading/MounRiver/EXE/Libraries/Device/CH32V10x_p/CH32V10x_Lib/ch32v10x_usart.c:105
{
    14c0:	7139                	addi	sp,sp,-64
    14c2:	dc22                	sw	s0,56(sp)
    14c4:	de06                	sw	ra,60(sp)
    14c6:	8fd5                	or	a5,a5,a3
C:/flushbonading/MounRiver/EXE/Libraries/Device/CH32V10x_p/CH32V10x_Lib/ch32v10x_usart.c:112
  if (USART_InitStruct->USART_HardwareFlowControl != USART_HardwareFlowControl_None)
    14c8:	00c5d703          	lhu	a4,12(a1)
C:/flushbonading/MounRiver/EXE/Libraries/Device/CH32V10x_p/CH32V10x_Lib/ch32v10x_usart.c:121
  tmpreg &= CTLR2_STOP_CLEAR_Mask;
  tmpreg |= (uint32_t)USART_InitStruct->USART_StopBits;  
	
  USARTx->CTLR2 = (uint16_t)tmpreg;
    14cc:	00f51823          	sh	a5,16(a0)
C:/flushbonading/MounRiver/EXE/Libraries/Device/CH32V10x_p/CH32V10x_Lib/ch32v10x_usart.c:122
  tmpreg = USARTx->CTLR1;
    14d0:	00c55683          	lhu	a3,12(a0)
C:/flushbonading/MounRiver/EXE/Libraries/Device/CH32V10x_p/CH32V10x_Lib/ch32v10x_usart.c:124
  tmpreg &= CTLR1_CLEAR_Mask;
  tmpreg |= (uint32_t)USART_InitStruct->USART_WordLength | USART_InitStruct->USART_Parity |
    14d4:	77fd                	lui	a5,0xfffff
    14d6:	9f378793          	addi	a5,a5,-1549 # ffffe9f3 <_eusrstack+0xdfff99f3>
    14da:	8ff5                	and	a5,a5,a3
    14dc:	0045d683          	lhu	a3,4(a1)
C:/flushbonading/MounRiver/EXE/Libraries/Device/CH32V10x_p/CH32V10x_Lib/ch32v10x_usart.c:105
{
    14e0:	842a                	mv	s0,a0
    14e2:	c62e                	sw	a1,12(sp)
    14e4:	8fd5                	or	a5,a5,a3
    14e6:	0085d683          	lhu	a3,8(a1)
    14ea:	8fd5                	or	a5,a5,a3
    14ec:	00a5d683          	lhu	a3,10(a1)
    14f0:	8fd5                	or	a5,a5,a3
C:/flushbonading/MounRiver/EXE/Libraries/Device/CH32V10x_p/CH32V10x_Lib/ch32v10x_usart.c:126
            USART_InitStruct->USART_Mode;
  USARTx->CTLR1 = (uint16_t)tmpreg;
    14f2:	00f51623          	sh	a5,12(a0)
C:/flushbonading/MounRiver/EXE/Libraries/Device/CH32V10x_p/CH32V10x_Lib/ch32v10x_usart.c:128
 
  tmpreg = USARTx->CTLR3;
    14f6:	01455783          	lhu	a5,20(a0)
    14fa:	07c2                	slli	a5,a5,0x10
    14fc:	83c1                	srli	a5,a5,0x10
C:/flushbonading/MounRiver/EXE/Libraries/Device/CH32V10x_p/CH32V10x_Lib/ch32v10x_usart.c:130
  tmpreg &= CTLR3_CLEAR_Mask;
  tmpreg |= USART_InitStruct->USART_HardwareFlowControl;
    14fe:	cff7f793          	andi	a5,a5,-769
    1502:	8fd9                	or	a5,a5,a4
C:/flushbonading/MounRiver/EXE/Libraries/Device/CH32V10x_p/CH32V10x_Lib/ch32v10x_usart.c:131
  USARTx->CTLR3 = (uint16_t)tmpreg;
    1504:	00f51a23          	sh	a5,20(a0)
C:/flushbonading/MounRiver/EXE/Libraries/Device/CH32V10x_p/CH32V10x_Lib/ch32v10x_usart.c:133

  RCC_GetClocksFreq(&RCC_ClocksStatus);
    1508:	0868                	addi	a0,sp,28
    150a:	3e31                	jal	1026 <RCC_GetClocksFreq>
C:/flushbonading/MounRiver/EXE/Libraries/Device/CH32V10x_p/CH32V10x_Lib/ch32v10x_usart.c:135
	
  if (usartxbase == USART1_BASE)
    150c:	400147b7          	lui	a5,0x40014
    1510:	80078793          	addi	a5,a5,-2048 # 40013800 <_eusrstack+0x2000e800>
    1514:	45b2                	lw	a1,12(sp)
    1516:	04f41e63          	bne	s0,a5,1572 <USART_Init+0xc0>
C:/flushbonading/MounRiver/EXE/Libraries/Device/CH32V10x_p/CH32V10x_Lib/ch32v10x_usart.c:137
  {
    apbclock = RCC_ClocksStatus.PCLK2_Frequency;
    151a:	57a2                	lw	a5,40(sp)
C:/flushbonading/MounRiver/EXE/Libraries/Device/CH32V10x_p/CH32V10x_Lib/ch32v10x_usart.c:144
  else
  {
    apbclock = RCC_ClocksStatus.PCLK1_Frequency;
  }
  
  if ((USARTx->CTLR1 & CTLR1_OVER8_Set) != 0)
    151c:	00c45683          	lhu	a3,12(s0)
    1520:	4765                	li	a4,25
    1522:	02e787b3          	mul	a5,a5,a4
    1526:	06c2                	slli	a3,a3,0x10
    1528:	86c1                	srai	a3,a3,0x10
    152a:	4198                	lw	a4,0(a1)
    152c:	0406d563          	bgez	a3,1576 <USART_Init+0xc4>
C:/flushbonading/MounRiver/EXE/Libraries/Device/CH32V10x_p/CH32V10x_Lib/ch32v10x_usart.c:146
  {
    integerdivider = ((25 * apbclock) / (2 * (USART_InitStruct->USART_BaudRate)));    
    1530:	0706                	slli	a4,a4,0x1
C:/flushbonading/MounRiver/EXE/Libraries/Device/CH32V10x_p/CH32V10x_Lib/ch32v10x_usart.c:156
  }
  tmpreg = (integerdivider / 100) << 4;

  fractionaldivider = integerdivider - (100 * (tmpreg >> 4));

  if ((USARTx->CTLR1 & CTLR1_OVER8_Set) != 0)
    1532:	00c45603          	lhu	a2,12(s0)
    1536:	0642                	slli	a2,a2,0x10
C:/flushbonading/MounRiver/EXE/Libraries/Device/CH32V10x_p/CH32V10x_Lib/ch32v10x_usart.c:150
    integerdivider = ((25 * apbclock) / (4 * (USART_InitStruct->USART_BaudRate)));    
    1538:	02e7d7b3          	divu	a5,a5,a4
C:/flushbonading/MounRiver/EXE/Libraries/Device/CH32V10x_p/CH32V10x_Lib/ch32v10x_usart.c:152
  tmpreg = (integerdivider / 100) << 4;
    153c:	06400713          	li	a4,100
C:/flushbonading/MounRiver/EXE/Libraries/Device/CH32V10x_p/CH32V10x_Lib/ch32v10x_usart.c:156
  if ((USARTx->CTLR1 & CTLR1_OVER8_Set) != 0)
    1540:	8641                	srai	a2,a2,0x10
C:/flushbonading/MounRiver/EXE/Libraries/Device/CH32V10x_p/CH32V10x_Lib/ch32v10x_usart.c:152
  tmpreg = (integerdivider / 100) << 4;
    1542:	02e7d6b3          	divu	a3,a5,a4
    1546:	02e7f7b3          	remu	a5,a5,a4
    154a:	0692                	slli	a3,a3,0x4
C:/flushbonading/MounRiver/EXE/Libraries/Device/CH32V10x_p/CH32V10x_Lib/ch32v10x_usart.c:156
  if ((USARTx->CTLR1 & CTLR1_OVER8_Set) != 0)
    154c:	02065763          	bgez	a2,157a <USART_Init+0xc8>
C:/flushbonading/MounRiver/EXE/Libraries/Device/CH32V10x_p/CH32V10x_Lib/ch32v10x_usart.c:158
  {
    tmpreg |= ((((fractionaldivider * 8) + 50) / 100)) & ((uint8_t)0x07);
    1550:	078e                	slli	a5,a5,0x3
    1552:	03278793          	addi	a5,a5,50
    1556:	02e7d7b3          	divu	a5,a5,a4
    155a:	0077f713          	andi	a4,a5,7
    155e:	00d767b3          	or	a5,a4,a3
C:/flushbonading/MounRiver/EXE/Libraries/Device/CH32V10x_p/CH32V10x_Lib/ch32v10x_usart.c:165
  else 
  {
    tmpreg |= ((((fractionaldivider * 16) + 50) / 100)) & ((uint8_t)0x0F);
  }
  
  USARTx->BRR = (uint16_t)tmpreg;
    1562:	07c2                	slli	a5,a5,0x10
    1564:	83c1                	srli	a5,a5,0x10
    1566:	00f41423          	sh	a5,8(s0)
C:/flushbonading/MounRiver/EXE/Libraries/Device/CH32V10x_p/CH32V10x_Lib/ch32v10x_usart.c:166
}
    156a:	50f2                	lw	ra,60(sp)
    156c:	5462                	lw	s0,56(sp)
    156e:	6121                	addi	sp,sp,64
    1570:	8082                	ret
C:/flushbonading/MounRiver/EXE/Libraries/Device/CH32V10x_p/CH32V10x_Lib/ch32v10x_usart.c:141
    apbclock = RCC_ClocksStatus.PCLK1_Frequency;
    1572:	5792                	lw	a5,36(sp)
    1574:	b765                	j	151c <USART_Init+0x6a>
C:/flushbonading/MounRiver/EXE/Libraries/Device/CH32V10x_p/CH32V10x_Lib/ch32v10x_usart.c:150
    integerdivider = ((25 * apbclock) / (4 * (USART_InitStruct->USART_BaudRate)));    
    1576:	070a                	slli	a4,a4,0x2
    1578:	bf6d                	j	1532 <USART_Init+0x80>
C:/flushbonading/MounRiver/EXE/Libraries/Device/CH32V10x_p/CH32V10x_Lib/ch32v10x_usart.c:162
    tmpreg |= ((((fractionaldivider * 16) + 50) / 100)) & ((uint8_t)0x0F);
    157a:	0792                	slli	a5,a5,0x4
    157c:	03278793          	addi	a5,a5,50
    1580:	02e7d7b3          	divu	a5,a5,a4
    1584:	8bbd                	andi	a5,a5,15
    1586:	8fd5                	or	a5,a5,a3
    1588:	bfe9                	j	1562 <USART_Init+0xb0>

0000158a <USART_Cmd>:
USART_Cmd():
C:/flushbonading/MounRiver/EXE/Libraries/Device/CH32V10x_p/CH32V10x_Lib/ch32v10x_usart.c:230
*                  NewState: ENABLE or DISABLE.
* Return         : None
*******************************************************************************/
void USART_Cmd(USART_TypeDef* USARTx, FunctionalState NewState)
{
  if (NewState != DISABLE)
    158a:	c981                	beqz	a1,159a <USART_Cmd+0x10>
C:/flushbonading/MounRiver/EXE/Libraries/Device/CH32V10x_p/CH32V10x_Lib/ch32v10x_usart.c:232
  {
    USARTx->CTLR1 |= CTLR1_UE_Set;
    158c:	00c55783          	lhu	a5,12(a0)
    1590:	6709                	lui	a4,0x2
    1592:	8fd9                	or	a5,a5,a4
C:/flushbonading/MounRiver/EXE/Libraries/Device/CH32V10x_p/CH32V10x_Lib/ch32v10x_usart.c:236
  }
  else
  {
    USARTx->CTLR1 &= CTLR1_UE_Reset;
    1594:	00f51623          	sh	a5,12(a0)
C:/flushbonading/MounRiver/EXE/Libraries/Device/CH32V10x_p/CH32V10x_Lib/ch32v10x_usart.c:238
  }
}
    1598:	8082                	ret
C:/flushbonading/MounRiver/EXE/Libraries/Device/CH32V10x_p/CH32V10x_Lib/ch32v10x_usart.c:236
    USARTx->CTLR1 &= CTLR1_UE_Reset;
    159a:	00c55703          	lhu	a4,12(a0)
    159e:	77f9                	lui	a5,0xffffe
    15a0:	17fd                	addi	a5,a5,-1
    15a2:	8ff9                	and	a5,a5,a4
    15a4:	bfc5                	j	1594 <USART_Cmd+0xa>

000015a6 <USART_SendData>:
USART_SendData():
C:/flushbonading/MounRiver/EXE/Libraries/Device/CH32V10x_p/CH32V10x_Lib/ch32v10x_usart.c:405
*                  Data: the data to transmit..
* Return         : None
*******************************************************************************/
void USART_SendData(USART_TypeDef* USARTx, uint16_t Data)
{
  USARTx->DATAR = (Data & (uint16_t)0x01FF);
    15a6:	1ff5f593          	andi	a1,a1,511
    15aa:	00b51223          	sh	a1,4(a0)
C:/flushbonading/MounRiver/EXE/Libraries/Device/CH32V10x_p/CH32V10x_Lib/ch32v10x_usart.c:406
}
    15ae:	8082                	ret

000015b0 <USART_GetFlagStatus>:
USART_GetFlagStatus():
C:/flushbonading/MounRiver/EXE/Libraries/Device/CH32V10x_p/CH32V10x_Lib/ch32v10x_usart.c:610

  if (USART_FLAG == USART_FLAG_CTS)
  {
  }  
  
  if ((USARTx->STATR & USART_FLAG) != (uint16_t)RESET)
    15b0:	00055503          	lhu	a0,0(a0)
    15b4:	8d6d                	and	a0,a0,a1
C:/flushbonading/MounRiver/EXE/Libraries/Device/CH32V10x_p/CH32V10x_Lib/ch32v10x_usart.c:619
  else
  {
    bitstatus = RESET;
  }
  return bitstatus;
}
    15b6:	00a03533          	snez	a0,a0
    15ba:	8082                	ret

000015bc <USART_GetITStatus>:
USART_GetITStatus():
C:/flushbonading/MounRiver/EXE/Libraries/Device/CH32V10x_p/CH32V10x_Lib/ch32v10x_usart.c:668

  if (USART_IT == USART_IT_CTS)
  {
  }   
  
  usartreg = (((uint8_t)USART_IT) >> 0x05);
    15bc:	0ff5f713          	andi	a4,a1,255
C:/flushbonading/MounRiver/EXE/Libraries/Device/CH32V10x_p/CH32V10x_Lib/ch32v10x_usart.c:670
  itmask = USART_IT & IT_Mask;
  itmask = (uint32_t)0x01 << itmask;
    15c0:	4685                	li	a3,1
C:/flushbonading/MounRiver/EXE/Libraries/Device/CH32V10x_p/CH32V10x_Lib/ch32v10x_usart.c:668
  usartreg = (((uint8_t)USART_IT) >> 0x05);
    15c2:	8315                	srli	a4,a4,0x5
C:/flushbonading/MounRiver/EXE/Libraries/Device/CH32V10x_p/CH32V10x_Lib/ch32v10x_usart.c:670
  itmask = (uint32_t)0x01 << itmask;
    15c4:	00b697b3          	sll	a5,a3,a1
C:/flushbonading/MounRiver/EXE/Libraries/Device/CH32V10x_p/CH32V10x_Lib/ch32v10x_usart.c:672
  
  if (usartreg == 0x01) 
    15c8:	02d71363          	bne	a4,a3,15ee <USART_GetITStatus+0x32>
C:/flushbonading/MounRiver/EXE/Libraries/Device/CH32V10x_p/CH32V10x_Lib/ch32v10x_usart.c:674
  {
    itmask &= USARTx->CTLR1;
    15cc:	00c55703          	lhu	a4,12(a0)
C:/flushbonading/MounRiver/EXE/Libraries/Device/CH32V10x_p/CH32V10x_Lib/ch32v10x_usart.c:682
  {
    itmask &= USARTx->CTLR2;
  }
  else 
  {
    itmask &= USARTx->CTLR3;
    15d0:	8ff9                	and	a5,a5,a4
C:/flushbonading/MounRiver/EXE/Libraries/Device/CH32V10x_p/CH32V10x_Lib/ch32v10x_usart.c:687
  }
  
  bitpos = USART_IT >> 0x08;
  bitpos = (uint32_t)0x01 << bitpos;
  bitpos &= USARTx->STATR;
    15d2:	00055703          	lhu	a4,0(a0)
C:/flushbonading/MounRiver/EXE/Libraries/Device/CH32V10x_p/CH32V10x_Lib/ch32v10x_usart.c:695
  {
    bitstatus = SET;
  }
  else
  {
    bitstatus = RESET;
    15d6:	4501                	li	a0,0
C:/flushbonading/MounRiver/EXE/Libraries/Device/CH32V10x_p/CH32V10x_Lib/ch32v10x_usart.c:687
  bitpos &= USARTx->STATR;
    15d8:	0742                	slli	a4,a4,0x10
    15da:	8341                	srli	a4,a4,0x10
C:/flushbonading/MounRiver/EXE/Libraries/Device/CH32V10x_p/CH32V10x_Lib/ch32v10x_usart.c:689
  if ((itmask != (uint16_t)RESET)&&(bitpos != (uint16_t)RESET))
    15dc:	cb81                	beqz	a5,15ec <USART_GetITStatus+0x30>
C:/flushbonading/MounRiver/EXE/Libraries/Device/CH32V10x_p/CH32V10x_Lib/ch32v10x_usart.c:686 (discriminator 1)
  bitpos = (uint32_t)0x01 << bitpos;
    15de:	4505                	li	a0,1
C:/flushbonading/MounRiver/EXE/Libraries/Device/CH32V10x_p/CH32V10x_Lib/ch32v10x_usart.c:685 (discriminator 1)
  bitpos = USART_IT >> 0x08;
    15e0:	81a1                	srli	a1,a1,0x8
C:/flushbonading/MounRiver/EXE/Libraries/Device/CH32V10x_p/CH32V10x_Lib/ch32v10x_usart.c:686 (discriminator 1)
  bitpos = (uint32_t)0x01 << bitpos;
    15e2:	00b515b3          	sll	a1,a0,a1
C:/flushbonading/MounRiver/EXE/Libraries/Device/CH32V10x_p/CH32V10x_Lib/ch32v10x_usart.c:687 (discriminator 1)
  bitpos &= USARTx->STATR;
    15e6:	8f6d                	and	a4,a4,a1
C:/flushbonading/MounRiver/EXE/Libraries/Device/CH32V10x_p/CH32V10x_Lib/ch32v10x_usart.c:689 (discriminator 1)
  if ((itmask != (uint16_t)RESET)&&(bitpos != (uint16_t)RESET))
    15e8:	00e03533          	snez	a0,a4
C:/flushbonading/MounRiver/EXE/Libraries/Device/CH32V10x_p/CH32V10x_Lib/ch32v10x_usart.c:699
  }
  
  return bitstatus;  
}
    15ec:	8082                	ret
C:/flushbonading/MounRiver/EXE/Libraries/Device/CH32V10x_p/CH32V10x_Lib/ch32v10x_usart.c:676
  else if (usartreg == 0x02) 
    15ee:	4689                	li	a3,2
    15f0:	00d71563          	bne	a4,a3,15fa <USART_GetITStatus+0x3e>
C:/flushbonading/MounRiver/EXE/Libraries/Device/CH32V10x_p/CH32V10x_Lib/ch32v10x_usart.c:678
    itmask &= USARTx->CTLR2;
    15f4:	01055703          	lhu	a4,16(a0)
    15f8:	bfe1                	j	15d0 <USART_GetITStatus+0x14>
C:/flushbonading/MounRiver/EXE/Libraries/Device/CH32V10x_p/CH32V10x_Lib/ch32v10x_usart.c:682
    itmask &= USARTx->CTLR3;
    15fa:	01455703          	lhu	a4,20(a0)
    15fe:	bfc9                	j	15d0 <USART_GetITStatus+0x14>

00001600 <USART_ClearITPendingBit>:
USART_ClearITPendingBit():
C:/flushbonading/MounRiver/EXE/Libraries/Device/CH32V10x_p/CH32V10x_Lib/ch32v10x_usart.c:721
  if (USART_IT == USART_IT_CTS)
  {
  }   
  
  bitpos = USART_IT >> 0x08;
  itmask = ((uint16_t)0x01 << (uint16_t)bitpos);
    1600:	81a1                	srli	a1,a1,0x8
    1602:	4785                	li	a5,1
    1604:	00b797b3          	sll	a5,a5,a1
C:/flushbonading/MounRiver/EXE/Libraries/Device/CH32V10x_p/CH32V10x_Lib/ch32v10x_usart.c:722
  USARTx->STATR = (uint16_t)~itmask;
    1608:	fff7c793          	not	a5,a5
    160c:	07c2                	slli	a5,a5,0x10
    160e:	83c1                	srli	a5,a5,0x10
    1610:	00f51023          	sh	a5,0(a0)
C:/flushbonading/MounRiver/EXE/Libraries/Device/CH32V10x_p/CH32V10x_Lib/ch32v10x_usart.c:723
}
    1614:	8082                	ret

00001616 <_puts_r>:
_puts_r():
    1616:	1101                	addi	sp,sp,-32
    1618:	ca26                	sw	s1,20(sp)
    161a:	c84a                	sw	s2,16(sp)
    161c:	ce06                	sw	ra,28(sp)
    161e:	cc22                	sw	s0,24(sp)
    1620:	c64e                	sw	s3,12(sp)
    1622:	c452                	sw	s4,8(sp)
    1624:	84aa                	mv	s1,a0
    1626:	892e                	mv	s2,a1
    1628:	c501                	beqz	a0,1630 <_puts_r+0x1a>
    162a:	4d1c                	lw	a5,24(a0)
    162c:	e391                	bnez	a5,1630 <_puts_r+0x1a>
    162e:	29ed                	jal	1b28 <__sinit>
    1630:	4c9c                	lw	a5,24(s1)
    1632:	4480                	lw	s0,8(s1)
    1634:	e399                	bnez	a5,163a <_puts_r+0x24>
    1636:	8526                	mv	a0,s1
    1638:	29c5                	jal	1b28 <__sinit>
    163a:	00001797          	auipc	a5,0x1
    163e:	b7278793          	addi	a5,a5,-1166 # 21ac <__sf_fake_stdin>
    1642:	02f41c63          	bne	s0,a5,167a <_puts_r+0x64>
    1646:	40c0                	lw	s0,4(s1)
    1648:	00c45783          	lhu	a5,12(s0)
    164c:	8ba1                	andi	a5,a5,8
    164e:	c7b1                	beqz	a5,169a <_puts_r+0x84>
    1650:	481c                	lw	a5,16(s0)
    1652:	c7a1                	beqz	a5,169a <_puts_r+0x84>
    1654:	59fd                	li	s3,-1
    1656:	4a29                	li	s4,10
    1658:	441c                	lw	a5,8(s0)
    165a:	00094583          	lbu	a1,0(s2)
    165e:	17fd                	addi	a5,a5,-1
    1660:	e9b1                	bnez	a1,16b4 <_puts_r+0x9e>
    1662:	c41c                	sw	a5,8(s0)
    1664:	0607de63          	bgez	a5,16e0 <_puts_r+0xca>
    1668:	8622                	mv	a2,s0
    166a:	45a9                	li	a1,10
    166c:	8526                	mv	a0,s1
    166e:	2841                	jal	16fe <__swbuf_r>
    1670:	57fd                	li	a5,-1
    1672:	02f50863          	beq	a0,a5,16a2 <_puts_r+0x8c>
    1676:	4529                	li	a0,10
    1678:	a035                	j	16a4 <_puts_r+0x8e>
    167a:	00001797          	auipc	a5,0x1
    167e:	b5278793          	addi	a5,a5,-1198 # 21cc <__sf_fake_stdout>
    1682:	00f41463          	bne	s0,a5,168a <_puts_r+0x74>
    1686:	4480                	lw	s0,8(s1)
    1688:	b7c1                	j	1648 <_puts_r+0x32>
    168a:	00001797          	auipc	a5,0x1
    168e:	b0278793          	addi	a5,a5,-1278 # 218c <__sf_fake_stderr>
    1692:	faf41be3          	bne	s0,a5,1648 <_puts_r+0x32>
    1696:	44c0                	lw	s0,12(s1)
    1698:	bf45                	j	1648 <_puts_r+0x32>
    169a:	85a2                	mv	a1,s0
    169c:	8526                	mv	a0,s1
    169e:	2205                	jal	17be <__swsetup_r>
    16a0:	d955                	beqz	a0,1654 <_puts_r+0x3e>
    16a2:	557d                	li	a0,-1
    16a4:	40f2                	lw	ra,28(sp)
    16a6:	4462                	lw	s0,24(sp)
    16a8:	44d2                	lw	s1,20(sp)
    16aa:	4942                	lw	s2,16(sp)
    16ac:	49b2                	lw	s3,12(sp)
    16ae:	4a22                	lw	s4,8(sp)
    16b0:	6105                	addi	sp,sp,32
    16b2:	8082                	ret
    16b4:	c41c                	sw	a5,8(s0)
    16b6:	0905                	addi	s2,s2,1
    16b8:	0007d763          	bgez	a5,16c6 <_puts_r+0xb0>
    16bc:	4c18                	lw	a4,24(s0)
    16be:	00e7cb63          	blt	a5,a4,16d4 <_puts_r+0xbe>
    16c2:	01458963          	beq	a1,s4,16d4 <_puts_r+0xbe>
    16c6:	401c                	lw	a5,0(s0)
    16c8:	00178713          	addi	a4,a5,1
    16cc:	c018                	sw	a4,0(s0)
    16ce:	00b78023          	sb	a1,0(a5)
    16d2:	b759                	j	1658 <_puts_r+0x42>
    16d4:	8622                	mv	a2,s0
    16d6:	8526                	mv	a0,s1
    16d8:	201d                	jal	16fe <__swbuf_r>
    16da:	f7351fe3          	bne	a0,s3,1658 <_puts_r+0x42>
    16de:	b7d1                	j	16a2 <_puts_r+0x8c>
    16e0:	401c                	lw	a5,0(s0)
    16e2:	00178713          	addi	a4,a5,1
    16e6:	c018                	sw	a4,0(s0)
    16e8:	4729                	li	a4,10
    16ea:	00e78023          	sb	a4,0(a5)
    16ee:	b761                	j	1676 <_puts_r+0x60>

000016f0 <puts>:
puts():
    16f0:	1ffff797          	auipc	a5,0x1ffff
    16f4:	98478793          	addi	a5,a5,-1660 # 20000074 <_impure_ptr>
    16f8:	85aa                	mv	a1,a0
    16fa:	4388                	lw	a0,0(a5)
    16fc:	bf29                	j	1616 <_puts_r>

000016fe <__swbuf_r>:
__swbuf_r():
    16fe:	1101                	addi	sp,sp,-32
    1700:	cc22                	sw	s0,24(sp)
    1702:	ca26                	sw	s1,20(sp)
    1704:	c84a                	sw	s2,16(sp)
    1706:	ce06                	sw	ra,28(sp)
    1708:	c64e                	sw	s3,12(sp)
    170a:	84aa                	mv	s1,a0
    170c:	892e                	mv	s2,a1
    170e:	8432                	mv	s0,a2
    1710:	c501                	beqz	a0,1718 <__swbuf_r+0x1a>
    1712:	4d1c                	lw	a5,24(a0)
    1714:	e391                	bnez	a5,1718 <__swbuf_r+0x1a>
    1716:	2909                	jal	1b28 <__sinit>
    1718:	00001797          	auipc	a5,0x1
    171c:	a9478793          	addi	a5,a5,-1388 # 21ac <__sf_fake_stdin>
    1720:	06f41963          	bne	s0,a5,1792 <__swbuf_r+0x94>
    1724:	40c0                	lw	s0,4(s1)
    1726:	4c1c                	lw	a5,24(s0)
    1728:	c41c                	sw	a5,8(s0)
    172a:	00c45783          	lhu	a5,12(s0)
    172e:	8ba1                	andi	a5,a5,8
    1730:	c3c9                	beqz	a5,17b2 <__swbuf_r+0xb4>
    1732:	481c                	lw	a5,16(s0)
    1734:	cfbd                	beqz	a5,17b2 <__swbuf_r+0xb4>
    1736:	481c                	lw	a5,16(s0)
    1738:	4008                	lw	a0,0(s0)
    173a:	0ff97993          	andi	s3,s2,255
    173e:	0ff97913          	andi	s2,s2,255
    1742:	8d1d                	sub	a0,a0,a5
    1744:	485c                	lw	a5,20(s0)
    1746:	00f54663          	blt	a0,a5,1752 <__swbuf_r+0x54>
    174a:	85a2                	mv	a1,s0
    174c:	8526                	mv	a0,s1
    174e:	2c75                	jal	1a0a <_fflush_r>
    1750:	e52d                	bnez	a0,17ba <__swbuf_r+0xbc>
    1752:	441c                	lw	a5,8(s0)
    1754:	0505                	addi	a0,a0,1
    1756:	17fd                	addi	a5,a5,-1
    1758:	c41c                	sw	a5,8(s0)
    175a:	401c                	lw	a5,0(s0)
    175c:	00178713          	addi	a4,a5,1
    1760:	c018                	sw	a4,0(s0)
    1762:	01378023          	sb	s3,0(a5)
    1766:	485c                	lw	a5,20(s0)
    1768:	00a78963          	beq	a5,a0,177a <__swbuf_r+0x7c>
    176c:	00c45783          	lhu	a5,12(s0)
    1770:	8b85                	andi	a5,a5,1
    1772:	cb81                	beqz	a5,1782 <__swbuf_r+0x84>
    1774:	47a9                	li	a5,10
    1776:	00f91663          	bne	s2,a5,1782 <__swbuf_r+0x84>
    177a:	85a2                	mv	a1,s0
    177c:	8526                	mv	a0,s1
    177e:	2471                	jal	1a0a <_fflush_r>
    1780:	ed0d                	bnez	a0,17ba <__swbuf_r+0xbc>
    1782:	40f2                	lw	ra,28(sp)
    1784:	4462                	lw	s0,24(sp)
    1786:	854a                	mv	a0,s2
    1788:	44d2                	lw	s1,20(sp)
    178a:	4942                	lw	s2,16(sp)
    178c:	49b2                	lw	s3,12(sp)
    178e:	6105                	addi	sp,sp,32
    1790:	8082                	ret
    1792:	00001797          	auipc	a5,0x1
    1796:	a3a78793          	addi	a5,a5,-1478 # 21cc <__sf_fake_stdout>
    179a:	00f41463          	bne	s0,a5,17a2 <__swbuf_r+0xa4>
    179e:	4480                	lw	s0,8(s1)
    17a0:	b759                	j	1726 <__swbuf_r+0x28>
    17a2:	00001797          	auipc	a5,0x1
    17a6:	9ea78793          	addi	a5,a5,-1558 # 218c <__sf_fake_stderr>
    17aa:	f6f41ee3          	bne	s0,a5,1726 <__swbuf_r+0x28>
    17ae:	44c0                	lw	s0,12(s1)
    17b0:	bf9d                	j	1726 <__swbuf_r+0x28>
    17b2:	85a2                	mv	a1,s0
    17b4:	8526                	mv	a0,s1
    17b6:	2021                	jal	17be <__swsetup_r>
    17b8:	dd3d                	beqz	a0,1736 <__swbuf_r+0x38>
    17ba:	597d                	li	s2,-1
    17bc:	b7d9                	j	1782 <__swbuf_r+0x84>

000017be <__swsetup_r>:
__swsetup_r():
    17be:	1141                	addi	sp,sp,-16
    17c0:	1ffff797          	auipc	a5,0x1ffff
    17c4:	8b478793          	addi	a5,a5,-1868 # 20000074 <_impure_ptr>
    17c8:	c226                	sw	s1,4(sp)
    17ca:	4384                	lw	s1,0(a5)
    17cc:	c422                	sw	s0,8(sp)
    17ce:	c04a                	sw	s2,0(sp)
    17d0:	c606                	sw	ra,12(sp)
    17d2:	892a                	mv	s2,a0
    17d4:	842e                	mv	s0,a1
    17d6:	c489                	beqz	s1,17e0 <__swsetup_r+0x22>
    17d8:	4c9c                	lw	a5,24(s1)
    17da:	e399                	bnez	a5,17e0 <__swsetup_r+0x22>
    17dc:	8526                	mv	a0,s1
    17de:	26a9                	jal	1b28 <__sinit>
    17e0:	00001797          	auipc	a5,0x1
    17e4:	9cc78793          	addi	a5,a5,-1588 # 21ac <__sf_fake_stdin>
    17e8:	02f41c63          	bne	s0,a5,1820 <__swsetup_r+0x62>
    17ec:	40c0                	lw	s0,4(s1)
    17ee:	00c41703          	lh	a4,12(s0)
    17f2:	01071793          	slli	a5,a4,0x10
    17f6:	83c1                	srli	a5,a5,0x10
    17f8:	0087f693          	andi	a3,a5,8
    17fc:	eeb5                	bnez	a3,1878 <__swsetup_r+0xba>
    17fe:	0107f693          	andi	a3,a5,16
    1802:	ee9d                	bnez	a3,1840 <__swsetup_r+0x82>
    1804:	47a5                	li	a5,9
    1806:	00f92023          	sw	a5,0(s2)
    180a:	04076713          	ori	a4,a4,64
    180e:	00e41623          	sh	a4,12(s0)
    1812:	557d                	li	a0,-1
    1814:	40b2                	lw	ra,12(sp)
    1816:	4422                	lw	s0,8(sp)
    1818:	4492                	lw	s1,4(sp)
    181a:	4902                	lw	s2,0(sp)
    181c:	0141                	addi	sp,sp,16
    181e:	8082                	ret
    1820:	00001797          	auipc	a5,0x1
    1824:	9ac78793          	addi	a5,a5,-1620 # 21cc <__sf_fake_stdout>
    1828:	00f41463          	bne	s0,a5,1830 <__swsetup_r+0x72>
    182c:	4480                	lw	s0,8(s1)
    182e:	b7c1                	j	17ee <__swsetup_r+0x30>
    1830:	00001797          	auipc	a5,0x1
    1834:	95c78793          	addi	a5,a5,-1700 # 218c <__sf_fake_stderr>
    1838:	faf41be3          	bne	s0,a5,17ee <__swsetup_r+0x30>
    183c:	44c0                	lw	s0,12(s1)
    183e:	bf45                	j	17ee <__swsetup_r+0x30>
    1840:	8b91                	andi	a5,a5,4
    1842:	c78d                	beqz	a5,186c <__swsetup_r+0xae>
    1844:	584c                	lw	a1,52(s0)
    1846:	c989                	beqz	a1,1858 <__swsetup_r+0x9a>
    1848:	04440793          	addi	a5,s0,68
    184c:	00f58463          	beq	a1,a5,1854 <__swsetup_r+0x96>
    1850:	854a                	mv	a0,s2
    1852:	2b25                	jal	1d8a <_free_r>
    1854:	02042a23          	sw	zero,52(s0)
    1858:	00c45783          	lhu	a5,12(s0)
    185c:	00042223          	sw	zero,4(s0)
    1860:	fdb7f793          	andi	a5,a5,-37
    1864:	00f41623          	sh	a5,12(s0)
    1868:	481c                	lw	a5,16(s0)
    186a:	c01c                	sw	a5,0(s0)
    186c:	00c45783          	lhu	a5,12(s0)
    1870:	0087e793          	ori	a5,a5,8
    1874:	00f41623          	sh	a5,12(s0)
    1878:	481c                	lw	a5,16(s0)
    187a:	ef81                	bnez	a5,1892 <__swsetup_r+0xd4>
    187c:	00c45783          	lhu	a5,12(s0)
    1880:	20000713          	li	a4,512
    1884:	2807f793          	andi	a5,a5,640
    1888:	00e78563          	beq	a5,a4,1892 <__swsetup_r+0xd4>
    188c:	85a2                	mv	a1,s0
    188e:	854a                	mv	a0,s2
    1890:	29b9                	jal	1cee <__smakebuf_r>
    1892:	00c45783          	lhu	a5,12(s0)
    1896:	0017f713          	andi	a4,a5,1
    189a:	c705                	beqz	a4,18c2 <__swsetup_r+0x104>
    189c:	485c                	lw	a5,20(s0)
    189e:	00042423          	sw	zero,8(s0)
    18a2:	40f007b3          	neg	a5,a5
    18a6:	cc1c                	sw	a5,24(s0)
    18a8:	481c                	lw	a5,16(s0)
    18aa:	4501                	li	a0,0
    18ac:	f7a5                	bnez	a5,1814 <__swsetup_r+0x56>
    18ae:	00c41783          	lh	a5,12(s0)
    18b2:	0807f713          	andi	a4,a5,128
    18b6:	df39                	beqz	a4,1814 <__swsetup_r+0x56>
    18b8:	0407e793          	ori	a5,a5,64
    18bc:	00f41623          	sh	a5,12(s0)
    18c0:	bf89                	j	1812 <__swsetup_r+0x54>
    18c2:	8b89                	andi	a5,a5,2
    18c4:	4701                	li	a4,0
    18c6:	e391                	bnez	a5,18ca <__swsetup_r+0x10c>
    18c8:	4858                	lw	a4,20(s0)
    18ca:	c418                	sw	a4,8(s0)
    18cc:	bff1                	j	18a8 <__swsetup_r+0xea>

000018ce <__sflush_r>:
__sflush_r():
    18ce:	00c5d783          	lhu	a5,12(a1)
    18d2:	1101                	addi	sp,sp,-32
    18d4:	cc22                	sw	s0,24(sp)
    18d6:	ca26                	sw	s1,20(sp)
    18d8:	ce06                	sw	ra,28(sp)
    18da:	c84a                	sw	s2,16(sp)
    18dc:	c64e                	sw	s3,12(sp)
    18de:	0087f713          	andi	a4,a5,8
    18e2:	84aa                	mv	s1,a0
    18e4:	842e                	mv	s0,a1
    18e6:	ef71                	bnez	a4,19c2 <__sflush_r+0xf4>
    18e8:	41d8                	lw	a4,4(a1)
    18ea:	00e04d63          	bgtz	a4,1904 <__sflush_r+0x36>
    18ee:	41b8                	lw	a4,64(a1)
    18f0:	00e04a63          	bgtz	a4,1904 <__sflush_r+0x36>
    18f4:	4501                	li	a0,0
    18f6:	40f2                	lw	ra,28(sp)
    18f8:	4462                	lw	s0,24(sp)
    18fa:	44d2                	lw	s1,20(sp)
    18fc:	4942                	lw	s2,16(sp)
    18fe:	49b2                	lw	s3,12(sp)
    1900:	6105                	addi	sp,sp,32
    1902:	8082                	ret
    1904:	5458                	lw	a4,44(s0)
    1906:	d77d                	beqz	a4,18f4 <__sflush_r+0x26>
    1908:	0004a903          	lw	s2,0(s1)
    190c:	01379693          	slli	a3,a5,0x13
    1910:	0004a023          	sw	zero,0(s1)
    1914:	0606dd63          	bgez	a3,198e <__sflush_r+0xc0>
    1918:	4870                	lw	a2,84(s0)
    191a:	00c45783          	lhu	a5,12(s0)
    191e:	8b91                	andi	a5,a5,4
    1920:	c799                	beqz	a5,192e <__sflush_r+0x60>
    1922:	405c                	lw	a5,4(s0)
    1924:	8e1d                	sub	a2,a2,a5
    1926:	585c                	lw	a5,52(s0)
    1928:	c399                	beqz	a5,192e <__sflush_r+0x60>
    192a:	403c                	lw	a5,64(s0)
    192c:	8e1d                	sub	a2,a2,a5
    192e:	545c                	lw	a5,44(s0)
    1930:	500c                	lw	a1,32(s0)
    1932:	4681                	li	a3,0
    1934:	8526                	mv	a0,s1
    1936:	9782                	jalr	a5
    1938:	57fd                	li	a5,-1
    193a:	00c45703          	lhu	a4,12(s0)
    193e:	00f51d63          	bne	a0,a5,1958 <__sflush_r+0x8a>
    1942:	4094                	lw	a3,0(s1)
    1944:	47f5                	li	a5,29
    1946:	06d7e863          	bltu	a5,a3,19b6 <__sflush_r+0xe8>
    194a:	204007b7          	lui	a5,0x20400
    194e:	0785                	addi	a5,a5,1
    1950:	00d7d7b3          	srl	a5,a5,a3
    1954:	8b85                	andi	a5,a5,1
    1956:	c3a5                	beqz	a5,19b6 <__sflush_r+0xe8>
    1958:	481c                	lw	a5,16(s0)
    195a:	00042223          	sw	zero,4(s0)
    195e:	c01c                	sw	a5,0(s0)
    1960:	01371793          	slli	a5,a4,0x13
    1964:	0007d863          	bgez	a5,1974 <__sflush_r+0xa6>
    1968:	57fd                	li	a5,-1
    196a:	00f51463          	bne	a0,a5,1972 <__sflush_r+0xa4>
    196e:	409c                	lw	a5,0(s1)
    1970:	e391                	bnez	a5,1974 <__sflush_r+0xa6>
    1972:	c868                	sw	a0,84(s0)
    1974:	584c                	lw	a1,52(s0)
    1976:	0124a023          	sw	s2,0(s1)
    197a:	ddad                	beqz	a1,18f4 <__sflush_r+0x26>
    197c:	04440793          	addi	a5,s0,68
    1980:	00f58463          	beq	a1,a5,1988 <__sflush_r+0xba>
    1984:	8526                	mv	a0,s1
    1986:	2111                	jal	1d8a <_free_r>
    1988:	02042a23          	sw	zero,52(s0)
    198c:	b7a5                	j	18f4 <__sflush_r+0x26>
    198e:	500c                	lw	a1,32(s0)
    1990:	4601                	li	a2,0
    1992:	4685                	li	a3,1
    1994:	8526                	mv	a0,s1
    1996:	9702                	jalr	a4
    1998:	57fd                	li	a5,-1
    199a:	862a                	mv	a2,a0
    199c:	f6f51fe3          	bne	a0,a5,191a <__sflush_r+0x4c>
    19a0:	409c                	lw	a5,0(s1)
    19a2:	dfa5                	beqz	a5,191a <__sflush_r+0x4c>
    19a4:	4775                	li	a4,29
    19a6:	00e78563          	beq	a5,a4,19b0 <__sflush_r+0xe2>
    19aa:	4759                	li	a4,22
    19ac:	04e79463          	bne	a5,a4,19f4 <__sflush_r+0x126>
    19b0:	0124a023          	sw	s2,0(s1)
    19b4:	b781                	j	18f4 <__sflush_r+0x26>
    19b6:	04076713          	ori	a4,a4,64
    19ba:	00e41623          	sh	a4,12(s0)
    19be:	557d                	li	a0,-1
    19c0:	bf1d                	j	18f6 <__sflush_r+0x28>
    19c2:	0105a983          	lw	s3,16(a1)
    19c6:	f20987e3          	beqz	s3,18f4 <__sflush_r+0x26>
    19ca:	0005a903          	lw	s2,0(a1)
    19ce:	8b8d                	andi	a5,a5,3
    19d0:	0135a023          	sw	s3,0(a1)
    19d4:	41390933          	sub	s2,s2,s3
    19d8:	4701                	li	a4,0
    19da:	e391                	bnez	a5,19de <__sflush_r+0x110>
    19dc:	49d8                	lw	a4,20(a1)
    19de:	c418                	sw	a4,8(s0)
    19e0:	f1205ae3          	blez	s2,18f4 <__sflush_r+0x26>
    19e4:	541c                	lw	a5,40(s0)
    19e6:	500c                	lw	a1,32(s0)
    19e8:	86ca                	mv	a3,s2
    19ea:	864e                	mv	a2,s3
    19ec:	8526                	mv	a0,s1
    19ee:	9782                	jalr	a5
    19f0:	00a04963          	bgtz	a0,1a02 <__sflush_r+0x134>
    19f4:	00c45783          	lhu	a5,12(s0)
    19f8:	0407e793          	ori	a5,a5,64
    19fc:	00f41623          	sh	a5,12(s0)
    1a00:	bf7d                	j	19be <__sflush_r+0xf0>
    1a02:	99aa                	add	s3,s3,a0
    1a04:	40a90933          	sub	s2,s2,a0
    1a08:	bfe1                	j	19e0 <__sflush_r+0x112>

00001a0a <_fflush_r>:
_fflush_r():
    1a0a:	499c                	lw	a5,16(a1)
    1a0c:	cfb9                	beqz	a5,1a6a <_fflush_r+0x60>
    1a0e:	1101                	addi	sp,sp,-32
    1a10:	cc22                	sw	s0,24(sp)
    1a12:	ce06                	sw	ra,28(sp)
    1a14:	842a                	mv	s0,a0
    1a16:	c511                	beqz	a0,1a22 <_fflush_r+0x18>
    1a18:	4d1c                	lw	a5,24(a0)
    1a1a:	e781                	bnez	a5,1a22 <_fflush_r+0x18>
    1a1c:	c62e                	sw	a1,12(sp)
    1a1e:	2229                	jal	1b28 <__sinit>
    1a20:	45b2                	lw	a1,12(sp)
    1a22:	00000797          	auipc	a5,0x0
    1a26:	78a78793          	addi	a5,a5,1930 # 21ac <__sf_fake_stdin>
    1a2a:	00f59b63          	bne	a1,a5,1a40 <_fflush_r+0x36>
    1a2e:	404c                	lw	a1,4(s0)
    1a30:	00c59783          	lh	a5,12(a1)
    1a34:	c795                	beqz	a5,1a60 <_fflush_r+0x56>
    1a36:	8522                	mv	a0,s0
    1a38:	4462                	lw	s0,24(sp)
    1a3a:	40f2                	lw	ra,28(sp)
    1a3c:	6105                	addi	sp,sp,32
    1a3e:	bd41                	j	18ce <__sflush_r>
    1a40:	00000797          	auipc	a5,0x0
    1a44:	78c78793          	addi	a5,a5,1932 # 21cc <__sf_fake_stdout>
    1a48:	00f59463          	bne	a1,a5,1a50 <_fflush_r+0x46>
    1a4c:	440c                	lw	a1,8(s0)
    1a4e:	b7cd                	j	1a30 <_fflush_r+0x26>
    1a50:	00000797          	auipc	a5,0x0
    1a54:	73c78793          	addi	a5,a5,1852 # 218c <__sf_fake_stderr>
    1a58:	fcf59ce3          	bne	a1,a5,1a30 <_fflush_r+0x26>
    1a5c:	444c                	lw	a1,12(s0)
    1a5e:	bfc9                	j	1a30 <_fflush_r+0x26>
    1a60:	40f2                	lw	ra,28(sp)
    1a62:	4462                	lw	s0,24(sp)
    1a64:	4501                	li	a0,0
    1a66:	6105                	addi	sp,sp,32
    1a68:	8082                	ret
    1a6a:	4501                	li	a0,0
    1a6c:	8082                	ret

00001a6e <std>:
std():
    1a6e:	1141                	addi	sp,sp,-16
    1a70:	c422                	sw	s0,8(sp)
    1a72:	c606                	sw	ra,12(sp)
    1a74:	842a                	mv	s0,a0
    1a76:	00b51623          	sh	a1,12(a0)
    1a7a:	00c51723          	sh	a2,14(a0)
    1a7e:	00052023          	sw	zero,0(a0)
    1a82:	00052223          	sw	zero,4(a0)
    1a86:	00052423          	sw	zero,8(a0)
    1a8a:	06052223          	sw	zero,100(a0)
    1a8e:	00052823          	sw	zero,16(a0)
    1a92:	00052a23          	sw	zero,20(a0)
    1a96:	00052c23          	sw	zero,24(a0)
    1a9a:	4621                	li	a2,8
    1a9c:	4581                	li	a1,0
    1a9e:	05c50513          	addi	a0,a0,92
    1aa2:	e9efe0ef          	jal	ra,140 <memset>
    1aa6:	00000797          	auipc	a5,0x0
    1aaa:	47e78793          	addi	a5,a5,1150 # 1f24 <__sread>
    1aae:	d05c                	sw	a5,36(s0)
    1ab0:	00000797          	auipc	a5,0x0
    1ab4:	4a478793          	addi	a5,a5,1188 # 1f54 <__swrite>
    1ab8:	d41c                	sw	a5,40(s0)
    1aba:	00000797          	auipc	a5,0x0
    1abe:	4e878793          	addi	a5,a5,1256 # 1fa2 <__sseek>
    1ac2:	d45c                	sw	a5,44(s0)
    1ac4:	00000797          	auipc	a5,0x0
    1ac8:	51478793          	addi	a5,a5,1300 # 1fd8 <__sclose>
    1acc:	d000                	sw	s0,32(s0)
    1ace:	d81c                	sw	a5,48(s0)
    1ad0:	40b2                	lw	ra,12(sp)
    1ad2:	4422                	lw	s0,8(sp)
    1ad4:	0141                	addi	sp,sp,16
    1ad6:	8082                	ret

00001ad8 <_cleanup_r>:
_cleanup_r():
    1ad8:	00000597          	auipc	a1,0x0
    1adc:	f3258593          	addi	a1,a1,-206 # 1a0a <_fflush_r>
    1ae0:	a2a9                	j	1c2a <_fwalk_reent>

00001ae2 <__sfmoreglue>:
__sfmoreglue():
    1ae2:	1141                	addi	sp,sp,-16
    1ae4:	c226                	sw	s1,4(sp)
    1ae6:	06800613          	li	a2,104
    1aea:	fff58493          	addi	s1,a1,-1
    1aee:	02c484b3          	mul	s1,s1,a2
    1af2:	c04a                	sw	s2,0(sp)
    1af4:	892e                	mv	s2,a1
    1af6:	c422                	sw	s0,8(sp)
    1af8:	c606                	sw	ra,12(sp)
    1afa:	07448593          	addi	a1,s1,116
    1afe:	2e05                	jal	1e2e <_malloc_r>
    1b00:	842a                	mv	s0,a0
    1b02:	cd01                	beqz	a0,1b1a <__sfmoreglue+0x38>
    1b04:	00052023          	sw	zero,0(a0)
    1b08:	01252223          	sw	s2,4(a0)
    1b0c:	0531                	addi	a0,a0,12
    1b0e:	c408                	sw	a0,8(s0)
    1b10:	06848613          	addi	a2,s1,104
    1b14:	4581                	li	a1,0
    1b16:	e2afe0ef          	jal	ra,140 <memset>
    1b1a:	8522                	mv	a0,s0
    1b1c:	40b2                	lw	ra,12(sp)
    1b1e:	4422                	lw	s0,8(sp)
    1b20:	4492                	lw	s1,4(sp)
    1b22:	4902                	lw	s2,0(sp)
    1b24:	0141                	addi	sp,sp,16
    1b26:	8082                	ret

00001b28 <__sinit>:
__sinit():
    1b28:	4d1c                	lw	a5,24(a0)
    1b2a:	e3ad                	bnez	a5,1b8c <__sinit+0x64>
    1b2c:	1141                	addi	sp,sp,-16
    1b2e:	c606                	sw	ra,12(sp)
    1b30:	c422                	sw	s0,8(sp)
    1b32:	00000797          	auipc	a5,0x0
    1b36:	fa678793          	addi	a5,a5,-90 # 1ad8 <_cleanup_r>
    1b3a:	d51c                	sw	a5,40(a0)
    1b3c:	80818793          	addi	a5,gp,-2040 # 20000078 <_global_impure_ptr>
    1b40:	439c                	lw	a5,0(a5)
    1b42:	04052423          	sw	zero,72(a0)
    1b46:	04052623          	sw	zero,76(a0)
    1b4a:	04052823          	sw	zero,80(a0)
    1b4e:	00f51463          	bne	a0,a5,1b56 <__sinit+0x2e>
    1b52:	4785                	li	a5,1
    1b54:	cd1c                	sw	a5,24(a0)
    1b56:	842a                	mv	s0,a0
    1b58:	281d                	jal	1b8e <__sfp>
    1b5a:	c048                	sw	a0,4(s0)
    1b5c:	8522                	mv	a0,s0
    1b5e:	2805                	jal	1b8e <__sfp>
    1b60:	c408                	sw	a0,8(s0)
    1b62:	8522                	mv	a0,s0
    1b64:	202d                	jal	1b8e <__sfp>
    1b66:	c448                	sw	a0,12(s0)
    1b68:	4048                	lw	a0,4(s0)
    1b6a:	4601                	li	a2,0
    1b6c:	4591                	li	a1,4
    1b6e:	3701                	jal	1a6e <std>
    1b70:	4408                	lw	a0,8(s0)
    1b72:	4605                	li	a2,1
    1b74:	45a5                	li	a1,9
    1b76:	3de5                	jal	1a6e <std>
    1b78:	4448                	lw	a0,12(s0)
    1b7a:	4609                	li	a2,2
    1b7c:	45c9                	li	a1,18
    1b7e:	3dc5                	jal	1a6e <std>
    1b80:	4785                	li	a5,1
    1b82:	cc1c                	sw	a5,24(s0)
    1b84:	40b2                	lw	ra,12(sp)
    1b86:	4422                	lw	s0,8(sp)
    1b88:	0141                	addi	sp,sp,16
    1b8a:	8082                	ret
    1b8c:	8082                	ret

00001b8e <__sfp>:
__sfp():
    1b8e:	1141                	addi	sp,sp,-16
    1b90:	80818793          	addi	a5,gp,-2040 # 20000078 <_global_impure_ptr>
    1b94:	c226                	sw	s1,4(sp)
    1b96:	4384                	lw	s1,0(a5)
    1b98:	c04a                	sw	s2,0(sp)
    1b9a:	c606                	sw	ra,12(sp)
    1b9c:	4c9c                	lw	a5,24(s1)
    1b9e:	c422                	sw	s0,8(sp)
    1ba0:	892a                	mv	s2,a0
    1ba2:	e399                	bnez	a5,1ba8 <__sfp+0x1a>
    1ba4:	8526                	mv	a0,s1
    1ba6:	3749                	jal	1b28 <__sinit>
    1ba8:	04848493          	addi	s1,s1,72
    1bac:	4480                	lw	s0,8(s1)
    1bae:	40dc                	lw	a5,4(s1)
    1bb0:	17fd                	addi	a5,a5,-1
    1bb2:	0007d663          	bgez	a5,1bbe <__sfp+0x30>
    1bb6:	409c                	lw	a5,0(s1)
    1bb8:	cfb9                	beqz	a5,1c16 <__sfp+0x88>
    1bba:	4084                	lw	s1,0(s1)
    1bbc:	bfc5                	j	1bac <__sfp+0x1e>
    1bbe:	00c41703          	lh	a4,12(s0)
    1bc2:	e739                	bnez	a4,1c10 <__sfp+0x82>
    1bc4:	77c1                	lui	a5,0xffff0
    1bc6:	0785                	addi	a5,a5,1
    1bc8:	06042223          	sw	zero,100(s0)
    1bcc:	00042023          	sw	zero,0(s0)
    1bd0:	00042223          	sw	zero,4(s0)
    1bd4:	00042423          	sw	zero,8(s0)
    1bd8:	c45c                	sw	a5,12(s0)
    1bda:	00042823          	sw	zero,16(s0)
    1bde:	00042a23          	sw	zero,20(s0)
    1be2:	00042c23          	sw	zero,24(s0)
    1be6:	4621                	li	a2,8
    1be8:	4581                	li	a1,0
    1bea:	05c40513          	addi	a0,s0,92
    1bee:	d52fe0ef          	jal	ra,140 <memset>
    1bf2:	02042a23          	sw	zero,52(s0)
    1bf6:	02042c23          	sw	zero,56(s0)
    1bfa:	04042423          	sw	zero,72(s0)
    1bfe:	04042623          	sw	zero,76(s0)
    1c02:	8522                	mv	a0,s0
    1c04:	40b2                	lw	ra,12(sp)
    1c06:	4422                	lw	s0,8(sp)
    1c08:	4492                	lw	s1,4(sp)
    1c0a:	4902                	lw	s2,0(sp)
    1c0c:	0141                	addi	sp,sp,16
    1c0e:	8082                	ret
    1c10:	06840413          	addi	s0,s0,104
    1c14:	bf71                	j	1bb0 <__sfp+0x22>
    1c16:	4591                	li	a1,4
    1c18:	854a                	mv	a0,s2
    1c1a:	35e1                	jal	1ae2 <__sfmoreglue>
    1c1c:	c088                	sw	a0,0(s1)
    1c1e:	fd51                	bnez	a0,1bba <__sfp+0x2c>
    1c20:	47b1                	li	a5,12
    1c22:	00f92023          	sw	a5,0(s2)
    1c26:	4401                	li	s0,0
    1c28:	bfe9                	j	1c02 <__sfp+0x74>

00001c2a <_fwalk_reent>:
_fwalk_reent():
    1c2a:	7179                	addi	sp,sp,-48
    1c2c:	d422                	sw	s0,40(sp)
    1c2e:	d04a                	sw	s2,32(sp)
    1c30:	cc52                	sw	s4,24(sp)
    1c32:	ca56                	sw	s5,20(sp)
    1c34:	c85a                	sw	s6,16(sp)
    1c36:	c65e                	sw	s7,12(sp)
    1c38:	d606                	sw	ra,44(sp)
    1c3a:	d226                	sw	s1,36(sp)
    1c3c:	ce4e                	sw	s3,28(sp)
    1c3e:	8a2a                	mv	s4,a0
    1c40:	8aae                	mv	s5,a1
    1c42:	04850413          	addi	s0,a0,72
    1c46:	4901                	li	s2,0
    1c48:	4b05                	li	s6,1
    1c4a:	5bfd                	li	s7,-1
    1c4c:	ec09                	bnez	s0,1c66 <_fwalk_reent+0x3c>
    1c4e:	50b2                	lw	ra,44(sp)
    1c50:	5422                	lw	s0,40(sp)
    1c52:	854a                	mv	a0,s2
    1c54:	5492                	lw	s1,36(sp)
    1c56:	5902                	lw	s2,32(sp)
    1c58:	49f2                	lw	s3,28(sp)
    1c5a:	4a62                	lw	s4,24(sp)
    1c5c:	4ad2                	lw	s5,20(sp)
    1c5e:	4b42                	lw	s6,16(sp)
    1c60:	4bb2                	lw	s7,12(sp)
    1c62:	6145                	addi	sp,sp,48
    1c64:	8082                	ret
    1c66:	4404                	lw	s1,8(s0)
    1c68:	00442983          	lw	s3,4(s0)
    1c6c:	19fd                	addi	s3,s3,-1
    1c6e:	0009d463          	bgez	s3,1c76 <_fwalk_reent+0x4c>
    1c72:	4000                	lw	s0,0(s0)
    1c74:	bfe1                	j	1c4c <_fwalk_reent+0x22>
    1c76:	00c4d783          	lhu	a5,12(s1)
    1c7a:	00fb7b63          	bgeu	s6,a5,1c90 <_fwalk_reent+0x66>
    1c7e:	00e49783          	lh	a5,14(s1)
    1c82:	01778763          	beq	a5,s7,1c90 <_fwalk_reent+0x66>
    1c86:	85a6                	mv	a1,s1
    1c88:	8552                	mv	a0,s4
    1c8a:	9a82                	jalr	s5
    1c8c:	00a96933          	or	s2,s2,a0
    1c90:	06848493          	addi	s1,s1,104
    1c94:	bfe1                	j	1c6c <_fwalk_reent+0x42>

00001c96 <__swhatbuf_r>:
__swhatbuf_r():
    1c96:	7119                	addi	sp,sp,-128
    1c98:	daa6                	sw	s1,116(sp)
    1c9a:	84ae                	mv	s1,a1
    1c9c:	00e59583          	lh	a1,14(a1)
    1ca0:	dca2                	sw	s0,120(sp)
    1ca2:	de86                	sw	ra,124(sp)
    1ca4:	8432                	mv	s0,a2
    1ca6:	0005dc63          	bgez	a1,1cbe <__swhatbuf_r+0x28>
    1caa:	00c4d783          	lhu	a5,12(s1)
    1cae:	0006a023          	sw	zero,0(a3) # ffffd000 <_eusrstack+0xdfff8000>
    1cb2:	0807f793          	andi	a5,a5,128
    1cb6:	e39d                	bnez	a5,1cdc <__swhatbuf_r+0x46>
    1cb8:	40000793          	li	a5,1024
    1cbc:	a015                	j	1ce0 <__swhatbuf_r+0x4a>
    1cbe:	0830                	addi	a2,sp,24
    1cc0:	c636                	sw	a3,12(sp)
    1cc2:	2e8d                	jal	2034 <_fstat_r>
    1cc4:	46b2                	lw	a3,12(sp)
    1cc6:	fe0542e3          	bltz	a0,1caa <__swhatbuf_r+0x14>
    1cca:	4772                	lw	a4,28(sp)
    1ccc:	67bd                	lui	a5,0xf
    1cce:	8ff9                	and	a5,a5,a4
    1cd0:	7779                	lui	a4,0xffffe
    1cd2:	97ba                	add	a5,a5,a4
    1cd4:	0017b793          	seqz	a5,a5
    1cd8:	c29c                	sw	a5,0(a3)
    1cda:	bff9                	j	1cb8 <__swhatbuf_r+0x22>
    1cdc:	04000793          	li	a5,64
    1ce0:	c01c                	sw	a5,0(s0)
    1ce2:	50f6                	lw	ra,124(sp)
    1ce4:	5466                	lw	s0,120(sp)
    1ce6:	54d6                	lw	s1,116(sp)
    1ce8:	4501                	li	a0,0
    1cea:	6109                	addi	sp,sp,128
    1cec:	8082                	ret

00001cee <__smakebuf_r>:
__smakebuf_r():
    1cee:	00c5d783          	lhu	a5,12(a1)
    1cf2:	1101                	addi	sp,sp,-32
    1cf4:	cc22                	sw	s0,24(sp)
    1cf6:	ce06                	sw	ra,28(sp)
    1cf8:	ca26                	sw	s1,20(sp)
    1cfa:	c84a                	sw	s2,16(sp)
    1cfc:	8b89                	andi	a5,a5,2
    1cfe:	842e                	mv	s0,a1
    1d00:	cf89                	beqz	a5,1d1a <__smakebuf_r+0x2c>
    1d02:	04740793          	addi	a5,s0,71
    1d06:	c01c                	sw	a5,0(s0)
    1d08:	c81c                	sw	a5,16(s0)
    1d0a:	4785                	li	a5,1
    1d0c:	c85c                	sw	a5,20(s0)
    1d0e:	40f2                	lw	ra,28(sp)
    1d10:	4462                	lw	s0,24(sp)
    1d12:	44d2                	lw	s1,20(sp)
    1d14:	4942                	lw	s2,16(sp)
    1d16:	6105                	addi	sp,sp,32
    1d18:	8082                	ret
    1d1a:	0074                	addi	a3,sp,12
    1d1c:	0030                	addi	a2,sp,8
    1d1e:	84aa                	mv	s1,a0
    1d20:	3f9d                	jal	1c96 <__swhatbuf_r>
    1d22:	45a2                	lw	a1,8(sp)
    1d24:	892a                	mv	s2,a0
    1d26:	8526                	mv	a0,s1
    1d28:	2219                	jal	1e2e <_malloc_r>
    1d2a:	ed01                	bnez	a0,1d42 <__smakebuf_r+0x54>
    1d2c:	00c41783          	lh	a5,12(s0)
    1d30:	2007f713          	andi	a4,a5,512
    1d34:	ff69                	bnez	a4,1d0e <__smakebuf_r+0x20>
    1d36:	9bf1                	andi	a5,a5,-4
    1d38:	0027e793          	ori	a5,a5,2
    1d3c:	00f41623          	sh	a5,12(s0)
    1d40:	b7c9                	j	1d02 <__smakebuf_r+0x14>
    1d42:	00000797          	auipc	a5,0x0
    1d46:	d9678793          	addi	a5,a5,-618 # 1ad8 <_cleanup_r>
    1d4a:	d49c                	sw	a5,40(s1)
    1d4c:	00c45783          	lhu	a5,12(s0)
    1d50:	c008                	sw	a0,0(s0)
    1d52:	c808                	sw	a0,16(s0)
    1d54:	0807e793          	ori	a5,a5,128
    1d58:	00f41623          	sh	a5,12(s0)
    1d5c:	47a2                	lw	a5,8(sp)
    1d5e:	c85c                	sw	a5,20(s0)
    1d60:	47b2                	lw	a5,12(sp)
    1d62:	cf89                	beqz	a5,1d7c <__smakebuf_r+0x8e>
    1d64:	00e41583          	lh	a1,14(s0)
    1d68:	8526                	mv	a0,s1
    1d6a:	2cd5                	jal	205e <_isatty_r>
    1d6c:	c901                	beqz	a0,1d7c <__smakebuf_r+0x8e>
    1d6e:	00c45783          	lhu	a5,12(s0)
    1d72:	9bf1                	andi	a5,a5,-4
    1d74:	0017e793          	ori	a5,a5,1
    1d78:	00f41623          	sh	a5,12(s0)
    1d7c:	00c45783          	lhu	a5,12(s0)
    1d80:	00f96933          	or	s2,s2,a5
    1d84:	01241623          	sh	s2,12(s0)
    1d88:	b759                	j	1d0e <__smakebuf_r+0x20>

00001d8a <_free_r>:
_free_r():
    1d8a:	c1cd                	beqz	a1,1e2c <_free_r+0xa2>
    1d8c:	ffc5a783          	lw	a5,-4(a1)
    1d90:	1141                	addi	sp,sp,-16
    1d92:	c422                	sw	s0,8(sp)
    1d94:	c606                	sw	ra,12(sp)
    1d96:	c226                	sw	s1,4(sp)
    1d98:	ffc58413          	addi	s0,a1,-4
    1d9c:	0007d363          	bgez	a5,1da2 <_free_r+0x18>
    1da0:	943e                	add	s0,s0,a5
    1da2:	84aa                	mv	s1,a0
    1da4:	2639                	jal	20b2 <__malloc_lock>
    1da6:	81818793          	addi	a5,gp,-2024 # 20000088 <__malloc_free_list>
    1daa:	439c                	lw	a5,0(a5)
    1dac:	eb99                	bnez	a5,1dc2 <_free_r+0x38>
    1dae:	00042223          	sw	zero,4(s0)
    1db2:	8081ac23          	sw	s0,-2024(gp) # 20000088 <__malloc_free_list>
    1db6:	4422                	lw	s0,8(sp)
    1db8:	40b2                	lw	ra,12(sp)
    1dba:	8526                	mv	a0,s1
    1dbc:	4492                	lw	s1,4(sp)
    1dbe:	0141                	addi	sp,sp,16
    1dc0:	acd5                	j	20b4 <__malloc_unlock>
    1dc2:	00f47e63          	bgeu	s0,a5,1dde <_free_r+0x54>
    1dc6:	4014                	lw	a3,0(s0)
    1dc8:	00d40733          	add	a4,s0,a3
    1dcc:	00e79663          	bne	a5,a4,1dd8 <_free_r+0x4e>
    1dd0:	4398                	lw	a4,0(a5)
    1dd2:	43dc                	lw	a5,4(a5)
    1dd4:	9736                	add	a4,a4,a3
    1dd6:	c018                	sw	a4,0(s0)
    1dd8:	c05c                	sw	a5,4(s0)
    1dda:	bfe1                	j	1db2 <_free_r+0x28>
    1ddc:	87ba                	mv	a5,a4
    1dde:	43d8                	lw	a4,4(a5)
    1de0:	c319                	beqz	a4,1de6 <_free_r+0x5c>
    1de2:	fee47de3          	bgeu	s0,a4,1ddc <_free_r+0x52>
    1de6:	4394                	lw	a3,0(a5)
    1de8:	00d78633          	add	a2,a5,a3
    1dec:	00861f63          	bne	a2,s0,1e0a <_free_r+0x80>
    1df0:	4010                	lw	a2,0(s0)
    1df2:	96b2                	add	a3,a3,a2
    1df4:	c394                	sw	a3,0(a5)
    1df6:	00d78633          	add	a2,a5,a3
    1dfa:	fac71ee3          	bne	a4,a2,1db6 <_free_r+0x2c>
    1dfe:	4310                	lw	a2,0(a4)
    1e00:	4358                	lw	a4,4(a4)
    1e02:	96b2                	add	a3,a3,a2
    1e04:	c394                	sw	a3,0(a5)
    1e06:	c3d8                	sw	a4,4(a5)
    1e08:	b77d                	j	1db6 <_free_r+0x2c>
    1e0a:	00c47563          	bgeu	s0,a2,1e14 <_free_r+0x8a>
    1e0e:	47b1                	li	a5,12
    1e10:	c09c                	sw	a5,0(s1)
    1e12:	b755                	j	1db6 <_free_r+0x2c>
    1e14:	4010                	lw	a2,0(s0)
    1e16:	00c406b3          	add	a3,s0,a2
    1e1a:	00d71663          	bne	a4,a3,1e26 <_free_r+0x9c>
    1e1e:	4314                	lw	a3,0(a4)
    1e20:	4358                	lw	a4,4(a4)
    1e22:	96b2                	add	a3,a3,a2
    1e24:	c014                	sw	a3,0(s0)
    1e26:	c058                	sw	a4,4(s0)
    1e28:	c3c0                	sw	s0,4(a5)
    1e2a:	b771                	j	1db6 <_free_r+0x2c>
    1e2c:	8082                	ret

00001e2e <_malloc_r>:
_malloc_r():
    1e2e:	1101                	addi	sp,sp,-32
    1e30:	ca26                	sw	s1,20(sp)
    1e32:	00358493          	addi	s1,a1,3
    1e36:	98f1                	andi	s1,s1,-4
    1e38:	ce06                	sw	ra,28(sp)
    1e3a:	cc22                	sw	s0,24(sp)
    1e3c:	c84a                	sw	s2,16(sp)
    1e3e:	c64e                	sw	s3,12(sp)
    1e40:	04a1                	addi	s1,s1,8
    1e42:	47b1                	li	a5,12
    1e44:	04f4f163          	bgeu	s1,a5,1e86 <_malloc_r+0x58>
    1e48:	44b1                	li	s1,12
    1e4a:	04b4e063          	bltu	s1,a1,1e8a <_malloc_r+0x5c>
    1e4e:	892a                	mv	s2,a0
    1e50:	248d                	jal	20b2 <__malloc_lock>
    1e52:	81818793          	addi	a5,gp,-2024 # 20000088 <__malloc_free_list>
    1e56:	4398                	lw	a4,0(a5)
    1e58:	843a                	mv	s0,a4
    1e5a:	e031                	bnez	s0,1e9e <_malloc_r+0x70>
    1e5c:	81c18793          	addi	a5,gp,-2020 # 2000008c <__malloc_sbrk_start>
    1e60:	439c                	lw	a5,0(a5)
    1e62:	e791                	bnez	a5,1e6e <_malloc_r+0x40>
    1e64:	4581                	li	a1,0
    1e66:	854a                	mv	a0,s2
    1e68:	2851                	jal	1efc <_sbrk_r>
    1e6a:	80a1ae23          	sw	a0,-2020(gp) # 2000008c <__malloc_sbrk_start>
    1e6e:	85a6                	mv	a1,s1
    1e70:	854a                	mv	a0,s2
    1e72:	2069                	jal	1efc <_sbrk_r>
    1e74:	59fd                	li	s3,-1
    1e76:	07351763          	bne	a0,s3,1ee4 <_malloc_r+0xb6>
    1e7a:	47b1                	li	a5,12
    1e7c:	00f92023          	sw	a5,0(s2)
    1e80:	854a                	mv	a0,s2
    1e82:	2c0d                	jal	20b4 <__malloc_unlock>
    1e84:	a029                	j	1e8e <_malloc_r+0x60>
    1e86:	fc04d2e3          	bgez	s1,1e4a <_malloc_r+0x1c>
    1e8a:	47b1                	li	a5,12
    1e8c:	c11c                	sw	a5,0(a0)
    1e8e:	4501                	li	a0,0
    1e90:	40f2                	lw	ra,28(sp)
    1e92:	4462                	lw	s0,24(sp)
    1e94:	44d2                	lw	s1,20(sp)
    1e96:	4942                	lw	s2,16(sp)
    1e98:	49b2                	lw	s3,12(sp)
    1e9a:	6105                	addi	sp,sp,32
    1e9c:	8082                	ret
    1e9e:	401c                	lw	a5,0(s0)
    1ea0:	8f85                	sub	a5,a5,s1
    1ea2:	0207ce63          	bltz	a5,1ede <_malloc_r+0xb0>
    1ea6:	46ad                	li	a3,11
    1ea8:	00f6f663          	bgeu	a3,a5,1eb4 <_malloc_r+0x86>
    1eac:	c01c                	sw	a5,0(s0)
    1eae:	943e                	add	s0,s0,a5
    1eb0:	c004                	sw	s1,0(s0)
    1eb2:	a031                	j	1ebe <_malloc_r+0x90>
    1eb4:	405c                	lw	a5,4(s0)
    1eb6:	02871263          	bne	a4,s0,1eda <_malloc_r+0xac>
    1eba:	80f1ac23          	sw	a5,-2024(gp) # 20000088 <__malloc_free_list>
    1ebe:	854a                	mv	a0,s2
    1ec0:	2ad5                	jal	20b4 <__malloc_unlock>
    1ec2:	00b40513          	addi	a0,s0,11
    1ec6:	00440793          	addi	a5,s0,4
    1eca:	9961                	andi	a0,a0,-8
    1ecc:	40f50733          	sub	a4,a0,a5
    1ed0:	d361                	beqz	a4,1e90 <_malloc_r+0x62>
    1ed2:	943a                	add	s0,s0,a4
    1ed4:	8f89                	sub	a5,a5,a0
    1ed6:	c01c                	sw	a5,0(s0)
    1ed8:	bf65                	j	1e90 <_malloc_r+0x62>
    1eda:	c35c                	sw	a5,4(a4)
    1edc:	b7cd                	j	1ebe <_malloc_r+0x90>
    1ede:	8722                	mv	a4,s0
    1ee0:	4040                	lw	s0,4(s0)
    1ee2:	bfa5                	j	1e5a <_malloc_r+0x2c>
    1ee4:	00350413          	addi	s0,a0,3
    1ee8:	9871                	andi	s0,s0,-4
    1eea:	fc8503e3          	beq	a0,s0,1eb0 <_malloc_r+0x82>
    1eee:	40a405b3          	sub	a1,s0,a0
    1ef2:	854a                	mv	a0,s2
    1ef4:	2021                	jal	1efc <_sbrk_r>
    1ef6:	fb351de3          	bne	a0,s3,1eb0 <_malloc_r+0x82>
    1efa:	b741                	j	1e7a <_malloc_r+0x4c>

00001efc <_sbrk_r>:
_sbrk_r():
    1efc:	1141                	addi	sp,sp,-16
    1efe:	c422                	sw	s0,8(sp)
    1f00:	842a                	mv	s0,a0
    1f02:	852e                	mv	a0,a1
    1f04:	8201a823          	sw	zero,-2000(gp) # 200000a0 <errno>
    1f08:	c606                	sw	ra,12(sp)
    1f0a:	2c11                	jal	211e <_sbrk>
    1f0c:	57fd                	li	a5,-1
    1f0e:	00f51763          	bne	a0,a5,1f1c <_sbrk_r+0x20>
    1f12:	83018793          	addi	a5,gp,-2000 # 200000a0 <errno>
    1f16:	439c                	lw	a5,0(a5)
    1f18:	c391                	beqz	a5,1f1c <_sbrk_r+0x20>
    1f1a:	c01c                	sw	a5,0(s0)
    1f1c:	40b2                	lw	ra,12(sp)
    1f1e:	4422                	lw	s0,8(sp)
    1f20:	0141                	addi	sp,sp,16
    1f22:	8082                	ret

00001f24 <__sread>:
__sread():
    1f24:	1141                	addi	sp,sp,-16
    1f26:	c422                	sw	s0,8(sp)
    1f28:	842e                	mv	s0,a1
    1f2a:	00e59583          	lh	a1,14(a1)
    1f2e:	c606                	sw	ra,12(sp)
    1f30:	2259                	jal	20b6 <_read_r>
    1f32:	00054963          	bltz	a0,1f44 <__sread+0x20>
    1f36:	487c                	lw	a5,84(s0)
    1f38:	97aa                	add	a5,a5,a0
    1f3a:	c87c                	sw	a5,84(s0)
    1f3c:	40b2                	lw	ra,12(sp)
    1f3e:	4422                	lw	s0,8(sp)
    1f40:	0141                	addi	sp,sp,16
    1f42:	8082                	ret
    1f44:	00c45783          	lhu	a5,12(s0)
    1f48:	777d                	lui	a4,0xfffff
    1f4a:	177d                	addi	a4,a4,-1
    1f4c:	8ff9                	and	a5,a5,a4
    1f4e:	00f41623          	sh	a5,12(s0)
    1f52:	b7ed                	j	1f3c <__sread+0x18>

00001f54 <__swrite>:
__swrite():
    1f54:	00c5d783          	lhu	a5,12(a1)
    1f58:	1101                	addi	sp,sp,-32
    1f5a:	cc22                	sw	s0,24(sp)
    1f5c:	ca26                	sw	s1,20(sp)
    1f5e:	c84a                	sw	s2,16(sp)
    1f60:	c64e                	sw	s3,12(sp)
    1f62:	ce06                	sw	ra,28(sp)
    1f64:	1007f793          	andi	a5,a5,256
    1f68:	84aa                	mv	s1,a0
    1f6a:	842e                	mv	s0,a1
    1f6c:	8932                	mv	s2,a2
    1f6e:	89b6                	mv	s3,a3
    1f70:	c791                	beqz	a5,1f7c <__swrite+0x28>
    1f72:	00e59583          	lh	a1,14(a1)
    1f76:	4689                	li	a3,2
    1f78:	4601                	li	a2,0
    1f7a:	2231                	jal	2086 <_lseek_r>
    1f7c:	00c45783          	lhu	a5,12(s0)
    1f80:	777d                	lui	a4,0xfffff
    1f82:	177d                	addi	a4,a4,-1
    1f84:	8ff9                	and	a5,a5,a4
    1f86:	00f41623          	sh	a5,12(s0)
    1f8a:	00e41583          	lh	a1,14(s0)
    1f8e:	4462                	lw	s0,24(sp)
    1f90:	40f2                	lw	ra,28(sp)
    1f92:	86ce                	mv	a3,s3
    1f94:	864a                	mv	a2,s2
    1f96:	49b2                	lw	s3,12(sp)
    1f98:	4942                	lw	s2,16(sp)
    1f9a:	8526                	mv	a0,s1
    1f9c:	44d2                	lw	s1,20(sp)
    1f9e:	6105                	addi	sp,sp,32
    1fa0:	a83d                	j	1fde <_write_r>

00001fa2 <__sseek>:
__sseek():
    1fa2:	1141                	addi	sp,sp,-16
    1fa4:	c422                	sw	s0,8(sp)
    1fa6:	842e                	mv	s0,a1
    1fa8:	00e59583          	lh	a1,14(a1)
    1fac:	c606                	sw	ra,12(sp)
    1fae:	28e1                	jal	2086 <_lseek_r>
    1fb0:	57fd                	li	a5,-1
    1fb2:	00c45703          	lhu	a4,12(s0)
    1fb6:	00f51b63          	bne	a0,a5,1fcc <__sseek+0x2a>
    1fba:	77fd                	lui	a5,0xfffff
    1fbc:	17fd                	addi	a5,a5,-1
    1fbe:	8ff9                	and	a5,a5,a4
    1fc0:	00f41623          	sh	a5,12(s0)
    1fc4:	40b2                	lw	ra,12(sp)
    1fc6:	4422                	lw	s0,8(sp)
    1fc8:	0141                	addi	sp,sp,16
    1fca:	8082                	ret
    1fcc:	6785                	lui	a5,0x1
    1fce:	8fd9                	or	a5,a5,a4
    1fd0:	00f41623          	sh	a5,12(s0)
    1fd4:	c868                	sw	a0,84(s0)
    1fd6:	b7fd                	j	1fc4 <__sseek+0x22>

00001fd8 <__sclose>:
__sclose():
    1fd8:	00e59583          	lh	a1,14(a1)
    1fdc:	a805                	j	200c <_close_r>

00001fde <_write_r>:
_write_r():
    1fde:	1141                	addi	sp,sp,-16
    1fe0:	c422                	sw	s0,8(sp)
    1fe2:	842a                	mv	s0,a0
    1fe4:	852e                	mv	a0,a1
    1fe6:	85b2                	mv	a1,a2
    1fe8:	8636                	mv	a2,a3
    1fea:	8201a823          	sw	zero,-2000(gp) # 200000a0 <errno>
    1fee:	c606                	sw	ra,12(sp)
    1ff0:	dc4fe0ef          	jal	ra,5b4 <_write>
    1ff4:	57fd                	li	a5,-1
    1ff6:	00f51763          	bne	a0,a5,2004 <_write_r+0x26>
    1ffa:	83018793          	addi	a5,gp,-2000 # 200000a0 <errno>
    1ffe:	439c                	lw	a5,0(a5)
    2000:	c391                	beqz	a5,2004 <_write_r+0x26>
    2002:	c01c                	sw	a5,0(s0)
    2004:	40b2                	lw	ra,12(sp)
    2006:	4422                	lw	s0,8(sp)
    2008:	0141                	addi	sp,sp,16
    200a:	8082                	ret

0000200c <_close_r>:
_close_r():
    200c:	1141                	addi	sp,sp,-16
    200e:	c422                	sw	s0,8(sp)
    2010:	842a                	mv	s0,a0
    2012:	852e                	mv	a0,a1
    2014:	8201a823          	sw	zero,-2000(gp) # 200000a0 <errno>
    2018:	c606                	sw	ra,12(sp)
    201a:	20e1                	jal	20e2 <_close>
    201c:	57fd                	li	a5,-1
    201e:	00f51763          	bne	a0,a5,202c <_close_r+0x20>
    2022:	83018793          	addi	a5,gp,-2000 # 200000a0 <errno>
    2026:	439c                	lw	a5,0(a5)
    2028:	c391                	beqz	a5,202c <_close_r+0x20>
    202a:	c01c                	sw	a5,0(s0)
    202c:	40b2                	lw	ra,12(sp)
    202e:	4422                	lw	s0,8(sp)
    2030:	0141                	addi	sp,sp,16
    2032:	8082                	ret

00002034 <_fstat_r>:
_fstat_r():
    2034:	1141                	addi	sp,sp,-16
    2036:	c422                	sw	s0,8(sp)
    2038:	842a                	mv	s0,a0
    203a:	852e                	mv	a0,a1
    203c:	85b2                	mv	a1,a2
    203e:	8201a823          	sw	zero,-2000(gp) # 200000a0 <errno>
    2042:	c606                	sw	ra,12(sp)
    2044:	206d                	jal	20ee <_fstat>
    2046:	57fd                	li	a5,-1
    2048:	00f51763          	bne	a0,a5,2056 <_fstat_r+0x22>
    204c:	83018793          	addi	a5,gp,-2000 # 200000a0 <errno>
    2050:	439c                	lw	a5,0(a5)
    2052:	c391                	beqz	a5,2056 <_fstat_r+0x22>
    2054:	c01c                	sw	a5,0(s0)
    2056:	40b2                	lw	ra,12(sp)
    2058:	4422                	lw	s0,8(sp)
    205a:	0141                	addi	sp,sp,16
    205c:	8082                	ret

0000205e <_isatty_r>:
_isatty_r():
    205e:	1141                	addi	sp,sp,-16
    2060:	c422                	sw	s0,8(sp)
    2062:	842a                	mv	s0,a0
    2064:	852e                	mv	a0,a1
    2066:	8201a823          	sw	zero,-2000(gp) # 200000a0 <errno>
    206a:	c606                	sw	ra,12(sp)
    206c:	2079                	jal	20fa <_isatty>
    206e:	57fd                	li	a5,-1
    2070:	00f51763          	bne	a0,a5,207e <_isatty_r+0x20>
    2074:	83018793          	addi	a5,gp,-2000 # 200000a0 <errno>
    2078:	439c                	lw	a5,0(a5)
    207a:	c391                	beqz	a5,207e <_isatty_r+0x20>
    207c:	c01c                	sw	a5,0(s0)
    207e:	40b2                	lw	ra,12(sp)
    2080:	4422                	lw	s0,8(sp)
    2082:	0141                	addi	sp,sp,16
    2084:	8082                	ret

00002086 <_lseek_r>:
_lseek_r():
    2086:	1141                	addi	sp,sp,-16
    2088:	c422                	sw	s0,8(sp)
    208a:	842a                	mv	s0,a0
    208c:	852e                	mv	a0,a1
    208e:	85b2                	mv	a1,a2
    2090:	8636                	mv	a2,a3
    2092:	8201a823          	sw	zero,-2000(gp) # 200000a0 <errno>
    2096:	c606                	sw	ra,12(sp)
    2098:	20bd                	jal	2106 <_lseek>
    209a:	57fd                	li	a5,-1
    209c:	00f51763          	bne	a0,a5,20aa <_lseek_r+0x24>
    20a0:	83018793          	addi	a5,gp,-2000 # 200000a0 <errno>
    20a4:	439c                	lw	a5,0(a5)
    20a6:	c391                	beqz	a5,20aa <_lseek_r+0x24>
    20a8:	c01c                	sw	a5,0(s0)
    20aa:	40b2                	lw	ra,12(sp)
    20ac:	4422                	lw	s0,8(sp)
    20ae:	0141                	addi	sp,sp,16
    20b0:	8082                	ret

000020b2 <__malloc_lock>:
__malloc_lock():
    20b2:	8082                	ret

000020b4 <__malloc_unlock>:
__malloc_unlock():
    20b4:	8082                	ret

000020b6 <_read_r>:
_read_r():
    20b6:	1141                	addi	sp,sp,-16
    20b8:	c422                	sw	s0,8(sp)
    20ba:	842a                	mv	s0,a0
    20bc:	852e                	mv	a0,a1
    20be:	85b2                	mv	a1,a2
    20c0:	8636                	mv	a2,a3
    20c2:	8201a823          	sw	zero,-2000(gp) # 200000a0 <errno>
    20c6:	c606                	sw	ra,12(sp)
    20c8:	20a9                	jal	2112 <_read>
    20ca:	57fd                	li	a5,-1
    20cc:	00f51763          	bne	a0,a5,20da <_read_r+0x24>
    20d0:	83018793          	addi	a5,gp,-2000 # 200000a0 <errno>
    20d4:	439c                	lw	a5,0(a5)
    20d6:	c391                	beqz	a5,20da <_read_r+0x24>
    20d8:	c01c                	sw	a5,0(s0)
    20da:	40b2                	lw	ra,12(sp)
    20dc:	4422                	lw	s0,8(sp)
    20de:	0141                	addi	sp,sp,16
    20e0:	8082                	ret

000020e2 <_close>:
_close():
    20e2:	05800793          	li	a5,88
    20e6:	82f1a823          	sw	a5,-2000(gp) # 200000a0 <errno>
    20ea:	557d                	li	a0,-1
    20ec:	8082                	ret

000020ee <_fstat>:
_fstat():
    20ee:	05800793          	li	a5,88
    20f2:	82f1a823          	sw	a5,-2000(gp) # 200000a0 <errno>
    20f6:	557d                	li	a0,-1
    20f8:	8082                	ret

000020fa <_isatty>:
_isatty():
    20fa:	05800793          	li	a5,88
    20fe:	82f1a823          	sw	a5,-2000(gp) # 200000a0 <errno>
    2102:	4501                	li	a0,0
    2104:	8082                	ret

00002106 <_lseek>:
_lseek():
    2106:	05800793          	li	a5,88
    210a:	82f1a823          	sw	a5,-2000(gp) # 200000a0 <errno>
    210e:	557d                	li	a0,-1
    2110:	8082                	ret

00002112 <_read>:
_read():
    2112:	05800793          	li	a5,88
    2116:	82f1a823          	sw	a5,-2000(gp) # 200000a0 <errno>
    211a:	557d                	li	a0,-1
    211c:	8082                	ret

0000211e <_sbrk>:
_sbrk():
    211e:	82018793          	addi	a5,gp,-2016 # 20000090 <heap_end.1518>
    2122:	439c                	lw	a5,0(a5)
    2124:	c791                	beqz	a5,2130 <_sbrk+0x12>
    2126:	953e                	add	a0,a0,a5
    2128:	82a1a023          	sw	a0,-2016(gp) # 20000090 <heap_end.1518>
    212c:	853e                	mv	a0,a5
    212e:	8082                	ret
    2130:	83418793          	addi	a5,gp,-1996 # 200000a4 <_ebss>
    2134:	953e                	add	a0,a0,a5
    2136:	82a1a023          	sw	a0,-2016(gp) # 20000090 <heap_end.1518>
    213a:	853e                	mv	a0,a5
    213c:	8082                	ret
    213e:	0000                	unimp
    2140:	0031                	c.nop	12
    2142:	0000                	unimp
    2144:	0032                	c.slli	zero,0xc
    2146:	0000                	unimp
    2148:	00000033          	add	zero,zero,zero
    214c:	0034                	addi	a3,sp,8
    214e:	0000                	unimp
    2150:	0035                	c.nop	13
    2152:	0000                	unimp
    2154:	0036                	c.slli	zero,0xd
    2156:	0000                	unimp
    2158:	00000037          	lui	zero,0x0

0000215c <GPION>:
    215c:	40010800 40010c00 40011000 40011400     ...@...@...@...@

0000216c <TIMERN>:
    216c:	40012c00 40000000 40000400 40000800     .,.@...@...@...@

0000217c <UARTN>:
    217c:	40013800 40004400 40004800 40004c00     .8.@.D.@.H.@.L.@

0000218c <__sf_fake_stderr>:
	...

000021ac <__sf_fake_stdin>:
	...

000021cc <__sf_fake_stdout>:
	...
