
02-Car_Light.elf:     file format elf32-littleriscv
02-Car_Light.elf
architecture: riscv:rv32, flags 0x00000112:
EXEC_P, HAS_SYMS, D_PAGED
start address 0x00000000

Program Header:
    LOAD off    0x00001000 vaddr 0x00000000 paddr 0x00000000 align 2**12
         filesz 0x000016b4 memsz 0x000016b4 flags r-x
    LOAD off    0x00003000 vaddr 0x20000000 paddr 0x000016b4 align 2**12
         filesz 0x00000038 memsz 0x00000050 flags rw-
    LOAD off    0x00003800 vaddr 0x20004800 paddr 0x20004800 align 2**12
         filesz 0x00000000 memsz 0x00000800 flags rw-

Sections:
Idx Name           Size      VMA       LMA       File off  Algn  Flags
  0 .init          00000038  00000000  00000000  00001000  2**1  CONTENTS, ALLOC, LOAD, READONLY, CODE
  1 .vector        00000108  00000038  00000038  00001038  2**1  CONTENTS, ALLOC, LOAD, READONLY, CODE
  2 .text          00001574  00000140  00000140  00001140  2**2  CONTENTS, ALLOC, LOAD, READONLY, CODE
  3 .fini          00000000  000016b4  000016b4  00003038  2**0  CONTENTS, ALLOC, LOAD, CODE
  4 .dalign        00000000  20000000  20000000  00003038  2**0  CONTENTS
  5 .dlalign       00000000  000016b4  000016b4  00003038  2**0  CONTENTS
  6 .data          00000038  20000000  000016b4  00003000  2**2  CONTENTS, ALLOC, LOAD, DATA
  7 .bss           00000018  20000038  000016ec  00003038  2**2  ALLOC
  8 .stack         00000800  20004800  20004800  00003800  2**0  ALLOC
  9 .debug_info    00013757  00000000  00000000  00003038  2**0  CONTENTS, READONLY, DEBUGGING
 10 .debug_abbrev  00003673  00000000  00000000  0001678f  2**0  CONTENTS, READONLY, DEBUGGING
 11 .debug_aranges 000009b8  00000000  00000000  00019e08  2**3  CONTENTS, READONLY, DEBUGGING
 12 .debug_ranges  000008b0  00000000  00000000  0001a7c0  2**3  CONTENTS, READONLY, DEBUGGING
 13 .debug_line    0000d339  00000000  00000000  0001b070  2**0  CONTENTS, READONLY, DEBUGGING
 14 .debug_str     00003582  00000000  00000000  000283a9  2**0  CONTENTS, READONLY, DEBUGGING
 15 .comment       00000033  00000000  00000000  0002b92b  2**0  CONTENTS, READONLY
 16 .debug_frame   00001568  00000000  00000000  0002b960  2**2  CONTENTS, READONLY, DEBUGGING
 17 .debug_loc     000051ad  00000000  00000000  0002cec8  2**0  CONTENTS, READONLY, DEBUGGING
 18 .stabstr       00000183  00000000  00000000  00032075  2**0  CONTENTS, READONLY, DEBUGGING
SYMBOL TABLE:
00000000 l    d  .init	00000000 .init
00000038 l    d  .vector	00000000 .vector
00000140 l    d  .text	00000000 .text
000016b4 l    d  .fini	00000000 .fini
20000000 l    d  .dalign	00000000 .dalign
000016b4 l    d  .dlalign	00000000 .dlalign
20000000 l    d  .data	00000000 .data
20000038 l    d  .bss	00000000 .bss
20004800 l    d  .stack	00000000 .stack
00000000 l    d  .debug_info	00000000 .debug_info
00000000 l    d  .debug_abbrev	00000000 .debug_abbrev
00000000 l    d  .debug_aranges	00000000 .debug_aranges
00000000 l    d  .debug_ranges	00000000 .debug_ranges
00000000 l    d  .debug_line	00000000 .debug_line
00000000 l    d  .debug_str	00000000 .debug_str
00000000 l    d  .comment	00000000 .comment
00000000 l    d  .debug_frame	00000000 .debug_frame
00000000 l    d  .debug_loc	00000000 .debug_loc
00000000 l    d  .stabstr	00000000 .stabstr
00000000 l    df *ABS*	00000000 ./CH32V10x/CH32V10x_p/Startup/startup_ch32v10x.o
00000038 l       .vector	00000000 _vector_base
00000000 l    df *ABS*	00000000 isr.c
00000000 l    df *ABS*	00000000 main.c
00000000 l    df *ABS*	00000000 HF_L9110S_2.c
00000000 l    df *ABS*	00000000 HF_WS2812b.c
00000000 l    df *ABS*	00000000 board.c
00000000 l    df *ABS*	00000000 clock_config.c
00000000 l    df *ABS*	00000000 delay.c
2000003c l     O .bss	00000002 p_ms
2000003e l     O .bss	00000001 p_us
00000000 l    df *ABS*	00000000 hf_gpio.c
00000000 l    df *ABS*	00000000 hf_nvic.c
00000000 l    df *ABS*	00000000 hf_pwm.c
00000000 l    df *ABS*	00000000 hf_tim.c
00000000 l    df *ABS*	00000000 hf_uart.c
00000000 l    df *ABS*	00000000 car_4keys.c
00000000 l    df *ABS*	00000000 car_init.c
00000000 l    df *ABS*	00000000 car_light.c
20000040 l     O .bss	00000003 rgb_off
20000010 l     O .data	00000003 rgb_blue
20000014 l     O .data	00000003 rgb_cyan
20000018 l     O .data	00000003 rgb_green
2000001c l     O .data	00000003 rgb_purple
20000020 l     O .data	00000003 rgb_red
20000024 l     O .data	00000003 rgb_user_define
20000028 l     O .data	00000003 rgb_white
2000002c l     O .data	00000003 rgb_yellow
00000000 l    df *ABS*	00000000 ch32v10x_dma.c
00000000 l    df *ABS*	00000000 ch32v10x_exti.c
00000000 l    df *ABS*	00000000 ch32v10x_gpio.c
00000000 l    df *ABS*	00000000 ch32v10x_rcc.c
20000000 l     O .data	00000010 APBAHBPrescTable
20000030 l     O .data	00000004 ADCPrescTable
00000000 l    df *ABS*	00000000 ch32v10x_tim.c
00000000 l    df *ABS*	00000000 ch32v10x_usart.c
00000000 l    df *ABS*	00000000 common.c
00000000 l    df *ABS*	00000000 close.c
0000015a g     F .text	0000000a EXTI2_IRQHandler
20000810 g       .data	00000000 __global_pointer$
00000210 g     F .text	00000074 TIM1_CC_IRQHandler
0000034e g     F .text	00000002 HardFault_Handler
00000ce4 g     F .text	00000046 key_init
00001478 g     F .text	00000012 TIM_OC1PreloadConfig
20000038 g     O .bss	00000004 sys_clk
0000034a g     F .text	00000004 NMI_Handler
00000b58 g     F .text	0000006a timbase_init
00000ea6 g     F .text	00000024 car_both_rgb_off
00000164 g     F .text	00000004 EXTI3_IRQHandler
00001694 g     O .text	00000010 TIMERN
20000038 g       .bss	00000000 _sbss
00000800 g       *ABS*	00000000 __stack_size
00000df2 g     F .text	000000b4 car_both_rgb_on
00001462 g     F .text	00000016 TIM_CtrlPWMOutputs
00000140 g     F .text	00000004 EXTI0_IRQHandler
00001446 g     F .text	0000001c TIM_Cmd
000014b6 g     F .text	0000001a TIM_OC4PreloadConfig
000014fc g     F .text	0000000e TIM_ClearFlag
00000038 g       .init	00000000 _einit
0000077a g     F .text	00000018 sys_recover_irq
00001526 g     F .text	0000000e TIM_ClearITPendingBit
00001122 g     F .text	0000001e RCC_APB2PeriphClockCmd
00000174 g     F .text	00000004 ADC1_2_IRQHandler
00000fa6 g     F .text	000000c2 GPIO_Init
0000160c g     F .text	0000001c USART_Cmd
00001312 g     F .text	000000b2 TIM_OC3Init
0000166c g     F .text	00000016 USART_ClearITPendingBit
00001140 g     F .text	0000001e RCC_APB1PeriphClockCmd
000014f0 g     F .text	0000000c TIM_GetFlagStatus
00000328 g     F .text	00000016 DMA1_Channel4_IRQHandler
00000da0 g     F .text	00000052 car_init
00000f44 g     F .text	00000020 DMA_GetFlagStatus
00000318 g     F .text	00000004 USART3_IRQHandler
00000f9c g     F .text	0000000a EXTI_ClearITPendingBit
20000050 g       .bss	00000000 _ebss
00001628 g     F .text	00000044 USART_GetITStatus
00000346 g     F .text	00000004 DMA1_Channel7_IRQHandler
000011d6 g     F .text	00000088 TIM_OC1Init
000014a4 g     F .text	00000012 TIM_OC3PreloadConfig
000005ee g     F .text	00000026 Delay_Init
000016a4 g     O .text	00000010 UARTN
00000a46 g     F .text	00000112 pwm_init
000002c4 g     F .text	00000026 TIM4_IRQHandler
00001068 g     F .text	0000000a GPIO_WriteBit
20000050 g       .bss	00000000 end
0000150a g     F .text	0000001c TIM_GetITStatus
00001072 g     F .text	000000b0 RCC_GetClocksFreq
00000342 g     F .text	00000004 DMA1_Channel6_IRQHandler
00000c6c g     F .text	00000078 uart_init
00001534 g     F .text	000000d8 USART_Init
0000029e g     F .text	00000026 TIM3_IRQHandler
00000792 g     F .text	0000000a EnableGlobalIRQ
00000bc2 g     F .text	000000aa uart_gpio_init
000001c8 g     F .text	00000048 TIM1_TRG_COM_IRQHandler
0000031c g     F .text	00000004 DMA1_Channel1_IRQHandler
00000000 g       .init	00000000 _start
00000d2a g     F .text	00000076 key_check
0000148a g     F .text	0000001a TIM_OC2PreloadConfig
00000744 g     F .text	00000010 close_all_irq
00000170 g     F .text	00000004 EXTI15_10_IRQHandler
00001684 g     O .text	00000010 GPION
0000125e g     F .text	000000b4 TIM_OC2Init
20000000 g       .dalign	00000000 _data_vma
000003ee g     F .text	00000024 ws2812b_init
000013c4 g     F .text	00000082 TIM_OC4Init
0000016c g     F .text	00000004 EXTI9_5_IRQHandler
000004b8 g     F .text	00000034 board_init
00000f7e g     F .text	0000001e EXTI_GetITStatus
00000350 g     F .text	00000050 main
00000412 g     F .text	000000a6 ws2812b_write
000014ea g     F .text	00000006 TIM_SetCounter
0000033e g     F .text	00000004 DMA1_Channel5_IRQHandler
00000168 g     F .text	00000004 EXTI4_IRQHandler
00000614 g     F .text	00000030 Delay_Ms
00000754 g     F .text	00000026 DisableGlobalIRQ
000004ec g     F .text	00000102 SystemInit
00000000 g       .init	00000000 _sinit
00000324 g     F .text	00000004 DMA1_Channel3_IRQHandler
20000044 g     O .bss	0000000c irq_status
000001a2 g     F .text	00000026 TIM1_UP_IRQHandler
00000284 g     F .text	0000001a TIM2_IRQHandler
20005000 g       .stack	00000000 _eusrstack
0000079c g     F .text	00000070 pwm_duty
00000178 g     F .text	0000002a TIM1_BRK_IRQHandler
00000144 g     F .text	00000016 EXTI1_IRQHandler
20000038 g       .data	00000000 _edata
0000115e g     F .text	00000078 TIM_TimeBaseInit
000016b4 g       .dlalign	00000000 _data_lma
000002ee g     F .text	0000002a USART2_IRQHandler
00000320 g     F .text	00000004 DMA1_Channel2_IRQHandler
00000f64 g     F .text	0000001a DMA_ClearFlag
00000eca  w      .text	00000000 handle_reset
0000080c g     F .text	0000023a pwm_gpio_init
000003a0 g     F .text	0000004e l9110s_init
000002ea g     F .text	00000004 USART1_IRQHandler
00000644 g     F .text	000000de gpio_init
000014d0 g     F .text	0000001a TIM_OC2PolarityConfig
00000722 g     F .text	00000022 gpio_get_input



Disassembly of section .init:

00000000 <_sinit>:
_start():
C:/Users/22127/Desktop/Car_light/Libraries/Device/CH32V10x_p/Startup/startup_ch32v10x.S:13

	.section	.init,"ax",@progbits
	.global	_start
	.align	1
_start:
	j	handle_reset
   0:	6cb0006f          	j	eca <handle_reset>
   4:	00000013          	nop
   8:	00000013          	nop
   c:	00000013          	nop
  10:	00000013          	nop
  14:	00000013          	nop
  18:	00000013          	nop
  1c:	00000013          	nop
  20:	00000013          	nop
  24:	00000013          	nop
  28:	00000013          	nop
  2c:	00000013          	nop
  30:	00000013          	nop
  34:	00100073          	ebreak

Disassembly of section .vector:

00000038 <_vector_base>:
_vector_base():
C:/Users/22127/Desktop/Car_light/Libraries/Device/CH32V10x_p/Startup/startup_ch32v10x.S:31
	.word 0x00100073
    .section    .vector,"ax",@progbits
    .align  1
_vector_base:
    .option norvc;
        j   _start
  38:	fc9ff06f          	j	0 <_sinit>
  3c:	0000                	unimp
  3e:	0000                	unimp
C:/Users/22127/Desktop/Car_light/Libraries/Device/CH32V10x_p/Startup/startup_ch32v10x.S:33
    .word   0
        j   NMI_Handler                 /* NMI Handler */
  40:	30a0006f          	j	34a <NMI_Handler>
C:/Users/22127/Desktop/Car_light/Libraries/Device/CH32V10x_p/Startup/startup_ch32v10x.S:34
        j   HardFault_Handler           /* Hard Fault Handler */
  44:	30a0006f          	j	34e <HardFault_Handler>
	...
C:/Users/22127/Desktop/Car_light/Libraries/Device/CH32V10x_p/Startup/startup_ch32v10x.S:43
    .word   0
    .word   0
    .word   0
    .word   0
    .word   0
        j   SysTick_Handler            /* SysTick Handler */
  68:	f99ff06f          	j	0 <_sinit>
  6c:	0000                	unimp
  6e:	0000                	unimp
C:/Users/22127/Desktop/Car_light/Libraries/Device/CH32V10x_p/Startup/startup_ch32v10x.S:45
    .word   0
        j   SW_handler                 /* SW Handler */
  70:	f91ff06f          	j	0 <_sinit>
  74:	0000                	unimp
  76:	0000                	unimp
C:/Users/22127/Desktop/Car_light/Libraries/Device/CH32V10x_p/Startup/startup_ch32v10x.S:48
    .word   0
    /* External Interrupts */
        j   WWDG_IRQHandler            /* Window Watchdog */
  78:	f89ff06f          	j	0 <_sinit>
C:/Users/22127/Desktop/Car_light/Libraries/Device/CH32V10x_p/Startup/startup_ch32v10x.S:49
        j   PVD_IRQHandler             /* PVD through EXTI Line detect */
  7c:	f85ff06f          	j	0 <_sinit>
C:/Users/22127/Desktop/Car_light/Libraries/Device/CH32V10x_p/Startup/startup_ch32v10x.S:50
        j   TAMPER_IRQHandler          /* TAMPER */
  80:	f81ff06f          	j	0 <_sinit>
C:/Users/22127/Desktop/Car_light/Libraries/Device/CH32V10x_p/Startup/startup_ch32v10x.S:51
        j   RTC_IRQHandler             /* RTC */
  84:	f7dff06f          	j	0 <_sinit>
C:/Users/22127/Desktop/Car_light/Libraries/Device/CH32V10x_p/Startup/startup_ch32v10x.S:52
        j   FLASH_IRQHandler           /* Flash */
  88:	f79ff06f          	j	0 <_sinit>
C:/Users/22127/Desktop/Car_light/Libraries/Device/CH32V10x_p/Startup/startup_ch32v10x.S:53
        j   RCC_IRQHandler             /* RCC */
  8c:	f75ff06f          	j	0 <_sinit>
C:/Users/22127/Desktop/Car_light/Libraries/Device/CH32V10x_p/Startup/startup_ch32v10x.S:54
        j   EXTI0_IRQHandler           /* EXTI Line 0 */
  90:	0b00006f          	j	140 <EXTI0_IRQHandler>
C:/Users/22127/Desktop/Car_light/Libraries/Device/CH32V10x_p/Startup/startup_ch32v10x.S:55
        j   EXTI1_IRQHandler           /* EXTI Line 1 */
  94:	0b00006f          	j	144 <EXTI1_IRQHandler>
C:/Users/22127/Desktop/Car_light/Libraries/Device/CH32V10x_p/Startup/startup_ch32v10x.S:56
        j   EXTI2_IRQHandler           /* EXTI Line 2 */
  98:	0c20006f          	j	15a <EXTI2_IRQHandler>
C:/Users/22127/Desktop/Car_light/Libraries/Device/CH32V10x_p/Startup/startup_ch32v10x.S:57
        j   EXTI3_IRQHandler           /* EXTI Line 3 */
  9c:	0c80006f          	j	164 <EXTI3_IRQHandler>
C:/Users/22127/Desktop/Car_light/Libraries/Device/CH32V10x_p/Startup/startup_ch32v10x.S:58
        j   EXTI4_IRQHandler           /* EXTI Line 4 */
  a0:	0c80006f          	j	168 <EXTI4_IRQHandler>
C:/Users/22127/Desktop/Car_light/Libraries/Device/CH32V10x_p/Startup/startup_ch32v10x.S:59
        j   DMA1_Channel1_IRQHandler   /* DMA1 Channel 1 */
  a4:	2780006f          	j	31c <DMA1_Channel1_IRQHandler>
C:/Users/22127/Desktop/Car_light/Libraries/Device/CH32V10x_p/Startup/startup_ch32v10x.S:60
        j   DMA1_Channel2_IRQHandler   /* DMA1 Channel 2 */
  a8:	2780006f          	j	320 <DMA1_Channel2_IRQHandler>
C:/Users/22127/Desktop/Car_light/Libraries/Device/CH32V10x_p/Startup/startup_ch32v10x.S:61
        j   DMA1_Channel3_IRQHandler   /* DMA1 Channel 3 */
  ac:	2780006f          	j	324 <DMA1_Channel3_IRQHandler>
C:/Users/22127/Desktop/Car_light/Libraries/Device/CH32V10x_p/Startup/startup_ch32v10x.S:62
        j   DMA1_Channel4_IRQHandler   /* DMA1 Channel 4 */
  b0:	2780006f          	j	328 <DMA1_Channel4_IRQHandler>
C:/Users/22127/Desktop/Car_light/Libraries/Device/CH32V10x_p/Startup/startup_ch32v10x.S:63
        j   DMA1_Channel5_IRQHandler   /* DMA1 Channel 5 */
  b4:	28a0006f          	j	33e <DMA1_Channel5_IRQHandler>
C:/Users/22127/Desktop/Car_light/Libraries/Device/CH32V10x_p/Startup/startup_ch32v10x.S:64
        j   DMA1_Channel6_IRQHandler   /* DMA1 Channel 6 */
  b8:	28a0006f          	j	342 <DMA1_Channel6_IRQHandler>
C:/Users/22127/Desktop/Car_light/Libraries/Device/CH32V10x_p/Startup/startup_ch32v10x.S:65
        j   DMA1_Channel7_IRQHandler   /* DMA1 Channel 7 */
  bc:	28a0006f          	j	346 <DMA1_Channel7_IRQHandler>
C:/Users/22127/Desktop/Car_light/Libraries/Device/CH32V10x_p/Startup/startup_ch32v10x.S:66
        j   ADC1_2_IRQHandler          /* ADC1_2 */
  c0:	0b40006f          	j	174 <ADC1_2_IRQHandler>
	...
C:/Users/22127/Desktop/Car_light/Libraries/Device/CH32V10x_p/Startup/startup_ch32v10x.S:71
        .word   0
        .word   0
        .word   0
        .word   0
        j   EXTI9_5_IRQHandler         /* EXTI Line 9..5 */
  d4:	0980006f          	j	16c <EXTI9_5_IRQHandler>
C:/Users/22127/Desktop/Car_light/Libraries/Device/CH32V10x_p/Startup/startup_ch32v10x.S:72
        j   TIM1_BRK_IRQHandler        /* TIM1 Break */
  d8:	0a00006f          	j	178 <TIM1_BRK_IRQHandler>
C:/Users/22127/Desktop/Car_light/Libraries/Device/CH32V10x_p/Startup/startup_ch32v10x.S:73
        j   TIM1_UP_IRQHandler         /* TIM1 Update */
  dc:	0c60006f          	j	1a2 <TIM1_UP_IRQHandler>
C:/Users/22127/Desktop/Car_light/Libraries/Device/CH32V10x_p/Startup/startup_ch32v10x.S:74
        j   TIM1_TRG_COM_IRQHandler    /* TIM1 Trigger and Commutation */
  e0:	0e80006f          	j	1c8 <TIM1_TRG_COM_IRQHandler>
C:/Users/22127/Desktop/Car_light/Libraries/Device/CH32V10x_p/Startup/startup_ch32v10x.S:75
        j   TIM1_CC_IRQHandler         /* TIM1 Capture Compare */
  e4:	12c0006f          	j	210 <TIM1_CC_IRQHandler>
C:/Users/22127/Desktop/Car_light/Libraries/Device/CH32V10x_p/Startup/startup_ch32v10x.S:76
        j   TIM2_IRQHandler            /* TIM2 */
  e8:	19c0006f          	j	284 <TIM2_IRQHandler>
C:/Users/22127/Desktop/Car_light/Libraries/Device/CH32V10x_p/Startup/startup_ch32v10x.S:77
        j   TIM3_IRQHandler            /* TIM3 */
  ec:	1b20006f          	j	29e <TIM3_IRQHandler>
C:/Users/22127/Desktop/Car_light/Libraries/Device/CH32V10x_p/Startup/startup_ch32v10x.S:78
        j   TIM4_IRQHandler            /* TIM4 */
  f0:	1d40006f          	j	2c4 <TIM4_IRQHandler>
C:/Users/22127/Desktop/Car_light/Libraries/Device/CH32V10x_p/Startup/startup_ch32v10x.S:79
        j   I2C1_EV_IRQHandler         /* I2C1 Event */
  f4:	f0dff06f          	j	0 <_sinit>
C:/Users/22127/Desktop/Car_light/Libraries/Device/CH32V10x_p/Startup/startup_ch32v10x.S:80
        j   I2C1_ER_IRQHandler         /* I2C1 Error */
  f8:	f09ff06f          	j	0 <_sinit>
C:/Users/22127/Desktop/Car_light/Libraries/Device/CH32V10x_p/Startup/startup_ch32v10x.S:81
        j   I2C2_EV_IRQHandler         /* I2C2 Event */
  fc:	f05ff06f          	j	0 <_sinit>
C:/Users/22127/Desktop/Car_light/Libraries/Device/CH32V10x_p/Startup/startup_ch32v10x.S:82
        j   I2C2_ER_IRQHandler         /* I2C2 Error */
 100:	f01ff06f          	j	0 <_sinit>
C:/Users/22127/Desktop/Car_light/Libraries/Device/CH32V10x_p/Startup/startup_ch32v10x.S:83
        j   SPI1_IRQHandler            /* SPI1 */
 104:	efdff06f          	j	0 <_sinit>
C:/Users/22127/Desktop/Car_light/Libraries/Device/CH32V10x_p/Startup/startup_ch32v10x.S:84
        j   SPI2_IRQHandler            /* SPI2 */
 108:	ef9ff06f          	j	0 <_sinit>
C:/Users/22127/Desktop/Car_light/Libraries/Device/CH32V10x_p/Startup/startup_ch32v10x.S:85
        j   USART1_IRQHandler          /* USART1 */
 10c:	1de0006f          	j	2ea <USART1_IRQHandler>
C:/Users/22127/Desktop/Car_light/Libraries/Device/CH32V10x_p/Startup/startup_ch32v10x.S:86
        j   USART2_IRQHandler          /* USART2 */
 110:	1de0006f          	j	2ee <USART2_IRQHandler>
C:/Users/22127/Desktop/Car_light/Libraries/Device/CH32V10x_p/Startup/startup_ch32v10x.S:87
        j   USART3_IRQHandler          /* USART3 */
 114:	2040006f          	j	318 <USART3_IRQHandler>
C:/Users/22127/Desktop/Car_light/Libraries/Device/CH32V10x_p/Startup/startup_ch32v10x.S:88
        j   EXTI15_10_IRQHandler       /* EXTI Line 15..10 */
 118:	0580006f          	j	170 <EXTI15_10_IRQHandler>
C:/Users/22127/Desktop/Car_light/Libraries/Device/CH32V10x_p/Startup/startup_ch32v10x.S:89
        j   RTCAlarm_IRQHandler        /* RTC Alarm through EXTI Line */
 11c:	ee5ff06f          	j	0 <_sinit>
C:/Users/22127/Desktop/Car_light/Libraries/Device/CH32V10x_p/Startup/startup_ch32v10x.S:90
        j   USBWakeUp_IRQHandler       /* USB Wakeup from suspend */
 120:	ee1ff06f          	j	0 <_sinit>
C:/Users/22127/Desktop/Car_light/Libraries/Device/CH32V10x_p/Startup/startup_ch32v10x.S:91
        j   USBHD_IRQHandler           /* USBHD */
 124:	eddff06f          	j	0 <_sinit>
	...

Disassembly of section .text:

00000140 <EXTI0_IRQHandler>:
EXTI0_IRQHandler():
     140:	30200073          	mret

00000144 <EXTI1_IRQHandler>:
EXTI1_IRQHandler():
C:/Users/22127/Desktop/Car_light/02-Car_Light/USER/src/isr.c:57
    ;
}

void EXTI1_IRQHandler(void)
{
    if(SET == EXTI_GetITStatus(EXTI_Line1))
     144:	4509                	li	a0,2
     146:	639000ef          	jal	ra,f7e <EXTI_GetITStatus>
     14a:	4785                	li	a5,1
     14c:	00f51563          	bne	a0,a5,156 <EXTI1_IRQHandler+0x12>
C:/Users/22127/Desktop/Car_light/02-Car_Light/USER/src/isr.c:63
    {
//        if(camera_type == CAMERA_BIN_UART)
//            ov7725_uart_vsync();
//        else if(camera_type == CAMERA_GRAYSCALE)
//            mt9v03x_vsync();
        EXTI_ClearITPendingBit(EXTI_Line1);
     150:	4509                	li	a0,2
     152:	64b000ef          	jal	ra,f9c <EXTI_ClearITPendingBit>
C:/Users/22127/Desktop/Car_light/02-Car_Light/USER/src/isr.c:66
    }

}
     156:	30200073          	mret

0000015a <EXTI2_IRQHandler>:
EXTI2_IRQHandler():
C:/Users/22127/Desktop/Car_light/02-Car_Light/USER/src/isr.c:70

void EXTI2_IRQHandler(void)
{
    EXTI_ClearITPendingBit(EXTI_Line2);
     15a:	4511                	li	a0,4
     15c:	641000ef          	jal	ra,f9c <EXTI_ClearITPendingBit>
C:/Users/22127/Desktop/Car_light/02-Car_Light/USER/src/isr.c:71
}
     160:	30200073          	mret

00000164 <EXTI3_IRQHandler>:
EXTI3_IRQHandler():
     164:	30200073          	mret

00000168 <EXTI4_IRQHandler>:
EXTI4_IRQHandler():
     168:	30200073          	mret

0000016c <EXTI9_5_IRQHandler>:
EXTI9_5_IRQHandler():
     16c:	30200073          	mret

00000170 <EXTI15_10_IRQHandler>:
EXTI15_10_IRQHandler():
     170:	30200073          	mret

00000174 <ADC1_2_IRQHandler>:
ADC1_2_IRQHandler():
     174:	30200073          	mret

00000178 <TIM1_BRK_IRQHandler>:
TIM1_BRK_IRQHandler():
C:/Users/22127/Desktop/Car_light/02-Car_Light/USER/src/isr.c:102


}

void TIM1_BRK_IRQHandler(void)
{
     178:	1141                	addi	sp,sp,-16
     17a:	c622                	sw	s0,12(sp)
C:/Users/22127/Desktop/Car_light/02-Car_Light/USER/src/isr.c:103
    if(TIM_GetITStatus(TIM1, TIM_IT_Break) != RESET)
     17c:	40013437          	lui	s0,0x40013
     180:	08000593          	li	a1,128
     184:	c0040513          	addi	a0,s0,-1024 # 40012c00 <_eusrstack+0x2000dc00>
     188:	382010ef          	jal	ra,150a <TIM_GetITStatus>
     18c:	c519                	beqz	a0,19a <TIM1_BRK_IRQHandler+0x22>
C:/Users/22127/Desktop/Car_light/02-Car_Light/USER/src/isr.c:105
    {
        TIM_ClearITPendingBit(TIM1, TIM_IT_Break);
     18e:	08000593          	li	a1,128
     192:	c0040513          	addi	a0,s0,-1024
     196:	390010ef          	jal	ra,1526 <TIM_ClearITPendingBit>
C:/Users/22127/Desktop/Car_light/02-Car_Light/USER/src/isr.c:108

    }
}
     19a:	4432                	lw	s0,12(sp)
     19c:	0141                	addi	sp,sp,16
     19e:	30200073          	mret

000001a2 <TIM1_UP_IRQHandler>:
TIM1_UP_IRQHandler():
C:/Users/22127/Desktop/Car_light/02-Car_Light/USER/src/isr.c:111

void TIM1_UP_IRQHandler(void)
{
     1a2:	1141                	addi	sp,sp,-16
     1a4:	c622                	sw	s0,12(sp)
C:/Users/22127/Desktop/Car_light/02-Car_Light/USER/src/isr.c:112
    if(TIM_GetITStatus(TIM1, TIM_IT_Update) != RESET)
     1a6:	40013437          	lui	s0,0x40013
     1aa:	4585                	li	a1,1
     1ac:	c0040513          	addi	a0,s0,-1024 # 40012c00 <_eusrstack+0x2000dc00>
     1b0:	35a010ef          	jal	ra,150a <TIM_GetITStatus>
     1b4:	c511                	beqz	a0,1c0 <TIM1_UP_IRQHandler+0x1e>
C:/Users/22127/Desktop/Car_light/02-Car_Light/USER/src/isr.c:114
    {
        TIM_ClearITPendingBit(TIM1, TIM_IT_Update);
     1b6:	4585                	li	a1,1
     1b8:	c0040513          	addi	a0,s0,-1024
     1bc:	36a010ef          	jal	ra,1526 <TIM_ClearITPendingBit>
C:/Users/22127/Desktop/Car_light/02-Car_Light/USER/src/isr.c:117

    }
}
     1c0:	4432                	lw	s0,12(sp)
     1c2:	0141                	addi	sp,sp,16
     1c4:	30200073          	mret

000001c8 <TIM1_TRG_COM_IRQHandler>:
TIM1_TRG_COM_IRQHandler():
C:/Users/22127/Desktop/Car_light/02-Car_Light/USER/src/isr.c:120

void TIM1_TRG_COM_IRQHandler(void)
{
     1c8:	1141                	addi	sp,sp,-16
     1ca:	c622                	sw	s0,12(sp)
C:/Users/22127/Desktop/Car_light/02-Car_Light/USER/src/isr.c:121
    if(TIM_GetITStatus(TIM1, TIM_IT_Trigger) != RESET)
     1cc:	40013437          	lui	s0,0x40013
     1d0:	04000593          	li	a1,64
     1d4:	c0040513          	addi	a0,s0,-1024 # 40012c00 <_eusrstack+0x2000dc00>
     1d8:	332010ef          	jal	ra,150a <TIM_GetITStatus>
     1dc:	c519                	beqz	a0,1ea <TIM1_TRG_COM_IRQHandler+0x22>
C:/Users/22127/Desktop/Car_light/02-Car_Light/USER/src/isr.c:123
    {
        TIM_ClearITPendingBit(TIM1, TIM_IT_Trigger);
     1de:	04000593          	li	a1,64
     1e2:	c0040513          	addi	a0,s0,-1024
     1e6:	340010ef          	jal	ra,1526 <TIM_ClearITPendingBit>
C:/Users/22127/Desktop/Car_light/02-Car_Light/USER/src/isr.c:126

    }
    if(TIM_GetITStatus(TIM1, TIM_IT_COM) != RESET)
     1ea:	40013437          	lui	s0,0x40013
     1ee:	02000593          	li	a1,32
     1f2:	c0040513          	addi	a0,s0,-1024 # 40012c00 <_eusrstack+0x2000dc00>
     1f6:	314010ef          	jal	ra,150a <TIM_GetITStatus>
     1fa:	c519                	beqz	a0,208 <TIM1_TRG_COM_IRQHandler+0x40>
C:/Users/22127/Desktop/Car_light/02-Car_Light/USER/src/isr.c:128
    {
        TIM_ClearITPendingBit(TIM1, TIM_IT_COM);
     1fc:	02000593          	li	a1,32
     200:	c0040513          	addi	a0,s0,-1024
     204:	322010ef          	jal	ra,1526 <TIM_ClearITPendingBit>
C:/Users/22127/Desktop/Car_light/02-Car_Light/USER/src/isr.c:131

    }
}
     208:	4432                	lw	s0,12(sp)
     20a:	0141                	addi	sp,sp,16
     20c:	30200073          	mret

00000210 <TIM1_CC_IRQHandler>:
TIM1_CC_IRQHandler():
C:/Users/22127/Desktop/Car_light/02-Car_Light/USER/src/isr.c:134

void TIM1_CC_IRQHandler(void)
{
     210:	1141                	addi	sp,sp,-16
     212:	c622                	sw	s0,12(sp)
C:/Users/22127/Desktop/Car_light/02-Car_Light/USER/src/isr.c:135
    if(TIM_GetITStatus(TIM1, TIM_IT_CC1) != RESET)
     214:	40013437          	lui	s0,0x40013
     218:	4589                	li	a1,2
     21a:	c0040513          	addi	a0,s0,-1024 # 40012c00 <_eusrstack+0x2000dc00>
     21e:	2ec010ef          	jal	ra,150a <TIM_GetITStatus>
     222:	c511                	beqz	a0,22e <TIM1_CC_IRQHandler+0x1e>
C:/Users/22127/Desktop/Car_light/02-Car_Light/USER/src/isr.c:137
    {
        TIM_ClearITPendingBit(TIM1, TIM_IT_CC1);
     224:	4589                	li	a1,2
     226:	c0040513          	addi	a0,s0,-1024
     22a:	2fc010ef          	jal	ra,1526 <TIM_ClearITPendingBit>
C:/Users/22127/Desktop/Car_light/02-Car_Light/USER/src/isr.c:140

    }
    if(TIM_GetITStatus(TIM1, TIM_IT_CC2) != RESET)
     22e:	40013437          	lui	s0,0x40013
     232:	4591                	li	a1,4
     234:	c0040513          	addi	a0,s0,-1024 # 40012c00 <_eusrstack+0x2000dc00>
     238:	2d2010ef          	jal	ra,150a <TIM_GetITStatus>
     23c:	c511                	beqz	a0,248 <TIM1_CC_IRQHandler+0x38>
C:/Users/22127/Desktop/Car_light/02-Car_Light/USER/src/isr.c:142
    {
        TIM_ClearITPendingBit(TIM1, TIM_IT_CC2);
     23e:	4591                	li	a1,4
     240:	c0040513          	addi	a0,s0,-1024
     244:	2e2010ef          	jal	ra,1526 <TIM_ClearITPendingBit>
C:/Users/22127/Desktop/Car_light/02-Car_Light/USER/src/isr.c:145

    }
    if(TIM_GetITStatus(TIM1, TIM_IT_CC3) != RESET)
     248:	40013437          	lui	s0,0x40013
     24c:	45a1                	li	a1,8
     24e:	c0040513          	addi	a0,s0,-1024 # 40012c00 <_eusrstack+0x2000dc00>
     252:	2b8010ef          	jal	ra,150a <TIM_GetITStatus>
     256:	c511                	beqz	a0,262 <TIM1_CC_IRQHandler+0x52>
C:/Users/22127/Desktop/Car_light/02-Car_Light/USER/src/isr.c:147
    {
        TIM_ClearITPendingBit(TIM1, TIM_IT_CC3);
     258:	45a1                	li	a1,8
     25a:	c0040513          	addi	a0,s0,-1024
     25e:	2c8010ef          	jal	ra,1526 <TIM_ClearITPendingBit>
C:/Users/22127/Desktop/Car_light/02-Car_Light/USER/src/isr.c:150

    }
    if(TIM_GetITStatus(TIM1, TIM_IT_CC4) != RESET)
     262:	40013437          	lui	s0,0x40013
     266:	45c1                	li	a1,16
     268:	c0040513          	addi	a0,s0,-1024 # 40012c00 <_eusrstack+0x2000dc00>
     26c:	29e010ef          	jal	ra,150a <TIM_GetITStatus>
     270:	c511                	beqz	a0,27c <TIM1_CC_IRQHandler+0x6c>
C:/Users/22127/Desktop/Car_light/02-Car_Light/USER/src/isr.c:152
    {
        TIM_ClearITPendingBit(TIM1, TIM_IT_CC4);
     272:	45c1                	li	a1,16
     274:	c0040513          	addi	a0,s0,-1024
     278:	2ae010ef          	jal	ra,1526 <TIM_ClearITPendingBit>
C:/Users/22127/Desktop/Car_light/02-Car_Light/USER/src/isr.c:155

    }
}
     27c:	4432                	lw	s0,12(sp)
     27e:	0141                	addi	sp,sp,16
     280:	30200073          	mret

00000284 <TIM2_IRQHandler>:
TIM2_IRQHandler():
C:/Users/22127/Desktop/Car_light/02-Car_Light/USER/src/isr.c:160

void TIM2_IRQHandler(void)
{

    if(TIM_GetITStatus(TIM2, TIM_IT_Update) != RESET)
     284:	4585                	li	a1,1
     286:	40000537          	lui	a0,0x40000
     28a:	280010ef          	jal	ra,150a <TIM_GetITStatus>
     28e:	c511                	beqz	a0,29a <TIM2_IRQHandler+0x16>
C:/Users/22127/Desktop/Car_light/02-Car_Light/USER/src/isr.c:162
    {
        TIM_ClearITPendingBit(TIM2, TIM_IT_Update );
     290:	4585                	li	a1,1
     292:	40000537          	lui	a0,0x40000
     296:	290010ef          	jal	ra,1526 <TIM_ClearITPendingBit>
C:/Users/22127/Desktop/Car_light/02-Car_Light/USER/src/isr.c:168
        //ccd_collect();//CCD数据采集
        //gpio_toggle(B5);
        //GPIO_PIN_RESET(B5);
        //GPIO_PIN_SET(B5);
    }
}
     29a:	30200073          	mret

0000029e <TIM3_IRQHandler>:
TIM3_IRQHandler():
C:/Users/22127/Desktop/Car_light/02-Car_Light/USER/src/isr.c:171

void TIM3_IRQHandler(void)
{
     29e:	1141                	addi	sp,sp,-16
     2a0:	c622                	sw	s0,12(sp)
C:/Users/22127/Desktop/Car_light/02-Car_Light/USER/src/isr.c:172
    if(TIM_GetITStatus(TIM3, TIM_IT_Update) != RESET)
     2a2:	40000437          	lui	s0,0x40000
     2a6:	4585                	li	a1,1
     2a8:	40040513          	addi	a0,s0,1024 # 40000400 <_eusrstack+0x1fffb400>
     2ac:	25e010ef          	jal	ra,150a <TIM_GetITStatus>
     2b0:	c511                	beqz	a0,2bc <TIM3_IRQHandler+0x1e>
C:/Users/22127/Desktop/Car_light/02-Car_Light/USER/src/isr.c:174
    {
        TIM_ClearITPendingBit(TIM3, TIM_IT_Update );
     2b2:	4585                	li	a1,1
     2b4:	40040513          	addi	a0,s0,1024
     2b8:	26e010ef          	jal	ra,1526 <TIM_ClearITPendingBit>
C:/Users/22127/Desktop/Car_light/02-Car_Light/USER/src/isr.c:177

    }
}
     2bc:	4432                	lw	s0,12(sp)
     2be:	0141                	addi	sp,sp,16
     2c0:	30200073          	mret

000002c4 <TIM4_IRQHandler>:
TIM4_IRQHandler():
C:/Users/22127/Desktop/Car_light/02-Car_Light/USER/src/isr.c:180

void TIM4_IRQHandler(void)
{
     2c4:	1141                	addi	sp,sp,-16
     2c6:	c622                	sw	s0,12(sp)
C:/Users/22127/Desktop/Car_light/02-Car_Light/USER/src/isr.c:181
    if(TIM_GetITStatus(TIM4, TIM_IT_Update) != RESET)
     2c8:	40001437          	lui	s0,0x40001
     2cc:	4585                	li	a1,1
     2ce:	80040513          	addi	a0,s0,-2048 # 40000800 <_eusrstack+0x1fffb800>
     2d2:	238010ef          	jal	ra,150a <TIM_GetITStatus>
     2d6:	c511                	beqz	a0,2e2 <TIM4_IRQHandler+0x1e>
C:/Users/22127/Desktop/Car_light/02-Car_Light/USER/src/isr.c:183
    {
        TIM_ClearITPendingBit(TIM4, TIM_IT_Update );
     2d8:	4585                	li	a1,1
     2da:	80040513          	addi	a0,s0,-2048
     2de:	248010ef          	jal	ra,1526 <TIM_ClearITPendingBit>
C:/Users/22127/Desktop/Car_light/02-Car_Light/USER/src/isr.c:186

    }
}
     2e2:	4432                	lw	s0,12(sp)
     2e4:	0141                	addi	sp,sp,16
     2e6:	30200073          	mret

000002ea <USART1_IRQHandler>:
USART1_IRQHandler():
     2ea:	30200073          	mret

000002ee <USART2_IRQHandler>:
USART2_IRQHandler():
C:/Users/22127/Desktop/Car_light/02-Car_Light/USER/src/isr.c:194
{

}

void USART2_IRQHandler(void)
{
     2ee:	1141                	addi	sp,sp,-16
     2f0:	c622                	sw	s0,12(sp)
C:/Users/22127/Desktop/Car_light/02-Car_Light/USER/src/isr.c:195
    if(USART_GetITStatus(USART2, USART_IT_RXNE) != RESET)
     2f2:	40004437          	lui	s0,0x40004
     2f6:	52500593          	li	a1,1317
     2fa:	40040513          	addi	a0,s0,1024 # 40004400 <_eusrstack+0x1ffff400>
     2fe:	32a010ef          	jal	ra,1628 <USART_GetITStatus>
     302:	c519                	beqz	a0,310 <USART2_IRQHandler+0x22>
C:/Users/22127/Desktop/Car_light/02-Car_Light/USER/src/isr.c:197
    {
        USART_ClearITPendingBit(USART2, USART_IT_RXNE);
     304:	52500593          	li	a1,1317
     308:	40040513          	addi	a0,s0,1024
     30c:	360010ef          	jal	ra,166c <USART_ClearITPendingBit>
C:/Users/22127/Desktop/Car_light/02-Car_Light/USER/src/isr.c:203
//        if(camera_type == CAMERA_BIN_UART)
//            ov7725_cof_uart_interrupt();
//        else if(camera_type == CAMERA_GRAYSCALE)
//            mt9v03x_uart_callback();
    }
}
     310:	4432                	lw	s0,12(sp)
     312:	0141                	addi	sp,sp,16
     314:	30200073          	mret

00000318 <USART3_IRQHandler>:
USART3_IRQHandler():
     318:	30200073          	mret

0000031c <DMA1_Channel1_IRQHandler>:
DMA1_Channel1_IRQHandler():
     31c:	30200073          	mret

00000320 <DMA1_Channel2_IRQHandler>:
DMA1_Channel2_IRQHandler():
     320:	30200073          	mret

00000324 <DMA1_Channel3_IRQHandler>:
DMA1_Channel3_IRQHandler():
     324:	30200073          	mret

00000328 <DMA1_Channel4_IRQHandler>:
DMA1_Channel4_IRQHandler():
C:/Users/22127/Desktop/Car_light/02-Car_Light/USER/src/isr.c:227

}

void DMA1_Channel4_IRQHandler(void)
{
    if(SET == DMA_GetFlagStatus(DMA1_FLAG_TC4))
     328:	6509                	lui	a0,0x2
     32a:	41b000ef          	jal	ra,f44 <DMA_GetFlagStatus>
     32e:	4785                	li	a5,1
     330:	00f51563          	bne	a0,a5,33a <DMA1_Channel4_IRQHandler+0x12>
C:/Users/22127/Desktop/Car_light/02-Car_Light/USER/src/isr.c:229
    {
        DMA_ClearFlag(DMA1_FLAG_TC4);
     334:	6509                	lui	a0,0x2
     336:	42f000ef          	jal	ra,f64 <DMA_ClearFlag>
C:/Users/22127/Desktop/Car_light/02-Car_Light/USER/src/isr.c:231
    }
}
     33a:	30200073          	mret

0000033e <DMA1_Channel5_IRQHandler>:
DMA1_Channel5_IRQHandler():
     33e:	30200073          	mret

00000342 <DMA1_Channel6_IRQHandler>:
DMA1_Channel6_IRQHandler():
     342:	30200073          	mret

00000346 <DMA1_Channel7_IRQHandler>:
DMA1_Channel7_IRQHandler():
     346:	30200073          	mret

0000034a <NMI_Handler>:
NMI_Handler():
C:/Users/22127/Desktop/Car_light/02-Car_Light/USER/src/isr.c:257
* Return         : None
*******************************************************************************/
void NMI_Handler(void)
{

}
     34a:	30200073          	mret

0000034e <HardFault_Handler>:
HardFault_Handler():
C:/Users/22127/Desktop/Car_light/02-Car_Light/USER/src/isr.c:270 (discriminator 1)
void HardFault_Handler(void)
{

  while (1)
  {
  }
     34e:	a001                	j	34e <HardFault_Handler>

00000350 <main>:
main():
C:/Users/22127/Desktop/Car_light/02-Car_Light/USER/src/main.c:32

#include "main.h"
#include "headfile.h"

int main(void)
{
     350:	1101                	addi	sp,sp,-32
     352:	cc22                	sw	s0,24(sp)
C:/Users/22127/Desktop/Car_light/02-Car_Light/USER/src/main.c:61
            {
                car_both_rgb_on(blue, 5000);    //按下按键3，尾灯显示蓝色
            }
            else if(key_value == 0x04)
            {
                car_both_rgb_on(green, 5000);   //按下按键4，尾灯显示绿色
     354:	6405                	lui	s0,0x1
C:/Users/22127/Desktop/Car_light/02-Car_Light/USER/src/main.c:32
{
     356:	ca26                	sw	s1,20(sp)
     358:	c84a                	sw	s2,16(sp)
     35a:	c64e                	sw	s3,12(sp)
     35c:	c452                	sw	s4,8(sp)
     35e:	c256                	sw	s5,4(sp)
     360:	ce06                	sw	ra,28(sp)
C:/Users/22127/Desktop/Car_light/02-Car_Light/USER/src/main.c:45
        if (key_value != 0xFF)
     362:	0ff00493          	li	s1,255
C:/Users/22127/Desktop/Car_light/02-Car_Light/USER/src/main.c:37
    car_init();
     366:	23b000ef          	jal	ra,da0 <car_init>
C:/Users/22127/Desktop/Car_light/02-Car_Light/USER/src/main.c:47
            if(key_value == 0x01)
     36a:	4905                	li	s2,1
C:/Users/22127/Desktop/Car_light/02-Car_Light/USER/src/main.c:51
            else if(key_value == 0x02)
     36c:	4989                	li	s3,2
C:/Users/22127/Desktop/Car_light/02-Car_Light/USER/src/main.c:55
            else if(key_value == 0x03)
     36e:	4a0d                	li	s4,3
C:/Users/22127/Desktop/Car_light/02-Car_Light/USER/src/main.c:59
            else if(key_value == 0x04)
     370:	4a91                	li	s5,4
C:/Users/22127/Desktop/Car_light/02-Car_Light/USER/src/main.c:61
                car_both_rgb_on(green, 5000);   //按下按键4，尾灯显示绿色
     372:	38840413          	addi	s0,s0,904 # 1388 <TIM_OC3Init+0x76>
C:/Users/22127/Desktop/Car_light/02-Car_Light/USER/src/main.c:43
        key_value = key_check();
     376:	1b5000ef          	jal	ra,d2a <key_check>
C:/Users/22127/Desktop/Car_light/02-Car_Light/USER/src/main.c:45
        if (key_value != 0xFF)
     37a:	fe950ee3          	beq	a0,s1,376 <main+0x26>
C:/Users/22127/Desktop/Car_light/02-Car_Light/USER/src/main.c:49
                car_both_rgb_on(yellow, 5000);  //按下按键1，尾灯显示黄色
     37e:	85a2                	mv	a1,s0
C:/Users/22127/Desktop/Car_light/02-Car_Light/USER/src/main.c:47
            if(key_value == 0x01)
     380:	01250563          	beq	a0,s2,38a <main+0x3a>
C:/Users/22127/Desktop/Car_light/02-Car_Light/USER/src/main.c:51
            else if(key_value == 0x02)
     384:	01351663          	bne	a0,s3,390 <main+0x40>
C:/Users/22127/Desktop/Car_light/02-Car_Light/USER/src/main.c:53
                car_both_rgb_on(red, 5000);     //按下按键2，尾灯显示红色
     388:	4501                	li	a0,0
C:/Users/22127/Desktop/Car_light/02-Car_Light/USER/src/main.c:61
                car_both_rgb_on(green, 5000);   //按下按键4，尾灯显示绿色
     38a:	269000ef          	jal	ra,df2 <car_both_rgb_on>
     38e:	b7e5                	j	376 <main+0x26>
C:/Users/22127/Desktop/Car_light/02-Car_Light/USER/src/main.c:55
            else if(key_value == 0x03)
     390:	01451463          	bne	a0,s4,398 <main+0x48>
C:/Users/22127/Desktop/Car_light/02-Car_Light/USER/src/main.c:57
                car_both_rgb_on(blue, 5000);    //按下按键3，尾灯显示蓝色
     394:	4511                	li	a0,4
     396:	bfd5                	j	38a <main+0x3a>
C:/Users/22127/Desktop/Car_light/02-Car_Light/USER/src/main.c:59
            else if(key_value == 0x04)
     398:	fd551fe3          	bne	a0,s5,376 <main+0x26>
C:/Users/22127/Desktop/Car_light/02-Car_Light/USER/src/main.c:61
                car_both_rgb_on(green, 5000);   //按下按键4，尾灯显示绿色
     39c:	450d                	li	a0,3
     39e:	b7f5                	j	38a <main+0x3a>

000003a0 <l9110s_init>:
l9110s_init():
C:/Users/22127/Desktop/Car_light/Libraries/hefei_peripheral/HF_L9110S_2.c:19
// @return       void
// Sample usage:        PWM_9110_init(left); 
                        //初始化左电机PWM
//-------------------------------------------------------------------------------------------------------------------
void l9110s_init(left_or_right object)
{
     3a0:	1141                	addi	sp,sp,-16
     3a2:	c606                	sw	ra,12(sp)
C:/Users/22127/Desktop/Car_light/Libraries/hefei_peripheral/HF_L9110S_2.c:20
    if(object == left)
     3a4:	e10d                	bnez	a0,3c6 <l9110s_init+0x26>
C:/Users/22127/Desktop/Car_light/Libraries/hefei_peripheral/HF_L9110S_2.c:22
    {
        pwm_init(L_PWM_F, 72, 0, TIM_OCPreload_Enable);
     3a6:	46a1                	li	a3,8
     3a8:	4601                	li	a2,0
     3aa:	04800593          	li	a1,72
     3ae:	30200513          	li	a0,770
     3b2:	2d51                	jal	a46 <pwm_init>
C:/Users/22127/Desktop/Car_light/Libraries/hefei_peripheral/HF_L9110S_2.c:23
        pwm_init(L_PWM_B, 72, 0, TIM_OCPreload_Enable);
     3b4:	46a1                	li	a3,8
     3b6:	4601                	li	a2,0
     3b8:	04800593          	li	a1,72
     3bc:	30300513          	li	a0,771
C:/Users/22127/Desktop/Car_light/Libraries/hefei_peripheral/HF_L9110S_2.c:31
    else if(object == right)
    {
        pwm_init(R_PWM_F, 72, 0, TIM_OCPreload_Disable);
        pwm_init(R_PWM_B, 72, 0, TIM_OCPreload_Disable);
    }
}
     3c0:	40b2                	lw	ra,12(sp)
     3c2:	0141                	addi	sp,sp,16
C:/Users/22127/Desktop/Car_light/Libraries/hefei_peripheral/HF_L9110S_2.c:29
        pwm_init(R_PWM_B, 72, 0, TIM_OCPreload_Disable);
     3c4:	a549                	j	a46 <pwm_init>
C:/Users/22127/Desktop/Car_light/Libraries/hefei_peripheral/HF_L9110S_2.c:26
    else if(object == right)
     3c6:	4785                	li	a5,1
     3c8:	02f51063          	bne	a0,a5,3e8 <l9110s_init+0x48>
C:/Users/22127/Desktop/Car_light/Libraries/hefei_peripheral/HF_L9110S_2.c:28
        pwm_init(R_PWM_F, 72, 0, TIM_OCPreload_Disable);
     3cc:	4681                	li	a3,0
     3ce:	4601                	li	a2,0
     3d0:	04800593          	li	a1,72
     3d4:	20200513          	li	a0,514
     3d8:	25bd                	jal	a46 <pwm_init>
C:/Users/22127/Desktop/Car_light/Libraries/hefei_peripheral/HF_L9110S_2.c:29
        pwm_init(R_PWM_B, 72, 0, TIM_OCPreload_Disable);
     3da:	4681                	li	a3,0
     3dc:	4601                	li	a2,0
     3de:	04800593          	li	a1,72
     3e2:	20300513          	li	a0,515
     3e6:	bfe9                	j	3c0 <l9110s_init+0x20>
C:/Users/22127/Desktop/Car_light/Libraries/hefei_peripheral/HF_L9110S_2.c:31
}
     3e8:	40b2                	lw	ra,12(sp)
     3ea:	0141                	addi	sp,sp,16
     3ec:	8082                	ret

000003ee <ws2812b_init>:
ws2812b_init():
C:/Users/22127/Desktop/Car_light/Libraries/hefei_peripheral/HF_WS2812b.c:21
//  Sample usage:           ws2812b_init();
//                          //初始化RGB等
//-------------------------------------------------------------------------------------------------------------------
void ws2812b_init()
{
    pwm_init(PWM2_CH2_A1, 180000, 0, TIM_OCPreload_Disable);
     3ee:	0002c5b7          	lui	a1,0x2c
C:/Users/22127/Desktop/Car_light/Libraries/hefei_peripheral/HF_WS2812b.c:20
{
     3f2:	1141                	addi	sp,sp,-16
C:/Users/22127/Desktop/Car_light/Libraries/hefei_peripheral/HF_WS2812b.c:21
    pwm_init(PWM2_CH2_A1, 180000, 0, TIM_OCPreload_Disable);
     3f4:	f2058593          	addi	a1,a1,-224 # 2bf20 <_data_lma+0x2a86c>
     3f8:	10100513          	li	a0,257
     3fc:	4681                	li	a3,0
     3fe:	4601                	li	a2,0
C:/Users/22127/Desktop/Car_light/Libraries/hefei_peripheral/HF_WS2812b.c:20
{
     400:	c606                	sw	ra,12(sp)
C:/Users/22127/Desktop/Car_light/Libraries/hefei_peripheral/HF_WS2812b.c:21
    pwm_init(PWM2_CH2_A1, 180000, 0, TIM_OCPreload_Disable);
     402:	2591                	jal	a46 <pwm_init>
C:/Users/22127/Desktop/Car_light/Libraries/hefei_peripheral/HF_WS2812b.c:23
    TIM_OC2PolarityConfig(TIM2, TIM_OCPolarity_Low);
}
     404:	40b2                	lw	ra,12(sp)
C:/Users/22127/Desktop/Car_light/Libraries/hefei_peripheral/HF_WS2812b.c:22
    TIM_OC2PolarityConfig(TIM2, TIM_OCPolarity_Low);
     406:	4589                	li	a1,2
     408:	40000537          	lui	a0,0x40000
C:/Users/22127/Desktop/Car_light/Libraries/hefei_peripheral/HF_WS2812b.c:23
}
     40c:	0141                	addi	sp,sp,16
C:/Users/22127/Desktop/Car_light/Libraries/hefei_peripheral/HF_WS2812b.c:22
    TIM_OC2PolarityConfig(TIM2, TIM_OCPolarity_Low);
     40e:	0c20106f          	j	14d0 <TIM_OC2PolarityConfig>

00000412 <ws2812b_write>:
ws2812b_write():
C:/Users/22127/Desktop/Car_light/Libraries/hefei_peripheral/HF_WS2812b.c:33
// @return       void
// Sample usage:        uint8_t RGB[3] = {0xff,0x00,0x00};  ws2812b_write(RGB);
                        //向RGB写入数组，显示红色
//-------------------------------------------------------------------------------------------------------------------
void ws2812b_write(uint8_t* RGB)
{
     412:	7179                	addi	sp,sp,-48
     414:	d226                	sw	s1,36(sp)
     416:	d04a                	sw	s2,32(sp)
     418:	ce4e                	sw	s3,28(sp)
     41a:	cc52                	sw	s4,24(sp)
     41c:	d606                	sw	ra,44(sp)
     41e:	d422                	sw	s0,40(sp)
C:/Users/22127/Desktop/Car_light/Libraries/hefei_peripheral/HF_WS2812b.c:37
    unsigned int num, i;
    unsigned char GRB[3] = {0,};

    GRB[0] = RGB[1];
     420:	00154783          	lbu	a5,1(a0) # 40000001 <_eusrstack+0x1fffb001>
C:/Users/22127/Desktop/Car_light/Libraries/hefei_peripheral/HF_WS2812b.c:40
    GRB[1] = RGB[0];
    GRB[2] = RGB[2];
    TIM_SetCounter(((TIM_TypeDef *)TIM2_BASE), 0);
     424:	4581                	li	a1,0
     426:	0064                	addi	s1,sp,12
C:/Users/22127/Desktop/Car_light/Libraries/hefei_peripheral/HF_WS2812b.c:37
    GRB[0] = RGB[1];
     428:	00f10623          	sb	a5,12(sp)
C:/Users/22127/Desktop/Car_light/Libraries/hefei_peripheral/HF_WS2812b.c:38
    GRB[1] = RGB[0];
     42c:	00054783          	lbu	a5,0(a0)
     430:	00f10993          	addi	s3,sp,15
     434:	00f106a3          	sb	a5,13(sp)
C:/Users/22127/Desktop/Car_light/Libraries/hefei_peripheral/HF_WS2812b.c:39
    GRB[2] = RGB[2];
     438:	00254783          	lbu	a5,2(a0)
C:/Users/22127/Desktop/Car_light/Libraries/hefei_peripheral/HF_WS2812b.c:40
    TIM_SetCounter(((TIM_TypeDef *)TIM2_BASE), 0);
     43c:	40000537          	lui	a0,0x40000
C:/Users/22127/Desktop/Car_light/Libraries/hefei_peripheral/HF_WS2812b.c:39
    GRB[2] = RGB[2];
     440:	00f10723          	sb	a5,14(sp)
C:/Users/22127/Desktop/Car_light/Libraries/hefei_peripheral/HF_WS2812b.c:40
    TIM_SetCounter(((TIM_TypeDef *)TIM2_BASE), 0);
     444:	0a6010ef          	jal	ra,14ea <TIM_SetCounter>
C:/Users/22127/Desktop/Car_light/Libraries/hefei_peripheral/HF_WS2812b.c:53
                //设置阈值(比较值,调节占空比的时候调节这个值)
                pwm_duty(PWM2_CH2_A1, 8500);/*发1*/
            }
            else
            {
                pwm_duty(PWM2_CH2_A1, 9500);/*发0*/
     448:	6589                	lui	a1,0x2
     44a:	51c58a13          	addi	s4,a1,1308 # 251c <_data_lma+0xe68>
C:/Users/22127/Desktop/Car_light/Libraries/hefei_peripheral/HF_WS2812b.c:49
                pwm_duty(PWM2_CH2_A1, 8500);/*发1*/
     44e:	13458913          	addi	s2,a1,308
C:/Users/22127/Desktop/Car_light/Libraries/hefei_peripheral/HF_WS2812b.c:44
        for(i = 8; i!=0; i--)
     452:	4421                	li	s0,8
C:/Users/22127/Desktop/Car_light/Libraries/hefei_peripheral/HF_WS2812b.c:46
            if((*(GRB+num)>>(i-1))&0x01)
     454:	0004c783          	lbu	a5,0(s1)
     458:	147d                	addi	s0,s0,-1
C:/Users/22127/Desktop/Car_light/Libraries/hefei_peripheral/HF_WS2812b.c:49
                pwm_duty(PWM2_CH2_A1, 8500);/*发1*/
     45a:	85ca                	mv	a1,s2
C:/Users/22127/Desktop/Car_light/Libraries/hefei_peripheral/HF_WS2812b.c:46
            if((*(GRB+num)>>(i-1))&0x01)
     45c:	4087d7b3          	sra	a5,a5,s0
     460:	8b85                	andi	a5,a5,1
     462:	e391                	bnez	a5,466 <ws2812b_write+0x54>
C:/Users/22127/Desktop/Car_light/Libraries/hefei_peripheral/HF_WS2812b.c:53
                pwm_duty(PWM2_CH2_A1, 9500);/*发0*/
     464:	85d2                	mv	a1,s4
     466:	10100513          	li	a0,257
     46a:	2e0d                	jal	79c <pwm_duty>
C:/Users/22127/Desktop/Car_light/Libraries/hefei_peripheral/HF_WS2812b.c:55
            }
            TIM_Cmd(((TIM_TypeDef *)TIM2_BASE), ENABLE);
     46c:	4585                	li	a1,1
     46e:	40000537          	lui	a0,0x40000
     472:	7d5000ef          	jal	ra,1446 <TIM_Cmd>
C:/Users/22127/Desktop/Car_light/Libraries/hefei_peripheral/HF_WS2812b.c:56 (discriminator 1)
            while(!TIM_GetFlagStatus(((TIM_TypeDef *)TIM2_BASE), TIM_FLAG_Update));
     476:	4585                	li	a1,1
     478:	40000537          	lui	a0,0x40000
     47c:	074010ef          	jal	ra,14f0 <TIM_GetFlagStatus>
     480:	d97d                	beqz	a0,476 <ws2812b_write+0x64>
C:/Users/22127/Desktop/Car_light/Libraries/hefei_peripheral/HF_WS2812b.c:57 (discriminator 2)
            TIM_Cmd(((TIM_TypeDef *)TIM2_BASE), DISABLE);
     482:	4581                	li	a1,0
     484:	40000537          	lui	a0,0x40000
     488:	7bf000ef          	jal	ra,1446 <TIM_Cmd>
C:/Users/22127/Desktop/Car_light/Libraries/hefei_peripheral/HF_WS2812b.c:58 (discriminator 2)
            TIM_ClearFlag(((TIM_TypeDef *)TIM2_BASE), TIM_FLAG_Update);
     48c:	4585                	li	a1,1
     48e:	40000537          	lui	a0,0x40000
     492:	06a010ef          	jal	ra,14fc <TIM_ClearFlag>
C:/Users/22127/Desktop/Car_light/Libraries/hefei_peripheral/HF_WS2812b.c:59 (discriminator 2)
            TIM_SetCounter(((TIM_TypeDef *)TIM2_BASE), 0);
     496:	4581                	li	a1,0
     498:	40000537          	lui	a0,0x40000
     49c:	04e010ef          	jal	ra,14ea <TIM_SetCounter>
C:/Users/22127/Desktop/Car_light/Libraries/hefei_peripheral/HF_WS2812b.c:44 (discriminator 2)
        for(i = 8; i!=0; i--)
     4a0:	f855                	bnez	s0,454 <ws2812b_write+0x42>
     4a2:	0485                	addi	s1,s1,1
C:/Users/22127/Desktop/Car_light/Libraries/hefei_peripheral/HF_WS2812b.c:42 (discriminator 2)
    for(num = 0; num<3; num++)
     4a4:	fa9997e3          	bne	s3,s1,452 <ws2812b_write+0x40>
C:/Users/22127/Desktop/Car_light/Libraries/hefei_peripheral/HF_WS2812b.c:62
        }
    }
}
     4a8:	50b2                	lw	ra,44(sp)
     4aa:	5422                	lw	s0,40(sp)
     4ac:	5492                	lw	s1,36(sp)
     4ae:	5902                	lw	s2,32(sp)
     4b0:	49f2                	lw	s3,28(sp)
     4b2:	4a62                	lw	s4,24(sp)
     4b4:	6145                	addi	sp,sp,48
     4b6:	8082                	ret

000004b8 <board_init>:
board_init():
C:/Users/22127/Desktop/Car_light/Libraries/hefei_libraries/board/board.c:22
//  Sample usage:              board_init();
//-------------------------------------------------------------------------------------------------------------------
void board_init(void)
{
    //获取系统主频
    sys_clk = 8000000 * (((RCC->CFGR0 >> 18)&0x0F) + 2);
     4b8:	400217b7          	lui	a5,0x40021
     4bc:	43dc                	lw	a5,4(a5)
     4be:	007a1737          	lui	a4,0x7a1
     4c2:	20070713          	addi	a4,a4,512 # 7a1200 <_data_lma+0x79fb4c>
     4c6:	83c9                	srli	a5,a5,0x12
     4c8:	8bbd                	andi	a5,a5,15
     4ca:	02e787b3          	mul	a5,a5,a4
     4ce:	00f42737          	lui	a4,0xf42
     4d2:	40070713          	addi	a4,a4,1024 # f42400 <_data_lma+0xf40d4c>
C:/Users/22127/Desktop/Car_light/Libraries/hefei_libraries/board/board.c:24
    //初始化DEBUG串口
    uart_init(DEBUG_UART, DEBUG_UART_BAUD, DEBUG_UART_TX_PIN, DEBUG_UART_RX_PIN);
     4d6:	65f1                	lui	a1,0x1c
     4d8:	4685                	li	a3,1
     4da:	4601                	li	a2,0
     4dc:	20058593          	addi	a1,a1,512 # 1c200 <_data_lma+0x1ab4c>
     4e0:	4501                	li	a0,0
C:/Users/22127/Desktop/Car_light/Libraries/hefei_libraries/board/board.c:22
    sys_clk = 8000000 * (((RCC->CFGR0 >> 18)&0x0F) + 2);
     4e2:	97ba                	add	a5,a5,a4
     4e4:	82f1a423          	sw	a5,-2008(gp) # 20000038 <_edata>
C:/Users/22127/Desktop/Car_light/Libraries/hefei_libraries/board/board.c:24
    uart_init(DEBUG_UART, DEBUG_UART_BAUD, DEBUG_UART_TX_PIN, DEBUG_UART_RX_PIN);
     4e8:	7840006f          	j	c6c <uart_init>

000004ec <SystemInit>:
SystemInit():
C:/Users/22127/Desktop/Car_light/Libraries/hefei_libraries/board/clock_config.c:94
* Input          : None
* Return         : None
*******************************************************************************************/
void SystemInit (void)
{
    RCC->CTLR |= (uint32_t)0x00000001;
     4ec:	400217b7          	lui	a5,0x40021
     4f0:	4398                	lw	a4,0(a5)
C:/Users/22127/Desktop/Car_light/Libraries/hefei_libraries/board/clock_config.c:95
    RCC->CFGR0 &= (uint32_t)0xF8FF0000;
     4f2:	f8ff06b7          	lui	a3,0xf8ff0
C:/Users/22127/Desktop/Car_light/Libraries/hefei_libraries/board/clock_config.c:93
{
     4f6:	1141                	addi	sp,sp,-16
C:/Users/22127/Desktop/Car_light/Libraries/hefei_libraries/board/clock_config.c:94
    RCC->CTLR |= (uint32_t)0x00000001;
     4f8:	00176713          	ori	a4,a4,1
     4fc:	c398                	sw	a4,0(a5)
C:/Users/22127/Desktop/Car_light/Libraries/hefei_libraries/board/clock_config.c:95
    RCC->CFGR0 &= (uint32_t)0xF8FF0000;
     4fe:	43d8                	lw	a4,4(a5)
SetSysClock():
C:/Users/22127/Desktop/Car_light/Libraries/hefei_libraries/board/clock_config.c:28
        HSEStatus = RCC->CTLR & RCC_HSERDY;
     500:	00020637          	lui	a2,0x20
SystemInit():
C:/Users/22127/Desktop/Car_light/Libraries/hefei_libraries/board/clock_config.c:95
    RCC->CFGR0 &= (uint32_t)0xF8FF0000;
     504:	8f75                	and	a4,a4,a3
     506:	c3d8                	sw	a4,4(a5)
C:/Users/22127/Desktop/Car_light/Libraries/hefei_libraries/board/clock_config.c:96
    RCC->CTLR &= (uint32_t)0xFEF6FFFF;
     508:	4398                	lw	a4,0(a5)
     50a:	fef706b7          	lui	a3,0xfef70
     50e:	16fd                	addi	a3,a3,-1
     510:	8f75                	and	a4,a4,a3
     512:	c398                	sw	a4,0(a5)
C:/Users/22127/Desktop/Car_light/Libraries/hefei_libraries/board/clock_config.c:97
    RCC->CTLR &= (uint32_t)0xFFFBFFFF;
     514:	4398                	lw	a4,0(a5)
     516:	fffc06b7          	lui	a3,0xfffc0
     51a:	16fd                	addi	a3,a3,-1
     51c:	8f75                	and	a4,a4,a3
     51e:	c398                	sw	a4,0(a5)
C:/Users/22127/Desktop/Car_light/Libraries/hefei_libraries/board/clock_config.c:98
    RCC->CFGR0 &= (uint32_t)0xFF80FFFF;
     520:	43d8                	lw	a4,4(a5)
     522:	ff8106b7          	lui	a3,0xff810
     526:	16fd                	addi	a3,a3,-1
     528:	8f75                	and	a4,a4,a3
     52a:	c3d8                	sw	a4,4(a5)
C:/Users/22127/Desktop/Car_light/Libraries/hefei_libraries/board/clock_config.c:99
    RCC->INTR = 0x009F0000;
     52c:	009f0737          	lui	a4,0x9f0
     530:	c798                	sw	a4,8(a5)
SetSysClock():
C:/Users/22127/Desktop/Car_light/Libraries/hefei_libraries/board/clock_config.c:21
    __IO uint32_t StartUpCounter = 0, HSEStatus = 0;
     532:	c402                	sw	zero,8(sp)
     534:	c602                	sw	zero,12(sp)
C:/Users/22127/Desktop/Car_light/Libraries/hefei_libraries/board/clock_config.c:23
    RCC->CTLR |= ((uint32_t)RCC_HSEON);
     536:	4398                	lw	a4,0(a5)
     538:	66c1                	lui	a3,0x10
     53a:	8f55                	or	a4,a4,a3
     53c:	c398                	sw	a4,0(a5)
C:/Users/22127/Desktop/Car_light/Libraries/hefei_libraries/board/clock_config.c:28
        HSEStatus = RCC->CTLR & RCC_HSERDY;
     53e:	400216b7          	lui	a3,0x40021
C:/Users/22127/Desktop/Car_light/Libraries/hefei_libraries/board/clock_config.c:30
    } while((HSEStatus == 0) && (StartUpCounter != HSE_STARTUP_TIMEOUT));
     542:	50000713          	li	a4,1280
C:/Users/22127/Desktop/Car_light/Libraries/hefei_libraries/board/clock_config.c:28
        HSEStatus = RCC->CTLR & RCC_HSERDY;
     546:	429c                	lw	a5,0(a3)
     548:	8ff1                	and	a5,a5,a2
     54a:	c63e                	sw	a5,12(sp)
C:/Users/22127/Desktop/Car_light/Libraries/hefei_libraries/board/clock_config.c:29
        StartUpCounter++;
     54c:	47a2                	lw	a5,8(sp)
     54e:	0785                	addi	a5,a5,1
     550:	c43e                	sw	a5,8(sp)
C:/Users/22127/Desktop/Car_light/Libraries/hefei_libraries/board/clock_config.c:30
    } while((HSEStatus == 0) && (StartUpCounter != HSE_STARTUP_TIMEOUT));
     552:	47b2                	lw	a5,12(sp)
     554:	e781                	bnez	a5,55c <SystemInit+0x70>
     556:	47a2                	lw	a5,8(sp)
     558:	fee797e3          	bne	a5,a4,546 <SystemInit+0x5a>
C:/Users/22127/Desktop/Car_light/Libraries/hefei_libraries/board/clock_config.c:32
    if ((RCC->CTLR & RCC_HSERDY) != RESET)
     55c:	400217b7          	lui	a5,0x40021
     560:	439c                	lw	a5,0(a5)
     562:	00e79713          	slli	a4,a5,0xe
     566:	08075263          	bgez	a4,5ea <SystemInit+0xfe>
C:/Users/22127/Desktop/Car_light/Libraries/hefei_libraries/board/clock_config.c:34
        HSEStatus = (uint32_t)0x01;
     56a:	4785                	li	a5,1
     56c:	c63e                	sw	a5,12(sp)
C:/Users/22127/Desktop/Car_light/Libraries/hefei_libraries/board/clock_config.c:41
    if (HSEStatus == (uint32_t)0x01)
     56e:	4732                	lw	a4,12(sp)
     570:	4785                	li	a5,1
     572:	06f71a63          	bne	a4,a5,5e6 <SystemInit+0xfa>
C:/Users/22127/Desktop/Car_light/Libraries/hefei_libraries/board/clock_config.c:44
        FLASH->ACTLR |= FLASH_ACTLR_PRFTBE;
     576:	400227b7          	lui	a5,0x40022
     57a:	4398                	lw	a4,0(a5)
C:/Users/22127/Desktop/Car_light/Libraries/hefei_libraries/board/clock_config.c:58
        RCC->CFGR0 &= (uint32_t)((uint32_t)~(RCC_PLLSRC | RCC_PLLXTPRE |
     57c:	ffc106b7          	lui	a3,0xffc10
     580:	16fd                	addi	a3,a3,-1
C:/Users/22127/Desktop/Car_light/Libraries/hefei_libraries/board/clock_config.c:44
        FLASH->ACTLR |= FLASH_ACTLR_PRFTBE;
     582:	01076713          	ori	a4,a4,16
     586:	c398                	sw	a4,0(a5)
C:/Users/22127/Desktop/Car_light/Libraries/hefei_libraries/board/clock_config.c:47
        FLASH->ACTLR &= (uint32_t)((uint32_t)~FLASH_ACTLR_LATENCY);
     588:	4398                	lw	a4,0(a5)
     58a:	9b71                	andi	a4,a4,-4
     58c:	c398                	sw	a4,0(a5)
C:/Users/22127/Desktop/Car_light/Libraries/hefei_libraries/board/clock_config.c:48
        FLASH->ACTLR |= (uint32_t)FLASH_ACTLR_LATENCY_2;
     58e:	4398                	lw	a4,0(a5)
     590:	00276713          	ori	a4,a4,2
     594:	c398                	sw	a4,0(a5)
C:/Users/22127/Desktop/Car_light/Libraries/hefei_libraries/board/clock_config.c:51
        RCC->CFGR0 |= (uint32_t)RCC_HPRE_DIV1;
     596:	400217b7          	lui	a5,0x40021
     59a:	43d8                	lw	a4,4(a5)
     59c:	c3d8                	sw	a4,4(a5)
C:/Users/22127/Desktop/Car_light/Libraries/hefei_libraries/board/clock_config.c:53
        RCC->CFGR0 |= (uint32_t)RCC_PPRE2_DIV1;
     59e:	43d8                	lw	a4,4(a5)
     5a0:	c3d8                	sw	a4,4(a5)
C:/Users/22127/Desktop/Car_light/Libraries/hefei_libraries/board/clock_config.c:55
        RCC->CFGR0 |= (uint32_t)RCC_PPRE1_DIV1;
     5a2:	43d8                	lw	a4,4(a5)
     5a4:	c3d8                	sw	a4,4(a5)
C:/Users/22127/Desktop/Car_light/Libraries/hefei_libraries/board/clock_config.c:58
        RCC->CFGR0 &= (uint32_t)((uint32_t)~(RCC_PLLSRC | RCC_PLLXTPRE |
     5a6:	43d8                	lw	a4,4(a5)
     5a8:	8f75                	and	a4,a4,a3
     5aa:	c3d8                	sw	a4,4(a5)
C:/Users/22127/Desktop/Car_light/Libraries/hefei_libraries/board/clock_config.c:61
        RCC->CFGR0 |= (uint32_t)(RCC_PLLSRC_HSE | RCC_PLLMULL11);
     5ac:	43d8                	lw	a4,4(a5)
     5ae:	002506b7          	lui	a3,0x250
     5b2:	8f55                	or	a4,a4,a3
     5b4:	c3d8                	sw	a4,4(a5)
C:/Users/22127/Desktop/Car_light/Libraries/hefei_libraries/board/clock_config.c:63
        RCC->CTLR |= RCC_PLLON;
     5b6:	4398                	lw	a4,0(a5)
     5b8:	010006b7          	lui	a3,0x1000
     5bc:	8f55                	or	a4,a4,a3
     5be:	c398                	sw	a4,0(a5)
C:/Users/22127/Desktop/Car_light/Libraries/hefei_libraries/board/clock_config.c:65
        while((RCC->CTLR & RCC_PLLRDY) == 0)
     5c0:	4398                	lw	a4,0(a5)
     5c2:	00671693          	slli	a3,a4,0x6
     5c6:	fe06dde3          	bgez	a3,5c0 <SystemInit+0xd4>
C:/Users/22127/Desktop/Car_light/Libraries/hefei_libraries/board/clock_config.c:69
        RCC->CFGR0 &= (uint32_t)((uint32_t)~(RCC_SW));
     5ca:	43d8                	lw	a4,4(a5)
C:/Users/22127/Desktop/Car_light/Libraries/hefei_libraries/board/clock_config.c:72
        while ((RCC->CFGR0 & (uint32_t)RCC_SWS) != (uint32_t)0x08)
     5cc:	400216b7          	lui	a3,0x40021
C:/Users/22127/Desktop/Car_light/Libraries/hefei_libraries/board/clock_config.c:69
        RCC->CFGR0 &= (uint32_t)((uint32_t)~(RCC_SW));
     5d0:	9b71                	andi	a4,a4,-4
     5d2:	c3d8                	sw	a4,4(a5)
C:/Users/22127/Desktop/Car_light/Libraries/hefei_libraries/board/clock_config.c:70
        RCC->CFGR0 |= (uint32_t)RCC_SW_PLL;
     5d4:	43d8                	lw	a4,4(a5)
     5d6:	00276713          	ori	a4,a4,2
     5da:	c3d8                	sw	a4,4(a5)
C:/Users/22127/Desktop/Car_light/Libraries/hefei_libraries/board/clock_config.c:72
        while ((RCC->CFGR0 & (uint32_t)RCC_SWS) != (uint32_t)0x08)
     5dc:	4721                	li	a4,8
     5de:	42dc                	lw	a5,4(a3)
     5e0:	8bb1                	andi	a5,a5,12
     5e2:	fee79ee3          	bne	a5,a4,5de <SystemInit+0xf2>
SystemInit():
C:/Users/22127/Desktop/Car_light/Libraries/hefei_libraries/board/clock_config.c:101
    SetSysClock();
}
     5e6:	0141                	addi	sp,sp,16
     5e8:	8082                	ret
SetSysClock():
C:/Users/22127/Desktop/Car_light/Libraries/hefei_libraries/board/clock_config.c:38
        HSEStatus = (uint32_t)0x00;
     5ea:	c602                	sw	zero,12(sp)
     5ec:	b749                	j	56e <SystemInit+0x82>

000005ee <Delay_Init>:
Delay_Init():
C:/Users/22127/Desktop/Car_light/Libraries/hefei_libraries/delay.c:24
//  @return     void
//  Sample usage:           Delay_Init();
//-------------------------------------------------------------------------------------------------------------------
void Delay_Init(void)
{
    p_us=sys_clk/8000000;
     5ee:	8281a783          	lw	a5,-2008(gp) # 20000038 <_edata>
     5f2:	007a1737          	lui	a4,0x7a1
     5f6:	20070713          	addi	a4,a4,512 # 7a1200 <_data_lma+0x79fb4c>
     5fa:	02e7d7b3          	divu	a5,a5,a4
     5fe:	0ff7f793          	andi	a5,a5,255
     602:	82f18723          	sb	a5,-2002(gp) # 2000003e <p_us>
C:/Users/22127/Desktop/Car_light/Libraries/hefei_libraries/delay.c:25
    p_ms=(uint16_t)p_us*1000;
     606:	3e800713          	li	a4,1000
     60a:	02e787b3          	mul	a5,a5,a4
     60e:	82f19623          	sh	a5,-2004(gp) # 2000003c <p_ms>
C:/Users/22127/Desktop/Car_light/Libraries/hefei_libraries/delay.c:26
}
     612:	8082                	ret

00000614 <Delay_Ms>:
Delay_Ms():
C:/Users/22127/Desktop/Car_light/Libraries/hefei_libraries/delay.c:61
//-------------------------------------------------------------------------------------------------------------------
void Delay_Ms (uint32_t n)
{
    uint32_t i;

    SysTick->CTLR = 0;
     614:	e000f7b7          	lui	a5,0xe000f
     618:	0007a023          	sw	zero,0(a5) # e000f000 <_eusrstack+0xc000a000>
C:/Users/22127/Desktop/Car_light/Libraries/hefei_libraries/delay.c:62
    i = (uint32_t)n*p_ms;
     61c:	82c1d703          	lhu	a4,-2004(gp) # 2000003c <p_ms>
C:/Users/22127/Desktop/Car_light/Libraries/hefei_libraries/delay.c:64

    SysTick->CNTL0 = 0;
     620:	00078223          	sb	zero,4(a5)
C:/Users/22127/Desktop/Car_light/Libraries/hefei_libraries/delay.c:65
    SysTick->CNTL1 = 0;
     624:	000782a3          	sb	zero,5(a5)
C:/Users/22127/Desktop/Car_light/Libraries/hefei_libraries/delay.c:66
    SysTick->CNTL2 = 0;
     628:	00078323          	sb	zero,6(a5)
C:/Users/22127/Desktop/Car_light/Libraries/hefei_libraries/delay.c:62
    i = (uint32_t)n*p_ms;
     62c:	02a70533          	mul	a0,a4,a0
C:/Users/22127/Desktop/Car_light/Libraries/hefei_libraries/delay.c:67
    SysTick->CNTL3 = 0;
     630:	000783a3          	sb	zero,7(a5)
C:/Users/22127/Desktop/Car_light/Libraries/hefei_libraries/delay.c:68
    SysTick->CTLR = 1;
     634:	4705                	li	a4,1
     636:	c398                	sw	a4,0(a5)
C:/Users/22127/Desktop/Car_light/Libraries/hefei_libraries/delay.c:70

  while((*(__IO uint32_t*)0xE000F004) <= i);
     638:	e000f737          	lui	a4,0xe000f
C:/Users/22127/Desktop/Car_light/Libraries/hefei_libraries/delay.c:70 (discriminator 1)
     63c:	435c                	lw	a5,4(a4)
     63e:	fef57fe3          	bgeu	a0,a5,63c <Delay_Ms+0x28>
C:/Users/22127/Desktop/Car_light/Libraries/hefei_libraries/delay.c:71
}
     642:	8082                	ret

00000644 <gpio_init>:
gpio_init():
C:/Users/22127/Desktop/Car_light/Libraries/hefei_libraries/hf_gpio.c:31
    GPIO_InitTypeDef GPIO_InitStructure;
    uint8 io_group = (pin & 0xE0) >> 5;
    uint8 io_pin = pin & 0x1F;


    if(PIN_NULL == pin) return;
     644:	08000713          	li	a4,128
     648:	0ce50c63          	beq	a0,a4,720 <gpio_init+0xdc>
C:/Users/22127/Desktop/Car_light/Libraries/hefei_libraries/hf_gpio.c:25
{
     64c:	7179                	addi	sp,sp,-48
     64e:	d422                	sw	s0,40(sp)
     650:	d226                	sw	s1,36(sp)
     652:	d04a                	sw	s2,32(sp)
     654:	ce4e                	sw	s3,28(sp)
     656:	cc52                	sw	s4,24(sp)
     658:	00555793          	srli	a5,a0,0x5
     65c:	d606                	sw	ra,44(sp)
     65e:	0077fa13          	andi	s4,a5,7
     662:	01f57413          	andi	s0,a0,31
     666:	84b6                	mv	s1,a3
     668:	89b2                	mv	s3,a2
     66a:	892e                	mv	s2,a1
C:/Users/22127/Desktop/Car_light/Libraries/hefei_libraries/hf_gpio.c:33
    //GPIO总线使能
    if(0 == (pin >> 5))      RCC_APB2PeriphClockCmd(RCC_APB2Periph_GPIOA, ENABLE);
     66c:	e3b5                	bnez	a5,6d0 <gpio_init+0x8c>
C:/Users/22127/Desktop/Car_light/Libraries/hefei_libraries/hf_gpio.c:33 (discriminator 1)
     66e:	4585                	li	a1,1
     670:	4511                	li	a0,4
C:/Users/22127/Desktop/Car_light/Libraries/hefei_libraries/hf_gpio.c:39 (discriminator 1)
    else if(1 == (pin >> 5)) RCC_APB2PeriphClockCmd(RCC_APB2Periph_GPIOB, ENABLE);
    else if(2 == (pin >> 5)) RCC_APB2PeriphClockCmd(RCC_APB2Periph_GPIOC, ENABLE);
    else if(3 == (pin >> 5)) RCC_APB2PeriphClockCmd(RCC_APB2Periph_GPIOD, ENABLE);
    else if(4 == (pin >> 5)) RCC_APB2PeriphClockCmd(RCC_APB2Periph_GPIOE, ENABLE);
    else if(5 == (pin >> 5)) RCC_APB2PeriphClockCmd(RCC_APB2Periph_GPIOF, ENABLE);
    else if(6 == (pin >> 5)) RCC_APB2PeriphClockCmd(RCC_APB2Periph_GPIOG, ENABLE);
     672:	2b1000ef          	jal	ra,1122 <RCC_APB2PeriphClockCmd>
C:/Users/22127/Desktop/Car_light/Libraries/hefei_libraries/hf_gpio.c:43


    //设置引脚号
    GPIO_InitStructure.GPIO_Pin = (uint16)(1 << io_pin);
     676:	4785                	li	a5,1
     678:	00879433          	sll	s0,a5,s0
     67c:	0442                	slli	s0,s0,0x10
     67e:	8041                	srli	s0,s0,0x10
     680:	00811223          	sh	s0,4(sp)
C:/Users/22127/Desktop/Car_light/Libraries/hefei_libraries/hf_gpio.c:45

    if(GPO == dir)
     684:	00f91963          	bne	s2,a5,696 <gpio_init+0x52>
C:/Users/22127/Desktop/Car_light/Libraries/hefei_libraries/hf_gpio.c:48
    {
        //只有输出需要设置速度
        if((uint16)pinconf >> 8 == 0) GPIO_InitStructure.GPIO_Speed = (GPIOSpeed_TypeDef)(GPIO_Speed_50MHz);  //防止没有填写这个参数,默认设置50Mhz
     688:	01049793          	slli	a5,s1,0x10
     68c:	83c1                	srli	a5,a5,0x10
     68e:	83a1                	srli	a5,a5,0x8
     690:	e391                	bnez	a5,694 <gpio_init+0x50>
C:/Users/22127/Desktop/Car_light/Libraries/hefei_libraries/hf_gpio.c:48 (discriminator 1)
     692:	478d                	li	a5,3
C:/Users/22127/Desktop/Car_light/Libraries/hefei_libraries/hf_gpio.c:49
        else GPIO_InitStructure.GPIO_Speed = (GPIOSpeed_TypeDef)((uint16)pinconf >> 8);                       //已经填写了该参数。根据值来设置
     694:	c43e                	sw	a5,8(sp)
C:/Users/22127/Desktop/Car_light/Libraries/hefei_libraries/hf_gpio.c:54
    }

    //设置模式
    GPIO_InitStructure.GPIO_Mode = (GPIOMode_TypeDef)((uint16)pinconf & 0xff);
    GPIO_Init((GPIO_TypeDef *)(GPION[io_group]), &GPIO_InitStructure);
     696:	6785                	lui	a5,0x1
     698:	0a0a                	slli	s4,s4,0x2
     69a:	68478793          	addi	a5,a5,1668 # 1684 <GPION>
     69e:	97d2                	add	a5,a5,s4
C:/Users/22127/Desktop/Car_light/Libraries/hefei_libraries/hf_gpio.c:53
    GPIO_InitStructure.GPIO_Mode = (GPIOMode_TypeDef)((uint16)pinconf & 0xff);
     6a0:	0ff4f493          	andi	s1,s1,255
     6a4:	c626                	sw	s1,12(sp)
C:/Users/22127/Desktop/Car_light/Libraries/hefei_libraries/hf_gpio.c:54
    GPIO_Init((GPIO_TypeDef *)(GPION[io_group]), &GPIO_InitStructure);
     6a6:	4384                	lw	s1,0(a5)
     6a8:	004c                	addi	a1,sp,4
     6aa:	8526                	mv	a0,s1
     6ac:	0fb000ef          	jal	ra,fa6 <GPIO_Init>
C:/Users/22127/Desktop/Car_light/Libraries/hefei_libraries/hf_gpio.c:56

    if(GPO == dir)
     6b0:	4785                	li	a5,1
     6b2:	00f91763          	bne	s2,a5,6c0 <gpio_init+0x7c>
C:/Users/22127/Desktop/Car_light/Libraries/hefei_libraries/hf_gpio.c:59
    {
        //只有输出需要设置引脚状态
        GPIO_WriteBit((GPIO_TypeDef *)(GPION[io_group]), (uint16)(1 << io_pin), dat);
     6b6:	864e                	mv	a2,s3
     6b8:	85a2                	mv	a1,s0
     6ba:	8526                	mv	a0,s1
     6bc:	1ad000ef          	jal	ra,1068 <GPIO_WriteBit>
C:/Users/22127/Desktop/Car_light/Libraries/hefei_libraries/hf_gpio.c:61
    }
}
     6c0:	50b2                	lw	ra,44(sp)
     6c2:	5422                	lw	s0,40(sp)
     6c4:	5492                	lw	s1,36(sp)
     6c6:	5902                	lw	s2,32(sp)
     6c8:	49f2                	lw	s3,28(sp)
     6ca:	4a62                	lw	s4,24(sp)
     6cc:	6145                	addi	sp,sp,48
     6ce:	8082                	ret
C:/Users/22127/Desktop/Car_light/Libraries/hefei_libraries/hf_gpio.c:34
    else if(1 == (pin >> 5)) RCC_APB2PeriphClockCmd(RCC_APB2Periph_GPIOB, ENABLE);
     6d0:	4705                	li	a4,1
     6d2:	00e79563          	bne	a5,a4,6dc <gpio_init+0x98>
C:/Users/22127/Desktop/Car_light/Libraries/hefei_libraries/hf_gpio.c:34 (discriminator 1)
     6d6:	4585                	li	a1,1
     6d8:	4521                	li	a0,8
     6da:	bf61                	j	672 <gpio_init+0x2e>
C:/Users/22127/Desktop/Car_light/Libraries/hefei_libraries/hf_gpio.c:35
    else if(2 == (pin >> 5)) RCC_APB2PeriphClockCmd(RCC_APB2Periph_GPIOC, ENABLE);
     6dc:	4709                	li	a4,2
     6de:	00e79563          	bne	a5,a4,6e8 <gpio_init+0xa4>
C:/Users/22127/Desktop/Car_light/Libraries/hefei_libraries/hf_gpio.c:35 (discriminator 1)
     6e2:	4585                	li	a1,1
     6e4:	4541                	li	a0,16
     6e6:	b771                	j	672 <gpio_init+0x2e>
C:/Users/22127/Desktop/Car_light/Libraries/hefei_libraries/hf_gpio.c:36
    else if(3 == (pin >> 5)) RCC_APB2PeriphClockCmd(RCC_APB2Periph_GPIOD, ENABLE);
     6e8:	470d                	li	a4,3
     6ea:	00e79663          	bne	a5,a4,6f6 <gpio_init+0xb2>
C:/Users/22127/Desktop/Car_light/Libraries/hefei_libraries/hf_gpio.c:36 (discriminator 1)
     6ee:	4585                	li	a1,1
     6f0:	02000513          	li	a0,32
     6f4:	bfbd                	j	672 <gpio_init+0x2e>
C:/Users/22127/Desktop/Car_light/Libraries/hefei_libraries/hf_gpio.c:37
    else if(4 == (pin >> 5)) RCC_APB2PeriphClockCmd(RCC_APB2Periph_GPIOE, ENABLE);
     6f6:	4711                	li	a4,4
     6f8:	00e79663          	bne	a5,a4,704 <gpio_init+0xc0>
C:/Users/22127/Desktop/Car_light/Libraries/hefei_libraries/hf_gpio.c:37 (discriminator 1)
     6fc:	4585                	li	a1,1
     6fe:	04000513          	li	a0,64
     702:	bf85                	j	672 <gpio_init+0x2e>
C:/Users/22127/Desktop/Car_light/Libraries/hefei_libraries/hf_gpio.c:38
    else if(5 == (pin >> 5)) RCC_APB2PeriphClockCmd(RCC_APB2Periph_GPIOF, ENABLE);
     704:	4715                	li	a4,5
     706:	00e79663          	bne	a5,a4,712 <gpio_init+0xce>
C:/Users/22127/Desktop/Car_light/Libraries/hefei_libraries/hf_gpio.c:38 (discriminator 1)
     70a:	4585                	li	a1,1
     70c:	08000513          	li	a0,128
     710:	b78d                	j	672 <gpio_init+0x2e>
C:/Users/22127/Desktop/Car_light/Libraries/hefei_libraries/hf_gpio.c:39
    else if(6 == (pin >> 5)) RCC_APB2PeriphClockCmd(RCC_APB2Periph_GPIOG, ENABLE);
     712:	4719                	li	a4,6
     714:	f6e791e3          	bne	a5,a4,676 <gpio_init+0x32>
C:/Users/22127/Desktop/Car_light/Libraries/hefei_libraries/hf_gpio.c:39 (discriminator 1)
     718:	4585                	li	a1,1
     71a:	10000513          	li	a0,256
     71e:	bf91                	j	672 <gpio_init+0x2e>
     720:	8082                	ret

00000722 <gpio_get_input>:
gpio_get_input():
C:/Users/22127/Desktop/Car_light/Libraries/hefei_libraries/hf_gpio.c:92
uint8 gpio_get_input(PIN_enum pin)
{
    uint8 io_group = (pin & 0xE0) >> 5;
    uint8 io_pin = pin & 0x1F;

    if((((GPIO_TypeDef *)(GPION[io_group]))->INDR & (1 << io_pin)) != 0)
     722:	00355713          	srli	a4,a0,0x3
     726:	01c77693          	andi	a3,a4,28
     72a:	6705                	lui	a4,0x1
     72c:	68470713          	addi	a4,a4,1668 # 1684 <GPION>
     730:	9736                	add	a4,a4,a3
     732:	431c                	lw	a5,0(a4)
     734:	4798                	lw	a4,8(a5)
     736:	4785                	li	a5,1
     738:	00a79533          	sll	a0,a5,a0
     73c:	8d79                	and	a0,a0,a4
C:/Users/22127/Desktop/Car_light/Libraries/hefei_libraries/hf_gpio.c:97
    {
        return 1;
    }
    return 0;
}
     73e:	00a03533          	snez	a0,a0
     742:	8082                	ret

00000744 <close_all_irq>:
close_all_irq():
C:/Users/22127/Desktop/Car_light/Libraries/hefei_libraries/hf_nvic.c:82
//  Sample usage:       内部使用  用户无需关心
//-------------------------------------------------------------------------------------------------------------------
void close_all_irq(void)
{
    /* 写1，清空状态 */
    PFIC->IRER[0] = 0xffffffff;
     744:	e000e7b7          	lui	a5,0xe000e
     748:	577d                	li	a4,-1
     74a:	18e7a023          	sw	a4,384(a5) # e000e180 <_eusrstack+0xc0009180>
C:/Users/22127/Desktop/Car_light/Libraries/hefei_libraries/hf_nvic.c:83
    PFIC->IRER[1] = 0xffffffff;
     74e:	18e7a223          	sw	a4,388(a5)
C:/Users/22127/Desktop/Car_light/Libraries/hefei_libraries/hf_nvic.c:84
}
     752:	8082                	ret

00000754 <DisableGlobalIRQ>:
DisableGlobalIRQ():
C:/Users/22127/Desktop/Car_light/Libraries/hefei_libraries/hf_nvic.c:48
{
     754:	1101                	addi	sp,sp,-32
     756:	ce06                	sw	ra,28(sp)
C:/Users/22127/Desktop/Car_light/Libraries/hefei_libraries/hf_nvic.c:50
    irq_status.flag = 1;
     758:	83418793          	addi	a5,gp,-1996 # 20000044 <irq_status>
     75c:	4685                	li	a3,1
     75e:	00d78423          	sb	a3,8(a5)
C:/Users/22127/Desktop/Car_light/Libraries/hefei_libraries/hf_nvic.c:51
    if((irq_status.ienr0 == 0) && (irq_status.ienr1 == 0))   state = 0;  //没有就返回0
     762:	8341a503          	lw	a0,-1996(gp) # 20000044 <irq_status>
     766:	43dc                	lw	a5,4(a5)
     768:	8d5d                	or	a0,a0,a5
     76a:	00a03533          	snez	a0,a0
     76e:	c62a                	sw	a0,12(sp)
C:/Users/22127/Desktop/Car_light/Libraries/hefei_libraries/hf_nvic.c:53
    close_all_irq();
     770:	3fd1                	jal	744 <close_all_irq>
C:/Users/22127/Desktop/Car_light/Libraries/hefei_libraries/hf_nvic.c:55
}
     772:	40f2                	lw	ra,28(sp)
     774:	4532                	lw	a0,12(sp)
     776:	6105                	addi	sp,sp,32
     778:	8082                	ret

0000077a <sys_recover_irq>:
sys_recover_irq():
C:/Users/22127/Desktop/Car_light/Libraries/hefei_libraries/hf_nvic.c:95
//  @since      v1.0
//  Sample usage:       内部使用  用户无需关心
//-------------------------------------------------------------------------------------------------------------------
void sys_recover_irq(void)
{
    PFIC->IENR[0] = irq_status.ienr0;
     77a:	8341a683          	lw	a3,-1996(gp) # 20000044 <irq_status>
     77e:	e000e737          	lui	a4,0xe000e
C:/Users/22127/Desktop/Car_light/Libraries/hefei_libraries/hf_nvic.c:96
    PFIC->IENR[1] = irq_status.ienr1;
     782:	83418793          	addi	a5,gp,-1996 # 20000044 <irq_status>
C:/Users/22127/Desktop/Car_light/Libraries/hefei_libraries/hf_nvic.c:95
    PFIC->IENR[0] = irq_status.ienr0;
     786:	10d72023          	sw	a3,256(a4) # e000e100 <_eusrstack+0xc0009100>
C:/Users/22127/Desktop/Car_light/Libraries/hefei_libraries/hf_nvic.c:96
    PFIC->IENR[1] = irq_status.ienr1;
     78a:	43dc                	lw	a5,4(a5)
     78c:	10f72223          	sw	a5,260(a4)
C:/Users/22127/Desktop/Car_light/Libraries/hefei_libraries/hf_nvic.c:97
}
     790:	8082                	ret

00000792 <EnableGlobalIRQ>:
EnableGlobalIRQ():
C:/Users/22127/Desktop/Car_light/Libraries/hefei_libraries/hf_nvic.c:66
    if(state == 0)
     792:	e501                	bnez	a0,79a <EnableGlobalIRQ+0x8>
C:/Users/22127/Desktop/Car_light/Libraries/hefei_libraries/hf_nvic.c:68
        irq_status.flag = 0;
     794:	82018e23          	sb	zero,-1988(gp) # 2000004c <irq_status+0x8>
C:/Users/22127/Desktop/Car_light/Libraries/hefei_libraries/hf_nvic.c:69
        sys_recover_irq();
     798:	b7cd                	j	77a <sys_recover_irq>
C:/Users/22127/Desktop/Car_light/Libraries/hefei_libraries/hf_nvic.c:71
}
     79a:	8082                	ret

0000079c <pwm_duty>:
pwm_duty():
C:/Users/22127/Desktop/Car_light/Libraries/hefei_libraries/hf_pwm.c:103
void pwm_duty(PWMCH_enum pwmch, uint32 duty)
{
    uint16 match_temp;
    uint16 period_temp;

    period_temp = ((TIM_TypeDef *) TIMERN[pwmch>>8])->ATRLR;    //获取定时器的周期值
     79c:	00855713          	srli	a4,a0,0x8
     7a0:	6685                	lui	a3,0x1
     7a2:	00271793          	slli	a5,a4,0x2
     7a6:	69468693          	addi	a3,a3,1684 # 1694 <TIMERN>
     7aa:	97b6                	add	a5,a5,a3
     7ac:	439c                	lw	a5,0(a5)
     7ae:	02c7d783          	lhu	a5,44(a5)
C:/Users/22127/Desktop/Car_light/Libraries/hefei_libraries/hf_pwm.c:104
    match_temp = period_temp * duty / PWM_DUTY_MAX;             //占空比
     7b2:	02f585b3          	mul	a1,a1,a5
     7b6:	6789                	lui	a5,0x2
     7b8:	71078793          	addi	a5,a5,1808 # 2710 <_data_lma+0x105c>
     7bc:	02f5d5b3          	divu	a1,a1,a5
C:/Users/22127/Desktop/Car_light/Libraries/hefei_libraries/hf_pwm.c:106

    if((pwmch >> 8) == 0x00)
     7c0:	ef01                	bnez	a4,7d8 <pwm_duty+0x3c>
C:/Users/22127/Desktop/Car_light/Libraries/hefei_libraries/hf_pwm.c:108
    {
        (*(volatile uint32*)(0x40012C34 + (pwmch&0x03) * 0x04)) = match_temp;
     7c2:	100057b7          	lui	a5,0x10005
     7c6:	890d                	andi	a0,a0,3
     7c8:	b0d78793          	addi	a5,a5,-1267 # 10004b0d <_data_lma+0x10003459>
C:/Users/22127/Desktop/Car_light/Libraries/hefei_libraries/hf_pwm.c:132
        //0x4000043C TIM3->CH3CVR
        //0x40000440 TIM3->CH4CVR
    }
    else if((pwmch >> 8) == 0x03)
    {
        (*(volatile uint32*)(0x40000834 + (pwmch&0x03) * 0x04)) = match_temp;
     7cc:	953e                	add	a0,a0,a5
     7ce:	05c2                	slli	a1,a1,0x10
     7d0:	050a                	slli	a0,a0,0x2
     7d2:	81c1                	srli	a1,a1,0x10
     7d4:	c10c                	sw	a1,0(a0)
C:/Users/22127/Desktop/Car_light/Libraries/hefei_libraries/hf_pwm.c:138
        //0x40000834 TIM4->CH1CVR
        //0x40000838 TIM4->CH2CVR
        //0x4000083C TIM4->CH3CVR
        //0x40000840 TIM4->CH4CVR
    }
}
     7d6:	8082                	ret
C:/Users/22127/Desktop/Car_light/Libraries/hefei_libraries/hf_pwm.c:114
    else if((pwmch >> 8) == 0x01)
     7d8:	4785                	li	a5,1
     7da:	00f71763          	bne	a4,a5,7e8 <pwm_duty+0x4c>
C:/Users/22127/Desktop/Car_light/Libraries/hefei_libraries/hf_pwm.c:116
        (*(volatile uint32*)(0x40000034 + (pwmch&0x03) * 0x04)) = match_temp;
     7de:	100007b7          	lui	a5,0x10000
     7e2:	890d                	andi	a0,a0,3
     7e4:	07b5                	addi	a5,a5,13
     7e6:	b7dd                	j	7cc <pwm_duty+0x30>
C:/Users/22127/Desktop/Car_light/Libraries/hefei_libraries/hf_pwm.c:122
    else if((pwmch >> 8) == 0x02)
     7e8:	4789                	li	a5,2
     7ea:	00f71863          	bne	a4,a5,7fa <pwm_duty+0x5e>
C:/Users/22127/Desktop/Car_light/Libraries/hefei_libraries/hf_pwm.c:124
        (*(volatile uint32*)(0x40000434 + (pwmch&0x03) * 0x04)) = match_temp;
     7ee:	100007b7          	lui	a5,0x10000
     7f2:	890d                	andi	a0,a0,3
     7f4:	10d78793          	addi	a5,a5,269 # 1000010d <_data_lma+0xfffea59>
     7f8:	bfd1                	j	7cc <pwm_duty+0x30>
C:/Users/22127/Desktop/Car_light/Libraries/hefei_libraries/hf_pwm.c:130
    else if((pwmch >> 8) == 0x03)
     7fa:	478d                	li	a5,3
     7fc:	fcf71de3          	bne	a4,a5,7d6 <pwm_duty+0x3a>
C:/Users/22127/Desktop/Car_light/Libraries/hefei_libraries/hf_pwm.c:132
        (*(volatile uint32*)(0x40000834 + (pwmch&0x03) * 0x04)) = match_temp;
     800:	100007b7          	lui	a5,0x10000
     804:	890d                	andi	a0,a0,3
     806:	20d78793          	addi	a5,a5,525 # 1000020d <_data_lma+0xfffeb59>
     80a:	b7c9                	j	7cc <pwm_duty+0x30>

0000080c <pwm_gpio_init>:
pwm_gpio_init():
C:/Users/22127/Desktop/Car_light/Libraries/hefei_libraries/hf_pwm.c:183
//  @return     void
//  Sample usage:           内部使用  用户无需关心
//-------------------------------------------------------------------------------------------------------------------
void pwm_gpio_init(PWMCH_enum pwmch)
{
    switch(pwmch)
     80c:	20000793          	li	a5,512
     810:	16f50b63          	beq	a0,a5,986 <pwm_gpio_init+0x17a>
     814:	06a7e463          	bltu	a5,a0,87c <pwm_gpio_init+0x70>
     818:	10100793          	li	a5,257
     81c:	10f50863          	beq	a0,a5,92c <pwm_gpio_init+0x120>
     820:	02a7e463          	bltu	a5,a0,848 <pwm_gpio_init+0x3c>
     824:	4789                	li	a5,2
     826:	0ef50163          	beq	a0,a5,908 <pwm_gpio_init+0xfc>
     82a:	00a7e763          	bltu	a5,a0,838 <pwm_gpio_init+0x2c>
     82e:	c169                	beqz	a0,8f0 <pwm_gpio_init+0xe4>
     830:	4785                	li	a5,1
     832:	0cf50563          	beq	a0,a5,8fc <pwm_gpio_init+0xf0>
     836:	8082                	ret
     838:	478d                	li	a5,3
     83a:	0cf50d63          	beq	a0,a5,914 <pwm_gpio_init+0x108>
     83e:	10000793          	li	a5,256
     842:	0cf50f63          	beq	a0,a5,920 <pwm_gpio_init+0x114>
     846:	8082                	ret
     848:	11000793          	li	a5,272
     84c:	10f50263          	beq	a0,a5,950 <pwm_gpio_init+0x144>
     850:	00a7eb63          	bltu	a5,a0,866 <pwm_gpio_init+0x5a>
     854:	10200793          	li	a5,258
     858:	0ef50063          	beq	a0,a5,938 <pwm_gpio_init+0x12c>
     85c:	10300793          	li	a5,259
     860:	0ef50263          	beq	a0,a5,944 <pwm_gpio_init+0x138>
     864:	8082                	ret
     866:	11200793          	li	a5,274
     86a:	10f50063          	beq	a0,a5,96a <pwm_gpio_init+0x15e>
     86e:	0ef56763          	bltu	a0,a5,95c <pwm_gpio_init+0x150>
     872:	11300793          	li	a5,275
     876:	10f50163          	beq	a0,a5,978 <pwm_gpio_init+0x16c>
     87a:	8082                	ret
     87c:	21300793          	li	a5,531
     880:	16f50263          	beq	a0,a5,9e4 <pwm_gpio_init+0x1d8>
     884:	02a7ec63          	bltu	a5,a0,8bc <pwm_gpio_init+0xb0>
     888:	20300793          	li	a5,515
     88c:	12f50063          	beq	a0,a5,9ac <pwm_gpio_init+0x1a0>
     890:	00a7eb63          	bltu	a5,a0,8a6 <pwm_gpio_init+0x9a>
     894:	20100793          	li	a5,513
     898:	0ef50d63          	beq	a0,a5,992 <pwm_gpio_init+0x186>
     89c:	20200793          	li	a5,514
     8a0:	0ef50f63          	beq	a0,a5,99e <pwm_gpio_init+0x192>
     8a4:	8082                	ret
     8a6:	21100793          	li	a5,529
     8aa:	10f50f63          	beq	a0,a5,9c8 <pwm_gpio_init+0x1bc>
     8ae:	12a7e463          	bltu	a5,a0,9d6 <pwm_gpio_init+0x1ca>
     8b2:	21000793          	li	a5,528
     8b6:	10f50263          	beq	a0,a5,9ba <pwm_gpio_init+0x1ae>
     8ba:	8082                	ret
     8bc:	30000793          	li	a5,768
     8c0:	14f50763          	beq	a0,a5,a0e <pwm_gpio_init+0x202>
     8c4:	00a7eb63          	bltu	a5,a0,8da <pwm_gpio_init+0xce>
     8c8:	22000793          	li	a5,544
     8cc:	12f50363          	beq	a0,a5,9f2 <pwm_gpio_init+0x1e6>
     8d0:	22100793          	li	a5,545
     8d4:	12f50663          	beq	a0,a5,a00 <pwm_gpio_init+0x1f4>
     8d8:	8082                	ret
     8da:	30200793          	li	a5,770
     8de:	14f50663          	beq	a0,a5,a2a <pwm_gpio_init+0x21e>
     8e2:	12f56d63          	bltu	a0,a5,a1c <pwm_gpio_init+0x210>
     8e6:	30300793          	li	a5,771
     8ea:	14f50763          	beq	a0,a5,a38 <pwm_gpio_init+0x22c>
     8ee:	8082                	ret
C:/Users/22127/Desktop/Car_light/Libraries/hefei_libraries/hf_pwm.c:187
    {

        case PWM1_CH1_A8:
            gpio_init(A8, GPO, 0, SPEED_50MHZ|OUT_AF_PP);
     8f0:	31800693          	li	a3,792
     8f4:	4601                	li	a2,0
     8f6:	4585                	li	a1,1
     8f8:	4521                	li	a0,8
C:/Users/22127/Desktop/Car_light/Libraries/hefei_libraries/hf_pwm.c:268
            break;
        case PWM4_CH3_B8:
            gpio_init(B8, GPO, 0, SPEED_50MHZ|OUT_AF_PP);
            break;
        case PWM4_CH4_B9:
            gpio_init(B9, GPO, 0, SPEED_50MHZ|OUT_AF_PP);
     8fa:	b3a9                	j	644 <gpio_init>
C:/Users/22127/Desktop/Car_light/Libraries/hefei_libraries/hf_pwm.c:190
            gpio_init(A9, GPO, 0, SPEED_50MHZ|OUT_AF_PP);
     8fc:	31800693          	li	a3,792
     900:	4601                	li	a2,0
     902:	4585                	li	a1,1
     904:	4525                	li	a0,9
     906:	bfd5                	j	8fa <pwm_gpio_init+0xee>
C:/Users/22127/Desktop/Car_light/Libraries/hefei_libraries/hf_pwm.c:193
            gpio_init(A10, GPO, 0, SPEED_50MHZ|OUT_AF_PP);
     908:	31800693          	li	a3,792
     90c:	4601                	li	a2,0
     90e:	4585                	li	a1,1
     910:	4529                	li	a0,10
     912:	b7e5                	j	8fa <pwm_gpio_init+0xee>
C:/Users/22127/Desktop/Car_light/Libraries/hefei_libraries/hf_pwm.c:196
            gpio_init(A11, GPO, 0, SPEED_50MHZ|OUT_AF_PP);
     914:	31800693          	li	a3,792
     918:	4601                	li	a2,0
     91a:	4585                	li	a1,1
     91c:	452d                	li	a0,11
     91e:	bff1                	j	8fa <pwm_gpio_init+0xee>
C:/Users/22127/Desktop/Car_light/Libraries/hefei_libraries/hf_pwm.c:200
            gpio_init(A0, GPO, 0, SPEED_50MHZ|OUT_AF_PP);
     920:	31800693          	li	a3,792
     924:	4601                	li	a2,0
     926:	4585                	li	a1,1
     928:	4501                	li	a0,0
     92a:	bfc1                	j	8fa <pwm_gpio_init+0xee>
C:/Users/22127/Desktop/Car_light/Libraries/hefei_libraries/hf_pwm.c:203
            gpio_init(A1, GPO, 0, SPEED_50MHZ|OUT_AF_PP);
     92c:	31800693          	li	a3,792
     930:	4601                	li	a2,0
     932:	4585                	li	a1,1
     934:	4505                	li	a0,1
     936:	b7d1                	j	8fa <pwm_gpio_init+0xee>
C:/Users/22127/Desktop/Car_light/Libraries/hefei_libraries/hf_pwm.c:206
            gpio_init(A2, GPO, 0, SPEED_50MHZ|OUT_AF_PP);
     938:	31800693          	li	a3,792
     93c:	4601                	li	a2,0
     93e:	4585                	li	a1,1
     940:	4509                	li	a0,2
     942:	bf65                	j	8fa <pwm_gpio_init+0xee>
C:/Users/22127/Desktop/Car_light/Libraries/hefei_libraries/hf_pwm.c:209
            gpio_init(A3, GPO, 0, SPEED_50MHZ|OUT_AF_PP);
     944:	31800693          	li	a3,792
     948:	4601                	li	a2,0
     94a:	4585                	li	a1,1
     94c:	450d                	li	a0,3
     94e:	b775                	j	8fa <pwm_gpio_init+0xee>
C:/Users/22127/Desktop/Car_light/Libraries/hefei_libraries/hf_pwm.c:213
            gpio_init(A15, GPO, 0, SPEED_50MHZ|OUT_AF_PP);
     950:	31800693          	li	a3,792
     954:	4601                	li	a2,0
     956:	4585                	li	a1,1
     958:	453d                	li	a0,15
     95a:	b745                	j	8fa <pwm_gpio_init+0xee>
C:/Users/22127/Desktop/Car_light/Libraries/hefei_libraries/hf_pwm.c:216
            gpio_init(B3, GPO, 0, SPEED_50MHZ|OUT_AF_PP);
     95c:	31800693          	li	a3,792
     960:	4601                	li	a2,0
     962:	4585                	li	a1,1
     964:	02300513          	li	a0,35
     968:	bf49                	j	8fa <pwm_gpio_init+0xee>
C:/Users/22127/Desktop/Car_light/Libraries/hefei_libraries/hf_pwm.c:219
            gpio_init(B10, GPO, 0, SPEED_50MHZ|OUT_AF_PP);
     96a:	31800693          	li	a3,792
     96e:	4601                	li	a2,0
     970:	4585                	li	a1,1
     972:	02a00513          	li	a0,42
     976:	b751                	j	8fa <pwm_gpio_init+0xee>
C:/Users/22127/Desktop/Car_light/Libraries/hefei_libraries/hf_pwm.c:222
            gpio_init(B11, GPO, 0, SPEED_50MHZ|OUT_AF_PP);
     978:	31800693          	li	a3,792
     97c:	4601                	li	a2,0
     97e:	4585                	li	a1,1
     980:	02b00513          	li	a0,43
     984:	bf9d                	j	8fa <pwm_gpio_init+0xee>
C:/Users/22127/Desktop/Car_light/Libraries/hefei_libraries/hf_pwm.c:226
            gpio_init(A6, GPO, 0, SPEED_50MHZ|OUT_AF_PP);
     986:	31800693          	li	a3,792
     98a:	4601                	li	a2,0
     98c:	4585                	li	a1,1
     98e:	4519                	li	a0,6
     990:	b7ad                	j	8fa <pwm_gpio_init+0xee>
C:/Users/22127/Desktop/Car_light/Libraries/hefei_libraries/hf_pwm.c:229
            gpio_init(A7, GPO, 0, SPEED_50MHZ|OUT_AF_PP);
     992:	31800693          	li	a3,792
     996:	4601                	li	a2,0
     998:	4585                	li	a1,1
     99a:	451d                	li	a0,7
     99c:	bfb9                	j	8fa <pwm_gpio_init+0xee>
C:/Users/22127/Desktop/Car_light/Libraries/hefei_libraries/hf_pwm.c:232
            gpio_init(B0, GPO, 0, SPEED_50MHZ|OUT_AF_PP);
     99e:	31800693          	li	a3,792
     9a2:	4601                	li	a2,0
     9a4:	4585                	li	a1,1
     9a6:	02000513          	li	a0,32
     9aa:	bf81                	j	8fa <pwm_gpio_init+0xee>
C:/Users/22127/Desktop/Car_light/Libraries/hefei_libraries/hf_pwm.c:235
            gpio_init(B1, GPO, 0, SPEED_50MHZ|OUT_AF_PP);
     9ac:	31800693          	li	a3,792
     9b0:	4601                	li	a2,0
     9b2:	4585                	li	a1,1
     9b4:	02100513          	li	a0,33
     9b8:	b789                	j	8fa <pwm_gpio_init+0xee>
C:/Users/22127/Desktop/Car_light/Libraries/hefei_libraries/hf_pwm.c:239
            gpio_init(C6, GPO, 0, SPEED_50MHZ|OUT_AF_PP);
     9ba:	31800693          	li	a3,792
     9be:	4601                	li	a2,0
     9c0:	4585                	li	a1,1
     9c2:	04600513          	li	a0,70
     9c6:	bf15                	j	8fa <pwm_gpio_init+0xee>
C:/Users/22127/Desktop/Car_light/Libraries/hefei_libraries/hf_pwm.c:242
            gpio_init(C7, GPO, 0, SPEED_50MHZ|OUT_AF_PP);
     9c8:	31800693          	li	a3,792
     9cc:	4601                	li	a2,0
     9ce:	4585                	li	a1,1
     9d0:	04700513          	li	a0,71
     9d4:	b71d                	j	8fa <pwm_gpio_init+0xee>
C:/Users/22127/Desktop/Car_light/Libraries/hefei_libraries/hf_pwm.c:245
            gpio_init(C8, GPO, 0, SPEED_50MHZ|OUT_AF_PP);
     9d6:	31800693          	li	a3,792
     9da:	4601                	li	a2,0
     9dc:	4585                	li	a1,1
     9de:	04800513          	li	a0,72
     9e2:	bf21                	j	8fa <pwm_gpio_init+0xee>
C:/Users/22127/Desktop/Car_light/Libraries/hefei_libraries/hf_pwm.c:248
            gpio_init(C9, GPO, 0, SPEED_50MHZ|OUT_AF_PP);
     9e4:	31800693          	li	a3,792
     9e8:	4601                	li	a2,0
     9ea:	4585                	li	a1,1
     9ec:	04900513          	li	a0,73
     9f0:	b729                	j	8fa <pwm_gpio_init+0xee>
C:/Users/22127/Desktop/Car_light/Libraries/hefei_libraries/hf_pwm.c:252
            gpio_init(B4, GPO, 0, SPEED_50MHZ|OUT_AF_PP);
     9f2:	31800693          	li	a3,792
     9f6:	4601                	li	a2,0
     9f8:	4585                	li	a1,1
     9fa:	02400513          	li	a0,36
     9fe:	bdf5                	j	8fa <pwm_gpio_init+0xee>
C:/Users/22127/Desktop/Car_light/Libraries/hefei_libraries/hf_pwm.c:255
            gpio_init(B5, GPO, 0, SPEED_50MHZ|OUT_AF_PP);
     a00:	31800693          	li	a3,792
     a04:	4601                	li	a2,0
     a06:	4585                	li	a1,1
     a08:	02500513          	li	a0,37
     a0c:	b5fd                	j	8fa <pwm_gpio_init+0xee>
C:/Users/22127/Desktop/Car_light/Libraries/hefei_libraries/hf_pwm.c:259
            gpio_init(B6, GPO, 0, SPEED_50MHZ|OUT_AF_PP);
     a0e:	31800693          	li	a3,792
     a12:	4601                	li	a2,0
     a14:	4585                	li	a1,1
     a16:	02600513          	li	a0,38
     a1a:	b5c5                	j	8fa <pwm_gpio_init+0xee>
C:/Users/22127/Desktop/Car_light/Libraries/hefei_libraries/hf_pwm.c:262
            gpio_init(B7, GPO, 0, SPEED_50MHZ|OUT_AF_PP);
     a1c:	31800693          	li	a3,792
     a20:	4601                	li	a2,0
     a22:	4585                	li	a1,1
     a24:	02700513          	li	a0,39
     a28:	bdc9                	j	8fa <pwm_gpio_init+0xee>
C:/Users/22127/Desktop/Car_light/Libraries/hefei_libraries/hf_pwm.c:265
            gpio_init(B8, GPO, 0, SPEED_50MHZ|OUT_AF_PP);
     a2a:	31800693          	li	a3,792
     a2e:	4601                	li	a2,0
     a30:	4585                	li	a1,1
     a32:	02800513          	li	a0,40
     a36:	b5d1                	j	8fa <pwm_gpio_init+0xee>
C:/Users/22127/Desktop/Car_light/Libraries/hefei_libraries/hf_pwm.c:268
            gpio_init(B9, GPO, 0, SPEED_50MHZ|OUT_AF_PP);
     a38:	31800693          	li	a3,792
     a3c:	4601                	li	a2,0
     a3e:	4585                	li	a1,1
     a40:	02900513          	li	a0,41
     a44:	bd5d                	j	8fa <pwm_gpio_init+0xee>

00000a46 <pwm_init>:
pwm_init():
C:/Users/22127/Desktop/Car_light/Libraries/hefei_libraries/hf_pwm.c:25
{
     a46:	7139                	addi	sp,sp,-64
     a48:	de06                	sw	ra,60(sp)
     a4a:	dc22                	sw	s0,56(sp)
     a4c:	da26                	sw	s1,52(sp)
     a4e:	d84a                	sw	s2,48(sp)
     a50:	84aa                	mv	s1,a0
     a52:	d64e                	sw	s3,44(sp)
     a54:	d452                	sw	s4,40(sp)
     a56:	89b6                	mv	s3,a3
     a58:	8a32                	mv	s4,a2
     a5a:	c62e                	sw	a1,12(sp)
C:/Users/22127/Desktop/Car_light/Libraries/hefei_libraries/hf_pwm.c:32
    pwm_gpio_init(pwmch);                                       //PWM引脚初始化
     a5c:	3b45                	jal	80c <pwm_gpio_init>
C:/Users/22127/Desktop/Car_light/Libraries/hefei_libraries/hf_pwm.c:36
    freq_div = (uint16)((sys_clk / freq) >> 16);                            //多少分频
     a5e:	45b2                	lw	a1,12(sp)
C:/Users/22127/Desktop/Car_light/Libraries/hefei_libraries/hf_pwm.c:35
    sys_clk = (uint32)72000000;
     a60:	044aa7b7          	lui	a5,0x44aa
     a64:	20078793          	addi	a5,a5,512 # 44aa200 <_data_lma+0x44a8b4c>
C:/Users/22127/Desktop/Car_light/Libraries/hefei_libraries/hf_pwm.c:36
    freq_div = (uint16)((sys_clk / freq) >> 16);                            //多少分频
     a68:	02b7d633          	divu	a2,a5,a1
C:/Users/22127/Desktop/Car_light/Libraries/hefei_libraries/hf_pwm.c:41
    timbase_init((pwmch >> 8), period_temp - 1, freq_div);
     a6c:	0084d913          	srli	s2,s1,0x8
     a70:	854a                	mv	a0,s2
C:/Users/22127/Desktop/Car_light/Libraries/hefei_libraries/hf_pwm.c:35
    sys_clk = (uint32)72000000;
     a72:	82f1a423          	sw	a5,-2008(gp) # 20000038 <_edata>
C:/Users/22127/Desktop/Car_light/Libraries/hefei_libraries/hf_pwm.c:36
    freq_div = (uint16)((sys_clk / freq) >> 16);                            //多少分频
     a76:	090a                	slli	s2,s2,0x2
     a78:	8241                	srli	a2,a2,0x10
C:/Users/22127/Desktop/Car_light/Libraries/hefei_libraries/hf_pwm.c:37
    period_temp = (uint16)(sys_clk/(freq*(freq_div + 1)));                  //周期
     a7a:	00160413          	addi	s0,a2,1 # 20001 <_data_lma+0x1e94d>
     a7e:	02b40433          	mul	s0,s0,a1
     a82:	0287d433          	divu	s0,a5,s0
C:/Users/22127/Desktop/Car_light/Libraries/hefei_libraries/hf_pwm.c:41
    timbase_init((pwmch >> 8), period_temp - 1, freq_div);
     a86:	fff40593          	addi	a1,s0,-1
     a8a:	05c2                	slli	a1,a1,0x10
     a8c:	81c1                	srli	a1,a1,0x10
     a8e:	20e9                	jal	b58 <timbase_init>
C:/Users/22127/Desktop/Car_light/Libraries/hefei_libraries/hf_pwm.c:43
    RCC_APB2PeriphClockCmd(RCC_APB2Periph_AFIO, ENABLE);        //使能AFIO复用功能模块时钟
     a90:	4585                	li	a1,1
     a92:	4505                	li	a0,1
     a94:	68e000ef          	jal	ra,1122 <RCC_APB2PeriphClockCmd>
C:/Users/22127/Desktop/Car_light/Libraries/hefei_libraries/hf_pwm.c:38
    match_temp = period_temp * duty / PWM_DUTY_MAX;                         //占空比
     a98:	01041793          	slli	a5,s0,0x10
     a9c:	83c1                	srli	a5,a5,0x10
     a9e:	034787b3          	mul	a5,a5,s4
     aa2:	6409                	lui	s0,0x2
     aa4:	71040413          	addi	s0,s0,1808 # 2710 <_data_lma+0x105c>
C:/Users/22127/Desktop/Car_light/Libraries/hefei_libraries/hf_pwm.c:56
    TIM_OCInitStructure.TIM_OCMode = TIM_OCMode_PWM1;                       //选择定时器模式:TIM脉冲宽度调制模式2
     aa8:	6741                	lui	a4,0x10
     aaa:	06070713          	addi	a4,a4,96 # 10060 <_data_lma+0xe9ac>
     aae:	c83a                	sw	a4,16(sp)
C:/Users/22127/Desktop/Car_light/Libraries/hefei_libraries/hf_pwm.c:58
    TIM_OCInitStructure.TIM_Pulse = match_temp;
     ab0:	6705                	lui	a4,0x1
     ab2:	69470713          	addi	a4,a4,1684 # 1694 <TIMERN>
     ab6:	993a                	add	s2,s2,a4
C:/Users/22127/Desktop/Car_light/Libraries/hefei_libraries/hf_pwm.c:59
    TIM_OCInitStructure.TIM_OCPolarity = TIM_OCPolarity_High;               //输出极性:TIM输出比较极性高
     ab8:	00011c23          	sh	zero,24(sp)
C:/Users/22127/Desktop/Car_light/Libraries/hefei_libraries/hf_pwm.c:38
    match_temp = period_temp * duty / PWM_DUTY_MAX;                         //占空比
     abc:	0287d7b3          	divu	a5,a5,s0
C:/Users/22127/Desktop/Car_light/Libraries/hefei_libraries/hf_pwm.c:60
    TIM_OCInitStructure.TIM_OCIdleState = TIM_OCIdleState_Reset;
     ac0:	00011e23          	sh	zero,28(sp)
     ac4:	00092403          	lw	s0,0(s2)
C:/Users/22127/Desktop/Car_light/Libraries/hefei_libraries/hf_pwm.c:38
    match_temp = period_temp * duty / PWM_DUTY_MAX;                         //占空比
     ac8:	00f11b23          	sh	a5,22(sp)
C:/Users/22127/Desktop/Car_light/Libraries/hefei_libraries/hf_pwm.c:62
    if((pwmch & 0x03) == 0x00)                                              //通道选择
     acc:	0034f793          	andi	a5,s1,3
     ad0:	eb8d                	bnez	a5,b02 <pwm_init+0xbc>
C:/Users/22127/Desktop/Car_light/Libraries/hefei_libraries/hf_pwm.c:64
        TIM_OC1Init(((TIM_TypeDef *) TIMERN[pwmch>>8]), &TIM_OCInitStructure );                         //定时器通道1初始化
     ad2:	080c                	addi	a1,sp,16
     ad4:	8522                	mv	a0,s0
     ad6:	700000ef          	jal	ra,11d6 <TIM_OC1Init>
C:/Users/22127/Desktop/Car_light/Libraries/hefei_libraries/hf_pwm.c:65
        TIM_CtrlPWMOutputs(((TIM_TypeDef *) TIMERN[pwmch>>8]), ENABLE );
     ada:	4585                	li	a1,1
     adc:	8522                	mv	a0,s0
     ade:	185000ef          	jal	ra,1462 <TIM_CtrlPWMOutputs>
C:/Users/22127/Desktop/Car_light/Libraries/hefei_libraries/hf_pwm.c:66
        TIM_OC1PreloadConfig(((TIM_TypeDef *) TIMERN[pwmch>>8]), TIM_OCPreload_Enable_Disable);         //定时器预装载配置
     ae2:	85ce                	mv	a1,s3
     ae4:	8522                	mv	a0,s0
     ae6:	193000ef          	jal	ra,1478 <TIM_OC1PreloadConfig>
C:/Users/22127/Desktop/Car_light/Libraries/hefei_libraries/hf_pwm.c:87
    TIM_Cmd(((TIM_TypeDef *) TIMERN[pwmch>>8]), ENABLE);                                              //定时器使能
     aea:	8522                	mv	a0,s0
     aec:	4585                	li	a1,1
     aee:	159000ef          	jal	ra,1446 <TIM_Cmd>
C:/Users/22127/Desktop/Car_light/Libraries/hefei_libraries/hf_pwm.c:88
}
     af2:	50f2                	lw	ra,60(sp)
     af4:	5462                	lw	s0,56(sp)
     af6:	54d2                	lw	s1,52(sp)
     af8:	5942                	lw	s2,48(sp)
     afa:	59b2                	lw	s3,44(sp)
     afc:	5a22                	lw	s4,40(sp)
     afe:	6121                	addi	sp,sp,64
     b00:	8082                	ret
C:/Users/22127/Desktop/Car_light/Libraries/hefei_libraries/hf_pwm.c:68
    else if((pwmch & 0x03) == 0x01)
     b02:	4705                	li	a4,1
     b04:	00e79f63          	bne	a5,a4,b22 <pwm_init+0xdc>
C:/Users/22127/Desktop/Car_light/Libraries/hefei_libraries/hf_pwm.c:70
        TIM_OC2Init(((TIM_TypeDef *) TIMERN[pwmch>>8]), &TIM_OCInitStructure );
     b08:	080c                	addi	a1,sp,16
     b0a:	8522                	mv	a0,s0
     b0c:	752000ef          	jal	ra,125e <TIM_OC2Init>
C:/Users/22127/Desktop/Car_light/Libraries/hefei_libraries/hf_pwm.c:71
        TIM_CtrlPWMOutputs(((TIM_TypeDef *) TIMERN[pwmch>>8]), ENABLE );
     b10:	8522                	mv	a0,s0
     b12:	4585                	li	a1,1
     b14:	14f000ef          	jal	ra,1462 <TIM_CtrlPWMOutputs>
C:/Users/22127/Desktop/Car_light/Libraries/hefei_libraries/hf_pwm.c:72
        TIM_OC2PreloadConfig(((TIM_TypeDef *) TIMERN[pwmch>>8]), TIM_OCPreload_Enable_Disable);
     b18:	85ce                	mv	a1,s3
     b1a:	8522                	mv	a0,s0
     b1c:	16f000ef          	jal	ra,148a <TIM_OC2PreloadConfig>
     b20:	b7e9                	j	aea <pwm_init+0xa4>
C:/Users/22127/Desktop/Car_light/Libraries/hefei_libraries/hf_pwm.c:74
    else if((pwmch & 0x03) == 0x02)
     b22:	4709                	li	a4,2
C:/Users/22127/Desktop/Car_light/Libraries/hefei_libraries/hf_pwm.c:76
        TIM_OC3Init(((TIM_TypeDef *) TIMERN[pwmch>>8]), &TIM_OCInitStructure );
     b24:	080c                	addi	a1,sp,16
     b26:	8522                	mv	a0,s0
C:/Users/22127/Desktop/Car_light/Libraries/hefei_libraries/hf_pwm.c:74
    else if((pwmch & 0x03) == 0x02)
     b28:	00e79d63          	bne	a5,a4,b42 <pwm_init+0xfc>
C:/Users/22127/Desktop/Car_light/Libraries/hefei_libraries/hf_pwm.c:76
        TIM_OC3Init(((TIM_TypeDef *) TIMERN[pwmch>>8]), &TIM_OCInitStructure );
     b2c:	7e6000ef          	jal	ra,1312 <TIM_OC3Init>
C:/Users/22127/Desktop/Car_light/Libraries/hefei_libraries/hf_pwm.c:77
        TIM_CtrlPWMOutputs(((TIM_TypeDef *) TIMERN[pwmch>>8]), ENABLE );
     b30:	8522                	mv	a0,s0
     b32:	4585                	li	a1,1
     b34:	12f000ef          	jal	ra,1462 <TIM_CtrlPWMOutputs>
C:/Users/22127/Desktop/Car_light/Libraries/hefei_libraries/hf_pwm.c:78
        TIM_OC3PreloadConfig(((TIM_TypeDef *) TIMERN[pwmch>>8]), TIM_OCPreload_Enable_Disable);
     b38:	85ce                	mv	a1,s3
     b3a:	8522                	mv	a0,s0
     b3c:	169000ef          	jal	ra,14a4 <TIM_OC3PreloadConfig>
     b40:	b76d                	j	aea <pwm_init+0xa4>
C:/Users/22127/Desktop/Car_light/Libraries/hefei_libraries/hf_pwm.c:82
        TIM_OC4Init(((TIM_TypeDef *) TIMERN[pwmch>>8]), &TIM_OCInitStructure );
     b42:	083000ef          	jal	ra,13c4 <TIM_OC4Init>
C:/Users/22127/Desktop/Car_light/Libraries/hefei_libraries/hf_pwm.c:83
        TIM_CtrlPWMOutputs(((TIM_TypeDef *) TIMERN[pwmch>>8]), ENABLE );
     b46:	8522                	mv	a0,s0
     b48:	4585                	li	a1,1
     b4a:	119000ef          	jal	ra,1462 <TIM_CtrlPWMOutputs>
C:/Users/22127/Desktop/Car_light/Libraries/hefei_libraries/hf_pwm.c:84
        TIM_OC4PreloadConfig(((TIM_TypeDef *) TIMERN[pwmch>>8]), TIM_OCPreload_Enable_Disable);
     b4e:	85ce                	mv	a1,s3
     b50:	8522                	mv	a0,s0
     b52:	165000ef          	jal	ra,14b6 <TIM_OC4PreloadConfig>
     b56:	bf51                	j	aea <pwm_init+0xa4>

00000b58 <timbase_init>:
timbase_init():
C:/Users/22127/Desktop/Car_light/Libraries/hefei_libraries/hf_tim.c:24
//  @return     void
//  Sample usage:           timbase_init(TIMER_2, 71, 0);
//                          //时基初始化为定时器2,频率为1MHz
//-------------------------------------------------------------------------------------------------------------------
void timbase_init(TIMERN_enum TIMER_x, uint16 arr, uint16 pre)
{
     b58:	1101                	addi	sp,sp,-32
     b5a:	cc22                	sw	s0,24(sp)
     b5c:	ca26                	sw	s1,20(sp)
     b5e:	c84a                	sw	s2,16(sp)
     b60:	ce06                	sw	ra,28(sp)
     b62:	842a                	mv	s0,a0
     b64:	892e                	mv	s2,a1
     b66:	84b2                	mv	s1,a2
C:/Users/22127/Desktop/Car_light/Libraries/hefei_libraries/hf_tim.c:27
    TIM_TimeBaseInitTypeDef  TIM_TimeBaseStructure;

    if(TIMER_1 == TIMER_x)
     b68:	ed15                	bnez	a0,ba4 <timbase_init+0x4c>
C:/Users/22127/Desktop/Car_light/Libraries/hefei_libraries/hf_tim.c:28
        RCC_APB2PeriphClockCmd(RCC_APB2Periph_TIM1, ENABLE);                //时钟使能
     b6a:	6505                	lui	a0,0x1
     b6c:	4585                	li	a1,1
     b6e:	80050513          	addi	a0,a0,-2048 # 800 <__stack_size>
     b72:	2b45                	jal	1122 <RCC_APB2PeriphClockCmd>
C:/Users/22127/Desktop/Car_light/Libraries/hefei_libraries/hf_tim.c:42
    TIM_TimeBaseStructure.TIM_Period = arr;                    //计数44000
    TIM_TimeBaseStructure.TIM_Prescaler = pre;                      //设置为1MHZ计数一次,也就是1us计数一次
    TIM_TimeBaseStructure.TIM_ClockDivision = TIM_CKD_DIV1;                 //设置时钟分割:TDTS = Tck_tim
    TIM_TimeBaseStructure.TIM_CounterMode = TIM_CounterMode_Up;             //TIM向上计数模式
    TIM_TimeBaseStructure.TIM_RepetitionCounter = 0;                        //重复计数器设置为0
    TIM_TimeBaseInit((TIM_TypeDef *)TIMERN[TIMER_x], &TIM_TimeBaseStructure);//根据指定的参数初始化TIMx的时间基数单位
     b74:	6785                	lui	a5,0x1
     b76:	69478793          	addi	a5,a5,1684 # 1694 <TIMERN>
     b7a:	040a                	slli	s0,s0,0x2
     b7c:	943e                	add	s0,s0,a5
     b7e:	4008                	lw	a0,0(s0)
     b80:	004c                	addi	a1,sp,4
C:/Users/22127/Desktop/Car_light/Libraries/hefei_libraries/hf_tim.c:37
    TIM_TimeBaseStructure.TIM_Period = arr;                    //计数44000
     b82:	01211423          	sh	s2,8(sp)
C:/Users/22127/Desktop/Car_light/Libraries/hefei_libraries/hf_tim.c:38
    TIM_TimeBaseStructure.TIM_Prescaler = pre;                      //设置为1MHZ计数一次,也就是1us计数一次
     b86:	00911223          	sh	s1,4(sp)
C:/Users/22127/Desktop/Car_light/Libraries/hefei_libraries/hf_tim.c:39
    TIM_TimeBaseStructure.TIM_ClockDivision = TIM_CKD_DIV1;                 //设置时钟分割:TDTS = Tck_tim
     b8a:	00011523          	sh	zero,10(sp)
C:/Users/22127/Desktop/Car_light/Libraries/hefei_libraries/hf_tim.c:40
    TIM_TimeBaseStructure.TIM_CounterMode = TIM_CounterMode_Up;             //TIM向上计数模式
     b8e:	00011323          	sh	zero,6(sp)
C:/Users/22127/Desktop/Car_light/Libraries/hefei_libraries/hf_tim.c:41
    TIM_TimeBaseStructure.TIM_RepetitionCounter = 0;                        //重复计数器设置为0
     b92:	00010623          	sb	zero,12(sp)
C:/Users/22127/Desktop/Car_light/Libraries/hefei_libraries/hf_tim.c:42
    TIM_TimeBaseInit((TIM_TypeDef *)TIMERN[TIMER_x], &TIM_TimeBaseStructure);//根据指定的参数初始化TIMx的时间基数单位
     b96:	23e1                	jal	115e <TIM_TimeBaseInit>
C:/Users/22127/Desktop/Car_light/Libraries/hefei_libraries/hf_tim.c:43
}
     b98:	40f2                	lw	ra,28(sp)
     b9a:	4462                	lw	s0,24(sp)
     b9c:	44d2                	lw	s1,20(sp)
     b9e:	4942                	lw	s2,16(sp)
     ba0:	6105                	addi	sp,sp,32
     ba2:	8082                	ret
C:/Users/22127/Desktop/Car_light/Libraries/hefei_libraries/hf_tim.c:29
    else if(TIMER_2 == TIMER_x)
     ba4:	4785                	li	a5,1
     ba6:	00f51563          	bne	a0,a5,bb0 <timbase_init+0x58>
C:/Users/22127/Desktop/Car_light/Libraries/hefei_libraries/hf_tim.c:32
        RCC_APB1PeriphClockCmd(RCC_APB1Periph_TIM3, ENABLE);                //时钟使能
     baa:	4585                	li	a1,1
C:/Users/22127/Desktop/Car_light/Libraries/hefei_libraries/hf_tim.c:34
        RCC_APB1PeriphClockCmd(RCC_APB1Periph_TIM4, ENABLE);                //时钟使能
     bac:	2b51                	jal	1140 <RCC_APB1PeriphClockCmd>
     bae:	b7d9                	j	b74 <timbase_init+0x1c>
C:/Users/22127/Desktop/Car_light/Libraries/hefei_libraries/hf_tim.c:31
    else if(TIMER_3 == TIMER_x)
     bb0:	4789                	li	a5,2
     bb2:	fef50ce3          	beq	a0,a5,baa <timbase_init+0x52>
C:/Users/22127/Desktop/Car_light/Libraries/hefei_libraries/hf_tim.c:33
    else if(TIMER_4 == TIMER_x)
     bb6:	478d                	li	a5,3
     bb8:	faf51ee3          	bne	a0,a5,b74 <timbase_init+0x1c>
C:/Users/22127/Desktop/Car_light/Libraries/hefei_libraries/hf_tim.c:34
        RCC_APB1PeriphClockCmd(RCC_APB1Periph_TIM4, ENABLE);                //时钟使能
     bbc:	4585                	li	a1,1
     bbe:	4511                	li	a0,4
     bc0:	b7f5                	j	bac <timbase_init+0x54>

00000bc2 <uart_gpio_init>:
uart_gpio_init():
C:/Users/22127/Desktop/Car_light/Libraries/hefei_libraries/hf_uart.c:164
//  @param      rx_pin      串口接收引脚号
//  @return     void
//  Sample usage:           内部使用，用户无需关心
//-------------------------------------------------------------------------------------------------------------------
void uart_gpio_init(UARTPIN_enum tx_pin, UARTPIN_enum rx_pin)
{
     bc2:	1141                	addi	sp,sp,-16
     bc4:	c606                	sw	ra,12(sp)
C:/Users/22127/Desktop/Car_light/Libraries/hefei_libraries/hf_uart.c:165
    if(tx_pin == UART1_TX_A9 && rx_pin == UART1_RX_A10)
     bc6:	e105                	bnez	a0,be6 <uart_gpio_init+0x24>
C:/Users/22127/Desktop/Car_light/Libraries/hefei_libraries/hf_uart.c:165 (discriminator 1)
     bc8:	4785                	li	a5,1
     bca:	08f59e63          	bne	a1,a5,c66 <uart_gpio_init+0xa4>
C:/Users/22127/Desktop/Car_light/Libraries/hefei_libraries/hf_uart.c:167
    {
        gpio_init(A9, GPO, 0, SPEED_50MHZ|OUT_AF_PP);
     bce:	31800693          	li	a3,792
     bd2:	4601                	li	a2,0
     bd4:	4525                	li	a0,9
     bd6:	34bd                	jal	644 <gpio_init>
C:/Users/22127/Desktop/Car_light/Libraries/hefei_libraries/hf_uart.c:168
        gpio_init(A10, GPI, 0, IN_FLOAT);
     bd8:	4691                	li	a3,4
     bda:	4601                	li	a2,0
     bdc:	4581                	li	a1,0
     bde:	4529                	li	a0,10
C:/Users/22127/Desktop/Car_light/Libraries/hefei_libraries/hf_uart.c:193
    else if(tx_pin == UART3_TX_C10)
    {
        gpio_init(C10, GPO, 0, SPEED_50MHZ|OUT_PP);
        gpio_init(C11, GPI, 0, IN_FLOAT);
    }
}
     be0:	40b2                	lw	ra,12(sp)
     be2:	0141                	addi	sp,sp,16
C:/Users/22127/Desktop/Car_light/Libraries/hefei_libraries/hf_uart.c:191
        gpio_init(C11, GPI, 0, IN_FLOAT);
     be4:	b485                	j	644 <gpio_init>
C:/Users/22127/Desktop/Car_light/Libraries/hefei_libraries/hf_uart.c:170
    else if(tx_pin == UART1_TX_B6)
     be6:	4789                	li	a5,2
     be8:	00f51f63          	bne	a0,a5,c06 <uart_gpio_init+0x44>
C:/Users/22127/Desktop/Car_light/Libraries/hefei_libraries/hf_uart.c:172
        gpio_init(B6, GPO, 0, SPEED_50MHZ|OUT_AF_PP);
     bec:	31800693          	li	a3,792
     bf0:	4601                	li	a2,0
     bf2:	4585                	li	a1,1
     bf4:	02600513          	li	a0,38
     bf8:	34b1                	jal	644 <gpio_init>
C:/Users/22127/Desktop/Car_light/Libraries/hefei_libraries/hf_uart.c:173
        gpio_init(B7, GPI, 0, IN_FLOAT);
     bfa:	4691                	li	a3,4
     bfc:	4601                	li	a2,0
     bfe:	4581                	li	a1,0
     c00:	02700513          	li	a0,39
     c04:	bff1                	j	be0 <uart_gpio_init+0x1e>
C:/Users/22127/Desktop/Car_light/Libraries/hefei_libraries/hf_uart.c:176
    else if(tx_pin == UART2_TX_A2)
     c06:	47c1                	li	a5,16
     c08:	00f51d63          	bne	a0,a5,c22 <uart_gpio_init+0x60>
C:/Users/22127/Desktop/Car_light/Libraries/hefei_libraries/hf_uart.c:178
        gpio_init(A2, GPO, 0, SPEED_50MHZ|OUT_AF_PP);
     c0c:	31800693          	li	a3,792
     c10:	4601                	li	a2,0
     c12:	4585                	li	a1,1
     c14:	4509                	li	a0,2
     c16:	343d                	jal	644 <gpio_init>
C:/Users/22127/Desktop/Car_light/Libraries/hefei_libraries/hf_uart.c:179
        gpio_init(A3, GPI, 0, IN_FLOAT);
     c18:	4691                	li	a3,4
     c1a:	4601                	li	a2,0
     c1c:	4581                	li	a1,0
     c1e:	450d                	li	a0,3
     c20:	b7c1                	j	be0 <uart_gpio_init+0x1e>
C:/Users/22127/Desktop/Car_light/Libraries/hefei_libraries/hf_uart.c:182
    else if(tx_pin == UART3_TX_B10)
     c22:	02000793          	li	a5,32
     c26:	00f51f63          	bne	a0,a5,c44 <uart_gpio_init+0x82>
C:/Users/22127/Desktop/Car_light/Libraries/hefei_libraries/hf_uart.c:184
        gpio_init(B10, GPO, 0, SPEED_50MHZ|OUT_AF_PP);
     c2a:	31800693          	li	a3,792
     c2e:	4601                	li	a2,0
     c30:	4585                	li	a1,1
     c32:	02a00513          	li	a0,42
     c36:	3439                	jal	644 <gpio_init>
C:/Users/22127/Desktop/Car_light/Libraries/hefei_libraries/hf_uart.c:185
        gpio_init(B11, GPI, 0, IN_FLOAT);
     c38:	4691                	li	a3,4
     c3a:	4601                	li	a2,0
     c3c:	4581                	li	a1,0
     c3e:	02b00513          	li	a0,43
     c42:	bf79                	j	be0 <uart_gpio_init+0x1e>
C:/Users/22127/Desktop/Car_light/Libraries/hefei_libraries/hf_uart.c:188
    else if(tx_pin == UART3_TX_C10)
     c44:	02200793          	li	a5,34
     c48:	00f51f63          	bne	a0,a5,c66 <uart_gpio_init+0xa4>
C:/Users/22127/Desktop/Car_light/Libraries/hefei_libraries/hf_uart.c:190
        gpio_init(C10, GPO, 0, SPEED_50MHZ|OUT_PP);
     c4c:	31000693          	li	a3,784
     c50:	4601                	li	a2,0
     c52:	4585                	li	a1,1
     c54:	04a00513          	li	a0,74
     c58:	32f5                	jal	644 <gpio_init>
C:/Users/22127/Desktop/Car_light/Libraries/hefei_libraries/hf_uart.c:191
        gpio_init(C11, GPI, 0, IN_FLOAT);
     c5a:	4691                	li	a3,4
     c5c:	4601                	li	a2,0
     c5e:	4581                	li	a1,0
     c60:	04b00513          	li	a0,75
     c64:	bfb5                	j	be0 <uart_gpio_init+0x1e>
C:/Users/22127/Desktop/Car_light/Libraries/hefei_libraries/hf_uart.c:193
}
     c66:	40b2                	lw	ra,12(sp)
     c68:	0141                	addi	sp,sp,16
     c6a:	8082                	ret

00000c6c <uart_init>:
uart_init():
C:/Users/22127/Desktop/Car_light/Libraries/hefei_libraries/hf_uart.c:25
{
     c6c:	7179                	addi	sp,sp,-48
     c6e:	d422                	sw	s0,40(sp)
     c70:	d226                	sw	s1,36(sp)
     c72:	d04a                	sw	s2,32(sp)
     c74:	ce4e                	sw	s3,28(sp)
     c76:	d606                	sw	ra,44(sp)
     c78:	842a                	mv	s0,a0
     c7a:	84ae                	mv	s1,a1
     c7c:	8932                	mv	s2,a2
     c7e:	89b6                	mv	s3,a3
C:/Users/22127/Desktop/Car_light/Libraries/hefei_libraries/hf_uart.c:29
    if(UART_1 == UART_x) RCC_APB2PeriphClockCmd(RCC_APB2Periph_USART1, ENABLE);
     c80:	e139                	bnez	a0,cc6 <uart_init+0x5a>
C:/Users/22127/Desktop/Car_light/Libraries/hefei_libraries/hf_uart.c:29 (discriminator 1)
     c82:	4585                	li	a1,1
     c84:	6511                	lui	a0,0x4
     c86:	2971                	jal	1122 <RCC_APB2PeriphClockCmd>
C:/Users/22127/Desktop/Car_light/Libraries/hefei_libraries/hf_uart.c:34
    uart_gpio_init(tx_pin, rx_pin);
     c88:	85ce                	mv	a1,s3
     c8a:	854a                	mv	a0,s2
     c8c:	3f1d                	jal	bc2 <uart_gpio_init>
C:/Users/22127/Desktop/Car_light/Libraries/hefei_libraries/hf_uart.c:40
    USART_InitStructure.USART_Parity = USART_Parity_No;
     c8e:	000c07b7          	lui	a5,0xc0
     c92:	c43e                	sw	a5,8(sp)
C:/Users/22127/Desktop/Car_light/Libraries/hefei_libraries/hf_uart.c:45
    USART_Init((USART_TypeDef*)UARTN[UART_x], &USART_InitStructure);
     c94:	6785                	lui	a5,0x1
     c96:	6a478793          	addi	a5,a5,1700 # 16a4 <UARTN>
     c9a:	040a                	slli	s0,s0,0x2
     c9c:	943e                	add	s0,s0,a5
     c9e:	4000                	lw	s0,0(s0)
     ca0:	858a                	mv	a1,sp
C:/Users/22127/Desktop/Car_light/Libraries/hefei_libraries/hf_uart.c:37
    USART_InitStructure.USART_BaudRate = baud;
     ca2:	c026                	sw	s1,0(sp)
C:/Users/22127/Desktop/Car_light/Libraries/hefei_libraries/hf_uart.c:45
    USART_Init((USART_TypeDef*)UARTN[UART_x], &USART_InitStructure);
     ca4:	8522                	mv	a0,s0
C:/Users/22127/Desktop/Car_light/Libraries/hefei_libraries/hf_uart.c:38
    USART_InitStructure.USART_WordLength = USART_WordLength_8b;
     ca6:	c202                	sw	zero,4(sp)
C:/Users/22127/Desktop/Car_light/Libraries/hefei_libraries/hf_uart.c:41
    USART_InitStructure.USART_HardwareFlowControl = USART_HardwareFlowControl_None;
     ca8:	00011623          	sh	zero,12(sp)
C:/Users/22127/Desktop/Car_light/Libraries/hefei_libraries/hf_uart.c:45
    USART_Init((USART_TypeDef*)UARTN[UART_x], &USART_InitStructure);
     cac:	089000ef          	jal	ra,1534 <USART_Init>
C:/Users/22127/Desktop/Car_light/Libraries/hefei_libraries/hf_uart.c:46
    USART_Cmd((USART_TypeDef*)UARTN[UART_x], ENABLE);
     cb0:	8522                	mv	a0,s0
     cb2:	4585                	li	a1,1
     cb4:	159000ef          	jal	ra,160c <USART_Cmd>
C:/Users/22127/Desktop/Car_light/Libraries/hefei_libraries/hf_uart.c:48
}
     cb8:	50b2                	lw	ra,44(sp)
     cba:	5422                	lw	s0,40(sp)
     cbc:	5492                	lw	s1,36(sp)
     cbe:	5902                	lw	s2,32(sp)
     cc0:	49f2                	lw	s3,28(sp)
     cc2:	6145                	addi	sp,sp,48
     cc4:	8082                	ret
C:/Users/22127/Desktop/Car_light/Libraries/hefei_libraries/hf_uart.c:30
    else if(UART_2 == UART_x) RCC_APB1PeriphClockCmd(RCC_APB1Periph_USART2, ENABLE);
     cc6:	4785                	li	a5,1
     cc8:	00f51763          	bne	a0,a5,cd6 <uart_init+0x6a>
C:/Users/22127/Desktop/Car_light/Libraries/hefei_libraries/hf_uart.c:30 (discriminator 1)
     ccc:	4585                	li	a1,1
     cce:	00020537          	lui	a0,0x20
C:/Users/22127/Desktop/Car_light/Libraries/hefei_libraries/hf_uart.c:31 (discriminator 1)
    else if(UART_3 == UART_x) RCC_APB1PeriphClockCmd(RCC_APB1Periph_USART3, ENABLE);
     cd2:	21bd                	jal	1140 <RCC_APB1PeriphClockCmd>
     cd4:	bf55                	j	c88 <uart_init+0x1c>
C:/Users/22127/Desktop/Car_light/Libraries/hefei_libraries/hf_uart.c:31
     cd6:	4789                	li	a5,2
     cd8:	faf518e3          	bne	a0,a5,c88 <uart_init+0x1c>
C:/Users/22127/Desktop/Car_light/Libraries/hefei_libraries/hf_uart.c:31 (discriminator 1)
     cdc:	4585                	li	a1,1
     cde:	00040537          	lui	a0,0x40
     ce2:	bfc5                	j	cd2 <uart_init+0x66>

00000ce4 <key_init>:
key_init():
C:/Users/22127/Desktop/Car_light/02-Car_Light/CODE/car_4keys.c:19
// @return       void
// Sample usage:       key_init(K1);//按键初始化
//-------------------------------------------------------------------------------------------------------------------
void key_init(unsigned char key_num)
{
    if(key_num == K1)
     ce4:	4789                	li	a5,2
     ce6:	00f51a63          	bne	a0,a5,cfa <key_init+0x16>
C:/Users/22127/Desktop/Car_light/02-Car_Light/CODE/car_4keys.c:25
    {
        gpio_init(B12, GPI, 1, SPEED_50MHZ|IN_PULLUP);
    }
    if(key_num == K2)
    {
        gpio_init(B12, GPI, 1, SPEED_50MHZ|IN_PULLUP);
     cea:	34800693          	li	a3,840
     cee:	4605                	li	a2,1
     cf0:	4581                	li	a1,0
     cf2:	02c00513          	li	a0,44
C:/Users/22127/Desktop/Car_light/02-Car_Light/CODE/car_4keys.c:33
    {
        gpio_init(B13, GPI, 1, SPEED_50MHZ|IN_PULLUP);
    }
    if(key_num == K4)
    {
        gpio_init(B14, GPI, 1, SPEED_50MHZ|IN_PULLUP);
     cf6:	94fff06f          	j	644 <gpio_init>
C:/Users/22127/Desktop/Car_light/02-Car_Light/CODE/car_4keys.c:23
    if(key_num == K2)
     cfa:	478d                	li	a5,3
     cfc:	fef507e3          	beq	a0,a5,cea <key_init+0x6>
C:/Users/22127/Desktop/Car_light/02-Car_Light/CODE/car_4keys.c:27
    if(key_num == K3)
     d00:	4791                	li	a5,4
     d02:	00f51963          	bne	a0,a5,d14 <key_init+0x30>
C:/Users/22127/Desktop/Car_light/02-Car_Light/CODE/car_4keys.c:29
        gpio_init(B13, GPI, 1, SPEED_50MHZ|IN_PULLUP);
     d06:	34800693          	li	a3,840
     d0a:	4605                	li	a2,1
     d0c:	4581                	li	a1,0
     d0e:	02d00513          	li	a0,45
     d12:	b7d5                	j	cf6 <key_init+0x12>
C:/Users/22127/Desktop/Car_light/02-Car_Light/CODE/car_4keys.c:31
    if(key_num == K4)
     d14:	4795                	li	a5,5
     d16:	00f51963          	bne	a0,a5,d28 <key_init+0x44>
C:/Users/22127/Desktop/Car_light/02-Car_Light/CODE/car_4keys.c:33
        gpio_init(B14, GPI, 1, SPEED_50MHZ|IN_PULLUP);
     d1a:	34800693          	li	a3,840
     d1e:	4605                	li	a2,1
     d20:	4581                	li	a1,0
     d22:	02e00513          	li	a0,46
     d26:	bfc1                	j	cf6 <key_init+0x12>
C:/Users/22127/Desktop/Car_light/02-Car_Light/CODE/car_4keys.c:35
    }
}
     d28:	8082                	ret

00000d2a <key_check>:
key_check():
C:/Users/22127/Desktop/Car_light/02-Car_Light/CODE/car_4keys.c:44
// @param        key_num            选择按键：Kx(x = 1, 2, 3, 4)
// @return       key_value
// Sample usage:       key_check(K1);//检测K1键值
//-------------------------------------------------------------------------------------------------------------------
unsigned char key_check(void)
{
     d2a:	1141                	addi	sp,sp,-16
C:/Users/22127/Desktop/Car_light/02-Car_Light/CODE/car_4keys.c:47
    unsigned char key_value;

    if(KEYDOWN == gpio_get_input(B12))
     d2c:	02c00513          	li	a0,44
C:/Users/22127/Desktop/Car_light/02-Car_Light/CODE/car_4keys.c:44
{
     d30:	c606                	sw	ra,12(sp)
     d32:	c422                	sw	s0,8(sp)
C:/Users/22127/Desktop/Car_light/02-Car_Light/CODE/car_4keys.c:47
    if(KEYDOWN == gpio_get_input(B12))
     d34:	32fd                	jal	722 <gpio_get_input>
     d36:	ed09                	bnez	a0,d50 <key_check+0x26>
C:/Users/22127/Desktop/Car_light/02-Car_Light/CODE/car_4keys.c:51
    {
        key_value = 0x01;

        while(KEYUP != gpio_get_input(B12))
     d38:	4405                	li	s0,1
C:/Users/22127/Desktop/Car_light/02-Car_Light/CODE/car_4keys.c:51 (discriminator 1)
     d3a:	02c00513          	li	a0,44
     d3e:	32d5                	jal	722 <gpio_get_input>
     d40:	fe851de3          	bne	a0,s0,d3a <key_check+0x10>
C:/Users/22127/Desktop/Car_light/02-Car_Light/CODE/car_4keys.c:49
        key_value = 0x01;
     d44:	4785                	li	a5,1
C:/Users/22127/Desktop/Car_light/02-Car_Light/CODE/car_4keys.c:89
    {
        key_value = 0xFF;
    }

    return key_value;
}
     d46:	40b2                	lw	ra,12(sp)
     d48:	4422                	lw	s0,8(sp)
     d4a:	853e                	mv	a0,a5
     d4c:	0141                	addi	sp,sp,16
     d4e:	8082                	ret
C:/Users/22127/Desktop/Car_light/02-Car_Light/CODE/car_4keys.c:56
    else if(KEYDOWN == gpio_get_input(B13))
     d50:	02d00513          	li	a0,45
     d54:	32f9                	jal	722 <gpio_get_input>
     d56:	e909                	bnez	a0,d68 <key_check+0x3e>
C:/Users/22127/Desktop/Car_light/02-Car_Light/CODE/car_4keys.c:60
        while(KEYUP != gpio_get_input(B13))
     d58:	4405                	li	s0,1
C:/Users/22127/Desktop/Car_light/02-Car_Light/CODE/car_4keys.c:60 (discriminator 1)
     d5a:	02d00513          	li	a0,45
     d5e:	32d1                	jal	722 <gpio_get_input>
     d60:	fe851de3          	bne	a0,s0,d5a <key_check+0x30>
C:/Users/22127/Desktop/Car_light/02-Car_Light/CODE/car_4keys.c:58
        key_value = 0x02;
     d64:	4789                	li	a5,2
     d66:	b7c5                	j	d46 <key_check+0x1c>
C:/Users/22127/Desktop/Car_light/02-Car_Light/CODE/car_4keys.c:65
    else if(KEYDOWN== gpio_get_input(B14))
     d68:	02e00513          	li	a0,46
     d6c:	3a5d                	jal	722 <gpio_get_input>
     d6e:	e909                	bnez	a0,d80 <key_check+0x56>
C:/Users/22127/Desktop/Car_light/02-Car_Light/CODE/car_4keys.c:69
        while(KEYUP != gpio_get_input(B14))
     d70:	4405                	li	s0,1
C:/Users/22127/Desktop/Car_light/02-Car_Light/CODE/car_4keys.c:69 (discriminator 1)
     d72:	02e00513          	li	a0,46
     d76:	3275                	jal	722 <gpio_get_input>
     d78:	fe851de3          	bne	a0,s0,d72 <key_check+0x48>
C:/Users/22127/Desktop/Car_light/02-Car_Light/CODE/car_4keys.c:67
        key_value = 0x03;
     d7c:	478d                	li	a5,3
     d7e:	b7e1                	j	d46 <key_check+0x1c>
C:/Users/22127/Desktop/Car_light/02-Car_Light/CODE/car_4keys.c:74
    else if(KEYDOWN == gpio_get_input(B15))
     d80:	02f00513          	li	a0,47
     d84:	99fff0ef          	jal	ra,722 <gpio_get_input>
C:/Users/22127/Desktop/Car_light/02-Car_Light/CODE/car_4keys.c:85
        key_value = 0xFF;
     d88:	0ff00793          	li	a5,255
C:/Users/22127/Desktop/Car_light/02-Car_Light/CODE/car_4keys.c:74
    else if(KEYDOWN == gpio_get_input(B15))
     d8c:	fd4d                	bnez	a0,d46 <key_check+0x1c>
C:/Users/22127/Desktop/Car_light/02-Car_Light/CODE/car_4keys.c:78
        while(KEYUP != gpio_get_input(B15))
     d8e:	4405                	li	s0,1
C:/Users/22127/Desktop/Car_light/02-Car_Light/CODE/car_4keys.c:78 (discriminator 1)
     d90:	02f00513          	li	a0,47
     d94:	98fff0ef          	jal	ra,722 <gpio_get_input>
     d98:	fe851ce3          	bne	a0,s0,d90 <key_check+0x66>
C:/Users/22127/Desktop/Car_light/02-Car_Light/CODE/car_4keys.c:76
        key_value = 0x04;
     d9c:	4791                	li	a5,4
     d9e:	b765                	j	d46 <key_check+0x1c>

00000da0 <car_init>:
car_init():
C:/Users/22127/Desktop/Car_light/02-Car_Light/CODE/car_init.c:20
// Sample usage:        car_init(); 
                        //智能车初始化
//-------------------------------------------------------------------------------------------------------------------

void car_init()
{
     da0:	1141                	addi	sp,sp,-16
     da2:	c606                	sw	ra,12(sp)
C:/Users/22127/Desktop/Car_light/02-Car_Light/CODE/car_init.c:21
    DisableGlobalIRQ();                                         //默认关所有中断
     da4:	9b1ff0ef          	jal	ra,754 <DisableGlobalIRQ>
C:/Users/22127/Desktop/Car_light/02-Car_Light/CODE/car_init.c:22
    uart_init(UART_1, 115200U, UART1_TX_A9, UART1_RX_A10);      //配置TYPE-C串行通信接口，用于printf打印数据
     da8:	65f1                	lui	a1,0x1c
     daa:	4685                	li	a3,1
     dac:	4601                	li	a2,0
     dae:	20058593          	addi	a1,a1,512 # 1c200 <_data_lma+0x1ab4c>
     db2:	4501                	li	a0,0
     db4:	3d65                	jal	c6c <uart_init>
C:/Users/22127/Desktop/Car_light/02-Car_Light/CODE/car_init.c:23
    board_init();                                               //务必保留，本函数用于初始化MPU,时钟/调试串口
     db6:	f02ff0ef          	jal	ra,4b8 <board_init>
C:/Users/22127/Desktop/Car_light/02-Car_Light/CODE/car_init.c:24
    Delay_Init();
     dba:	835ff0ef          	jal	ra,5ee <Delay_Init>
C:/Users/22127/Desktop/Car_light/02-Car_Light/CODE/car_init.c:25
    l9110s_init(left);
     dbe:	4501                	li	a0,0
     dc0:	de0ff0ef          	jal	ra,3a0 <l9110s_init>
C:/Users/22127/Desktop/Car_light/02-Car_Light/CODE/car_init.c:26
    l9110s_init(right);
     dc4:	4505                	li	a0,1
     dc6:	ddaff0ef          	jal	ra,3a0 <l9110s_init>
C:/Users/22127/Desktop/Car_light/02-Car_Light/CODE/car_init.c:28

    ws2812b_init();
     dca:	e24ff0ef          	jal	ra,3ee <ws2812b_init>
C:/Users/22127/Desktop/Car_light/02-Car_Light/CODE/car_init.c:29
    car_both_rgb_off();
     dce:	28e1                	jal	ea6 <car_both_rgb_off>
C:/Users/22127/Desktop/Car_light/02-Car_Light/CODE/car_init.c:30
    Delay_Ms(1);
     dd0:	4505                	li	a0,1
     dd2:	843ff0ef          	jal	ra,614 <Delay_Ms>
C:/Users/22127/Desktop/Car_light/02-Car_Light/CODE/car_init.c:31
    car_both_rgb_off();
     dd6:	28c1                	jal	ea6 <car_both_rgb_off>
C:/Users/22127/Desktop/Car_light/02-Car_Light/CODE/car_init.c:32
    key_init(K1);
     dd8:	4509                	li	a0,2
     dda:	3729                	jal	ce4 <key_init>
C:/Users/22127/Desktop/Car_light/02-Car_Light/CODE/car_init.c:33
    key_init(K2);
     ddc:	450d                	li	a0,3
     dde:	3719                	jal	ce4 <key_init>
C:/Users/22127/Desktop/Car_light/02-Car_Light/CODE/car_init.c:34
    key_init(K3);
     de0:	4511                	li	a0,4
     de2:	3709                	jal	ce4 <key_init>
C:/Users/22127/Desktop/Car_light/02-Car_Light/CODE/car_init.c:35
    key_init(K4);
     de4:	4515                	li	a0,5
     de6:	3dfd                	jal	ce4 <key_init>
C:/Users/22127/Desktop/Car_light/02-Car_Light/CODE/car_init.c:40


    /* 总中断最后开启 */
    EnableGlobalIRQ(0);
}	
     de8:	40b2                	lw	ra,12(sp)
C:/Users/22127/Desktop/Car_light/02-Car_Light/CODE/car_init.c:39
    EnableGlobalIRQ(0);
     dea:	4501                	li	a0,0
C:/Users/22127/Desktop/Car_light/02-Car_Light/CODE/car_init.c:40
}	
     dec:	0141                	addi	sp,sp,16
C:/Users/22127/Desktop/Car_light/02-Car_Light/CODE/car_init.c:39
    EnableGlobalIRQ(0);
     dee:	9a5ff06f          	j	792 <EnableGlobalIRQ>

00000df2 <car_both_rgb_on>:
car_both_rgb_on():
C:/Users/22127/Desktop/Car_light/02-Car_Light/CODE/car_light.c:19
// @param        time           延时时间(ms)
// @return       void
// Sample usage:        car_both_rgb_on(red, 1000);//尾灯同时显示红色，延时1s
//-------------------------------------------------------------------------------------------------------------------
void car_both_rgb_on(rgb_color color, uint16_t time)
{
     df2:	1141                	addi	sp,sp,-16
     df4:	c422                	sw	s0,8(sp)
     df6:	c606                	sw	ra,12(sp)
     df8:	c226                	sw	s1,4(sp)
     dfa:	842e                	mv	s0,a1
C:/Users/22127/Desktop/Car_light/02-Car_Light/CODE/car_light.c:20
    if(color == red)
     dfc:	e105                	bnez	a0,e1c <car_both_rgb_on+0x2a>
C:/Users/22127/Desktop/Car_light/02-Car_Light/CODE/car_light.c:22
    {
        ws2812b_write(rgb_red);
     dfe:	81018513          	addi	a0,gp,-2032 # 20000020 <rgb_red>
     e02:	e10ff0ef          	jal	ra,412 <ws2812b_write>
C:/Users/22127/Desktop/Car_light/02-Car_Light/CODE/car_light.c:23
        ws2812b_write(rgb_red);
     e06:	81018513          	addi	a0,gp,-2032 # 20000020 <rgb_red>
C:/Users/22127/Desktop/Car_light/02-Car_Light/CODE/car_light.c:65
        Delay_Ms(time);
    }
    else
    {
        ws2812b_write(rgb_user_define);
        ws2812b_write(rgb_user_define);
     e0a:	e08ff0ef          	jal	ra,412 <ws2812b_write>
C:/Users/22127/Desktop/Car_light/02-Car_Light/CODE/car_light.c:66
        Delay_Ms(time);
     e0e:	8522                	mv	a0,s0
C:/Users/22127/Desktop/Car_light/02-Car_Light/CODE/car_light.c:68
    }
}
     e10:	4422                	lw	s0,8(sp)
     e12:	40b2                	lw	ra,12(sp)
     e14:	4492                	lw	s1,4(sp)
     e16:	0141                	addi	sp,sp,16
C:/Users/22127/Desktop/Car_light/02-Car_Light/CODE/car_light.c:66
        Delay_Ms(time);
     e18:	ffcff06f          	j	614 <Delay_Ms>
C:/Users/22127/Desktop/Car_light/02-Car_Light/CODE/car_light.c:26
    else if(color == yellow)
     e1c:	4785                	li	a5,1
     e1e:	00f51963          	bne	a0,a5,e30 <car_both_rgb_on+0x3e>
C:/Users/22127/Desktop/Car_light/02-Car_Light/CODE/car_light.c:28
        ws2812b_write(rgb_yellow);
     e22:	81c18513          	addi	a0,gp,-2020 # 2000002c <rgb_yellow>
     e26:	decff0ef          	jal	ra,412 <ws2812b_write>
C:/Users/22127/Desktop/Car_light/02-Car_Light/CODE/car_light.c:29
        ws2812b_write(rgb_yellow);
     e2a:	81c18513          	addi	a0,gp,-2020 # 2000002c <rgb_yellow>
     e2e:	bff1                	j	e0a <car_both_rgb_on+0x18>
C:/Users/22127/Desktop/Car_light/02-Car_Light/CODE/car_light.c:32
    else if(color == white)
     e30:	4789                	li	a5,2
     e32:	00f51963          	bne	a0,a5,e44 <car_both_rgb_on+0x52>
C:/Users/22127/Desktop/Car_light/02-Car_Light/CODE/car_light.c:34
        ws2812b_write(rgb_white);
     e36:	81818513          	addi	a0,gp,-2024 # 20000028 <rgb_white>
     e3a:	dd8ff0ef          	jal	ra,412 <ws2812b_write>
C:/Users/22127/Desktop/Car_light/02-Car_Light/CODE/car_light.c:35
        ws2812b_write(rgb_white);
     e3e:	81818513          	addi	a0,gp,-2024 # 20000028 <rgb_white>
     e42:	b7e1                	j	e0a <car_both_rgb_on+0x18>
C:/Users/22127/Desktop/Car_light/02-Car_Light/CODE/car_light.c:38
    else if(color == blue)
     e44:	4791                	li	a5,4
     e46:	00f51b63          	bne	a0,a5,e5c <car_both_rgb_on+0x6a>
C:/Users/22127/Desktop/Car_light/02-Car_Light/CODE/car_light.c:40
        ws2812b_write(rgb_blue);
     e4a:	200004b7          	lui	s1,0x20000
     e4e:	01048513          	addi	a0,s1,16 # 20000010 <rgb_blue>
     e52:	dc0ff0ef          	jal	ra,412 <ws2812b_write>
C:/Users/22127/Desktop/Car_light/02-Car_Light/CODE/car_light.c:41
        ws2812b_write(rgb_blue);
     e56:	01048513          	addi	a0,s1,16
     e5a:	bf45                	j	e0a <car_both_rgb_on+0x18>
C:/Users/22127/Desktop/Car_light/02-Car_Light/CODE/car_light.c:44
    else if(color == green)
     e5c:	478d                	li	a5,3
     e5e:	00f51963          	bne	a0,a5,e70 <car_both_rgb_on+0x7e>
C:/Users/22127/Desktop/Car_light/02-Car_Light/CODE/car_light.c:46
        ws2812b_write(rgb_green);
     e62:	80818513          	addi	a0,gp,-2040 # 20000018 <rgb_green>
     e66:	dacff0ef          	jal	ra,412 <ws2812b_write>
C:/Users/22127/Desktop/Car_light/02-Car_Light/CODE/car_light.c:47
        ws2812b_write(rgb_green);
     e6a:	80818513          	addi	a0,gp,-2040 # 20000018 <rgb_green>
     e6e:	bf71                	j	e0a <car_both_rgb_on+0x18>
C:/Users/22127/Desktop/Car_light/02-Car_Light/CODE/car_light.c:50
    else if(color == cyan)
     e70:	4795                	li	a5,5
     e72:	00f51963          	bne	a0,a5,e84 <car_both_rgb_on+0x92>
C:/Users/22127/Desktop/Car_light/02-Car_Light/CODE/car_light.c:52
        ws2812b_write(rgb_cyan);
     e76:	80418513          	addi	a0,gp,-2044 # 20000014 <rgb_cyan>
     e7a:	d98ff0ef          	jal	ra,412 <ws2812b_write>
C:/Users/22127/Desktop/Car_light/02-Car_Light/CODE/car_light.c:53
        ws2812b_write(rgb_cyan);
     e7e:	80418513          	addi	a0,gp,-2044 # 20000014 <rgb_cyan>
     e82:	b761                	j	e0a <car_both_rgb_on+0x18>
C:/Users/22127/Desktop/Car_light/02-Car_Light/CODE/car_light.c:56
    else if(color == purple)
     e84:	4799                	li	a5,6
     e86:	00f51963          	bne	a0,a5,e98 <car_both_rgb_on+0xa6>
C:/Users/22127/Desktop/Car_light/02-Car_Light/CODE/car_light.c:58
        ws2812b_write(rgb_purple);
     e8a:	80c18513          	addi	a0,gp,-2036 # 2000001c <rgb_purple>
     e8e:	d84ff0ef          	jal	ra,412 <ws2812b_write>
C:/Users/22127/Desktop/Car_light/02-Car_Light/CODE/car_light.c:59
        ws2812b_write(rgb_purple);
     e92:	80c18513          	addi	a0,gp,-2036 # 2000001c <rgb_purple>
     e96:	bf95                	j	e0a <car_both_rgb_on+0x18>
C:/Users/22127/Desktop/Car_light/02-Car_Light/CODE/car_light.c:64
        ws2812b_write(rgb_user_define);
     e98:	81418513          	addi	a0,gp,-2028 # 20000024 <rgb_user_define>
     e9c:	d76ff0ef          	jal	ra,412 <ws2812b_write>
C:/Users/22127/Desktop/Car_light/02-Car_Light/CODE/car_light.c:65
        ws2812b_write(rgb_user_define);
     ea0:	81418513          	addi	a0,gp,-2028 # 20000024 <rgb_user_define>
     ea4:	b79d                	j	e0a <car_both_rgb_on+0x18>

00000ea6 <car_both_rgb_off>:
car_both_rgb_off():
C:/Users/22127/Desktop/Car_light/02-Car_Light/CODE/car_light.c:77
// @param        void
// @return       void
// Sample usage:        car_both_rgb_off();//尾灯熄灭
//-------------------------------------------------------------------------------------------------------------------
void car_both_rgb_off()
{
     ea6:	1141                	addi	sp,sp,-16
     ea8:	c422                	sw	s0,8(sp)
C:/Users/22127/Desktop/Car_light/02-Car_Light/CODE/car_light.c:78
    ws2812b_write(rgb_off);
     eaa:	83018513          	addi	a0,gp,-2000 # 20000040 <rgb_off>
C:/Users/22127/Desktop/Car_light/02-Car_Light/CODE/car_light.c:77
{
     eae:	c606                	sw	ra,12(sp)
C:/Users/22127/Desktop/Car_light/02-Car_Light/CODE/car_light.c:78
    ws2812b_write(rgb_off);
     eb0:	d62ff0ef          	jal	ra,412 <ws2812b_write>
C:/Users/22127/Desktop/Car_light/02-Car_Light/CODE/car_light.c:79
    ws2812b_write(rgb_off);
     eb4:	83018513          	addi	a0,gp,-2000 # 20000040 <rgb_off>
     eb8:	d5aff0ef          	jal	ra,412 <ws2812b_write>
C:/Users/22127/Desktop/Car_light/02-Car_Light/CODE/car_light.c:81
    Delay_Ms(50);
}
     ebc:	4422                	lw	s0,8(sp)
     ebe:	40b2                	lw	ra,12(sp)
C:/Users/22127/Desktop/Car_light/02-Car_Light/CODE/car_light.c:80
    Delay_Ms(50);
     ec0:	03200513          	li	a0,50
C:/Users/22127/Desktop/Car_light/02-Car_Light/CODE/car_light.c:81
}
     ec4:	0141                	addi	sp,sp,16
C:/Users/22127/Desktop/Car_light/02-Car_Light/CODE/car_light.c:80
    Delay_Ms(50);
     ec6:	f4eff06f          	j	614 <Delay_Ms>

00000eca <handle_reset>:
handle_reset():
C:/Users/22127/Desktop/Car_light/Libraries/Device/CH32V10x_p/Startup/startup_ch32v10x.S:147
	.weak	handle_reset
	.align	1
handle_reset:
.option push 
.option	norelax 
	la gp, __global_pointer$
     eca:	20000197          	auipc	gp,0x20000
     ece:	94618193          	addi	gp,gp,-1722 # 20000810 <__global_pointer$>
C:/Users/22127/Desktop/Car_light/Libraries/Device/CH32V10x_p/Startup/startup_ch32v10x.S:150
.option	pop 
1:
	la sp, _eusrstack 
     ed2:	20004117          	auipc	sp,0x20004
     ed6:	12e10113          	addi	sp,sp,302 # 20005000 <_eusrstack>
C:/Users/22127/Desktop/Car_light/Libraries/Device/CH32V10x_p/Startup/startup_ch32v10x.S:153
2:
	/* Load data section from flash to RAM */
	la a0, _data_lma
     eda:	00000517          	auipc	a0,0x0
     ede:	7da50513          	addi	a0,a0,2010 # 16b4 <_data_lma>
C:/Users/22127/Desktop/Car_light/Libraries/Device/CH32V10x_p/Startup/startup_ch32v10x.S:154
	la a1, _data_vma
     ee2:	1ffff597          	auipc	a1,0x1ffff
     ee6:	11e58593          	addi	a1,a1,286 # 20000000 <_data_vma>
C:/Users/22127/Desktop/Car_light/Libraries/Device/CH32V10x_p/Startup/startup_ch32v10x.S:155
	la a2, _edata
     eea:	82818613          	addi	a2,gp,-2008 # 20000038 <_edata>
C:/Users/22127/Desktop/Car_light/Libraries/Device/CH32V10x_p/Startup/startup_ch32v10x.S:156
	bgeu a1, a2, 2f
     eee:	00c5fa63          	bgeu	a1,a2,f02 <handle_reset+0x38>
C:/Users/22127/Desktop/Car_light/Libraries/Device/CH32V10x_p/Startup/startup_ch32v10x.S:158
1:
	lw t0, (a0)
     ef2:	00052283          	lw	t0,0(a0)
C:/Users/22127/Desktop/Car_light/Libraries/Device/CH32V10x_p/Startup/startup_ch32v10x.S:159
	sw t0, (a1)
     ef6:	0055a023          	sw	t0,0(a1)
C:/Users/22127/Desktop/Car_light/Libraries/Device/CH32V10x_p/Startup/startup_ch32v10x.S:160
	addi a0, a0, 4
     efa:	0511                	addi	a0,a0,4
C:/Users/22127/Desktop/Car_light/Libraries/Device/CH32V10x_p/Startup/startup_ch32v10x.S:161
	addi a1, a1, 4
     efc:	0591                	addi	a1,a1,4
C:/Users/22127/Desktop/Car_light/Libraries/Device/CH32V10x_p/Startup/startup_ch32v10x.S:162
	bltu a1, a2, 1b
     efe:	fec5eae3          	bltu	a1,a2,ef2 <handle_reset+0x28>
C:/Users/22127/Desktop/Car_light/Libraries/Device/CH32V10x_p/Startup/startup_ch32v10x.S:165
2:
	/* clear bss section */
	la a0, _sbss
     f02:	82818513          	addi	a0,gp,-2008 # 20000038 <_edata>
C:/Users/22127/Desktop/Car_light/Libraries/Device/CH32V10x_p/Startup/startup_ch32v10x.S:166
	la a1, _ebss
     f06:	84018593          	addi	a1,gp,-1984 # 20000050 <_ebss>
C:/Users/22127/Desktop/Car_light/Libraries/Device/CH32V10x_p/Startup/startup_ch32v10x.S:167
	bgeu a0, a1, 2f
     f0a:	00b57763          	bgeu	a0,a1,f18 <handle_reset+0x4e>
C:/Users/22127/Desktop/Car_light/Libraries/Device/CH32V10x_p/Startup/startup_ch32v10x.S:169
1:
	sw zero, (a0)
     f0e:	00052023          	sw	zero,0(a0)
C:/Users/22127/Desktop/Car_light/Libraries/Device/CH32V10x_p/Startup/startup_ch32v10x.S:170
	addi a0, a0, 4
     f12:	0511                	addi	a0,a0,4
C:/Users/22127/Desktop/Car_light/Libraries/Device/CH32V10x_p/Startup/startup_ch32v10x.S:171
	bltu a0, a1, 1b
     f14:	feb56de3          	bltu	a0,a1,f0e <handle_reset+0x44>
C:/Users/22127/Desktop/Car_light/Libraries/Device/CH32V10x_p/Startup/startup_ch32v10x.S:174
2:
	/* enable all interrupt */
  li t0, 0x88
     f18:	08800293          	li	t0,136
C:/Users/22127/Desktop/Car_light/Libraries/Device/CH32V10x_p/Startup/startup_ch32v10x.S:175
  csrs mstatus, t0
     f1c:	3002a073          	csrs	mstatus,t0
C:/Users/22127/Desktop/Car_light/Libraries/Device/CH32V10x_p/Startup/startup_ch32v10x.S:176
	la t0, _vector_base
     f20:	fffff297          	auipc	t0,0xfffff
     f24:	11828293          	addi	t0,t0,280 # 38 <_einit>
C:/Users/22127/Desktop/Car_light/Libraries/Device/CH32V10x_p/Startup/startup_ch32v10x.S:177
  ori t0, t0, 1
     f28:	0012e293          	ori	t0,t0,1
C:/Users/22127/Desktop/Car_light/Libraries/Device/CH32V10x_p/Startup/startup_ch32v10x.S:178
	csrw mtvec, t0
     f2c:	30529073          	csrw	mtvec,t0
C:/Users/22127/Desktop/Car_light/Libraries/Device/CH32V10x_p/Startup/startup_ch32v10x.S:180

  jal  SystemInit
     f30:	dbcff0ef          	jal	ra,4ec <SystemInit>
C:/Users/22127/Desktop/Car_light/Libraries/Device/CH32V10x_p/Startup/startup_ch32v10x.S:181
	la t0, main
     f34:	fffff297          	auipc	t0,0xfffff
     f38:	41c28293          	addi	t0,t0,1052 # 350 <main>
C:/Users/22127/Desktop/Car_light/Libraries/Device/CH32V10x_p/Startup/startup_ch32v10x.S:182
	csrw mepc, t0
     f3c:	34129073          	csrw	mepc,t0
C:/Users/22127/Desktop/Car_light/Libraries/Device/CH32V10x_p/Startup/startup_ch32v10x.S:183
	mret
     f40:	30200073          	mret

00000f44 <DMA_GetFlagStatus>:
DMA_GetFlagStatus():
C:/Users/22127/Desktop/Car_light/Libraries/Device/CH32V10x_p/CH32V10x_Lib/ch32v10x_dma.c:294
FlagStatus DMA_GetFlagStatus(uint32_t DMAy_FLAG)
{
  FlagStatus bitstatus = RESET;
  uint32_t tmpreg = 0;
  
  if ((DMAy_FLAG & FLAG_Mask) != (uint32_t)RESET)
     f44:	00351793          	slli	a5,a0,0x3
     f48:	0007da63          	bgez	a5,f5c <DMA_GetFlagStatus+0x18>
C:/Users/22127/Desktop/Car_light/Libraries/Device/CH32V10x_p/CH32V10x_Lib/ch32v10x_dma.c:296
  {
    tmpreg = DMA2->INTFR ;
     f4c:	400207b7          	lui	a5,0x40020
     f50:	4007a783          	lw	a5,1024(a5) # 40020400 <_eusrstack+0x2001b400>
C:/Users/22127/Desktop/Car_light/Libraries/Device/CH32V10x_p/CH32V10x_Lib/ch32v10x_dma.c:303
  else
  {
    tmpreg = DMA1->INTFR ;
  }

  if ((tmpreg & DMAy_FLAG) != (uint32_t)RESET)
     f54:	8d7d                	and	a0,a0,a5
C:/Users/22127/Desktop/Car_light/Libraries/Device/CH32V10x_p/CH32V10x_Lib/ch32v10x_dma.c:313
  {
    bitstatus = RESET;
  }
  
  return  bitstatus;
}
     f56:	00a03533          	snez	a0,a0
     f5a:	8082                	ret
C:/Users/22127/Desktop/Car_light/Libraries/Device/CH32V10x_p/CH32V10x_Lib/ch32v10x_dma.c:300
    tmpreg = DMA1->INTFR ;
     f5c:	400207b7          	lui	a5,0x40020
     f60:	439c                	lw	a5,0(a5)
     f62:	bfcd                	j	f54 <DMA_GetFlagStatus+0x10>

00000f64 <DMA_ClearFlag>:
DMA_ClearFlag():
C:/Users/22127/Desktop/Car_light/Libraries/Device/CH32V10x_p/CH32V10x_Lib/ch32v10x_dma.c:372
*                      DMA2_FLAG_TE5: DMA2 Channel5 transfer error flag.
* Return         : None 
*********************************************************************************/
void DMA_ClearFlag(uint32_t DMAy_FLAG)
{
  if ((DMAy_FLAG & FLAG_Mask) != (uint32_t)RESET)
     f64:	00351793          	slli	a5,a0,0x3
     f68:	0007d763          	bgez	a5,f76 <DMA_ClearFlag+0x12>
C:/Users/22127/Desktop/Car_light/Libraries/Device/CH32V10x_p/CH32V10x_Lib/ch32v10x_dma.c:374
  {
    DMA2->INTFCR = DMAy_FLAG;
     f6c:	400207b7          	lui	a5,0x40020
     f70:	40a7a223          	sw	a0,1028(a5) # 40020404 <_eusrstack+0x2001b404>
     f74:	8082                	ret
C:/Users/22127/Desktop/Car_light/Libraries/Device/CH32V10x_p/CH32V10x_Lib/ch32v10x_dma.c:378
  }
  else
  {
    DMA1->INTFCR = DMAy_FLAG;
     f76:	400207b7          	lui	a5,0x40020
     f7a:	c3c8                	sw	a0,4(a5)
C:/Users/22127/Desktop/Car_light/Libraries/Device/CH32V10x_p/CH32V10x_Lib/ch32v10x_dma.c:380
  }
}
     f7c:	8082                	ret

00000f7e <EXTI_GetITStatus>:
EXTI_GetITStatus():
C:/Users/22127/Desktop/Car_light/Libraries/Device/CH32V10x_p/CH32V10x_Lib/ch32v10x_exti.c:135
ITStatus EXTI_GetITStatus(uint32_t EXTI_Line)
{
  ITStatus bitstatus = RESET;
  uint32_t enablestatus = 0;
  
  enablestatus =  EXTI->INTENR & EXTI_Line;
     f7e:	400107b7          	lui	a5,0x40010
     f82:	40078713          	addi	a4,a5,1024 # 40010400 <_eusrstack+0x2000b400>
     f86:	4007a783          	lw	a5,1024(a5)
C:/Users/22127/Desktop/Car_light/Libraries/Device/CH32V10x_p/CH32V10x_Lib/ch32v10x_exti.c:136
  if (((EXTI->INTFR & EXTI_Line) != (uint32_t)RESET) && (enablestatus != (uint32_t)RESET))
     f8a:	4b58                	lw	a4,20(a4)
     f8c:	8f69                	and	a4,a4,a0
     f8e:	c709                	beqz	a4,f98 <EXTI_GetITStatus+0x1a>
C:/Users/22127/Desktop/Car_light/Libraries/Device/CH32V10x_p/CH32V10x_Lib/ch32v10x_exti.c:135 (discriminator 1)
  enablestatus =  EXTI->INTENR & EXTI_Line;
     f90:	8d7d                	and	a0,a0,a5
C:/Users/22127/Desktop/Car_light/Libraries/Device/CH32V10x_p/CH32V10x_Lib/ch32v10x_exti.c:136 (discriminator 1)
  if (((EXTI->INTFR & EXTI_Line) != (uint32_t)RESET) && (enablestatus != (uint32_t)RESET))
     f92:	00a03533          	snez	a0,a0
     f96:	8082                	ret
C:/Users/22127/Desktop/Car_light/Libraries/Device/CH32V10x_p/CH32V10x_Lib/ch32v10x_exti.c:142
  {
    bitstatus = SET;
  }
  else
  {
    bitstatus = RESET;
     f98:	4501                	li	a0,0
C:/Users/22127/Desktop/Car_light/Libraries/Device/CH32V10x_p/CH32V10x_Lib/ch32v10x_exti.c:145
  }
  return bitstatus;
}
     f9a:	8082                	ret

00000f9c <EXTI_ClearITPendingBit>:
EXTI_ClearITPendingBit():
     f9c:	400107b7          	lui	a5,0x40010
     fa0:	40a7aa23          	sw	a0,1044(a5) # 40010414 <_eusrstack+0x2000b414>
     fa4:	8082                	ret

00000fa6 <GPIO_Init>:
GPIO_Init():
C:/Users/22127/Desktop/Car_light/Libraries/Device/CH32V10x_p/CH32V10x_Lib/ch32v10x_gpio.c:92
void GPIO_Init(GPIO_TypeDef* GPIOx, GPIO_InitTypeDef* GPIO_InitStruct)
{
  uint32_t currentmode = 0x00, currentpin = 0x00, pinpos = 0x00, pos = 0x00;
  uint32_t tmpreg = 0x00, pinmask = 0x00;

  currentmode = ((uint32_t)GPIO_InitStruct->GPIO_Mode) & ((uint32_t)0x0F);
     fa6:	459c                	lw	a5,8(a1)
C:/Users/22127/Desktop/Car_light/Libraries/Device/CH32V10x_p/CH32V10x_Lib/ch32v10x_gpio.c:94
	
  if ((((uint32_t)GPIO_InitStruct->GPIO_Mode) & ((uint32_t)0x10)) != 0x00)
     fa8:	0107f713          	andi	a4,a5,16
C:/Users/22127/Desktop/Car_light/Libraries/Device/CH32V10x_p/CH32V10x_Lib/ch32v10x_gpio.c:92
  currentmode = ((uint32_t)GPIO_InitStruct->GPIO_Mode) & ((uint32_t)0x0F);
     fac:	00f7f813          	andi	a6,a5,15
C:/Users/22127/Desktop/Car_light/Libraries/Device/CH32V10x_p/CH32V10x_Lib/ch32v10x_gpio.c:94
  if ((((uint32_t)GPIO_InitStruct->GPIO_Mode) & ((uint32_t)0x10)) != 0x00)
     fb0:	c701                	beqz	a4,fb8 <GPIO_Init+0x12>
C:/Users/22127/Desktop/Car_light/Libraries/Device/CH32V10x_p/CH32V10x_Lib/ch32v10x_gpio.c:96
  { 
    currentmode |= (uint32_t)GPIO_InitStruct->GPIO_Speed;
     fb2:	41d8                	lw	a4,4(a1)
     fb4:	00e86833          	or	a6,a6,a4
C:/Users/22127/Desktop/Car_light/Libraries/Device/CH32V10x_p/CH32V10x_Lib/ch32v10x_gpio.c:99
  }

  if (((uint32_t)GPIO_InitStruct->GPIO_Pin & ((uint32_t)0x00FF)) != 0x00)
     fb8:	0005d583          	lhu	a1,0(a1)
     fbc:	0ff5f713          	andi	a4,a1,255
     fc0:	c339                	beqz	a4,1006 <GPIO_Init+0x60>
C:/Users/22127/Desktop/Car_light/Libraries/Device/CH32V10x_p/CH32V10x_Lib/ch32v10x_gpio.c:101
  {
    tmpreg = GPIOx->CFGLR;
     fc2:	4118                	lw	a4,0(a0)
C:/Users/22127/Desktop/Car_light/Libraries/Device/CH32V10x_p/CH32V10x_Lib/ch32v10x_gpio.c:103
		
    for (pinpos = 0x00; pinpos < 0x08; pinpos++)
     fc4:	4681                	li	a3,0
C:/Users/22127/Desktop/Car_light/Libraries/Device/CH32V10x_p/CH32V10x_Lib/ch32v10x_gpio.c:105
    {
      pos = ((uint32_t)0x01) << pinpos;
     fc6:	4e85                	li	t4,1
C:/Users/22127/Desktop/Car_light/Libraries/Device/CH32V10x_p/CH32V10x_Lib/ch32v10x_gpio.c:111
      currentpin = (GPIO_InitStruct->GPIO_Pin) & pos;
			
      if (currentpin == pos)
      {
        pos = pinpos << 2;
        pinmask = ((uint32_t)0x0F) << pos;
     fc8:	4f3d                	li	t5,15
C:/Users/22127/Desktop/Car_light/Libraries/Device/CH32V10x_p/CH32V10x_Lib/ch32v10x_gpio.c:115
        tmpreg &= ~pinmask;
        tmpreg |= (currentmode << pos);

        if (GPIO_InitStruct->GPIO_Mode == GPIO_Mode_IPD)
     fca:	02800f93          	li	t6,40
C:/Users/22127/Desktop/Car_light/Libraries/Device/CH32V10x_p/CH32V10x_Lib/ch32v10x_gpio.c:121
        {
          GPIOx->BCR = (((uint32_t)0x01) << pinpos);
        }
        else
        {
          if (GPIO_InitStruct->GPIO_Mode == GPIO_Mode_IPU)
     fce:	04800293          	li	t0,72
C:/Users/22127/Desktop/Car_light/Libraries/Device/CH32V10x_p/CH32V10x_Lib/ch32v10x_gpio.c:103
    for (pinpos = 0x00; pinpos < 0x08; pinpos++)
     fd2:	4e21                	li	t3,8
C:/Users/22127/Desktop/Car_light/Libraries/Device/CH32V10x_p/CH32V10x_Lib/ch32v10x_gpio.c:105
      pos = ((uint32_t)0x01) << pinpos;
     fd4:	00de9633          	sll	a2,t4,a3
C:/Users/22127/Desktop/Car_light/Libraries/Device/CH32V10x_p/CH32V10x_Lib/ch32v10x_gpio.c:106
      currentpin = (GPIO_InitStruct->GPIO_Pin) & pos;
     fd8:	00c5f8b3          	and	a7,a1,a2
C:/Users/22127/Desktop/Car_light/Libraries/Device/CH32V10x_p/CH32V10x_Lib/ch32v10x_gpio.c:108
      if (currentpin == pos)
     fdc:	03161163          	bne	a2,a7,ffe <GPIO_Init+0x58>
C:/Users/22127/Desktop/Car_light/Libraries/Device/CH32V10x_p/CH32V10x_Lib/ch32v10x_gpio.c:110
        pos = pinpos << 2;
     fe0:	00269893          	slli	a7,a3,0x2
C:/Users/22127/Desktop/Car_light/Libraries/Device/CH32V10x_p/CH32V10x_Lib/ch32v10x_gpio.c:111
        pinmask = ((uint32_t)0x0F) << pos;
     fe4:	011f1333          	sll	t1,t5,a7
C:/Users/22127/Desktop/Car_light/Libraries/Device/CH32V10x_p/CH32V10x_Lib/ch32v10x_gpio.c:112
        tmpreg &= ~pinmask;
     fe8:	fff34313          	not	t1,t1
     fec:	00e37733          	and	a4,t1,a4
C:/Users/22127/Desktop/Car_light/Libraries/Device/CH32V10x_p/CH32V10x_Lib/ch32v10x_gpio.c:113
        tmpreg |= (currentmode << pos);
     ff0:	011818b3          	sll	a7,a6,a7
     ff4:	00e8e733          	or	a4,a7,a4
C:/Users/22127/Desktop/Car_light/Libraries/Device/CH32V10x_p/CH32V10x_Lib/ch32v10x_gpio.c:115
        if (GPIO_InitStruct->GPIO_Mode == GPIO_Mode_IPD)
     ff8:	05f79f63          	bne	a5,t6,1056 <GPIO_Init+0xb0>
C:/Users/22127/Desktop/Car_light/Libraries/Device/CH32V10x_p/CH32V10x_Lib/ch32v10x_gpio.c:117
          GPIOx->BCR = (((uint32_t)0x01) << pinpos);
     ffc:	c950                	sw	a2,20(a0)
C:/Users/22127/Desktop/Car_light/Libraries/Device/CH32V10x_p/CH32V10x_Lib/ch32v10x_gpio.c:103 (discriminator 2)
    for (pinpos = 0x00; pinpos < 0x08; pinpos++)
     ffe:	0685                	addi	a3,a3,1
    1000:	fdc69ae3          	bne	a3,t3,fd4 <GPIO_Init+0x2e>
C:/Users/22127/Desktop/Car_light/Libraries/Device/CH32V10x_p/CH32V10x_Lib/ch32v10x_gpio.c:128
            GPIOx->BSHR = (((uint32_t)0x01) << pinpos);
          }
        }
      }
    }
    GPIOx->CFGLR = tmpreg;
    1004:	c118                	sw	a4,0(a0)
C:/Users/22127/Desktop/Car_light/Libraries/Device/CH32V10x_p/CH32V10x_Lib/ch32v10x_gpio.c:131
  }

  if (GPIO_InitStruct->GPIO_Pin > 0x00FF)
    1006:	0ff00713          	li	a4,255
    100a:	04b77563          	bgeu	a4,a1,1054 <GPIO_Init+0xae>
C:/Users/22127/Desktop/Car_light/Libraries/Device/CH32V10x_p/CH32V10x_Lib/ch32v10x_gpio.c:133
  {
    tmpreg = GPIOx->CFGHR;
    100e:	4154                	lw	a3,4(a0)
    1010:	4621                	li	a2,8
C:/Users/22127/Desktop/Car_light/Libraries/Device/CH32V10x_p/CH32V10x_Lib/ch32v10x_gpio.c:137
		
    for (pinpos = 0x00; pinpos < 0x08; pinpos++)
    {
      pos = (((uint32_t)0x01) << (pinpos + 0x08));
    1012:	4e85                	li	t4,1
C:/Users/22127/Desktop/Car_light/Libraries/Device/CH32V10x_p/CH32V10x_Lib/ch32v10x_gpio.c:143
      currentpin = ((GPIO_InitStruct->GPIO_Pin) & pos);
			
      if (currentpin == pos)
      {
        pos = pinpos << 2;
        pinmask = ((uint32_t)0x0F) << pos;
    1014:	4f3d                	li	t5,15
C:/Users/22127/Desktop/Car_light/Libraries/Device/CH32V10x_p/CH32V10x_Lib/ch32v10x_gpio.c:147
        tmpreg &= ~pinmask;
        tmpreg |= (currentmode << pos);

        if (GPIO_InitStruct->GPIO_Mode == GPIO_Mode_IPD)
    1016:	02800f93          	li	t6,40
C:/Users/22127/Desktop/Car_light/Libraries/Device/CH32V10x_p/CH32V10x_Lib/ch32v10x_gpio.c:152
        {
          GPIOx->BCR = (((uint32_t)0x01) << (pinpos + 0x08));
        }

        if (GPIO_InitStruct->GPIO_Mode == GPIO_Mode_IPU)
    101a:	04800293          	li	t0,72
C:/Users/22127/Desktop/Car_light/Libraries/Device/CH32V10x_p/CH32V10x_Lib/ch32v10x_gpio.c:135
    for (pinpos = 0x00; pinpos < 0x08; pinpos++)
    101e:	4e41                	li	t3,16
C:/Users/22127/Desktop/Car_light/Libraries/Device/CH32V10x_p/CH32V10x_Lib/ch32v10x_gpio.c:137
      pos = (((uint32_t)0x01) << (pinpos + 0x08));
    1020:	00ce98b3          	sll	a7,t4,a2
C:/Users/22127/Desktop/Car_light/Libraries/Device/CH32V10x_p/CH32V10x_Lib/ch32v10x_gpio.c:138
      currentpin = ((GPIO_InitStruct->GPIO_Pin) & pos);
    1024:	0115f733          	and	a4,a1,a7
C:/Users/22127/Desktop/Car_light/Libraries/Device/CH32V10x_p/CH32V10x_Lib/ch32v10x_gpio.c:140
      if (currentpin == pos)
    1028:	02e89263          	bne	a7,a4,104c <GPIO_Init+0xa6>
C:/Users/22127/Desktop/Car_light/Libraries/Device/CH32V10x_p/CH32V10x_Lib/ch32v10x_gpio.c:142
        pos = pinpos << 2;
    102c:	00261713          	slli	a4,a2,0x2
    1030:	1701                	addi	a4,a4,-32
C:/Users/22127/Desktop/Car_light/Libraries/Device/CH32V10x_p/CH32V10x_Lib/ch32v10x_gpio.c:143
        pinmask = ((uint32_t)0x0F) << pos;
    1032:	00ef1333          	sll	t1,t5,a4
C:/Users/22127/Desktop/Car_light/Libraries/Device/CH32V10x_p/CH32V10x_Lib/ch32v10x_gpio.c:144
        tmpreg &= ~pinmask;
    1036:	fff34313          	not	t1,t1
    103a:	00d376b3          	and	a3,t1,a3
C:/Users/22127/Desktop/Car_light/Libraries/Device/CH32V10x_p/CH32V10x_Lib/ch32v10x_gpio.c:145
        tmpreg |= (currentmode << pos);
    103e:	00e81733          	sll	a4,a6,a4
    1042:	8ed9                	or	a3,a3,a4
C:/Users/22127/Desktop/Car_light/Libraries/Device/CH32V10x_p/CH32V10x_Lib/ch32v10x_gpio.c:147
        if (GPIO_InitStruct->GPIO_Mode == GPIO_Mode_IPD)
    1044:	01f79d63          	bne	a5,t6,105e <GPIO_Init+0xb8>
C:/Users/22127/Desktop/Car_light/Libraries/Device/CH32V10x_p/CH32V10x_Lib/ch32v10x_gpio.c:149
          GPIOx->BCR = (((uint32_t)0x01) << (pinpos + 0x08));
    1048:	01152a23          	sw	a7,20(a0)
C:/Users/22127/Desktop/Car_light/Libraries/Device/CH32V10x_p/CH32V10x_Lib/ch32v10x_gpio.c:152
        if (GPIO_InitStruct->GPIO_Mode == GPIO_Mode_IPU)
    104c:	0605                	addi	a2,a2,1
C:/Users/22127/Desktop/Car_light/Libraries/Device/CH32V10x_p/CH32V10x_Lib/ch32v10x_gpio.c:135 (discriminator 2)
    for (pinpos = 0x00; pinpos < 0x08; pinpos++)
    104e:	fdc619e3          	bne	a2,t3,1020 <GPIO_Init+0x7a>
C:/Users/22127/Desktop/Car_light/Libraries/Device/CH32V10x_p/CH32V10x_Lib/ch32v10x_gpio.c:158
        {
          GPIOx->BSHR = (((uint32_t)0x01) << (pinpos + 0x08));
        }
      }
    }
    GPIOx->CFGHR = tmpreg;
    1052:	c154                	sw	a3,4(a0)
C:/Users/22127/Desktop/Car_light/Libraries/Device/CH32V10x_p/CH32V10x_Lib/ch32v10x_gpio.c:160
  }
}
    1054:	8082                	ret
C:/Users/22127/Desktop/Car_light/Libraries/Device/CH32V10x_p/CH32V10x_Lib/ch32v10x_gpio.c:121
          if (GPIO_InitStruct->GPIO_Mode == GPIO_Mode_IPU)
    1056:	fa5794e3          	bne	a5,t0,ffe <GPIO_Init+0x58>
C:/Users/22127/Desktop/Car_light/Libraries/Device/CH32V10x_p/CH32V10x_Lib/ch32v10x_gpio.c:123
            GPIOx->BSHR = (((uint32_t)0x01) << pinpos);
    105a:	c910                	sw	a2,16(a0)
    105c:	b74d                	j	ffe <GPIO_Init+0x58>
C:/Users/22127/Desktop/Car_light/Libraries/Device/CH32V10x_p/CH32V10x_Lib/ch32v10x_gpio.c:152
        if (GPIO_InitStruct->GPIO_Mode == GPIO_Mode_IPU)
    105e:	fe5797e3          	bne	a5,t0,104c <GPIO_Init+0xa6>
C:/Users/22127/Desktop/Car_light/Libraries/Device/CH32V10x_p/CH32V10x_Lib/ch32v10x_gpio.c:154
          GPIOx->BSHR = (((uint32_t)0x01) << (pinpos + 0x08));
    1062:	01152823          	sw	a7,16(a0)
    1066:	b7dd                	j	104c <GPIO_Init+0xa6>

00001068 <GPIO_WriteBit>:
GPIO_WriteBit():
C:/Users/22127/Desktop/Car_light/Libraries/Device/CH32V10x_p/CH32V10x_Lib/ch32v10x_gpio.c:283
*                    Bit_SetH: to set the port pin.                  
* Return         : None
*******************************************************************************/
void GPIO_WriteBit(GPIO_TypeDef* GPIOx, uint16_t GPIO_Pin, BitAction BitVal)
{
  if (BitVal != Bit_RESET)
    1068:	c219                	beqz	a2,106e <GPIO_WriteBit+0x6>
C:/Users/22127/Desktop/Car_light/Libraries/Device/CH32V10x_p/CH32V10x_Lib/ch32v10x_gpio.c:285
  {
    GPIOx->BSHR = GPIO_Pin;
    106a:	c90c                	sw	a1,16(a0)
    106c:	8082                	ret
C:/Users/22127/Desktop/Car_light/Libraries/Device/CH32V10x_p/CH32V10x_Lib/ch32v10x_gpio.c:289
  }
  else
  {
    GPIOx->BCR = GPIO_Pin;
    106e:	c94c                	sw	a1,20(a0)
C:/Users/22127/Desktop/Car_light/Libraries/Device/CH32V10x_p/CH32V10x_Lib/ch32v10x_gpio.c:291
  }
}
    1070:	8082                	ret

00001072 <RCC_GetClocksFreq>:
RCC_GetClocksFreq():
C:/Users/22127/Desktop/Car_light/Libraries/Device/CH32V10x_p/CH32V10x_Lib/ch32v10x_rcc.c:472
********************************************************************************/
void RCC_GetClocksFreq(RCC_ClocksTypeDef* RCC_Clocks)
{
  uint32_t tmp = 0, pllmull = 0, pllsource = 0, presc = 0;
  
  tmp = RCC->CFGR0 & CFGR0_SWS_Mask;
    1072:	40021737          	lui	a4,0x40021
    1076:	435c                	lw	a5,4(a4)
    1078:	4691                	li	a3,4
    107a:	8bb1                	andi	a5,a5,12
C:/Users/22127/Desktop/Car_light/Libraries/Device/CH32V10x_p/CH32V10x_Lib/ch32v10x_rcc.c:474
  
  switch (tmp)
    107c:	00d78563          	beq	a5,a3,1086 <RCC_GetClocksFreq+0x14>
    1080:	46a1                	li	a3,8
    1082:	06d78663          	beq	a5,a3,10ee <RCC_GetClocksFreq+0x7c>
C:/Users/22127/Desktop/Car_light/Libraries/Device/CH32V10x_p/CH32V10x_Lib/ch32v10x_rcc.c:477
  {
    case 0x00: 
      RCC_Clocks->SYSCLK_Frequency = HSI_VALUE;
    1086:	007a17b7          	lui	a5,0x7a1
    108a:	20078793          	addi	a5,a5,512 # 7a1200 <_data_lma+0x79fb4c>
C:/Users/22127/Desktop/Car_light/Libraries/Device/CH32V10x_p/CH32V10x_Lib/ch32v10x_rcc.c:501
        {
          RCC_Clocks->SYSCLK_Frequency = (HSE_VALUE >> 1) * pllmull;
        }
        else
        {
          RCC_Clocks->SYSCLK_Frequency = HSE_VALUE * pllmull;
    108e:	c11c                	sw	a5,0(a0)
C:/Users/22127/Desktop/Car_light/Libraries/Device/CH32V10x_p/CH32V10x_Lib/ch32v10x_rcc.c:511
    default:
      RCC_Clocks->SYSCLK_Frequency = HSI_VALUE;
      break;
  }

  tmp = RCC->CFGR0 & CFGR0_HPRE_Set_Mask;
    1090:	40021637          	lui	a2,0x40021
    1094:	425c                	lw	a5,4(a2)
C:/Users/22127/Desktop/Car_light/Libraries/Device/CH32V10x_p/CH32V10x_Lib/ch32v10x_rcc.c:513
  tmp = tmp >> 4;
  presc = APBAHBPrescTable[tmp];
    1096:	20000737          	lui	a4,0x20000
    109a:	00070713          	mv	a4,a4
C:/Users/22127/Desktop/Car_light/Libraries/Device/CH32V10x_p/CH32V10x_Lib/ch32v10x_rcc.c:512
  tmp = tmp >> 4;
    109e:	8391                	srli	a5,a5,0x4
    10a0:	8bbd                	andi	a5,a5,15
C:/Users/22127/Desktop/Car_light/Libraries/Device/CH32V10x_p/CH32V10x_Lib/ch32v10x_rcc.c:513
  presc = APBAHBPrescTable[tmp];
    10a2:	97ba                	add	a5,a5,a4
    10a4:	0007c683          	lbu	a3,0(a5)
C:/Users/22127/Desktop/Car_light/Libraries/Device/CH32V10x_p/CH32V10x_Lib/ch32v10x_rcc.c:514
  RCC_Clocks->HCLK_Frequency = RCC_Clocks->SYSCLK_Frequency >> presc;
    10a8:	411c                	lw	a5,0(a0)
    10aa:	00d7d7b3          	srl	a5,a5,a3
    10ae:	c15c                	sw	a5,4(a0)
C:/Users/22127/Desktop/Car_light/Libraries/Device/CH32V10x_p/CH32V10x_Lib/ch32v10x_rcc.c:515
  tmp = RCC->CFGR0 & CFGR0_PPRE1_Set_Mask;
    10b0:	4254                	lw	a3,4(a2)
C:/Users/22127/Desktop/Car_light/Libraries/Device/CH32V10x_p/CH32V10x_Lib/ch32v10x_rcc.c:516
  tmp = tmp >> 8;
    10b2:	82a1                	srli	a3,a3,0x8
    10b4:	8a9d                	andi	a3,a3,7
C:/Users/22127/Desktop/Car_light/Libraries/Device/CH32V10x_p/CH32V10x_Lib/ch32v10x_rcc.c:517
  presc = APBAHBPrescTable[tmp];
    10b6:	96ba                	add	a3,a3,a4
    10b8:	0006c683          	lbu	a3,0(a3)
C:/Users/22127/Desktop/Car_light/Libraries/Device/CH32V10x_p/CH32V10x_Lib/ch32v10x_rcc.c:518
  RCC_Clocks->PCLK1_Frequency = RCC_Clocks->HCLK_Frequency >> presc;
    10bc:	00d7d6b3          	srl	a3,a5,a3
    10c0:	c514                	sw	a3,8(a0)
C:/Users/22127/Desktop/Car_light/Libraries/Device/CH32V10x_p/CH32V10x_Lib/ch32v10x_rcc.c:519
  tmp = RCC->CFGR0 & CFGR0_PPRE2_Set_Mask;
    10c2:	4254                	lw	a3,4(a2)
C:/Users/22127/Desktop/Car_light/Libraries/Device/CH32V10x_p/CH32V10x_Lib/ch32v10x_rcc.c:520
  tmp = tmp >> 11;
    10c4:	82ad                	srli	a3,a3,0xb
    10c6:	8a9d                	andi	a3,a3,7
C:/Users/22127/Desktop/Car_light/Libraries/Device/CH32V10x_p/CH32V10x_Lib/ch32v10x_rcc.c:521
  presc = APBAHBPrescTable[tmp];
    10c8:	9736                	add	a4,a4,a3
    10ca:	00074703          	lbu	a4,0(a4) # 20000000 <_data_vma>
C:/Users/22127/Desktop/Car_light/Libraries/Device/CH32V10x_p/CH32V10x_Lib/ch32v10x_rcc.c:522
  RCC_Clocks->PCLK2_Frequency = RCC_Clocks->HCLK_Frequency >> presc;
    10ce:	00e7d7b3          	srl	a5,a5,a4
    10d2:	c55c                	sw	a5,12(a0)
C:/Users/22127/Desktop/Car_light/Libraries/Device/CH32V10x_p/CH32V10x_Lib/ch32v10x_rcc.c:523
  tmp = RCC->CFGR0 & CFGR0_ADCPRE_Set_Mask;
    10d4:	4258                	lw	a4,4(a2)
C:/Users/22127/Desktop/Car_light/Libraries/Device/CH32V10x_p/CH32V10x_Lib/ch32v10x_rcc.c:524
  tmp = tmp >> 14;
    10d6:	8339                	srli	a4,a4,0xe
    10d8:	00377693          	andi	a3,a4,3
C:/Users/22127/Desktop/Car_light/Libraries/Device/CH32V10x_p/CH32V10x_Lib/ch32v10x_rcc.c:525
  presc = ADCPrescTable[tmp];
    10dc:	82018713          	addi	a4,gp,-2016 # 20000030 <ADCPrescTable>
    10e0:	9736                	add	a4,a4,a3
    10e2:	00074703          	lbu	a4,0(a4)
C:/Users/22127/Desktop/Car_light/Libraries/Device/CH32V10x_p/CH32V10x_Lib/ch32v10x_rcc.c:526
  RCC_Clocks->ADCCLK_Frequency = RCC_Clocks->PCLK2_Frequency / presc;
    10e6:	02e7d7b3          	divu	a5,a5,a4
    10ea:	c91c                	sw	a5,16(a0)
C:/Users/22127/Desktop/Car_light/Libraries/Device/CH32V10x_p/CH32V10x_Lib/ch32v10x_rcc.c:527
}
    10ec:	8082                	ret
C:/Users/22127/Desktop/Car_light/Libraries/Device/CH32V10x_p/CH32V10x_Lib/ch32v10x_rcc.c:485
      pllmull = RCC->CFGR0 & CFGR0_PLLMull_Mask;
    10ee:	435c                	lw	a5,4(a4)
C:/Users/22127/Desktop/Car_light/Libraries/Device/CH32V10x_p/CH32V10x_Lib/ch32v10x_rcc.c:486
      pllsource = RCC->CFGR0 & CFGR0_PLLSRC_Mask;    
    10f0:	4354                	lw	a3,4(a4)
C:/Users/22127/Desktop/Car_light/Libraries/Device/CH32V10x_p/CH32V10x_Lib/ch32v10x_rcc.c:487
      pllmull = ( pllmull >> 18) + 2;
    10f2:	83c9                	srli	a5,a5,0x12
    10f4:	8bbd                	andi	a5,a5,15
C:/Users/22127/Desktop/Car_light/Libraries/Device/CH32V10x_p/CH32V10x_Lib/ch32v10x_rcc.c:489
      if (pllsource == 0x00)
    10f6:	00f69613          	slli	a2,a3,0xf
C:/Users/22127/Desktop/Car_light/Libraries/Device/CH32V10x_p/CH32V10x_Lib/ch32v10x_rcc.c:487
      pllmull = ( pllmull >> 18) + 2;
    10fa:	0789                	addi	a5,a5,2
C:/Users/22127/Desktop/Car_light/Libraries/Device/CH32V10x_p/CH32V10x_Lib/ch32v10x_rcc.c:489
      if (pllsource == 0x00)
    10fc:	00064963          	bltz	a2,110e <RCC_GetClocksFreq+0x9c>
C:/Users/22127/Desktop/Car_light/Libraries/Device/CH32V10x_p/CH32V10x_Lib/ch32v10x_rcc.c:497
          RCC_Clocks->SYSCLK_Frequency = (HSE_VALUE >> 1) * pllmull;
    1100:	003d1737          	lui	a4,0x3d1
    1104:	90070713          	addi	a4,a4,-1792 # 3d0900 <_data_lma+0x3cf24c>
C:/Users/22127/Desktop/Car_light/Libraries/Device/CH32V10x_p/CH32V10x_Lib/ch32v10x_rcc.c:501
          RCC_Clocks->SYSCLK_Frequency = HSE_VALUE * pllmull;
    1108:	02e787b3          	mul	a5,a5,a4
    110c:	b749                	j	108e <RCC_GetClocksFreq+0x1c>
C:/Users/22127/Desktop/Car_light/Libraries/Device/CH32V10x_p/CH32V10x_Lib/ch32v10x_rcc.c:495
        if ((RCC->CFGR0 & CFGR0_PLLXTPRE_Mask) != (uint32_t)RESET)
    110e:	4358                	lw	a4,4(a4)
    1110:	00e71693          	slli	a3,a4,0xe
    1114:	fe06c6e3          	bltz	a3,1100 <RCC_GetClocksFreq+0x8e>
C:/Users/22127/Desktop/Car_light/Libraries/Device/CH32V10x_p/CH32V10x_Lib/ch32v10x_rcc.c:501
          RCC_Clocks->SYSCLK_Frequency = HSE_VALUE * pllmull;
    1118:	007a1737          	lui	a4,0x7a1
    111c:	20070713          	addi	a4,a4,512 # 7a1200 <_data_lma+0x79fb4c>
    1120:	b7e5                	j	1108 <RCC_GetClocksFreq+0x96>

00001122 <RCC_APB2PeriphClockCmd>:
RCC_APB2PeriphClockCmd():
C:/Users/22127/Desktop/Car_light/Libraries/Device/CH32V10x_p/CH32V10x_Lib/ch32v10x_rcc.c:571
*                  NewState: ENABLE or DISABLE
* Return         : None
*******************************************************************************/	
void RCC_APB2PeriphClockCmd(uint32_t RCC_APB2Periph, FunctionalState NewState)
{
  if (NewState != DISABLE)
    1122:	c599                	beqz	a1,1130 <RCC_APB2PeriphClockCmd+0xe>
C:/Users/22127/Desktop/Car_light/Libraries/Device/CH32V10x_p/CH32V10x_Lib/ch32v10x_rcc.c:573
  {
    RCC->APB2PCENR |= RCC_APB2Periph;
    1124:	40021737          	lui	a4,0x40021
    1128:	4f1c                	lw	a5,24(a4)
    112a:	8d5d                	or	a0,a0,a5
    112c:	cf08                	sw	a0,24(a4)
    112e:	8082                	ret
C:/Users/22127/Desktop/Car_light/Libraries/Device/CH32V10x_p/CH32V10x_Lib/ch32v10x_rcc.c:577
  }
  else
  {
    RCC->APB2PCENR &= ~RCC_APB2Periph;
    1130:	400217b7          	lui	a5,0x40021
    1134:	4f98                	lw	a4,24(a5)
    1136:	fff54513          	not	a0,a0
    113a:	8d79                	and	a0,a0,a4
    113c:	cf88                	sw	a0,24(a5)
C:/Users/22127/Desktop/Car_light/Libraries/Device/CH32V10x_p/CH32V10x_Lib/ch32v10x_rcc.c:579
  }
}
    113e:	8082                	ret

00001140 <RCC_APB1PeriphClockCmd>:
RCC_APB1PeriphClockCmd():
C:/Users/22127/Desktop/Car_light/Libraries/Device/CH32V10x_p/CH32V10x_Lib/ch32v10x_rcc.c:604
*                  NewState: ENABLE or DISABLE.
* Return         : None
*******************************************************************************/	
void RCC_APB1PeriphClockCmd(uint32_t RCC_APB1Periph, FunctionalState NewState)
{
  if (NewState != DISABLE)
    1140:	c599                	beqz	a1,114e <RCC_APB1PeriphClockCmd+0xe>
C:/Users/22127/Desktop/Car_light/Libraries/Device/CH32V10x_p/CH32V10x_Lib/ch32v10x_rcc.c:606
  {
    RCC->APB1PCENR |= RCC_APB1Periph;
    1142:	40021737          	lui	a4,0x40021
    1146:	4f5c                	lw	a5,28(a4)
    1148:	8d5d                	or	a0,a0,a5
    114a:	cf48                	sw	a0,28(a4)
    114c:	8082                	ret
C:/Users/22127/Desktop/Car_light/Libraries/Device/CH32V10x_p/CH32V10x_Lib/ch32v10x_rcc.c:610
  }
  else
  {
    RCC->APB1PCENR &= ~RCC_APB1Periph;
    114e:	400217b7          	lui	a5,0x40021
    1152:	4fd8                	lw	a4,28(a5)
    1154:	fff54513          	not	a0,a0
    1158:	8d79                	and	a0,a0,a4
    115a:	cfc8                	sw	a0,28(a5)
C:/Users/22127/Desktop/Car_light/Libraries/Device/CH32V10x_p/CH32V10x_Lib/ch32v10x_rcc.c:612
  }
}
    115c:	8082                	ret

0000115e <TIM_TimeBaseInit>:
TIM_TimeBaseInit():
C:/Users/22127/Desktop/Car_light/Libraries/Device/CH32V10x_p/CH32V10x_Lib/ch32v10x_tim.c:70
*******************************************************************************/
void TIM_TimeBaseInit(TIM_TypeDef* TIMx, TIM_TimeBaseInitTypeDef* TIM_TimeBaseInitStruct)
{
  uint16_t tmpcr1 = 0;

  tmpcr1 = TIMx->CTLR1;  
    115e:	00055783          	lhu	a5,0(a0)
C:/Users/22127/Desktop/Car_light/Libraries/Device/CH32V10x_p/CH32V10x_Lib/ch32v10x_tim.c:72

  if((TIMx == TIM1) || (TIMx == TIM2) || (TIMx == TIM3)|| (TIMx == TIM4)) 
    1162:	40013737          	lui	a4,0x40013
    1166:	c0070713          	addi	a4,a4,-1024 # 40012c00 <_eusrstack+0x2000dc00>
C:/Users/22127/Desktop/Car_light/Libraries/Device/CH32V10x_p/CH32V10x_Lib/ch32v10x_tim.c:70
  tmpcr1 = TIMx->CTLR1;  
    116a:	07c2                	slli	a5,a5,0x10
    116c:	83c1                	srli	a5,a5,0x10
C:/Users/22127/Desktop/Car_light/Libraries/Device/CH32V10x_p/CH32V10x_Lib/ch32v10x_tim.c:72
  if((TIMx == TIM1) || (TIMx == TIM2) || (TIMx == TIM3)|| (TIMx == TIM4)) 
    116e:	02e50063          	beq	a0,a4,118e <TIM_TimeBaseInit+0x30>
C:/Users/22127/Desktop/Car_light/Libraries/Device/CH32V10x_p/CH32V10x_Lib/ch32v10x_tim.c:72 (discriminator 1)
    1172:	40000737          	lui	a4,0x40000
    1176:	00e50c63          	beq	a0,a4,118e <TIM_TimeBaseInit+0x30>
C:/Users/22127/Desktop/Car_light/Libraries/Device/CH32V10x_p/CH32V10x_Lib/ch32v10x_tim.c:72 (discriminator 2)
    117a:	40070713          	addi	a4,a4,1024 # 40000400 <_eusrstack+0x1fffb400>
    117e:	00e50863          	beq	a0,a4,118e <TIM_TimeBaseInit+0x30>
C:/Users/22127/Desktop/Car_light/Libraries/Device/CH32V10x_p/CH32V10x_Lib/ch32v10x_tim.c:72 (discriminator 3)
    1182:	40001737          	lui	a4,0x40001
    1186:	80070713          	addi	a4,a4,-2048 # 40000800 <_eusrstack+0x1fffb800>
    118a:	00e51763          	bne	a0,a4,1198 <TIM_TimeBaseInit+0x3a>
C:/Users/22127/Desktop/Car_light/Libraries/Device/CH32V10x_p/CH32V10x_Lib/ch32v10x_tim.c:75
  {
    tmpcr1 &= (uint16_t)(~((uint16_t)(TIM_DIR | TIM_CMS)));
    tmpcr1 |= (uint32_t)TIM_TimeBaseInitStruct->TIM_CounterMode;
    118e:	0025d703          	lhu	a4,2(a1)
C:/Users/22127/Desktop/Car_light/Libraries/Device/CH32V10x_p/CH32V10x_Lib/ch32v10x_tim.c:74
    tmpcr1 &= (uint16_t)(~((uint16_t)(TIM_DIR | TIM_CMS)));
    1192:	f8f7f793          	andi	a5,a5,-113
C:/Users/22127/Desktop/Car_light/Libraries/Device/CH32V10x_p/CH32V10x_Lib/ch32v10x_tim.c:75
    tmpcr1 |= (uint32_t)TIM_TimeBaseInitStruct->TIM_CounterMode;
    1196:	8fd9                	or	a5,a5,a4
C:/Users/22127/Desktop/Car_light/Libraries/Device/CH32V10x_p/CH32V10x_Lib/ch32v10x_tim.c:79
  }

  tmpcr1 &= (uint16_t)(~((uint16_t)TIM_CTLR1_CKD));
  tmpcr1 |= (uint32_t)TIM_TimeBaseInitStruct->TIM_ClockDivision;
    1198:	0065d703          	lhu	a4,6(a1)
C:/Users/22127/Desktop/Car_light/Libraries/Device/CH32V10x_p/CH32V10x_Lib/ch32v10x_tim.c:78
  tmpcr1 &= (uint16_t)(~((uint16_t)TIM_CTLR1_CKD));
    119c:	cff7f793          	andi	a5,a5,-769
    11a0:	07c2                	slli	a5,a5,0x10
    11a2:	83c1                	srli	a5,a5,0x10
C:/Users/22127/Desktop/Car_light/Libraries/Device/CH32V10x_p/CH32V10x_Lib/ch32v10x_tim.c:79
  tmpcr1 |= (uint32_t)TIM_TimeBaseInitStruct->TIM_ClockDivision;
    11a4:	8fd9                	or	a5,a5,a4
C:/Users/22127/Desktop/Car_light/Libraries/Device/CH32V10x_p/CH32V10x_Lib/ch32v10x_tim.c:81

  TIMx->CTLR1 = tmpcr1;
    11a6:	00f51023          	sh	a5,0(a0)
C:/Users/22127/Desktop/Car_light/Libraries/Device/CH32V10x_p/CH32V10x_Lib/ch32v10x_tim.c:82
  TIMx->ATRLR = TIM_TimeBaseInitStruct->TIM_Period ;
    11aa:	0045d783          	lhu	a5,4(a1)
    11ae:	02f51623          	sh	a5,44(a0)
C:/Users/22127/Desktop/Car_light/Libraries/Device/CH32V10x_p/CH32V10x_Lib/ch32v10x_tim.c:83
  TIMx->PSC = TIM_TimeBaseInitStruct->TIM_Prescaler;
    11b2:	0005d783          	lhu	a5,0(a1)
    11b6:	02f51423          	sh	a5,40(a0)
C:/Users/22127/Desktop/Car_light/Libraries/Device/CH32V10x_p/CH32V10x_Lib/ch32v10x_tim.c:85
    
  if (TIMx == TIM1)  
    11ba:	400137b7          	lui	a5,0x40013
    11be:	c0078793          	addi	a5,a5,-1024 # 40012c00 <_eusrstack+0x2000dc00>
    11c2:	00f51663          	bne	a0,a5,11ce <TIM_TimeBaseInit+0x70>
C:/Users/22127/Desktop/Car_light/Libraries/Device/CH32V10x_p/CH32V10x_Lib/ch32v10x_tim.c:87
  {
    TIMx->RPTCR = TIM_TimeBaseInitStruct->TIM_RepetitionCounter;
    11c6:	0085c783          	lbu	a5,8(a1)
    11ca:	02f51823          	sh	a5,48(a0)
C:/Users/22127/Desktop/Car_light/Libraries/Device/CH32V10x_p/CH32V10x_Lib/ch32v10x_tim.c:90
  }

  TIMx->SWEVGR = TIM_PSCReloadMode_Immediate;           
    11ce:	4785                	li	a5,1
    11d0:	00f51a23          	sh	a5,20(a0)
C:/Users/22127/Desktop/Car_light/Libraries/Device/CH32V10x_p/CH32V10x_Lib/ch32v10x_tim.c:91
}
    11d4:	8082                	ret

000011d6 <TIM_OC1Init>:
TIM_OC1Init():
C:/Users/22127/Desktop/Car_light/Libraries/Device/CH32V10x_p/CH32V10x_Lib/ch32v10x_tim.c:105
*******************************************************************************/
void TIM_OC1Init(TIM_TypeDef* TIMx, TIM_OCInitTypeDef* TIM_OCInitStruct)
{
  uint16_t tmpccmrx = 0, tmpccer = 0, tmpcr2 = 0;
     
  TIMx->CCER &= (uint16_t)(~(uint16_t)TIM_CC1E);
    11d6:	02055783          	lhu	a5,32(a0)
C:/Users/22127/Desktop/Car_light/Libraries/Device/CH32V10x_p/CH32V10x_Lib/ch32v10x_tim.c:111
  tmpccer = TIMx->CCER;
  tmpcr2 =  TIMx->CTLR2;
  tmpccmrx = TIMx->CHCTLR1;
  tmpccmrx &= (uint16_t)(~((uint16_t)TIM_OC1M));
  tmpccmrx &= (uint16_t)(~((uint16_t)TIM_CC1S));
  tmpccmrx |= TIM_OCInitStruct->TIM_OCMode;
    11da:	0005d603          	lhu	a2,0(a1)
C:/Users/22127/Desktop/Car_light/Libraries/Device/CH32V10x_p/CH32V10x_Lib/ch32v10x_tim.c:114
  tmpccer &= (uint16_t)(~((uint16_t)TIM_CC1P));
  tmpccer |= TIM_OCInitStruct->TIM_OCPolarity;
  tmpccer |= TIM_OCInitStruct->TIM_OutputState;
    11de:	0025d803          	lhu	a6,2(a1)
C:/Users/22127/Desktop/Car_light/Libraries/Device/CH32V10x_p/CH32V10x_Lib/ch32v10x_tim.c:105
  TIMx->CCER &= (uint16_t)(~(uint16_t)TIM_CC1E);
    11e2:	07c2                	slli	a5,a5,0x10
    11e4:	83c1                	srli	a5,a5,0x10
    11e6:	9bf9                	andi	a5,a5,-2
    11e8:	07c2                	slli	a5,a5,0x10
    11ea:	83c1                	srli	a5,a5,0x10
    11ec:	02f51023          	sh	a5,32(a0)
C:/Users/22127/Desktop/Car_light/Libraries/Device/CH32V10x_p/CH32V10x_Lib/ch32v10x_tim.c:106
  tmpccer = TIMx->CCER;
    11f0:	02055783          	lhu	a5,32(a0)
C:/Users/22127/Desktop/Car_light/Libraries/Device/CH32V10x_p/CH32V10x_Lib/ch32v10x_tim.c:107
  tmpcr2 =  TIMx->CTLR2;
    11f4:	00455683          	lhu	a3,4(a0)
C:/Users/22127/Desktop/Car_light/Libraries/Device/CH32V10x_p/CH32V10x_Lib/ch32v10x_tim.c:108
  tmpccmrx = TIMx->CHCTLR1;
    11f8:	01855703          	lhu	a4,24(a0)
C:/Users/22127/Desktop/Car_light/Libraries/Device/CH32V10x_p/CH32V10x_Lib/ch32v10x_tim.c:106
  tmpccer = TIMx->CCER;
    11fc:	07c2                	slli	a5,a5,0x10
    11fe:	83c1                	srli	a5,a5,0x10
C:/Users/22127/Desktop/Car_light/Libraries/Device/CH32V10x_p/CH32V10x_Lib/ch32v10x_tim.c:108
  tmpccmrx = TIMx->CHCTLR1;
    1200:	0742                	slli	a4,a4,0x10
    1202:	8341                	srli	a4,a4,0x10
C:/Users/22127/Desktop/Car_light/Libraries/Device/CH32V10x_p/CH32V10x_Lib/ch32v10x_tim.c:110
  tmpccmrx &= (uint16_t)(~((uint16_t)TIM_CC1S));
    1204:	f8c77713          	andi	a4,a4,-116
C:/Users/22127/Desktop/Car_light/Libraries/Device/CH32V10x_p/CH32V10x_Lib/ch32v10x_tim.c:111
  tmpccmrx |= TIM_OCInitStruct->TIM_OCMode;
    1208:	8f51                	or	a4,a4,a2
C:/Users/22127/Desktop/Car_light/Libraries/Device/CH32V10x_p/CH32V10x_Lib/ch32v10x_tim.c:114
  tmpccer |= TIM_OCInitStruct->TIM_OutputState;
    120a:	0085d603          	lhu	a2,8(a1)
C:/Users/22127/Desktop/Car_light/Libraries/Device/CH32V10x_p/CH32V10x_Lib/ch32v10x_tim.c:112
  tmpccer &= (uint16_t)(~((uint16_t)TIM_CC1P));
    120e:	9bf5                	andi	a5,a5,-3
C:/Users/22127/Desktop/Car_light/Libraries/Device/CH32V10x_p/CH32V10x_Lib/ch32v10x_tim.c:107
  tmpcr2 =  TIMx->CTLR2;
    1210:	06c2                	slli	a3,a3,0x10
C:/Users/22127/Desktop/Car_light/Libraries/Device/CH32V10x_p/CH32V10x_Lib/ch32v10x_tim.c:114
  tmpccer |= TIM_OCInitStruct->TIM_OutputState;
    1212:	01066633          	or	a2,a2,a6
    1216:	8fd1                	or	a5,a5,a2
C:/Users/22127/Desktop/Car_light/Libraries/Device/CH32V10x_p/CH32V10x_Lib/ch32v10x_tim.c:116
    
  if(TIMx == TIM1)
    1218:	40013637          	lui	a2,0x40013
    121c:	c0060613          	addi	a2,a2,-1024 # 40012c00 <_eusrstack+0x2000dc00>
C:/Users/22127/Desktop/Car_light/Libraries/Device/CH32V10x_p/CH32V10x_Lib/ch32v10x_tim.c:107
  tmpcr2 =  TIMx->CTLR2;
    1220:	82c1                	srli	a3,a3,0x10
C:/Users/22127/Desktop/Car_light/Libraries/Device/CH32V10x_p/CH32V10x_Lib/ch32v10x_tim.c:116
  if(TIMx == TIM1)
    1222:	02c51363          	bne	a0,a2,1248 <TIM_OC1Init+0x72>
C:/Users/22127/Desktop/Car_light/Libraries/Device/CH32V10x_p/CH32V10x_Lib/ch32v10x_tim.c:119
  {
    tmpccer &= (uint16_t)(~((uint16_t)TIM_CC1NP));
    tmpccer |= TIM_OCInitStruct->TIM_OCNPolarity;
    1226:	00a5d603          	lhu	a2,10(a1)
C:/Users/22127/Desktop/Car_light/Libraries/Device/CH32V10x_p/CH32V10x_Lib/ch32v10x_tim.c:118
    tmpccer &= (uint16_t)(~((uint16_t)TIM_CC1NP));
    122a:	9bdd                	andi	a5,a5,-9
C:/Users/22127/Desktop/Car_light/Libraries/Device/CH32V10x_p/CH32V10x_Lib/ch32v10x_tim.c:128
    
    tmpcr2 &= (uint16_t)(~((uint16_t)TIM_OIS1));
    tmpcr2 &= (uint16_t)(~((uint16_t)TIM_OIS1N));
    
    tmpcr2 |= TIM_OCInitStruct->TIM_OCIdleState;
    tmpcr2 |= TIM_OCInitStruct->TIM_OCNIdleState;
    122c:	00e5d803          	lhu	a6,14(a1)
C:/Users/22127/Desktop/Car_light/Libraries/Device/CH32V10x_p/CH32V10x_Lib/ch32v10x_tim.c:119
    tmpccer |= TIM_OCInitStruct->TIM_OCNPolarity;
    1230:	8fd1                	or	a5,a5,a2
C:/Users/22127/Desktop/Car_light/Libraries/Device/CH32V10x_p/CH32V10x_Lib/ch32v10x_tim.c:122
    tmpccer |= TIM_OCInitStruct->TIM_OutputNState;
    1232:	0045d603          	lhu	a2,4(a1)
C:/Users/22127/Desktop/Car_light/Libraries/Device/CH32V10x_p/CH32V10x_Lib/ch32v10x_tim.c:121
    tmpccer &= (uint16_t)(~((uint16_t)TIM_CC1NE));    
    1236:	9bed                	andi	a5,a5,-5
C:/Users/22127/Desktop/Car_light/Libraries/Device/CH32V10x_p/CH32V10x_Lib/ch32v10x_tim.c:125
    tmpcr2 &= (uint16_t)(~((uint16_t)TIM_OIS1N));
    1238:	cff6f693          	andi	a3,a3,-769
C:/Users/22127/Desktop/Car_light/Libraries/Device/CH32V10x_p/CH32V10x_Lib/ch32v10x_tim.c:122
    tmpccer |= TIM_OCInitStruct->TIM_OutputNState;
    123c:	8fd1                	or	a5,a5,a2
C:/Users/22127/Desktop/Car_light/Libraries/Device/CH32V10x_p/CH32V10x_Lib/ch32v10x_tim.c:128
    tmpcr2 |= TIM_OCInitStruct->TIM_OCNIdleState;
    123e:	00c5d603          	lhu	a2,12(a1)
    1242:	01066633          	or	a2,a2,a6
    1246:	8ed1                	or	a3,a3,a2
C:/Users/22127/Desktop/Car_light/Libraries/Device/CH32V10x_p/CH32V10x_Lib/ch32v10x_tim.c:131
  }

  TIMx->CTLR2 = tmpcr2;
    1248:	00d51223          	sh	a3,4(a0)
C:/Users/22127/Desktop/Car_light/Libraries/Device/CH32V10x_p/CH32V10x_Lib/ch32v10x_tim.c:132
  TIMx->CHCTLR1 = tmpccmrx;
    124c:	00e51c23          	sh	a4,24(a0)
C:/Users/22127/Desktop/Car_light/Libraries/Device/CH32V10x_p/CH32V10x_Lib/ch32v10x_tim.c:133
  TIMx->CH1CVR = TIM_OCInitStruct->TIM_Pulse; 
    1250:	0065d703          	lhu	a4,6(a1)
    1254:	02e51a23          	sh	a4,52(a0)
C:/Users/22127/Desktop/Car_light/Libraries/Device/CH32V10x_p/CH32V10x_Lib/ch32v10x_tim.c:134
  TIMx->CCER = tmpccer;
    1258:	02f51023          	sh	a5,32(a0)
C:/Users/22127/Desktop/Car_light/Libraries/Device/CH32V10x_p/CH32V10x_Lib/ch32v10x_tim.c:135
}
    125c:	8082                	ret

0000125e <TIM_OC2Init>:
TIM_OC2Init():
C:/Users/22127/Desktop/Car_light/Libraries/Device/CH32V10x_p/CH32V10x_Lib/ch32v10x_tim.c:149
*******************************************************************************/
void TIM_OC2Init(TIM_TypeDef* TIMx, TIM_OCInitTypeDef* TIM_OCInitStruct)
{
  uint16_t tmpccmrx = 0, tmpccer = 0, tmpcr2 = 0;
   
  TIMx->CCER &= (uint16_t)(~((uint16_t)TIM_CC2E)); 
    125e:	02055783          	lhu	a5,32(a0)
C:/Users/22127/Desktop/Car_light/Libraries/Device/CH32V10x_p/CH32V10x_Lib/ch32v10x_tim.c:154
  tmpccer = TIMx->CCER;
  tmpcr2 =  TIMx->CTLR2;
  tmpccmrx = TIMx->CHCTLR1;
  tmpccmrx &= (uint16_t)(~((uint16_t)TIM_OC2M));
  tmpccmrx &= (uint16_t)(~((uint16_t)TIM_CC2S));
    1262:	7765                	lui	a4,0xffff9
    1264:	cff70713          	addi	a4,a4,-769 # ffff8cff <_eusrstack+0xdfff3cff>
C:/Users/22127/Desktop/Car_light/Libraries/Device/CH32V10x_p/CH32V10x_Lib/ch32v10x_tim.c:149
  TIMx->CCER &= (uint16_t)(~((uint16_t)TIM_CC2E)); 
    1268:	07c2                	slli	a5,a5,0x10
    126a:	83c1                	srli	a5,a5,0x10
    126c:	9bbd                	andi	a5,a5,-17
    126e:	07c2                	slli	a5,a5,0x10
    1270:	83c1                	srli	a5,a5,0x10
    1272:	02f51023          	sh	a5,32(a0)
C:/Users/22127/Desktop/Car_light/Libraries/Device/CH32V10x_p/CH32V10x_Lib/ch32v10x_tim.c:150
  tmpccer = TIMx->CCER;
    1276:	02055783          	lhu	a5,32(a0)
C:/Users/22127/Desktop/Car_light/Libraries/Device/CH32V10x_p/CH32V10x_Lib/ch32v10x_tim.c:151
  tmpcr2 =  TIMx->CTLR2;
    127a:	00455683          	lhu	a3,4(a0)
C:/Users/22127/Desktop/Car_light/Libraries/Device/CH32V10x_p/CH32V10x_Lib/ch32v10x_tim.c:157
  tmpccmrx |= (uint16_t)(TIM_OCInitStruct->TIM_OCMode << 8);
  tmpccer &= (uint16_t)(~((uint16_t)TIM_CC2P));
  tmpccer |= (uint16_t)(TIM_OCInitStruct->TIM_OCPolarity << 4);
    127e:	0085d803          	lhu	a6,8(a1)
C:/Users/22127/Desktop/Car_light/Libraries/Device/CH32V10x_p/CH32V10x_Lib/ch32v10x_tim.c:150
  tmpccer = TIMx->CCER;
    1282:	07c2                	slli	a5,a5,0x10
C:/Users/22127/Desktop/Car_light/Libraries/Device/CH32V10x_p/CH32V10x_Lib/ch32v10x_tim.c:151
  tmpcr2 =  TIMx->CTLR2;
    1284:	01069613          	slli	a2,a3,0x10
C:/Users/22127/Desktop/Car_light/Libraries/Device/CH32V10x_p/CH32V10x_Lib/ch32v10x_tim.c:152
  tmpccmrx = TIMx->CHCTLR1;
    1288:	01855683          	lhu	a3,24(a0)
C:/Users/22127/Desktop/Car_light/Libraries/Device/CH32V10x_p/CH32V10x_Lib/ch32v10x_tim.c:150
  tmpccer = TIMx->CCER;
    128c:	83c1                	srli	a5,a5,0x10
C:/Users/22127/Desktop/Car_light/Libraries/Device/CH32V10x_p/CH32V10x_Lib/ch32v10x_tim.c:156
  tmpccer &= (uint16_t)(~((uint16_t)TIM_CC2P));
    128e:	fdf7f793          	andi	a5,a5,-33
C:/Users/22127/Desktop/Car_light/Libraries/Device/CH32V10x_p/CH32V10x_Lib/ch32v10x_tim.c:154
  tmpccmrx &= (uint16_t)(~((uint16_t)TIM_CC2S));
    1292:	8f75                	and	a4,a4,a3
C:/Users/22127/Desktop/Car_light/Libraries/Device/CH32V10x_p/CH32V10x_Lib/ch32v10x_tim.c:155
  tmpccmrx |= (uint16_t)(TIM_OCInitStruct->TIM_OCMode << 8);
    1294:	0005d683          	lhu	a3,0(a1)
C:/Users/22127/Desktop/Car_light/Libraries/Device/CH32V10x_p/CH32V10x_Lib/ch32v10x_tim.c:151
  tmpcr2 =  TIMx->CTLR2;
    1298:	8241                	srli	a2,a2,0x10
C:/Users/22127/Desktop/Car_light/Libraries/Device/CH32V10x_p/CH32V10x_Lib/ch32v10x_tim.c:155
  tmpccmrx |= (uint16_t)(TIM_OCInitStruct->TIM_OCMode << 8);
    129a:	06a2                	slli	a3,a3,0x8
    129c:	8f55                	or	a4,a4,a3
C:/Users/22127/Desktop/Car_light/Libraries/Device/CH32V10x_p/CH32V10x_Lib/ch32v10x_tim.c:158
  tmpccer |= (uint16_t)(TIM_OCInitStruct->TIM_OutputState << 4);
    129e:	0025d683          	lhu	a3,2(a1)
C:/Users/22127/Desktop/Car_light/Libraries/Device/CH32V10x_p/CH32V10x_Lib/ch32v10x_tim.c:155
  tmpccmrx |= (uint16_t)(TIM_OCInitStruct->TIM_OCMode << 8);
    12a2:	0742                	slli	a4,a4,0x10
    12a4:	8341                	srli	a4,a4,0x10
C:/Users/22127/Desktop/Car_light/Libraries/Device/CH32V10x_p/CH32V10x_Lib/ch32v10x_tim.c:158
  tmpccer |= (uint16_t)(TIM_OCInitStruct->TIM_OutputState << 4);
    12a6:	0106e6b3          	or	a3,a3,a6
    12aa:	0692                	slli	a3,a3,0x4
    12ac:	8fd5                	or	a5,a5,a3
C:/Users/22127/Desktop/Car_light/Libraries/Device/CH32V10x_p/CH32V10x_Lib/ch32v10x_tim.c:160
    
  if(TIMx == TIM1)
    12ae:	400136b7          	lui	a3,0x40013
C:/Users/22127/Desktop/Car_light/Libraries/Device/CH32V10x_p/CH32V10x_Lib/ch32v10x_tim.c:158
  tmpccer |= (uint16_t)(TIM_OCInitStruct->TIM_OutputState << 4);
    12b2:	07c2                	slli	a5,a5,0x10
C:/Users/22127/Desktop/Car_light/Libraries/Device/CH32V10x_p/CH32V10x_Lib/ch32v10x_tim.c:160
  if(TIMx == TIM1)
    12b4:	c0068693          	addi	a3,a3,-1024 # 40012c00 <_eusrstack+0x2000dc00>
C:/Users/22127/Desktop/Car_light/Libraries/Device/CH32V10x_p/CH32V10x_Lib/ch32v10x_tim.c:158
  tmpccer |= (uint16_t)(TIM_OCInitStruct->TIM_OutputState << 4);
    12b8:	83c1                	srli	a5,a5,0x10
C:/Users/22127/Desktop/Car_light/Libraries/Device/CH32V10x_p/CH32V10x_Lib/ch32v10x_tim.c:160
  if(TIMx == TIM1)
    12ba:	04d51163          	bne	a0,a3,12fc <TIM_OC2Init+0x9e>
C:/Users/22127/Desktop/Car_light/Libraries/Device/CH32V10x_p/CH32V10x_Lib/ch32v10x_tim.c:163
  {
    tmpccer &= (uint16_t)(~((uint16_t)TIM_CC2NP));
    tmpccer |= (uint16_t)(TIM_OCInitStruct->TIM_OCNPolarity << 4);
    12be:	00a5d683          	lhu	a3,10(a1)
C:/Users/22127/Desktop/Car_light/Libraries/Device/CH32V10x_p/CH32V10x_Lib/ch32v10x_tim.c:162
    tmpccer &= (uint16_t)(~((uint16_t)TIM_CC2NP));
    12c2:	f7f7f793          	andi	a5,a5,-129
C:/Users/22127/Desktop/Car_light/Libraries/Device/CH32V10x_p/CH32V10x_Lib/ch32v10x_tim.c:169
    tmpccer &= (uint16_t)(~((uint16_t)TIM_CC2NE));    
    tmpccer |= (uint16_t)(TIM_OCInitStruct->TIM_OutputNState << 4);
    
    tmpcr2 &= (uint16_t)(~((uint16_t)TIM_OIS2));
    tmpcr2 &= (uint16_t)(~((uint16_t)TIM_OIS2N));
    tmpcr2 |= (uint16_t)(TIM_OCInitStruct->TIM_OCIdleState << 2);
    12c6:	00c5d803          	lhu	a6,12(a1)
C:/Users/22127/Desktop/Car_light/Libraries/Device/CH32V10x_p/CH32V10x_Lib/ch32v10x_tim.c:163
    tmpccer |= (uint16_t)(TIM_OCInitStruct->TIM_OCNPolarity << 4);
    12ca:	0692                	slli	a3,a3,0x4
    12cc:	8fd5                	or	a5,a5,a3
C:/Users/22127/Desktop/Car_light/Libraries/Device/CH32V10x_p/CH32V10x_Lib/ch32v10x_tim.c:165
    tmpccer |= (uint16_t)(TIM_OCInitStruct->TIM_OutputNState << 4);
    12ce:	0045d683          	lhu	a3,4(a1)
C:/Users/22127/Desktop/Car_light/Libraries/Device/CH32V10x_p/CH32V10x_Lib/ch32v10x_tim.c:163
    tmpccer |= (uint16_t)(TIM_OCInitStruct->TIM_OCNPolarity << 4);
    12d2:	07c2                	slli	a5,a5,0x10
    12d4:	83c1                	srli	a5,a5,0x10
C:/Users/22127/Desktop/Car_light/Libraries/Device/CH32V10x_p/CH32V10x_Lib/ch32v10x_tim.c:165
    tmpccer |= (uint16_t)(TIM_OCInitStruct->TIM_OutputNState << 4);
    12d6:	0692                	slli	a3,a3,0x4
C:/Users/22127/Desktop/Car_light/Libraries/Device/CH32V10x_p/CH32V10x_Lib/ch32v10x_tim.c:164
    tmpccer &= (uint16_t)(~((uint16_t)TIM_CC2NE));    
    12d8:	fbf7f793          	andi	a5,a5,-65
C:/Users/22127/Desktop/Car_light/Libraries/Device/CH32V10x_p/CH32V10x_Lib/ch32v10x_tim.c:165
    tmpccer |= (uint16_t)(TIM_OCInitStruct->TIM_OutputNState << 4);
    12dc:	8fd5                	or	a5,a5,a3
C:/Users/22127/Desktop/Car_light/Libraries/Device/CH32V10x_p/CH32V10x_Lib/ch32v10x_tim.c:168
    tmpcr2 &= (uint16_t)(~((uint16_t)TIM_OIS2N));
    12de:	76fd                	lui	a3,0xfffff
    12e0:	3ff68693          	addi	a3,a3,1023 # fffff3ff <_eusrstack+0xdfffa3ff>
    12e4:	8ef1                	and	a3,a3,a2
C:/Users/22127/Desktop/Car_light/Libraries/Device/CH32V10x_p/CH32V10x_Lib/ch32v10x_tim.c:170
    tmpcr2 |= (uint16_t)(TIM_OCInitStruct->TIM_OCNIdleState << 2);
    12e6:	00e5d603          	lhu	a2,14(a1)
C:/Users/22127/Desktop/Car_light/Libraries/Device/CH32V10x_p/CH32V10x_Lib/ch32v10x_tim.c:165
    tmpccer |= (uint16_t)(TIM_OCInitStruct->TIM_OutputNState << 4);
    12ea:	07c2                	slli	a5,a5,0x10
    12ec:	83c1                	srli	a5,a5,0x10
C:/Users/22127/Desktop/Car_light/Libraries/Device/CH32V10x_p/CH32V10x_Lib/ch32v10x_tim.c:170
    tmpcr2 |= (uint16_t)(TIM_OCInitStruct->TIM_OCNIdleState << 2);
    12ee:	01066633          	or	a2,a2,a6
    12f2:	060a                	slli	a2,a2,0x2
    12f4:	8ed1                	or	a3,a3,a2
    12f6:	01069613          	slli	a2,a3,0x10
    12fa:	8241                	srli	a2,a2,0x10
C:/Users/22127/Desktop/Car_light/Libraries/Device/CH32V10x_p/CH32V10x_Lib/ch32v10x_tim.c:173
  }

  TIMx->CTLR2 = tmpcr2;
    12fc:	00c51223          	sh	a2,4(a0)
C:/Users/22127/Desktop/Car_light/Libraries/Device/CH32V10x_p/CH32V10x_Lib/ch32v10x_tim.c:174
  TIMx->CHCTLR1 = tmpccmrx;
    1300:	00e51c23          	sh	a4,24(a0)
C:/Users/22127/Desktop/Car_light/Libraries/Device/CH32V10x_p/CH32V10x_Lib/ch32v10x_tim.c:175
  TIMx->CH2CVR = TIM_OCInitStruct->TIM_Pulse;
    1304:	0065d703          	lhu	a4,6(a1)
    1308:	02e51c23          	sh	a4,56(a0)
C:/Users/22127/Desktop/Car_light/Libraries/Device/CH32V10x_p/CH32V10x_Lib/ch32v10x_tim.c:176
  TIMx->CCER = tmpccer;
    130c:	02f51023          	sh	a5,32(a0)
C:/Users/22127/Desktop/Car_light/Libraries/Device/CH32V10x_p/CH32V10x_Lib/ch32v10x_tim.c:177
}
    1310:	8082                	ret

00001312 <TIM_OC3Init>:
TIM_OC3Init():
C:/Users/22127/Desktop/Car_light/Libraries/Device/CH32V10x_p/CH32V10x_Lib/ch32v10x_tim.c:191
*******************************************************************************/
void TIM_OC3Init(TIM_TypeDef* TIMx, TIM_OCInitTypeDef* TIM_OCInitStruct)
{
  uint16_t tmpccmrx = 0, tmpccer = 0, tmpcr2 = 0;
   
  TIMx->CCER &= (uint16_t)(~((uint16_t)TIM_CC3E));
    1312:	02055783          	lhu	a5,32(a0)
C:/Users/22127/Desktop/Car_light/Libraries/Device/CH32V10x_p/CH32V10x_Lib/ch32v10x_tim.c:199
  tmpccmrx = TIMx->CHCTLR2;
  tmpccmrx &= (uint16_t)(~((uint16_t)TIM_OC3M));
  tmpccmrx &= (uint16_t)(~((uint16_t)TIM_CC3S));  
  tmpccmrx |= TIM_OCInitStruct->TIM_OCMode;
  tmpccer &= (uint16_t)(~((uint16_t)TIM_CC3P));
  tmpccer |= (uint16_t)(TIM_OCInitStruct->TIM_OCPolarity << 8);
    1316:	0085d803          	lhu	a6,8(a1)
C:/Users/22127/Desktop/Car_light/Libraries/Device/CH32V10x_p/CH32V10x_Lib/ch32v10x_tim.c:191
  TIMx->CCER &= (uint16_t)(~((uint16_t)TIM_CC3E));
    131a:	07c2                	slli	a5,a5,0x10
    131c:	83c1                	srli	a5,a5,0x10
    131e:	eff7f793          	andi	a5,a5,-257
    1322:	07c2                	slli	a5,a5,0x10
    1324:	83c1                	srli	a5,a5,0x10
    1326:	02f51023          	sh	a5,32(a0)
C:/Users/22127/Desktop/Car_light/Libraries/Device/CH32V10x_p/CH32V10x_Lib/ch32v10x_tim.c:192
  tmpccer = TIMx->CCER;
    132a:	02055783          	lhu	a5,32(a0)
C:/Users/22127/Desktop/Car_light/Libraries/Device/CH32V10x_p/CH32V10x_Lib/ch32v10x_tim.c:193
  tmpcr2 =  TIMx->CTLR2;
    132e:	00455683          	lhu	a3,4(a0)
C:/Users/22127/Desktop/Car_light/Libraries/Device/CH32V10x_p/CH32V10x_Lib/ch32v10x_tim.c:194
  tmpccmrx = TIMx->CHCTLR2;
    1332:	01c55703          	lhu	a4,28(a0)
C:/Users/22127/Desktop/Car_light/Libraries/Device/CH32V10x_p/CH32V10x_Lib/ch32v10x_tim.c:192
  tmpccer = TIMx->CCER;
    1336:	07c2                	slli	a5,a5,0x10
C:/Users/22127/Desktop/Car_light/Libraries/Device/CH32V10x_p/CH32V10x_Lib/ch32v10x_tim.c:193
  tmpcr2 =  TIMx->CTLR2;
    1338:	01069613          	slli	a2,a3,0x10
C:/Users/22127/Desktop/Car_light/Libraries/Device/CH32V10x_p/CH32V10x_Lib/ch32v10x_tim.c:194
  tmpccmrx = TIMx->CHCTLR2;
    133c:	0742                	slli	a4,a4,0x10
C:/Users/22127/Desktop/Car_light/Libraries/Device/CH32V10x_p/CH32V10x_Lib/ch32v10x_tim.c:197
  tmpccmrx |= TIM_OCInitStruct->TIM_OCMode;
    133e:	0005d683          	lhu	a3,0(a1)
C:/Users/22127/Desktop/Car_light/Libraries/Device/CH32V10x_p/CH32V10x_Lib/ch32v10x_tim.c:194
  tmpccmrx = TIMx->CHCTLR2;
    1342:	8341                	srli	a4,a4,0x10
C:/Users/22127/Desktop/Car_light/Libraries/Device/CH32V10x_p/CH32V10x_Lib/ch32v10x_tim.c:196
  tmpccmrx &= (uint16_t)(~((uint16_t)TIM_CC3S));  
    1344:	f8c77713          	andi	a4,a4,-116
C:/Users/22127/Desktop/Car_light/Libraries/Device/CH32V10x_p/CH32V10x_Lib/ch32v10x_tim.c:197
  tmpccmrx |= TIM_OCInitStruct->TIM_OCMode;
    1348:	8f55                	or	a4,a4,a3
C:/Users/22127/Desktop/Car_light/Libraries/Device/CH32V10x_p/CH32V10x_Lib/ch32v10x_tim.c:200
  tmpccer |= (uint16_t)(TIM_OCInitStruct->TIM_OutputState << 8);
    134a:	0025d683          	lhu	a3,2(a1)
C:/Users/22127/Desktop/Car_light/Libraries/Device/CH32V10x_p/CH32V10x_Lib/ch32v10x_tim.c:192
  tmpccer = TIMx->CCER;
    134e:	83c1                	srli	a5,a5,0x10
C:/Users/22127/Desktop/Car_light/Libraries/Device/CH32V10x_p/CH32V10x_Lib/ch32v10x_tim.c:198
  tmpccer &= (uint16_t)(~((uint16_t)TIM_CC3P));
    1350:	dff7f793          	andi	a5,a5,-513
C:/Users/22127/Desktop/Car_light/Libraries/Device/CH32V10x_p/CH32V10x_Lib/ch32v10x_tim.c:200
  tmpccer |= (uint16_t)(TIM_OCInitStruct->TIM_OutputState << 8);
    1354:	0106e6b3          	or	a3,a3,a6
    1358:	06a2                	slli	a3,a3,0x8
    135a:	8fd5                	or	a5,a5,a3
C:/Users/22127/Desktop/Car_light/Libraries/Device/CH32V10x_p/CH32V10x_Lib/ch32v10x_tim.c:202
    
  if(TIMx == TIM1)
    135c:	400136b7          	lui	a3,0x40013
C:/Users/22127/Desktop/Car_light/Libraries/Device/CH32V10x_p/CH32V10x_Lib/ch32v10x_tim.c:200
  tmpccer |= (uint16_t)(TIM_OCInitStruct->TIM_OutputState << 8);
    1360:	07c2                	slli	a5,a5,0x10
C:/Users/22127/Desktop/Car_light/Libraries/Device/CH32V10x_p/CH32V10x_Lib/ch32v10x_tim.c:202
  if(TIMx == TIM1)
    1362:	c0068693          	addi	a3,a3,-1024 # 40012c00 <_eusrstack+0x2000dc00>
C:/Users/22127/Desktop/Car_light/Libraries/Device/CH32V10x_p/CH32V10x_Lib/ch32v10x_tim.c:193
  tmpcr2 =  TIMx->CTLR2;
    1366:	8241                	srli	a2,a2,0x10
C:/Users/22127/Desktop/Car_light/Libraries/Device/CH32V10x_p/CH32V10x_Lib/ch32v10x_tim.c:200
  tmpccer |= (uint16_t)(TIM_OCInitStruct->TIM_OutputState << 8);
    1368:	83c1                	srli	a5,a5,0x10
C:/Users/22127/Desktop/Car_light/Libraries/Device/CH32V10x_p/CH32V10x_Lib/ch32v10x_tim.c:202
  if(TIMx == TIM1)
    136a:	04d51263          	bne	a0,a3,13ae <TIM_OC3Init+0x9c>
C:/Users/22127/Desktop/Car_light/Libraries/Device/CH32V10x_p/CH32V10x_Lib/ch32v10x_tim.c:204
  {
    tmpccer &= (uint16_t)(~((uint16_t)TIM_CC3NP));
    136e:	76fd                	lui	a3,0xfffff
    1370:	7ff68693          	addi	a3,a3,2047 # fffff7ff <_eusrstack+0xdfffa7ff>
    1374:	8ff5                	and	a5,a5,a3
C:/Users/22127/Desktop/Car_light/Libraries/Device/CH32V10x_p/CH32V10x_Lib/ch32v10x_tim.c:205
    tmpccer |= (uint16_t)(TIM_OCInitStruct->TIM_OCNPolarity << 8);
    1376:	00a5d683          	lhu	a3,10(a1)
C:/Users/22127/Desktop/Car_light/Libraries/Device/CH32V10x_p/CH32V10x_Lib/ch32v10x_tim.c:210
    tmpccer &= (uint16_t)(~((uint16_t)TIM_CC3NE));
    tmpccer |= (uint16_t)(TIM_OCInitStruct->TIM_OutputNState << 8);
    tmpcr2 &= (uint16_t)(~((uint16_t)TIM_OIS3));
    tmpcr2 &= (uint16_t)(~((uint16_t)TIM_OIS3N));
    tmpcr2 |= (uint16_t)(TIM_OCInitStruct->TIM_OCIdleState << 4);
    137a:	00c5d803          	lhu	a6,12(a1)
C:/Users/22127/Desktop/Car_light/Libraries/Device/CH32V10x_p/CH32V10x_Lib/ch32v10x_tim.c:205
    tmpccer |= (uint16_t)(TIM_OCInitStruct->TIM_OCNPolarity << 8);
    137e:	06a2                	slli	a3,a3,0x8
    1380:	8fd5                	or	a5,a5,a3
C:/Users/22127/Desktop/Car_light/Libraries/Device/CH32V10x_p/CH32V10x_Lib/ch32v10x_tim.c:207
    tmpccer |= (uint16_t)(TIM_OCInitStruct->TIM_OutputNState << 8);
    1382:	0045d683          	lhu	a3,4(a1)
C:/Users/22127/Desktop/Car_light/Libraries/Device/CH32V10x_p/CH32V10x_Lib/ch32v10x_tim.c:205
    tmpccer |= (uint16_t)(TIM_OCInitStruct->TIM_OCNPolarity << 8);
    1386:	07c2                	slli	a5,a5,0x10
    1388:	83c1                	srli	a5,a5,0x10
C:/Users/22127/Desktop/Car_light/Libraries/Device/CH32V10x_p/CH32V10x_Lib/ch32v10x_tim.c:207
    tmpccer |= (uint16_t)(TIM_OCInitStruct->TIM_OutputNState << 8);
    138a:	06a2                	slli	a3,a3,0x8
C:/Users/22127/Desktop/Car_light/Libraries/Device/CH32V10x_p/CH32V10x_Lib/ch32v10x_tim.c:206
    tmpccer &= (uint16_t)(~((uint16_t)TIM_CC3NE));
    138c:	bff7f793          	andi	a5,a5,-1025
C:/Users/22127/Desktop/Car_light/Libraries/Device/CH32V10x_p/CH32V10x_Lib/ch32v10x_tim.c:207
    tmpccer |= (uint16_t)(TIM_OCInitStruct->TIM_OutputNState << 8);
    1390:	8fd5                	or	a5,a5,a3
C:/Users/22127/Desktop/Car_light/Libraries/Device/CH32V10x_p/CH32V10x_Lib/ch32v10x_tim.c:209
    tmpcr2 &= (uint16_t)(~((uint16_t)TIM_OIS3N));
    1392:	76f5                	lui	a3,0xffffd
    1394:	16fd                	addi	a3,a3,-1
    1396:	8ef1                	and	a3,a3,a2
C:/Users/22127/Desktop/Car_light/Libraries/Device/CH32V10x_p/CH32V10x_Lib/ch32v10x_tim.c:211
    tmpcr2 |= (uint16_t)(TIM_OCInitStruct->TIM_OCNIdleState << 4);
    1398:	00e5d603          	lhu	a2,14(a1)
C:/Users/22127/Desktop/Car_light/Libraries/Device/CH32V10x_p/CH32V10x_Lib/ch32v10x_tim.c:207
    tmpccer |= (uint16_t)(TIM_OCInitStruct->TIM_OutputNState << 8);
    139c:	07c2                	slli	a5,a5,0x10
    139e:	83c1                	srli	a5,a5,0x10
C:/Users/22127/Desktop/Car_light/Libraries/Device/CH32V10x_p/CH32V10x_Lib/ch32v10x_tim.c:211
    tmpcr2 |= (uint16_t)(TIM_OCInitStruct->TIM_OCNIdleState << 4);
    13a0:	01066633          	or	a2,a2,a6
    13a4:	0612                	slli	a2,a2,0x4
    13a6:	8ed1                	or	a3,a3,a2
    13a8:	01069613          	slli	a2,a3,0x10
    13ac:	8241                	srli	a2,a2,0x10
C:/Users/22127/Desktop/Car_light/Libraries/Device/CH32V10x_p/CH32V10x_Lib/ch32v10x_tim.c:214
  }

  TIMx->CTLR2 = tmpcr2;
    13ae:	00c51223          	sh	a2,4(a0)
C:/Users/22127/Desktop/Car_light/Libraries/Device/CH32V10x_p/CH32V10x_Lib/ch32v10x_tim.c:215
  TIMx->CHCTLR2 = tmpccmrx;
    13b2:	00e51e23          	sh	a4,28(a0)
C:/Users/22127/Desktop/Car_light/Libraries/Device/CH32V10x_p/CH32V10x_Lib/ch32v10x_tim.c:216
  TIMx->CH3CVR = TIM_OCInitStruct->TIM_Pulse;
    13b6:	0065d703          	lhu	a4,6(a1)
    13ba:	02e51e23          	sh	a4,60(a0)
C:/Users/22127/Desktop/Car_light/Libraries/Device/CH32V10x_p/CH32V10x_Lib/ch32v10x_tim.c:217
  TIMx->CCER = tmpccer;
    13be:	02f51023          	sh	a5,32(a0)
C:/Users/22127/Desktop/Car_light/Libraries/Device/CH32V10x_p/CH32V10x_Lib/ch32v10x_tim.c:218
}
    13c2:	8082                	ret

000013c4 <TIM_OC4Init>:
TIM_OC4Init():
C:/Users/22127/Desktop/Car_light/Libraries/Device/CH32V10x_p/CH32V10x_Lib/ch32v10x_tim.c:232
*******************************************************************************/
void TIM_OC4Init(TIM_TypeDef* TIMx, TIM_OCInitTypeDef* TIM_OCInitStruct)
{
  uint16_t tmpccmrx = 0, tmpccer = 0, tmpcr2 = 0;

  TIMx->CCER &= (uint16_t)(~((uint16_t)TIM_CC4E));
    13c4:	02055703          	lhu	a4,32(a0)
    13c8:	77fd                	lui	a5,0xfffff
    13ca:	17fd                	addi	a5,a5,-1
    13cc:	8ff9                	and	a5,a5,a4
    13ce:	02f51023          	sh	a5,32(a0)
C:/Users/22127/Desktop/Car_light/Libraries/Device/CH32V10x_p/CH32V10x_Lib/ch32v10x_tim.c:233
  tmpccer = TIMx->CCER;
    13d2:	02055803          	lhu	a6,32(a0)
C:/Users/22127/Desktop/Car_light/Libraries/Device/CH32V10x_p/CH32V10x_Lib/ch32v10x_tim.c:234
  tmpcr2 =  TIMx->CTLR2;
    13d6:	00455683          	lhu	a3,4(a0)
C:/Users/22127/Desktop/Car_light/Libraries/Device/CH32V10x_p/CH32V10x_Lib/ch32v10x_tim.c:235
  tmpccmrx = TIMx->CHCTLR2;
    13da:	01c55783          	lhu	a5,28(a0)
C:/Users/22127/Desktop/Car_light/Libraries/Device/CH32V10x_p/CH32V10x_Lib/ch32v10x_tim.c:237
  tmpccmrx &= (uint16_t)(~((uint16_t)TIM_OC4M));
  tmpccmrx &= (uint16_t)(~((uint16_t)TIM_CC4S));
    13de:	7765                	lui	a4,0xffff9
C:/Users/22127/Desktop/Car_light/Libraries/Device/CH32V10x_p/CH32V10x_Lib/ch32v10x_tim.c:238
  tmpccmrx |= (uint16_t)(TIM_OCInitStruct->TIM_OCMode << 8);
    13e0:	0005d603          	lhu	a2,0(a1)
C:/Users/22127/Desktop/Car_light/Libraries/Device/CH32V10x_p/CH32V10x_Lib/ch32v10x_tim.c:237
  tmpccmrx &= (uint16_t)(~((uint16_t)TIM_CC4S));
    13e4:	cff70713          	addi	a4,a4,-769 # ffff8cff <_eusrstack+0xdfff3cff>
    13e8:	8f7d                	and	a4,a4,a5
C:/Users/22127/Desktop/Car_light/Libraries/Device/CH32V10x_p/CH32V10x_Lib/ch32v10x_tim.c:239
  tmpccer &= (uint16_t)(~((uint16_t)TIM_CC4P));
    13ea:	77f9                	lui	a5,0xffffe
C:/Users/22127/Desktop/Car_light/Libraries/Device/CH32V10x_p/CH32V10x_Lib/ch32v10x_tim.c:238
  tmpccmrx |= (uint16_t)(TIM_OCInitStruct->TIM_OCMode << 8);
    13ec:	0622                	slli	a2,a2,0x8
C:/Users/22127/Desktop/Car_light/Libraries/Device/CH32V10x_p/CH32V10x_Lib/ch32v10x_tim.c:239
  tmpccer &= (uint16_t)(~((uint16_t)TIM_CC4P));
    13ee:	17fd                	addi	a5,a5,-1
C:/Users/22127/Desktop/Car_light/Libraries/Device/CH32V10x_p/CH32V10x_Lib/ch32v10x_tim.c:238
  tmpccmrx |= (uint16_t)(TIM_OCInitStruct->TIM_OCMode << 8);
    13f0:	8f51                	or	a4,a4,a2
C:/Users/22127/Desktop/Car_light/Libraries/Device/CH32V10x_p/CH32V10x_Lib/ch32v10x_tim.c:239
  tmpccer &= (uint16_t)(~((uint16_t)TIM_CC4P));
    13f2:	0107f7b3          	and	a5,a5,a6
C:/Users/22127/Desktop/Car_light/Libraries/Device/CH32V10x_p/CH32V10x_Lib/ch32v10x_tim.c:241
  tmpccer |= (uint16_t)(TIM_OCInitStruct->TIM_OCPolarity << 12);
  tmpccer |= (uint16_t)(TIM_OCInitStruct->TIM_OutputState << 12);
    13f6:	0025d603          	lhu	a2,2(a1)
C:/Users/22127/Desktop/Car_light/Libraries/Device/CH32V10x_p/CH32V10x_Lib/ch32v10x_tim.c:240
  tmpccer |= (uint16_t)(TIM_OCInitStruct->TIM_OCPolarity << 12);
    13fa:	0085d803          	lhu	a6,8(a1)
C:/Users/22127/Desktop/Car_light/Libraries/Device/CH32V10x_p/CH32V10x_Lib/ch32v10x_tim.c:234
  tmpcr2 =  TIMx->CTLR2;
    13fe:	06c2                	slli	a3,a3,0x10
C:/Users/22127/Desktop/Car_light/Libraries/Device/CH32V10x_p/CH32V10x_Lib/ch32v10x_tim.c:238
  tmpccmrx |= (uint16_t)(TIM_OCInitStruct->TIM_OCMode << 8);
    1400:	0742                	slli	a4,a4,0x10
C:/Users/22127/Desktop/Car_light/Libraries/Device/CH32V10x_p/CH32V10x_Lib/ch32v10x_tim.c:241
  tmpccer |= (uint16_t)(TIM_OCInitStruct->TIM_OutputState << 12);
    1402:	01066633          	or	a2,a2,a6
    1406:	0632                	slli	a2,a2,0xc
    1408:	8fd1                	or	a5,a5,a2
C:/Users/22127/Desktop/Car_light/Libraries/Device/CH32V10x_p/CH32V10x_Lib/ch32v10x_tim.c:243
    
  if(TIMx == TIM1)
    140a:	40013637          	lui	a2,0x40013
C:/Users/22127/Desktop/Car_light/Libraries/Device/CH32V10x_p/CH32V10x_Lib/ch32v10x_tim.c:241
  tmpccer |= (uint16_t)(TIM_OCInitStruct->TIM_OutputState << 12);
    140e:	07c2                	slli	a5,a5,0x10
C:/Users/22127/Desktop/Car_light/Libraries/Device/CH32V10x_p/CH32V10x_Lib/ch32v10x_tim.c:243
  if(TIMx == TIM1)
    1410:	c0060613          	addi	a2,a2,-1024 # 40012c00 <_eusrstack+0x2000dc00>
C:/Users/22127/Desktop/Car_light/Libraries/Device/CH32V10x_p/CH32V10x_Lib/ch32v10x_tim.c:234
  tmpcr2 =  TIMx->CTLR2;
    1414:	82c1                	srli	a3,a3,0x10
C:/Users/22127/Desktop/Car_light/Libraries/Device/CH32V10x_p/CH32V10x_Lib/ch32v10x_tim.c:238
  tmpccmrx |= (uint16_t)(TIM_OCInitStruct->TIM_OCMode << 8);
    1416:	8341                	srli	a4,a4,0x10
C:/Users/22127/Desktop/Car_light/Libraries/Device/CH32V10x_p/CH32V10x_Lib/ch32v10x_tim.c:241
  tmpccer |= (uint16_t)(TIM_OCInitStruct->TIM_OutputState << 12);
    1418:	83c1                	srli	a5,a5,0x10
C:/Users/22127/Desktop/Car_light/Libraries/Device/CH32V10x_p/CH32V10x_Lib/ch32v10x_tim.c:243
  if(TIMx == TIM1)
    141a:	00c51b63          	bne	a0,a2,1430 <TIM_OC4Init+0x6c>
C:/Users/22127/Desktop/Car_light/Libraries/Device/CH32V10x_p/CH32V10x_Lib/ch32v10x_tim.c:245
  {
    tmpcr2 &= (uint16_t)(~((uint16_t)TIM_OIS4));
    141e:	7671                	lui	a2,0xffffc
    1420:	167d                	addi	a2,a2,-1
    1422:	8ef1                	and	a3,a3,a2
C:/Users/22127/Desktop/Car_light/Libraries/Device/CH32V10x_p/CH32V10x_Lib/ch32v10x_tim.c:246
    tmpcr2 |= (uint16_t)(TIM_OCInitStruct->TIM_OCIdleState << 6);
    1424:	00c5d603          	lhu	a2,12(a1)
    1428:	061a                	slli	a2,a2,0x6
    142a:	8ed1                	or	a3,a3,a2
    142c:	06c2                	slli	a3,a3,0x10
    142e:	82c1                	srli	a3,a3,0x10
C:/Users/22127/Desktop/Car_light/Libraries/Device/CH32V10x_p/CH32V10x_Lib/ch32v10x_tim.c:249
  }

  TIMx->CTLR2 = tmpcr2; 
    1430:	00d51223          	sh	a3,4(a0)
C:/Users/22127/Desktop/Car_light/Libraries/Device/CH32V10x_p/CH32V10x_Lib/ch32v10x_tim.c:250
  TIMx->CHCTLR2 = tmpccmrx;
    1434:	00e51e23          	sh	a4,28(a0)
C:/Users/22127/Desktop/Car_light/Libraries/Device/CH32V10x_p/CH32V10x_Lib/ch32v10x_tim.c:251
  TIMx->CH4CVR = TIM_OCInitStruct->TIM_Pulse;
    1438:	0065d703          	lhu	a4,6(a1)
    143c:	04e51023          	sh	a4,64(a0)
C:/Users/22127/Desktop/Car_light/Libraries/Device/CH32V10x_p/CH32V10x_Lib/ch32v10x_tim.c:252
  TIMx->CCER = tmpccer;
    1440:	02f51023          	sh	a5,32(a0)
C:/Users/22127/Desktop/Car_light/Libraries/Device/CH32V10x_p/CH32V10x_Lib/ch32v10x_tim.c:253
}
    1444:	8082                	ret

00001446 <TIM_Cmd>:
TIM_Cmd():
C:/Users/22127/Desktop/Car_light/Libraries/Device/CH32V10x_p/CH32V10x_Lib/ch32v10x_tim.c:436
*******************************************************************************/
void TIM_Cmd(TIM_TypeDef* TIMx, FunctionalState NewState)
{ 
  if (NewState != DISABLE)
  {
    TIMx->CTLR1 |= TIM_CEN;
    1446:	00055783          	lhu	a5,0(a0)
C:/Users/22127/Desktop/Car_light/Libraries/Device/CH32V10x_p/CH32V10x_Lib/ch32v10x_tim.c:434
  if (NewState != DISABLE)
    144a:	c591                	beqz	a1,1456 <TIM_Cmd+0x10>
C:/Users/22127/Desktop/Car_light/Libraries/Device/CH32V10x_p/CH32V10x_Lib/ch32v10x_tim.c:436
    TIMx->CTLR1 |= TIM_CEN;
    144c:	0017e793          	ori	a5,a5,1
C:/Users/22127/Desktop/Car_light/Libraries/Device/CH32V10x_p/CH32V10x_Lib/ch32v10x_tim.c:440
  }
  else
  {
    TIMx->CTLR1 &= (uint16_t)(~((uint16_t)TIM_CEN));
    1450:	00f51023          	sh	a5,0(a0)
C:/Users/22127/Desktop/Car_light/Libraries/Device/CH32V10x_p/CH32V10x_Lib/ch32v10x_tim.c:442
  }
}
    1454:	8082                	ret
C:/Users/22127/Desktop/Car_light/Libraries/Device/CH32V10x_p/CH32V10x_Lib/ch32v10x_tim.c:440
    TIMx->CTLR1 &= (uint16_t)(~((uint16_t)TIM_CEN));
    1456:	07c2                	slli	a5,a5,0x10
    1458:	83c1                	srli	a5,a5,0x10
    145a:	9bf9                	andi	a5,a5,-2
    145c:	07c2                	slli	a5,a5,0x10
    145e:	83c1                	srli	a5,a5,0x10
    1460:	bfc5                	j	1450 <TIM_Cmd+0xa>

00001462 <TIM_CtrlPWMOutputs>:
TIM_CtrlPWMOutputs():
C:/Users/22127/Desktop/Car_light/Libraries/Device/CH32V10x_p/CH32V10x_Lib/ch32v10x_tim.c:455
*******************************************************************************/
void TIM_CtrlPWMOutputs(TIM_TypeDef* TIMx, FunctionalState NewState)
{
  if (NewState != DISABLE)
  {
    TIMx->BDTR |= TIM_MOE;
    1462:	04455783          	lhu	a5,68(a0)
C:/Users/22127/Desktop/Car_light/Libraries/Device/CH32V10x_p/CH32V10x_Lib/ch32v10x_tim.c:453
  if (NewState != DISABLE)
    1466:	c591                	beqz	a1,1472 <TIM_CtrlPWMOutputs+0x10>
C:/Users/22127/Desktop/Car_light/Libraries/Device/CH32V10x_p/CH32V10x_Lib/ch32v10x_tim.c:455
    TIMx->BDTR |= TIM_MOE;
    1468:	6721                	lui	a4,0x8
    146a:	8fd9                	or	a5,a5,a4
C:/Users/22127/Desktop/Car_light/Libraries/Device/CH32V10x_p/CH32V10x_Lib/ch32v10x_tim.c:459
  }
  else
  {
    TIMx->BDTR &= (uint16_t)(~((uint16_t)TIM_MOE));
    146c:	04f51223          	sh	a5,68(a0)
C:/Users/22127/Desktop/Car_light/Libraries/Device/CH32V10x_p/CH32V10x_Lib/ch32v10x_tim.c:461
  }  
}
    1470:	8082                	ret
C:/Users/22127/Desktop/Car_light/Libraries/Device/CH32V10x_p/CH32V10x_Lib/ch32v10x_tim.c:459
    TIMx->BDTR &= (uint16_t)(~((uint16_t)TIM_MOE));
    1472:	07c6                	slli	a5,a5,0x11
    1474:	83c5                	srli	a5,a5,0x11
    1476:	bfdd                	j	146c <TIM_CtrlPWMOutputs+0xa>

00001478 <TIM_OC1PreloadConfig>:
TIM_OC1PreloadConfig():
C:/Users/22127/Desktop/Car_light/Libraries/Device/CH32V10x_p/CH32V10x_Lib/ch32v10x_tim.c:984
*******************************************************************************/
void TIM_OC1PreloadConfig(TIM_TypeDef* TIMx, uint16_t TIM_OCPreload)
{
  uint16_t tmpccmr1 = 0;

  tmpccmr1 = TIMx->CHCTLR1;
    1478:	01855783          	lhu	a5,24(a0)
    147c:	07c2                	slli	a5,a5,0x10
    147e:	83c1                	srli	a5,a5,0x10
C:/Users/22127/Desktop/Car_light/Libraries/Device/CH32V10x_p/CH32V10x_Lib/ch32v10x_tim.c:985
  tmpccmr1 &= (uint16_t)~((uint16_t)TIM_OC1PE);
    1480:	9bdd                	andi	a5,a5,-9
C:/Users/22127/Desktop/Car_light/Libraries/Device/CH32V10x_p/CH32V10x_Lib/ch32v10x_tim.c:986
  tmpccmr1 |= TIM_OCPreload;
    1482:	8ddd                	or	a1,a1,a5
C:/Users/22127/Desktop/Car_light/Libraries/Device/CH32V10x_p/CH32V10x_Lib/ch32v10x_tim.c:987
  TIMx->CHCTLR1 = tmpccmr1;
    1484:	00b51c23          	sh	a1,24(a0)
C:/Users/22127/Desktop/Car_light/Libraries/Device/CH32V10x_p/CH32V10x_Lib/ch32v10x_tim.c:988
}
    1488:	8082                	ret

0000148a <TIM_OC2PreloadConfig>:
TIM_OC2PreloadConfig():
C:/Users/22127/Desktop/Car_light/Libraries/Device/CH32V10x_p/CH32V10x_Lib/ch32v10x_tim.c:1003
*******************************************************************************/
void TIM_OC2PreloadConfig(TIM_TypeDef* TIMx, uint16_t TIM_OCPreload)
{
  uint16_t tmpccmr1 = 0;

  tmpccmr1 = TIMx->CHCTLR1;
    148a:	01855703          	lhu	a4,24(a0)
C:/Users/22127/Desktop/Car_light/Libraries/Device/CH32V10x_p/CH32V10x_Lib/ch32v10x_tim.c:1004
  tmpccmr1 &= (uint16_t)~((uint16_t)TIM_OC2PE);
    148e:	77fd                	lui	a5,0xfffff
    1490:	7ff78793          	addi	a5,a5,2047 # fffff7ff <_eusrstack+0xdfffa7ff>
    1494:	8ff9                	and	a5,a5,a4
C:/Users/22127/Desktop/Car_light/Libraries/Device/CH32V10x_p/CH32V10x_Lib/ch32v10x_tim.c:1005
  tmpccmr1 |= (uint16_t)(TIM_OCPreload << 8);	
    1496:	05a2                	slli	a1,a1,0x8
    1498:	8fcd                	or	a5,a5,a1
    149a:	07c2                	slli	a5,a5,0x10
    149c:	83c1                	srli	a5,a5,0x10
C:/Users/22127/Desktop/Car_light/Libraries/Device/CH32V10x_p/CH32V10x_Lib/ch32v10x_tim.c:1006
  TIMx->CHCTLR1 = tmpccmr1;
    149e:	00f51c23          	sh	a5,24(a0)
C:/Users/22127/Desktop/Car_light/Libraries/Device/CH32V10x_p/CH32V10x_Lib/ch32v10x_tim.c:1007
}
    14a2:	8082                	ret

000014a4 <TIM_OC3PreloadConfig>:
TIM_OC3PreloadConfig():
C:/Users/22127/Desktop/Car_light/Libraries/Device/CH32V10x_p/CH32V10x_Lib/ch32v10x_tim.c:1022
*******************************************************************************/
void TIM_OC3PreloadConfig(TIM_TypeDef* TIMx, uint16_t TIM_OCPreload)
{
  uint16_t tmpccmr2 = 0;

  tmpccmr2 = TIMx->CHCTLR2;
    14a4:	01c55783          	lhu	a5,28(a0)
    14a8:	07c2                	slli	a5,a5,0x10
    14aa:	83c1                	srli	a5,a5,0x10
C:/Users/22127/Desktop/Car_light/Libraries/Device/CH32V10x_p/CH32V10x_Lib/ch32v10x_tim.c:1023
  tmpccmr2 &= (uint16_t)~((uint16_t)TIM_OC3PE);
    14ac:	9bdd                	andi	a5,a5,-9
C:/Users/22127/Desktop/Car_light/Libraries/Device/CH32V10x_p/CH32V10x_Lib/ch32v10x_tim.c:1024
  tmpccmr2 |= TIM_OCPreload;
    14ae:	8ddd                	or	a1,a1,a5
C:/Users/22127/Desktop/Car_light/Libraries/Device/CH32V10x_p/CH32V10x_Lib/ch32v10x_tim.c:1025
  TIMx->CHCTLR2 = tmpccmr2;
    14b0:	00b51e23          	sh	a1,28(a0)
C:/Users/22127/Desktop/Car_light/Libraries/Device/CH32V10x_p/CH32V10x_Lib/ch32v10x_tim.c:1026
}
    14b4:	8082                	ret

000014b6 <TIM_OC4PreloadConfig>:
TIM_OC4PreloadConfig():
C:/Users/22127/Desktop/Car_light/Libraries/Device/CH32V10x_p/CH32V10x_Lib/ch32v10x_tim.c:1041
*******************************************************************************/
void TIM_OC4PreloadConfig(TIM_TypeDef* TIMx, uint16_t TIM_OCPreload)
{
  uint16_t tmpccmr2 = 0;

  tmpccmr2 = TIMx->CHCTLR2;
    14b6:	01c55703          	lhu	a4,28(a0)
C:/Users/22127/Desktop/Car_light/Libraries/Device/CH32V10x_p/CH32V10x_Lib/ch32v10x_tim.c:1042
  tmpccmr2 &= (uint16_t)~((uint16_t)TIM_OC4PE);
    14ba:	77fd                	lui	a5,0xfffff
    14bc:	7ff78793          	addi	a5,a5,2047 # fffff7ff <_eusrstack+0xdfffa7ff>
    14c0:	8ff9                	and	a5,a5,a4
C:/Users/22127/Desktop/Car_light/Libraries/Device/CH32V10x_p/CH32V10x_Lib/ch32v10x_tim.c:1043
  tmpccmr2 |= (uint16_t)(TIM_OCPreload << 8);
    14c2:	05a2                	slli	a1,a1,0x8
    14c4:	8fcd                	or	a5,a5,a1
    14c6:	07c2                	slli	a5,a5,0x10
    14c8:	83c1                	srli	a5,a5,0x10
C:/Users/22127/Desktop/Car_light/Libraries/Device/CH32V10x_p/CH32V10x_Lib/ch32v10x_tim.c:1044
  TIMx->CHCTLR2 = tmpccmr2;
    14ca:	00f51e23          	sh	a5,28(a0)
C:/Users/22127/Desktop/Car_light/Libraries/Device/CH32V10x_p/CH32V10x_Lib/ch32v10x_tim.c:1045
}
    14ce:	8082                	ret

000014d0 <TIM_OC2PolarityConfig>:
TIM_OC2PolarityConfig():
C:/Users/22127/Desktop/Car_light/Libraries/Device/CH32V10x_p/CH32V10x_Lib/ch32v10x_tim.c:1250
*******************************************************************************/
void TIM_OC2PolarityConfig(TIM_TypeDef* TIMx, uint16_t TIM_OCPolarity)
{
  uint16_t tmpccer = 0;

  tmpccer = TIMx->CCER;
    14d0:	02055783          	lhu	a5,32(a0)
C:/Users/22127/Desktop/Car_light/Libraries/Device/CH32V10x_p/CH32V10x_Lib/ch32v10x_tim.c:1252
  tmpccer &= (uint16_t)~((uint16_t)TIM_CC2P);
  tmpccer |= (uint16_t)(TIM_OCPolarity << 4);
    14d4:	0592                	slli	a1,a1,0x4
C:/Users/22127/Desktop/Car_light/Libraries/Device/CH32V10x_p/CH32V10x_Lib/ch32v10x_tim.c:1250
  tmpccer = TIMx->CCER;
    14d6:	07c2                	slli	a5,a5,0x10
    14d8:	83c1                	srli	a5,a5,0x10
C:/Users/22127/Desktop/Car_light/Libraries/Device/CH32V10x_p/CH32V10x_Lib/ch32v10x_tim.c:1251
  tmpccer &= (uint16_t)~((uint16_t)TIM_CC2P);
    14da:	fdf7f793          	andi	a5,a5,-33
C:/Users/22127/Desktop/Car_light/Libraries/Device/CH32V10x_p/CH32V10x_Lib/ch32v10x_tim.c:1252
  tmpccer |= (uint16_t)(TIM_OCPolarity << 4);
    14de:	8fcd                	or	a5,a5,a1
    14e0:	07c2                	slli	a5,a5,0x10
    14e2:	83c1                	srli	a5,a5,0x10
C:/Users/22127/Desktop/Car_light/Libraries/Device/CH32V10x_p/CH32V10x_Lib/ch32v10x_tim.c:1253
  TIMx->CCER = tmpccer;
    14e4:	02f51023          	sh	a5,32(a0)
C:/Users/22127/Desktop/Car_light/Libraries/Device/CH32V10x_p/CH32V10x_Lib/ch32v10x_tim.c:1254
}
    14e8:	8082                	ret

000014ea <TIM_SetCounter>:
TIM_SetCounter():
C:/Users/22127/Desktop/Car_light/Libraries/Device/CH32V10x_p/CH32V10x_Lib/ch32v10x_tim.c:1565
*                  Counter: specifies the Counter register new value.
* Return         : None
*******************************************************************************/
void TIM_SetCounter(TIM_TypeDef* TIMx, uint16_t Counter)
{
  TIMx->CNT = Counter;
    14ea:	02b51223          	sh	a1,36(a0)
C:/Users/22127/Desktop/Car_light/Libraries/Device/CH32V10x_p/CH32V10x_Lib/ch32v10x_tim.c:1566
}
    14ee:	8082                	ret

000014f0 <TIM_GetFlagStatus>:
TIM_GetFlagStatus():
C:/Users/22127/Desktop/Car_light/Libraries/Device/CH32V10x_p/CH32V10x_Lib/ch32v10x_tim.c:1801
*******************************************************************************/
FlagStatus TIM_GetFlagStatus(TIM_TypeDef* TIMx, uint16_t TIM_FLAG)
{ 
  ITStatus bitstatus = RESET;  
  
  if ((TIMx->INTFR & TIM_FLAG) != (uint16_t)RESET)
    14f0:	01055503          	lhu	a0,16(a0)
    14f4:	8d6d                	and	a0,a0,a1
C:/Users/22127/Desktop/Car_light/Libraries/Device/CH32V10x_p/CH32V10x_Lib/ch32v10x_tim.c:1811
  {
    bitstatus = RESET;
  }
	
  return bitstatus;
}
    14f6:	00a03533          	snez	a0,a0
    14fa:	8082                	ret

000014fc <TIM_ClearFlag>:
TIM_ClearFlag():
C:/Users/22127/Desktop/Car_light/Libraries/Device/CH32V10x_p/CH32V10x_Lib/ch32v10x_tim.c:1834
*                    TIM_FLAG_CC4OF: TIM Capture Compare 4 overcapture Flag.
* Return         : None
*******************************************************************************/
void TIM_ClearFlag(TIM_TypeDef* TIMx, uint16_t TIM_FLAG)
{  
  TIMx->INTFR = (uint16_t)~TIM_FLAG;
    14fc:	fff5c593          	not	a1,a1
    1500:	05c2                	slli	a1,a1,0x10
    1502:	81c1                	srli	a1,a1,0x10
    1504:	00b51823          	sh	a1,16(a0)
C:/Users/22127/Desktop/Car_light/Libraries/Device/CH32V10x_p/CH32V10x_Lib/ch32v10x_tim.c:1835
}
    1508:	8082                	ret

0000150a <TIM_GetITStatus>:
TIM_GetITStatus():
C:/Users/22127/Desktop/Car_light/Libraries/Device/CH32V10x_p/CH32V10x_Lib/ch32v10x_tim.c:1857
ITStatus TIM_GetITStatus(TIM_TypeDef* TIMx, uint16_t TIM_IT)
{
  ITStatus bitstatus = RESET;  
  uint16_t itstatus = 0x0, itenable = 0x0;
   
  itstatus = TIMx->INTFR & TIM_IT;
    150a:	01055783          	lhu	a5,16(a0)
C:/Users/22127/Desktop/Car_light/Libraries/Device/CH32V10x_p/CH32V10x_Lib/ch32v10x_tim.c:1859
  
  itenable = TIMx->DMAINTENR & TIM_IT;
    150e:	00c55503          	lhu	a0,12(a0)
C:/Users/22127/Desktop/Car_light/Libraries/Device/CH32V10x_p/CH32V10x_Lib/ch32v10x_tim.c:1860
  if ((itstatus != (uint16_t)RESET) && (itenable != (uint16_t)RESET))
    1512:	8fed                	and	a5,a5,a1
C:/Users/22127/Desktop/Car_light/Libraries/Device/CH32V10x_p/CH32V10x_Lib/ch32v10x_tim.c:1859
  itenable = TIMx->DMAINTENR & TIM_IT;
    1514:	0542                	slli	a0,a0,0x10
    1516:	8141                	srli	a0,a0,0x10
C:/Users/22127/Desktop/Car_light/Libraries/Device/CH32V10x_p/CH32V10x_Lib/ch32v10x_tim.c:1860
  if ((itstatus != (uint16_t)RESET) && (itenable != (uint16_t)RESET))
    1518:	c789                	beqz	a5,1522 <TIM_GetITStatus+0x18>
C:/Users/22127/Desktop/Car_light/Libraries/Device/CH32V10x_p/CH32V10x_Lib/ch32v10x_tim.c:1860 (discriminator 1)
    151a:	8d6d                	and	a0,a0,a1
    151c:	00a03533          	snez	a0,a0
    1520:	8082                	ret
C:/Users/22127/Desktop/Car_light/Libraries/Device/CH32V10x_p/CH32V10x_Lib/ch32v10x_tim.c:1866
  {
    bitstatus = SET;
  }
  else
  {
    bitstatus = RESET;
    1522:	4501                	li	a0,0
C:/Users/22127/Desktop/Car_light/Libraries/Device/CH32V10x_p/CH32V10x_Lib/ch32v10x_tim.c:1870
  }
	
  return bitstatus;
}
    1524:	8082                	ret

00001526 <TIM_ClearITPendingBit>:
TIM_ClearITPendingBit():
    1526:	fff5c593          	not	a1,a1
    152a:	05c2                	slli	a1,a1,0x10
    152c:	81c1                	srli	a1,a1,0x10
    152e:	00b51823          	sh	a1,16(a0)
    1532:	8082                	ret

00001534 <USART_Init>:
USART_Init():
C:/Users/22127/Desktop/Car_light/Libraries/Device/CH32V10x_p/CH32V10x_Lib/ch32v10x_usart.c:117
  if (USART_InitStruct->USART_HardwareFlowControl != USART_HardwareFlowControl_None)
  {
  }

  usartxbase = (uint32_t)USARTx;
  tmpreg = USARTx->CTLR2;
    1534:	01055683          	lhu	a3,16(a0)
    1538:	77f5                	lui	a5,0xffffd
    153a:	17fd                	addi	a5,a5,-1
    153c:	8ff5                	and	a5,a5,a3
    153e:	0065d683          	lhu	a3,6(a1)
C:/Users/22127/Desktop/Car_light/Libraries/Device/CH32V10x_p/CH32V10x_Lib/ch32v10x_usart.c:105
{
    1542:	7139                	addi	sp,sp,-64
    1544:	dc22                	sw	s0,56(sp)
    1546:	de06                	sw	ra,60(sp)
    1548:	8fd5                	or	a5,a5,a3
C:/Users/22127/Desktop/Car_light/Libraries/Device/CH32V10x_p/CH32V10x_Lib/ch32v10x_usart.c:112
  if (USART_InitStruct->USART_HardwareFlowControl != USART_HardwareFlowControl_None)
    154a:	00c5d703          	lhu	a4,12(a1)
C:/Users/22127/Desktop/Car_light/Libraries/Device/CH32V10x_p/CH32V10x_Lib/ch32v10x_usart.c:121
  tmpreg &= CTLR2_STOP_CLEAR_Mask;
  tmpreg |= (uint32_t)USART_InitStruct->USART_StopBits;  
	
  USARTx->CTLR2 = (uint16_t)tmpreg;
    154e:	00f51823          	sh	a5,16(a0)
C:/Users/22127/Desktop/Car_light/Libraries/Device/CH32V10x_p/CH32V10x_Lib/ch32v10x_usart.c:122
  tmpreg = USARTx->CTLR1;
    1552:	00c55683          	lhu	a3,12(a0)
C:/Users/22127/Desktop/Car_light/Libraries/Device/CH32V10x_p/CH32V10x_Lib/ch32v10x_usart.c:124
  tmpreg &= CTLR1_CLEAR_Mask;
  tmpreg |= (uint32_t)USART_InitStruct->USART_WordLength | USART_InitStruct->USART_Parity |
    1556:	77fd                	lui	a5,0xfffff
    1558:	9f378793          	addi	a5,a5,-1549 # ffffe9f3 <_eusrstack+0xdfff99f3>
    155c:	8ff5                	and	a5,a5,a3
    155e:	0045d683          	lhu	a3,4(a1)
C:/Users/22127/Desktop/Car_light/Libraries/Device/CH32V10x_p/CH32V10x_Lib/ch32v10x_usart.c:105
{
    1562:	842a                	mv	s0,a0
    1564:	c62e                	sw	a1,12(sp)
    1566:	8fd5                	or	a5,a5,a3
    1568:	0085d683          	lhu	a3,8(a1)
    156c:	8fd5                	or	a5,a5,a3
    156e:	00a5d683          	lhu	a3,10(a1)
    1572:	8fd5                	or	a5,a5,a3
C:/Users/22127/Desktop/Car_light/Libraries/Device/CH32V10x_p/CH32V10x_Lib/ch32v10x_usart.c:126
            USART_InitStruct->USART_Mode;
  USARTx->CTLR1 = (uint16_t)tmpreg;
    1574:	00f51623          	sh	a5,12(a0)
C:/Users/22127/Desktop/Car_light/Libraries/Device/CH32V10x_p/CH32V10x_Lib/ch32v10x_usart.c:128
 
  tmpreg = USARTx->CTLR3;
    1578:	01455783          	lhu	a5,20(a0)
    157c:	07c2                	slli	a5,a5,0x10
    157e:	83c1                	srli	a5,a5,0x10
C:/Users/22127/Desktop/Car_light/Libraries/Device/CH32V10x_p/CH32V10x_Lib/ch32v10x_usart.c:130
  tmpreg &= CTLR3_CLEAR_Mask;
  tmpreg |= USART_InitStruct->USART_HardwareFlowControl;
    1580:	cff7f793          	andi	a5,a5,-769
    1584:	8fd9                	or	a5,a5,a4
C:/Users/22127/Desktop/Car_light/Libraries/Device/CH32V10x_p/CH32V10x_Lib/ch32v10x_usart.c:131
  USARTx->CTLR3 = (uint16_t)tmpreg;
    1586:	00f51a23          	sh	a5,20(a0)
C:/Users/22127/Desktop/Car_light/Libraries/Device/CH32V10x_p/CH32V10x_Lib/ch32v10x_usart.c:133

  RCC_GetClocksFreq(&RCC_ClocksStatus);
    158a:	0868                	addi	a0,sp,28
    158c:	34dd                	jal	1072 <RCC_GetClocksFreq>
C:/Users/22127/Desktop/Car_light/Libraries/Device/CH32V10x_p/CH32V10x_Lib/ch32v10x_usart.c:135
	
  if (usartxbase == USART1_BASE)
    158e:	400147b7          	lui	a5,0x40014
    1592:	80078793          	addi	a5,a5,-2048 # 40013800 <_eusrstack+0x2000e800>
    1596:	45b2                	lw	a1,12(sp)
    1598:	04f41e63          	bne	s0,a5,15f4 <USART_Init+0xc0>
C:/Users/22127/Desktop/Car_light/Libraries/Device/CH32V10x_p/CH32V10x_Lib/ch32v10x_usart.c:137
  {
    apbclock = RCC_ClocksStatus.PCLK2_Frequency;
    159c:	57a2                	lw	a5,40(sp)
C:/Users/22127/Desktop/Car_light/Libraries/Device/CH32V10x_p/CH32V10x_Lib/ch32v10x_usart.c:144
  else
  {
    apbclock = RCC_ClocksStatus.PCLK1_Frequency;
  }
  
  if ((USARTx->CTLR1 & CTLR1_OVER8_Set) != 0)
    159e:	00c45683          	lhu	a3,12(s0)
    15a2:	4765                	li	a4,25
    15a4:	02e787b3          	mul	a5,a5,a4
    15a8:	06c2                	slli	a3,a3,0x10
    15aa:	86c1                	srai	a3,a3,0x10
    15ac:	4198                	lw	a4,0(a1)
    15ae:	0406d563          	bgez	a3,15f8 <USART_Init+0xc4>
C:/Users/22127/Desktop/Car_light/Libraries/Device/CH32V10x_p/CH32V10x_Lib/ch32v10x_usart.c:146
  {
    integerdivider = ((25 * apbclock) / (2 * (USART_InitStruct->USART_BaudRate)));    
    15b2:	0706                	slli	a4,a4,0x1
C:/Users/22127/Desktop/Car_light/Libraries/Device/CH32V10x_p/CH32V10x_Lib/ch32v10x_usart.c:156
  }
  tmpreg = (integerdivider / 100) << 4;

  fractionaldivider = integerdivider - (100 * (tmpreg >> 4));

  if ((USARTx->CTLR1 & CTLR1_OVER8_Set) != 0)
    15b4:	00c45603          	lhu	a2,12(s0)
    15b8:	0642                	slli	a2,a2,0x10
C:/Users/22127/Desktop/Car_light/Libraries/Device/CH32V10x_p/CH32V10x_Lib/ch32v10x_usart.c:150
    integerdivider = ((25 * apbclock) / (4 * (USART_InitStruct->USART_BaudRate)));    
    15ba:	02e7d7b3          	divu	a5,a5,a4
C:/Users/22127/Desktop/Car_light/Libraries/Device/CH32V10x_p/CH32V10x_Lib/ch32v10x_usart.c:152
  tmpreg = (integerdivider / 100) << 4;
    15be:	06400713          	li	a4,100
C:/Users/22127/Desktop/Car_light/Libraries/Device/CH32V10x_p/CH32V10x_Lib/ch32v10x_usart.c:156
  if ((USARTx->CTLR1 & CTLR1_OVER8_Set) != 0)
    15c2:	8641                	srai	a2,a2,0x10
C:/Users/22127/Desktop/Car_light/Libraries/Device/CH32V10x_p/CH32V10x_Lib/ch32v10x_usart.c:152
  tmpreg = (integerdivider / 100) << 4;
    15c4:	02e7d6b3          	divu	a3,a5,a4
    15c8:	02e7f7b3          	remu	a5,a5,a4
    15cc:	0692                	slli	a3,a3,0x4
C:/Users/22127/Desktop/Car_light/Libraries/Device/CH32V10x_p/CH32V10x_Lib/ch32v10x_usart.c:156
  if ((USARTx->CTLR1 & CTLR1_OVER8_Set) != 0)
    15ce:	02065763          	bgez	a2,15fc <USART_Init+0xc8>
C:/Users/22127/Desktop/Car_light/Libraries/Device/CH32V10x_p/CH32V10x_Lib/ch32v10x_usart.c:158
  {
    tmpreg |= ((((fractionaldivider * 8) + 50) / 100)) & ((uint8_t)0x07);
    15d2:	078e                	slli	a5,a5,0x3
    15d4:	03278793          	addi	a5,a5,50
    15d8:	02e7d7b3          	divu	a5,a5,a4
    15dc:	0077f713          	andi	a4,a5,7
    15e0:	00d767b3          	or	a5,a4,a3
C:/Users/22127/Desktop/Car_light/Libraries/Device/CH32V10x_p/CH32V10x_Lib/ch32v10x_usart.c:165
  else 
  {
    tmpreg |= ((((fractionaldivider * 16) + 50) / 100)) & ((uint8_t)0x0F);
  }
  
  USARTx->BRR = (uint16_t)tmpreg;
    15e4:	07c2                	slli	a5,a5,0x10
    15e6:	83c1                	srli	a5,a5,0x10
    15e8:	00f41423          	sh	a5,8(s0)
C:/Users/22127/Desktop/Car_light/Libraries/Device/CH32V10x_p/CH32V10x_Lib/ch32v10x_usart.c:166
}
    15ec:	50f2                	lw	ra,60(sp)
    15ee:	5462                	lw	s0,56(sp)
    15f0:	6121                	addi	sp,sp,64
    15f2:	8082                	ret
C:/Users/22127/Desktop/Car_light/Libraries/Device/CH32V10x_p/CH32V10x_Lib/ch32v10x_usart.c:141
    apbclock = RCC_ClocksStatus.PCLK1_Frequency;
    15f4:	5792                	lw	a5,36(sp)
    15f6:	b765                	j	159e <USART_Init+0x6a>
C:/Users/22127/Desktop/Car_light/Libraries/Device/CH32V10x_p/CH32V10x_Lib/ch32v10x_usart.c:150
    integerdivider = ((25 * apbclock) / (4 * (USART_InitStruct->USART_BaudRate)));    
    15f8:	070a                	slli	a4,a4,0x2
    15fa:	bf6d                	j	15b4 <USART_Init+0x80>
C:/Users/22127/Desktop/Car_light/Libraries/Device/CH32V10x_p/CH32V10x_Lib/ch32v10x_usart.c:162
    tmpreg |= ((((fractionaldivider * 16) + 50) / 100)) & ((uint8_t)0x0F);
    15fc:	0792                	slli	a5,a5,0x4
    15fe:	03278793          	addi	a5,a5,50
    1602:	02e7d7b3          	divu	a5,a5,a4
    1606:	8bbd                	andi	a5,a5,15
    1608:	8fd5                	or	a5,a5,a3
    160a:	bfe9                	j	15e4 <USART_Init+0xb0>

0000160c <USART_Cmd>:
USART_Cmd():
C:/Users/22127/Desktop/Car_light/Libraries/Device/CH32V10x_p/CH32V10x_Lib/ch32v10x_usart.c:230
*                  NewState: ENABLE or DISABLE.
* Return         : None
*******************************************************************************/
void USART_Cmd(USART_TypeDef* USARTx, FunctionalState NewState)
{
  if (NewState != DISABLE)
    160c:	c981                	beqz	a1,161c <USART_Cmd+0x10>
C:/Users/22127/Desktop/Car_light/Libraries/Device/CH32V10x_p/CH32V10x_Lib/ch32v10x_usart.c:232
  {
    USARTx->CTLR1 |= CTLR1_UE_Set;
    160e:	00c55783          	lhu	a5,12(a0)
    1612:	6709                	lui	a4,0x2
    1614:	8fd9                	or	a5,a5,a4
C:/Users/22127/Desktop/Car_light/Libraries/Device/CH32V10x_p/CH32V10x_Lib/ch32v10x_usart.c:236
  }
  else
  {
    USARTx->CTLR1 &= CTLR1_UE_Reset;
    1616:	00f51623          	sh	a5,12(a0)
C:/Users/22127/Desktop/Car_light/Libraries/Device/CH32V10x_p/CH32V10x_Lib/ch32v10x_usart.c:238
  }
}
    161a:	8082                	ret
C:/Users/22127/Desktop/Car_light/Libraries/Device/CH32V10x_p/CH32V10x_Lib/ch32v10x_usart.c:236
    USARTx->CTLR1 &= CTLR1_UE_Reset;
    161c:	00c55703          	lhu	a4,12(a0)
    1620:	77f9                	lui	a5,0xffffe
    1622:	17fd                	addi	a5,a5,-1
    1624:	8ff9                	and	a5,a5,a4
    1626:	bfc5                	j	1616 <USART_Cmd+0xa>

00001628 <USART_GetITStatus>:
USART_GetITStatus():
C:/Users/22127/Desktop/Car_light/Libraries/Device/CH32V10x_p/CH32V10x_Lib/ch32v10x_usart.c:668

  if (USART_IT == USART_IT_CTS)
  {
  }   
  
  usartreg = (((uint8_t)USART_IT) >> 0x05);
    1628:	0ff5f713          	andi	a4,a1,255
C:/Users/22127/Desktop/Car_light/Libraries/Device/CH32V10x_p/CH32V10x_Lib/ch32v10x_usart.c:670
  itmask = USART_IT & IT_Mask;
  itmask = (uint32_t)0x01 << itmask;
    162c:	4685                	li	a3,1
C:/Users/22127/Desktop/Car_light/Libraries/Device/CH32V10x_p/CH32V10x_Lib/ch32v10x_usart.c:668
  usartreg = (((uint8_t)USART_IT) >> 0x05);
    162e:	8315                	srli	a4,a4,0x5
C:/Users/22127/Desktop/Car_light/Libraries/Device/CH32V10x_p/CH32V10x_Lib/ch32v10x_usart.c:670
  itmask = (uint32_t)0x01 << itmask;
    1630:	00b697b3          	sll	a5,a3,a1
C:/Users/22127/Desktop/Car_light/Libraries/Device/CH32V10x_p/CH32V10x_Lib/ch32v10x_usart.c:672
  
  if (usartreg == 0x01) 
    1634:	02d71363          	bne	a4,a3,165a <USART_GetITStatus+0x32>
C:/Users/22127/Desktop/Car_light/Libraries/Device/CH32V10x_p/CH32V10x_Lib/ch32v10x_usart.c:674
  {
    itmask &= USARTx->CTLR1;
    1638:	00c55703          	lhu	a4,12(a0)
C:/Users/22127/Desktop/Car_light/Libraries/Device/CH32V10x_p/CH32V10x_Lib/ch32v10x_usart.c:682
  {
    itmask &= USARTx->CTLR2;
  }
  else 
  {
    itmask &= USARTx->CTLR3;
    163c:	8ff9                	and	a5,a5,a4
C:/Users/22127/Desktop/Car_light/Libraries/Device/CH32V10x_p/CH32V10x_Lib/ch32v10x_usart.c:687
  }
  
  bitpos = USART_IT >> 0x08;
  bitpos = (uint32_t)0x01 << bitpos;
  bitpos &= USARTx->STATR;
    163e:	00055703          	lhu	a4,0(a0)
C:/Users/22127/Desktop/Car_light/Libraries/Device/CH32V10x_p/CH32V10x_Lib/ch32v10x_usart.c:695
  {
    bitstatus = SET;
  }
  else
  {
    bitstatus = RESET;
    1642:	4501                	li	a0,0
C:/Users/22127/Desktop/Car_light/Libraries/Device/CH32V10x_p/CH32V10x_Lib/ch32v10x_usart.c:687
  bitpos &= USARTx->STATR;
    1644:	0742                	slli	a4,a4,0x10
    1646:	8341                	srli	a4,a4,0x10
C:/Users/22127/Desktop/Car_light/Libraries/Device/CH32V10x_p/CH32V10x_Lib/ch32v10x_usart.c:689
  if ((itmask != (uint16_t)RESET)&&(bitpos != (uint16_t)RESET))
    1648:	cb81                	beqz	a5,1658 <USART_GetITStatus+0x30>
C:/Users/22127/Desktop/Car_light/Libraries/Device/CH32V10x_p/CH32V10x_Lib/ch32v10x_usart.c:686 (discriminator 1)
  bitpos = (uint32_t)0x01 << bitpos;
    164a:	4505                	li	a0,1
C:/Users/22127/Desktop/Car_light/Libraries/Device/CH32V10x_p/CH32V10x_Lib/ch32v10x_usart.c:685 (discriminator 1)
  bitpos = USART_IT >> 0x08;
    164c:	81a1                	srli	a1,a1,0x8
C:/Users/22127/Desktop/Car_light/Libraries/Device/CH32V10x_p/CH32V10x_Lib/ch32v10x_usart.c:686 (discriminator 1)
  bitpos = (uint32_t)0x01 << bitpos;
    164e:	00b515b3          	sll	a1,a0,a1
C:/Users/22127/Desktop/Car_light/Libraries/Device/CH32V10x_p/CH32V10x_Lib/ch32v10x_usart.c:687 (discriminator 1)
  bitpos &= USARTx->STATR;
    1652:	8f6d                	and	a4,a4,a1
C:/Users/22127/Desktop/Car_light/Libraries/Device/CH32V10x_p/CH32V10x_Lib/ch32v10x_usart.c:689 (discriminator 1)
  if ((itmask != (uint16_t)RESET)&&(bitpos != (uint16_t)RESET))
    1654:	00e03533          	snez	a0,a4
C:/Users/22127/Desktop/Car_light/Libraries/Device/CH32V10x_p/CH32V10x_Lib/ch32v10x_usart.c:699
  }
  
  return bitstatus;  
}
    1658:	8082                	ret
C:/Users/22127/Desktop/Car_light/Libraries/Device/CH32V10x_p/CH32V10x_Lib/ch32v10x_usart.c:676
  else if (usartreg == 0x02) 
    165a:	4689                	li	a3,2
    165c:	00d71563          	bne	a4,a3,1666 <USART_GetITStatus+0x3e>
C:/Users/22127/Desktop/Car_light/Libraries/Device/CH32V10x_p/CH32V10x_Lib/ch32v10x_usart.c:678
    itmask &= USARTx->CTLR2;
    1660:	01055703          	lhu	a4,16(a0)
    1664:	bfe1                	j	163c <USART_GetITStatus+0x14>
C:/Users/22127/Desktop/Car_light/Libraries/Device/CH32V10x_p/CH32V10x_Lib/ch32v10x_usart.c:682
    itmask &= USARTx->CTLR3;
    1666:	01455703          	lhu	a4,20(a0)
    166a:	bfc9                	j	163c <USART_GetITStatus+0x14>

0000166c <USART_ClearITPendingBit>:
USART_ClearITPendingBit():
C:/Users/22127/Desktop/Car_light/Libraries/Device/CH32V10x_p/CH32V10x_Lib/ch32v10x_usart.c:721
  if (USART_IT == USART_IT_CTS)
  {
  }   
  
  bitpos = USART_IT >> 0x08;
  itmask = ((uint16_t)0x01 << (uint16_t)bitpos);
    166c:	81a1                	srli	a1,a1,0x8
    166e:	4785                	li	a5,1
    1670:	00b797b3          	sll	a5,a5,a1
C:/Users/22127/Desktop/Car_light/Libraries/Device/CH32V10x_p/CH32V10x_Lib/ch32v10x_usart.c:722
  USARTx->STATR = (uint16_t)~itmask;
    1674:	fff7c793          	not	a5,a5
    1678:	07c2                	slli	a5,a5,0x10
    167a:	83c1                	srli	a5,a5,0x10
    167c:	00f51023          	sh	a5,0(a0)
C:/Users/22127/Desktop/Car_light/Libraries/Device/CH32V10x_p/CH32V10x_Lib/ch32v10x_usart.c:723
}
    1680:	8082                	ret
	...

00001684 <GPION>:
    1684:	0800 4001 0c00 4001 1000 4001 1400 4001     ...@...@...@...@

00001694 <TIMERN>:
    1694:	2c00 4001 0000 4000 0400 4000 0800 4000     .,.@...@...@...@

000016a4 <UARTN>:
    16a4:	3800 4001 4400 4000 4800 4000 4c00 4000     .8.@.D.@.H.@.L.@
